ARM GAS  C:\Users\Geo\AppData\Local\Temp\cc1M6WEk.s 			page 1


   1              		.syntax unified
   2              		.cpu cortex-m3
   3              		.fpu softvfp
   4              		.eabi_attribute 20, 1
   5              		.eabi_attribute 21, 1
   6              		.eabi_attribute 23, 3
   7              		.eabi_attribute 24, 1
   8              		.eabi_attribute 25, 1
   9              		.eabi_attribute 26, 1
  10              		.eabi_attribute 30, 6
  11              		.eabi_attribute 18, 4
  12              		.thumb
  13              		.file	"Adc.c"
  20 0000 B1010000 		.text
  20      02001801 
  20      00000201 
  20      FB0E0D00 
  20      01010101 
  21              	.Ltext0:
  22              		.cfi_sections	.debug_frame
  23              		.bss
  24              		.align	3
  25              	_battVoltage:
  26 0000 00000000 		.space	8
  26      00000000 
  27              		.align	3
  28              	_throttleVoltage:
  29 0008 00000000 		.space	8
  29      00000000 
  30              	_enableThrottleVoltMeasFlag:
  31 0010 00       		.space	1
  32              		.section	.rodata
  33              		.align	2
  34              	.LC0:
  35 0000 4144433A 		.ascii	"ADC: Entering idle state.\015\012\000"
  35      20456E74 
  35      6572696E 
  35      67206964 
  35      6C652073 
  36              		.align	2
  37              	.LC1:
  38 001c 4144433A 		.ascii	"ADC: Entering adcGetBattVolt state.\015\012\000"
  38      20456E74 
  38      6572696E 
  38      67206164 
  38      63476574 
  39 0042 0000     		.align	2
  40              	.LC2:
  41 0044 4144433A 		.ascii	"ADC: Adc voltage = %u\015\012\000"
  41      20416463 
  41      20766F6C 
ARM GAS  C:\Users\Geo\AppData\Local\Temp\cc1M6WEk.s 			page 2


  41      74616765 
  41      203D2025 
  42              		.global	__aeabi_ui2d
  43              		.global	__aeabi_dmul
  44              		.global	__aeabi_dsub
  45              		.align	2
  46              	.LC3:
  47 005c 4144433A 		.ascii	"ADC: Batt voltage = %f\015\012\000"
  47      20426174 
  47      7420766F 
  47      6C746167 
  47      65203D20 
  48 0075 000000   		.align	2
  49              	.LC4:
  50 0078 4144433A 		.ascii	"ADC: Entering adcGetThrottleVolt state.\015\012\000"
  50      20456E74 
  50      6572696E 
  50      67206164 
  50      63476574 
  51 00a2 0000     		.align	2
  52              	.LC5:
  53 00a4 4144433A 		.ascii	"ADC: Throttle voltage = %f\015\012\000"
  53      20546872 
  53      6F74746C 
  53      6520766F 
  53      6C746167 
  54 00c1 000000   		.section	.text.Adc_Run,"ax",%progbits
  55              		.align	2
  56              		.global	Adc_Run
  57              		.thumb
  58              		.thumb_func
  59              		.type	Adc_Run, %function
  60              	Adc_Run:
  61              	.LFB29:
  62              		.file 1 ".\\Adc.c"
   1:.\Adc.c       **** //!
   2:.\Adc.c       **** //! @file 		Adc.c
   3:.\Adc.c       **** //! @author 	Geoffrey Hunter (gbmhunter@gmail.com)
   4:.\Adc.c       **** //! @date 		14/05/2011
   5:.\Adc.c       **** //! @brief 		Driver file for the ADC.
   6:.\Adc.c       **** //! @details
   7:.\Adc.c       **** //!		<b>Last Modified:			</b> 12/06/2011								\n
   8:.\Adc.c       **** //!		<b>Version:					</b> v1.0									\n
   9:.\Adc.c       **** //!		<b>Company:					</b> CladLabs								\n
  10:.\Adc.c       **** //!		<b>Project:					</b> Electric Skateboard - Skateboard Remote\n
  11:.\Adc.c       **** //!		<b>Computer Architecture:	</b> ARM									\n
  12:.\Adc.c       **** //!		<b>Compiler:				</b> GCC									\n
  13:.\Adc.c       **** //! 	<b>uC Model:				</b> PSoC5									\n
  14:.\Adc.c       **** //!		<b>Documentation Format:	</b> Doxygen								\n
  15:.\Adc.c       **** //!		
  16:.\Adc.c       **** //!		Initializes and receives values from the ADC, as well as controlling the adc input mux
  17:.\Adc.c       **** //!
  18:.\Adc.c       **** 
  19:.\Adc.c       **** //=================================================================================================
  20:.\Adc.c       **** //============================================ INFO ===============================================
  21:.\Adc.c       **** //=================================================================================================
  22:.\Adc.c       **** 
ARM GAS  C:\Users\Geo\AppData\Local\Temp\cc1M6WEk.s 			page 3


  23:.\Adc.c       **** //=================================================================================================
  24:.\Adc.c       **** //======================================= FILE INCLUSIONS =========================================
  25:.\Adc.c       **** //=================================================================================================
  26:.\Adc.c       **** 
  27:.\Adc.c       **** #include <device.h>
  28:.\Adc.c       **** #include <stdio.h>
  29:.\Adc.c       **** 
  30:.\Adc.c       **** #include "../common/PublicObjects.h"
  31:.\Adc.c       **** #include "Config.h"
  32:.\Adc.c       **** #include "Adc.h"
  33:.\Adc.c       **** 
  34:.\Adc.c       **** typedef enum
  35:.\Adc.c       **** {
  36:.\Adc.c       **** 	adcInit,
  37:.\Adc.c       **** 	adcIdle,
  38:.\Adc.c       **** 	adcGetBattVolt,
  39:.\Adc.c       **** 	adcGetThrottleVolt
  40:.\Adc.c       **** } adcStates_t;										//!< States for the adc state machine
  41:.\Adc.c       **** 
  42:.\Adc.c       **** static double _battVoltage = 0;						//!< Stores the calcultaed battery voltage
  43:.\Adc.c       **** static double _throttleVoltage = 0;					//!< Stores the calculated thorttle voltage
  44:.\Adc.c       **** static bool_t _enableThrottleVoltMeasFlag = FALSE;	//!< Flag indicated wether the throttle voltage 
  45:.\Adc.c       **** 
  46:.\Adc.c       **** //! @brief		Main ADC state machine, call every main state tick
  47:.\Adc.c       **** void Adc_Run(void)
  48:.\Adc.c       **** {
  63              		.loc 1 48 0
  64              		.cfi_startproc
  65              		@ args = 0, pretend = 0, frame = 128
  66              		@ frame_needed = 1, uses_anonymous_args = 0
  67 0000 80B5     		push	{r7, lr}
  68              	.LCFI0:
  69              		.cfi_def_cfa_offset 8
  70 0002 A2B0     		sub	sp, sp, #136
  71              	.LCFI1:
  72              		.cfi_def_cfa_offset 144
  73 0004 02AF     		add	r7, sp, #8
  74              		.cfi_offset 14, -4
  75              		.cfi_offset 7, -8
  76              	.LCFI2:
  77              		.cfi_def_cfa 7, 136
  49:.\Adc.c       **** 	static uint32_t stateCounter = 0;				//!< Increments by one every time Adc_Run() is called
  50:.\Adc.c       **** 	
  51:.\Adc.c       **** 	static uint32_t lastBattVoltMeasureCount = 0;			//!< Remembers the last time the battery voltage w
  52:.\Adc.c       **** 	static uint32_t lastThrottleVoltMeasureCount = 0;		//!< Remembers the last time the throttle volta
  53:.\Adc.c       **** 	
  54:.\Adc.c       **** 	static uint32_t battVoltMeasurePeriod = (uint32_t)configBATT_MEASURE_PERIOD_MS/configMAIN_TICK_PER
  55:.\Adc.c       **** 	static uint32_t throttleVoltMeasurePeriod = (uint32_t)configTHROTTLE_MEASURE_PERIOD_MS/configMAIN_
  56:.\Adc.c       **** 	
  57:.\Adc.c       **** 	static bool_t turnOn = TRUE;					//!< Intiates remote battrey voltage measurement at start-up
  58:.\Adc.c       **** 	
  59:.\Adc.c       **** 	static adcStates_t adcState = adcInit;			//!< Stores the current state
  60:.\Adc.c       **** 	static adcStates_t prevAdcState = adcInit;		//!< Remembers previous state for first-entry events
  61:.\Adc.c       **** 
  62:.\Adc.c       **** 	switch(adcState)
  78              		.loc 1 62 0
  79 0006 40F20003 		movw	r3, #:lower16:adcState.3739
ARM GAS  C:\Users\Geo\AppData\Local\Temp\cc1M6WEk.s 			page 4


  80 000a C0F20003 		movt	r3, #:upper16:adcState.3739
  81 000e 1B78     		ldrb	r3, [r3, #0]	@ zero_extendqisi2
  82 0010 032B     		cmp	r3, #3
  83 0012 00F2BC81 		bhi	.L2
  84 0016 01A2     		adr	r2, .L7
  85 0018 52F823F0 		ldr	pc, [r2, r3, lsl #2]
  86              		.align	2
  87              	.L7:
  88 001c 2D000000 		.word	.L3+1
  89 0020 45000000 		.word	.L4+1
  90 0024 21010000 		.word	.L5+1
  91 0028 6D020000 		.word	.L6+1
  92              	.L3:
  63:.\Adc.c       **** 	{
  64:.\Adc.c       **** 		case adcInit:
  65:.\Adc.c       **** 			// Power up the ADC and reset all states
  66:.\Adc.c       **** 			AdcSar_Start();
  93              		.loc 1 66 0
  94 002c FFF7FEFF 		bl	AdcSar_Start
  67:.\Adc.c       **** 			// Disconnect all channels from the mux
  68:.\Adc.c       **** 			AMuxAdc_Init();
  95              		.loc 1 68 0
  96 0030 FFF7FEFF 		bl	AMuxAdc_Init
  69:.\Adc.c       **** 			adcState = adcIdle;
  97              		.loc 1 69 0
  98 0034 40F20003 		movw	r3, #:lower16:adcState.3739
  99 0038 C0F20003 		movt	r3, #:upper16:adcState.3739
 100 003c 4FF00102 		mov	r2, #1
 101 0040 1A70     		strb	r2, [r3, #0]
  70:.\Adc.c       **** 			break;
 102              		.loc 1 70 0
 103 0042 A4E1     		b	.L2
 104              	.L4:
  71:.\Adc.c       **** 			
  72:.\Adc.c       **** 		case adcIdle:
  73:.\Adc.c       **** 			if(prevAdcState != adcState)
 105              		.loc 1 73 0
 106 0044 40F20003 		movw	r3, #:lower16:prevAdcState.3740
 107 0048 C0F20003 		movt	r3, #:upper16:prevAdcState.3740
 108 004c 1A78     		ldrb	r2, [r3, #0]	@ zero_extendqisi2
 109 004e 40F20003 		movw	r3, #:lower16:adcState.3739
 110 0052 C0F20003 		movt	r3, #:upper16:adcState.3739
 111 0056 1B78     		ldrb	r3, [r3, #0]	@ zero_extendqisi2
 112 0058 9A42     		cmp	r2, r3
 113 005a 0FD0     		beq	.L8
  74:.\Adc.c       **** 			{
  75:.\Adc.c       **** 				#if(config_DEBUG_ADC == 1) 
  76:.\Adc.c       **** 						UartDebug_PutString("ADC: Entering idle state.\r\n");
 114              		.loc 1 76 0
 115 005c 40F20000 		movw	r0, #:lower16:.LC0
 116 0060 C0F20000 		movt	r0, #:upper16:.LC0
 117 0064 FFF7FEFF 		bl	UartDebug_PutString
  77:.\Adc.c       **** 				#endif
  78:.\Adc.c       **** 				prevAdcState = adcState;
 118              		.loc 1 78 0
 119 0068 40F20003 		movw	r3, #:lower16:adcState.3739
 120 006c C0F20003 		movt	r3, #:upper16:adcState.3739
ARM GAS  C:\Users\Geo\AppData\Local\Temp\cc1M6WEk.s 			page 5


 121 0070 1A78     		ldrb	r2, [r3, #0]	@ zero_extendqisi2
 122 0072 40F20003 		movw	r3, #:lower16:prevAdcState.3740
 123 0076 C0F20003 		movt	r3, #:upper16:prevAdcState.3740
 124 007a 1A70     		strb	r2, [r3, #0]
 125              	.L8:
  79:.\Adc.c       **** 			}
  80:.\Adc.c       **** 			
  81:.\Adc.c       **** 			// Check if time to measure battery voltage
  82:.\Adc.c       **** 			if(stateCounter >= lastBattVoltMeasureCount + battVoltMeasurePeriod)
 126              		.loc 1 82 0
 127 007c 40F20003 		movw	r3, #:lower16:lastBattVoltMeasureCount.3734
 128 0080 C0F20003 		movt	r3, #:upper16:lastBattVoltMeasureCount.3734
 129 0084 1A68     		ldr	r2, [r3, #0]
 130 0086 40F20003 		movw	r3, #:lower16:battVoltMeasurePeriod.3736
 131 008a C0F20003 		movt	r3, #:upper16:battVoltMeasurePeriod.3736
 132 008e 1B68     		ldr	r3, [r3, #0]
 133 0090 1A44     		add	r2, r2, r3
 134 0092 40F20003 		movw	r3, #:lower16:stateCounter.3733
 135 0096 C0F20003 		movt	r3, #:upper16:stateCounter.3733
 136 009a 1B68     		ldr	r3, [r3, #0]
 137 009c 9A42     		cmp	r2, r3
 138 009e 07D8     		bhi	.L9
  83:.\Adc.c       **** 			{
  84:.\Adc.c       **** 				adcState = adcGetBattVolt;
 139              		.loc 1 84 0
 140 00a0 40F20003 		movw	r3, #:lower16:adcState.3739
 141 00a4 C0F20003 		movt	r3, #:upper16:adcState.3739
 142 00a8 4FF00202 		mov	r2, #2
 143 00ac 1A70     		strb	r2, [r3, #0]
  85:.\Adc.c       **** 				break;
 144              		.loc 1 85 0
 145 00ae 6EE1     		b	.L2
 146              	.L9:
  86:.\Adc.c       **** 			}
  87:.\Adc.c       **** 				
  88:.\Adc.c       **** 			// Make sure thorttle measuring is enabled, and then check if it is time to measure
  89:.\Adc.c       **** 			if(_enableThrottleVoltMeasFlag)
 147              		.loc 1 89 0
 148 00b0 40F20003 		movw	r3, #:lower16:_enableThrottleVoltMeasFlag
 149 00b4 C0F20003 		movt	r3, #:upper16:_enableThrottleVoltMeasFlag
 150 00b8 1B78     		ldrb	r3, [r3, #0]	@ zero_extendqisi2
 151 00ba 002B     		cmp	r3, #0
 152 00bc 19D0     		beq	.L10
  90:.\Adc.c       **** 			{
  91:.\Adc.c       **** 				if(stateCounter >= lastThrottleVoltMeasureCount + throttleVoltMeasurePeriod)
 153              		.loc 1 91 0
 154 00be 40F20003 		movw	r3, #:lower16:lastThrottleVoltMeasureCount.3735
 155 00c2 C0F20003 		movt	r3, #:upper16:lastThrottleVoltMeasureCount.3735
 156 00c6 1A68     		ldr	r2, [r3, #0]
 157 00c8 40F20003 		movw	r3, #:lower16:throttleVoltMeasurePeriod.3737
 158 00cc C0F20003 		movt	r3, #:upper16:throttleVoltMeasurePeriod.3737
 159 00d0 1B68     		ldr	r3, [r3, #0]
 160 00d2 1A44     		add	r2, r2, r3
 161 00d4 40F20003 		movw	r3, #:lower16:stateCounter.3733
 162 00d8 C0F20003 		movt	r3, #:upper16:stateCounter.3733
 163 00dc 1B68     		ldr	r3, [r3, #0]
 164 00de 9A42     		cmp	r2, r3
ARM GAS  C:\Users\Geo\AppData\Local\Temp\cc1M6WEk.s 			page 6


 165 00e0 07D8     		bhi	.L10
  92:.\Adc.c       **** 				{
  93:.\Adc.c       **** 					adcState = adcGetThrottleVolt;
 166              		.loc 1 93 0
 167 00e2 40F20003 		movw	r3, #:lower16:adcState.3739
 168 00e6 C0F20003 		movt	r3, #:upper16:adcState.3739
 169 00ea 4FF00302 		mov	r2, #3
 170 00ee 1A70     		strb	r2, [r3, #0]
  94:.\Adc.c       **** 					break;
 171              		.loc 1 94 0
 172 00f0 4DE1     		b	.L2
 173              	.L10:
  95:.\Adc.c       **** 				}
  96:.\Adc.c       **** 			}	
  97:.\Adc.c       **** 			
  98:.\Adc.c       **** 			// TRUE only the first time Adc_Run() is called
  99:.\Adc.c       **** 			if(turnOn)
 174              		.loc 1 99 0
 175 00f2 40F20003 		movw	r3, #:lower16:turnOn.3738
 176 00f6 C0F20003 		movt	r3, #:upper16:turnOn.3738
 177 00fa 1B78     		ldrb	r3, [r3, #0]	@ zero_extendqisi2
 178 00fc 002B     		cmp	r3, #0
 179 00fe 00F04381 		beq	.L16
 100:.\Adc.c       **** 			{
 101:.\Adc.c       **** 				adcState = adcGetBattVolt;
 180              		.loc 1 101 0
 181 0102 40F20003 		movw	r3, #:lower16:adcState.3739
 182 0106 C0F20003 		movt	r3, #:upper16:adcState.3739
 183 010a 4FF00202 		mov	r2, #2
 184 010e 1A70     		strb	r2, [r3, #0]
 102:.\Adc.c       **** 				turnOn = FALSE;
 185              		.loc 1 102 0
 186 0110 40F20003 		movw	r3, #:lower16:turnOn.3738
 187 0114 C0F20003 		movt	r3, #:upper16:turnOn.3738
 188 0118 4FF00002 		mov	r2, #0
 189 011c 1A70     		strb	r2, [r3, #0]
 103:.\Adc.c       **** 				break;
 190              		.loc 1 103 0
 191 011e 36E1     		b	.L2
 192              	.L5:
 104:.\Adc.c       **** 			}
 105:.\Adc.c       **** 			break;
 106:.\Adc.c       **** 			
 107:.\Adc.c       **** 		case adcGetBattVolt:
 108:.\Adc.c       **** 			if(prevAdcState != adcState)
 193              		.loc 1 108 0
 194 0120 40F20003 		movw	r3, #:lower16:prevAdcState.3740
 195 0124 C0F20003 		movt	r3, #:upper16:prevAdcState.3740
 196 0128 1A78     		ldrb	r2, [r3, #0]	@ zero_extendqisi2
 197 012a 40F20003 		movw	r3, #:lower16:adcState.3739
 198 012e C0F20003 		movt	r3, #:upper16:adcState.3739
 199 0132 1B78     		ldrb	r3, [r3, #0]	@ zero_extendqisi2
 200 0134 9A42     		cmp	r2, r3
 201 0136 1FD0     		beq	.L12
 109:.\Adc.c       **** 			{
 110:.\Adc.c       **** 				#if(config_DEBUG_ADC == 1) 
 111:.\Adc.c       **** 						UartDebug_PutString("ADC: Entering adcGetBattVolt state.\r\n");
ARM GAS  C:\Users\Geo\AppData\Local\Temp\cc1M6WEk.s 			page 7


 202              		.loc 1 111 0
 203 0138 40F20000 		movw	r0, #:lower16:.LC1
 204 013c C0F20000 		movt	r0, #:upper16:.LC1
 205 0140 FFF7FEFF 		bl	UartDebug_PutString
 112:.\Adc.c       **** 				#endif
 113:.\Adc.c       **** 				// Configure mux for battery
 114:.\Adc.c       **** 				AMuxAdc_Select(configAMUX_CH_BATT_VOLT);
 206              		.loc 1 114 0
 207 0144 4FF00000 		mov	r0, #0
 208 0148 FFF7FEFF 		bl	AMuxAdc_Select
 115:.\Adc.c       **** 				
 116:.\Adc.c       **** 				// Start ADC conversion
 117:.\Adc.c       **** 				AdcSar_StartConvert();
 209              		.loc 1 117 0
 210 014c FFF7FEFF 		bl	AdcSar_StartConvert
 118:.\Adc.c       **** 				
 119:.\Adc.c       **** 				lastBattVoltMeasureCount = stateCounter;
 211              		.loc 1 119 0
 212 0150 40F20003 		movw	r3, #:lower16:stateCounter.3733
 213 0154 C0F20003 		movt	r3, #:upper16:stateCounter.3733
 214 0158 1A68     		ldr	r2, [r3, #0]
 215 015a 40F20003 		movw	r3, #:lower16:lastBattVoltMeasureCount.3734
 216 015e C0F20003 		movt	r3, #:upper16:lastBattVoltMeasureCount.3734
 217 0162 1A60     		str	r2, [r3, #0]
 120:.\Adc.c       **** 				prevAdcState = adcState;
 218              		.loc 1 120 0
 219 0164 40F20003 		movw	r3, #:lower16:adcState.3739
 220 0168 C0F20003 		movt	r3, #:upper16:adcState.3739
 221 016c 1A78     		ldrb	r2, [r3, #0]	@ zero_extendqisi2
 222 016e 40F20003 		movw	r3, #:lower16:prevAdcState.3740
 223 0172 C0F20003 		movt	r3, #:upper16:prevAdcState.3740
 224 0176 1A70     		strb	r2, [r3, #0]
 225              	.L12:
 121:.\Adc.c       **** 			}
 122:.\Adc.c       **** 
 123:.\Adc.c       **** 			// Wait for end of conversion
 124:.\Adc.c       **** 			// Accepts either ADC_WAIT_FOR_RESULT or ADC_RETURN_STATUS
 125:.\Adc.c       **** 			if(AdcSar_IsEndConversion(AdcSar_RETURN_STATUS))
 226              		.loc 1 125 0
 227 0178 4FF00100 		mov	r0, #1
 228 017c FFF7FEFF 		bl	AdcSar_IsEndConversion
 229 0180 0346     		mov	r3, r0
 230 0182 002B     		cmp	r3, #0
 231 0184 00F00281 		beq	.L17
 232              	.LBB2:
 126:.\Adc.c       **** 			{
 127:.\Adc.c       **** 					// Get and return adc value
 128:.\Adc.c       **** 				uint16 adcVal = AdcSar_GetResult16();
 233              		.loc 1 128 0
 234 0188 FFF7FEFF 		bl	AdcSar_GetResult16
 235 018c 0346     		mov	r3, r0
 236 018e 9BB2     		uxth	r3, r3
 237 0190 A7F86630 		strh	r3, [r7, #102]	@ movhi
 129:.\Adc.c       **** 				
 130:.\Adc.c       **** 				// Wait for end of conversion
 131:.\Adc.c       **** 				// Accepts either ADC_WAIT_FOR_RESULT or ADC_RETURN_STATUS
 132:.\Adc.c       **** 				AdcSar_IsEndConversion(AdcSar_WAIT_FOR_RESULT);
ARM GAS  C:\Users\Geo\AppData\Local\Temp\cc1M6WEk.s 			page 8


 238              		.loc 1 132 0
 239 0194 4FF00000 		mov	r0, #0
 240 0198 FFF7FEFF 		bl	AdcSar_IsEndConversion
 133:.\Adc.c       **** 				
 134:.\Adc.c       **** 				// Get and return adc value
 135:.\Adc.c       **** 				adcVal = AdcSar_GetResult16();
 241              		.loc 1 135 0
 242 019c FFF7FEFF 		bl	AdcSar_GetResult16
 243 01a0 0346     		mov	r3, r0
 244 01a2 9BB2     		uxth	r3, r3
 245 01a4 A7F86630 		strh	r3, [r7, #102]	@ movhi
 136:.\Adc.c       **** 				
 137:.\Adc.c       **** 				adcVal = AdcSar_CountsTo_mVolts(adcVal);
 246              		.loc 1 137 0
 247 01a8 B7F86630 		ldrh	r3, [r7, #102]
 248 01ac 1BB2     		sxth	r3, r3
 249 01ae 1846     		mov	r0, r3
 250 01b0 FFF7FEFF 		bl	AdcSar_CountsTo_mVolts
 251 01b4 0346     		mov	r3, r0
 252 01b6 9BB2     		uxth	r3, r3
 253 01b8 A7F86630 		strh	r3, [r7, #102]	@ movhi
 138:.\Adc.c       **** 				
 139:.\Adc.c       **** 				#if(config_DEBUG_ADC == 1)
 140:.\Adc.c       **** 					char tempBuff1[50];
 141:.\Adc.c       **** 					snprintf(tempBuff1, sizeof(tempBuff1), "ADC: Adc voltage = %u\r\n", adcVal);
 254              		.loc 1 141 0
 255 01bc B7F86630 		ldrh	r3, [r7, #102]
 256 01c0 3A46     		mov	r2, r7
 257 01c2 1046     		mov	r0, r2
 258 01c4 4FF03201 		mov	r1, #50
 259 01c8 40F20002 		movw	r2, #:lower16:.LC2
 260 01cc C0F20002 		movt	r2, #:upper16:.LC2
 261 01d0 FFF7FEFF 		bl	snprintf
 142:.\Adc.c       **** 					UartDebug_PutString(tempBuff1);
 262              		.loc 1 142 0
 263 01d4 3B46     		mov	r3, r7
 264 01d6 1846     		mov	r0, r3
 265 01d8 FFF7FEFF 		bl	UartDebug_PutString
 143:.\Adc.c       **** 				#endif
 144:.\Adc.c       **** 				
 145:.\Adc.c       **** 				double tempVar;
 146:.\Adc.c       **** 				
 147:.\Adc.c       **** 				// Convert 16-bit int to double
 148:.\Adc.c       **** 				tempVar = (double)adcVal;
 266              		.loc 1 148 0
 267 01dc B7F86630 		ldrh	r3, [r7, #102]
 268 01e0 1846     		mov	r0, r3
 269 01e2 FFF7FEFF 		bl	__aeabi_ui2d
 270 01e6 0246     		mov	r2, r0
 271 01e8 0B46     		mov	r3, r1
 272 01ea C7E91A23 		strd	r2, [r7, #104]
 149:.\Adc.c       **** 				
 150:.\Adc.c       **** 				// Scale by resistor divider to find input voltage
 151:.\Adc.c       **** 				tempVar = ((configBATT_VOLT_R1_KOHM + configBATT_VOLT_R2_KOHM)/configBATT_VOLT_R2_KOHM)*tempVar
 273              		.loc 1 151 0
 274 01ee D7E91A01 		ldrd	r0, [r7, #104]
 275 01f2 6FA3     		adr	r3, .L18
ARM GAS  C:\Users\Geo\AppData\Local\Temp\cc1M6WEk.s 			page 9


 276 01f4 D3E90023 		ldrd	r2, [r3]
 277 01f8 FFF7FEFF 		bl	__aeabi_dmul
 278 01fc 0246     		mov	r2, r0
 279 01fe 0B46     		mov	r3, r1
 280 0200 1046     		mov	r0, r2
 281 0202 1946     		mov	r1, r3
 282 0204 4FF00002 		mov	r2, #0
 283 0208 4FF08043 		mov	r3, #1073741824
 284 020c 03F57813 		add	r3, r3, #4063232
 285 0210 FFF7FEFF 		bl	__aeabi_dsub
 286 0214 0246     		mov	r2, r0
 287 0216 0B46     		mov	r3, r1
 288 0218 C7E91A23 		strd	r2, [r7, #104]
 152:.\Adc.c       **** 				//tempVar = tempVar*configBATT_VOLT_R_RATIO;
 153:.\Adc.c       **** 				// Return battery voltage
 154:.\Adc.c       **** 				_battVoltage = tempVar;
 289              		.loc 1 154 0
 290 021c 40F20003 		movw	r3, #:lower16:_battVoltage
 291 0220 C0F20003 		movt	r3, #:upper16:_battVoltage
 292 0224 D7E91A01 		ldrd	r0, [r7, #104]
 293 0228 C3E90001 		strd	r0, [r3]
 155:.\Adc.c       **** 				
 156:.\Adc.c       **** 				#if(config_DEBUG_ADC == 1)
 157:.\Adc.c       **** 					char tempBuff[50];
 158:.\Adc.c       **** 					snprintf(tempBuff, sizeof(tempBuff), "ADC: Batt voltage = %f\r\n", _battVoltage);
 294              		.loc 1 158 0
 295 022c 40F20003 		movw	r3, #:lower16:_battVoltage
 296 0230 C0F20003 		movt	r3, #:upper16:_battVoltage
 297 0234 D3E90023 		ldrd	r2, [r3]
 298 0238 07F13401 		add	r1, r7, #52
 299 023c CDE90023 		strd	r2, [sp]
 300 0240 0846     		mov	r0, r1
 301 0242 4FF03201 		mov	r1, #50
 302 0246 40F20002 		movw	r2, #:lower16:.LC3
 303 024a C0F20002 		movt	r2, #:upper16:.LC3
 304 024e FFF7FEFF 		bl	snprintf
 159:.\Adc.c       **** 					UartDebug_PutString(tempBuff);
 305              		.loc 1 159 0
 306 0252 07F13403 		add	r3, r7, #52
 307 0256 1846     		mov	r0, r3
 308 0258 FFF7FEFF 		bl	UartDebug_PutString
 160:.\Adc.c       **** 				#endif
 161:.\Adc.c       **** 				
 162:.\Adc.c       **** 				// Go back to idle state
 163:.\Adc.c       **** 				adcState = adcIdle;
 309              		.loc 1 163 0
 310 025c 40F20003 		movw	r3, #:lower16:adcState.3739
 311 0260 C0F20003 		movt	r3, #:upper16:adcState.3739
 312 0264 4FF00102 		mov	r2, #1
 313 0268 1A70     		strb	r2, [r3, #0]
 164:.\Adc.c       **** 				
 165:.\Adc.c       **** 				break;
 314              		.loc 1 165 0
 315 026a 90E0     		b	.L2
 316              	.L6:
 317              	.LBE2:
 166:.\Adc.c       **** 			}
ARM GAS  C:\Users\Geo\AppData\Local\Temp\cc1M6WEk.s 			page 10


 167:.\Adc.c       **** 			
 168:.\Adc.c       **** 		
 169:.\Adc.c       **** 			break;
 170:.\Adc.c       **** 			
 171:.\Adc.c       **** 		case adcGetThrottleVolt:
 172:.\Adc.c       **** 			if(prevAdcState != adcState)
 318              		.loc 1 172 0
 319 026c 40F20003 		movw	r3, #:lower16:prevAdcState.3740
 320 0270 C0F20003 		movt	r3, #:upper16:prevAdcState.3740
 321 0274 1A78     		ldrb	r2, [r3, #0]	@ zero_extendqisi2
 322 0276 40F20003 		movw	r3, #:lower16:adcState.3739
 323 027a C0F20003 		movt	r3, #:upper16:adcState.3739
 324 027e 1B78     		ldrb	r3, [r3, #0]	@ zero_extendqisi2
 325 0280 9A42     		cmp	r2, r3
 326 0282 1FD0     		beq	.L14
 173:.\Adc.c       **** 			{
 174:.\Adc.c       **** 				#if(config_DEBUG_ADC == 1) 
 175:.\Adc.c       **** 						UartDebug_PutString("ADC: Entering adcGetThrottleVolt state.\r\n");
 327              		.loc 1 175 0
 328 0284 40F20000 		movw	r0, #:lower16:.LC4
 329 0288 C0F20000 		movt	r0, #:upper16:.LC4
 330 028c FFF7FEFF 		bl	UartDebug_PutString
 176:.\Adc.c       **** 				#endif
 177:.\Adc.c       **** 				// Configure mux for battery
 178:.\Adc.c       **** 				AMuxAdc_Select(configAMUX_CH_THROTTLE_VOLT);
 331              		.loc 1 178 0
 332 0290 4FF00100 		mov	r0, #1
 333 0294 FFF7FEFF 		bl	AMuxAdc_Select
 179:.\Adc.c       **** 				
 180:.\Adc.c       **** 				// Start ADC conversion
 181:.\Adc.c       **** 				AdcSar_StartConvert();
 334              		.loc 1 181 0
 335 0298 FFF7FEFF 		bl	AdcSar_StartConvert
 182:.\Adc.c       **** 				
 183:.\Adc.c       **** 				lastThrottleVoltMeasureCount = stateCounter;
 336              		.loc 1 183 0
 337 029c 40F20003 		movw	r3, #:lower16:stateCounter.3733
 338 02a0 C0F20003 		movt	r3, #:upper16:stateCounter.3733
 339 02a4 1A68     		ldr	r2, [r3, #0]
 340 02a6 40F20003 		movw	r3, #:lower16:lastThrottleVoltMeasureCount.3735
 341 02aa C0F20003 		movt	r3, #:upper16:lastThrottleVoltMeasureCount.3735
 342 02ae 1A60     		str	r2, [r3, #0]
 184:.\Adc.c       **** 				prevAdcState = adcState;
 343              		.loc 1 184 0
 344 02b0 40F20003 		movw	r3, #:lower16:adcState.3739
 345 02b4 C0F20003 		movt	r3, #:upper16:adcState.3739
 346 02b8 1A78     		ldrb	r2, [r3, #0]	@ zero_extendqisi2
 347 02ba 40F20003 		movw	r3, #:lower16:prevAdcState.3740
 348 02be C0F20003 		movt	r3, #:upper16:prevAdcState.3740
 349 02c2 1A70     		strb	r2, [r3, #0]
 350              	.L14:
 185:.\Adc.c       **** 			}
 186:.\Adc.c       **** 			
 187:.\Adc.c       **** 			// Wait for end of conversion
 188:.\Adc.c       **** 			// Accepts either ADC_WAIT_FOR_RESULT or ADC_RETURN_STATUS
 189:.\Adc.c       **** 			if(AdcSar_IsEndConversion(AdcSar_RETURN_STATUS))
 351              		.loc 1 189 0
ARM GAS  C:\Users\Geo\AppData\Local\Temp\cc1M6WEk.s 			page 11


 352 02c4 4FF00100 		mov	r0, #1
 353 02c8 FFF7FEFF 		bl	AdcSar_IsEndConversion
 354 02cc 0346     		mov	r3, r0
 355 02ce 002B     		cmp	r3, #0
 356 02d0 5DD0     		beq	.L2
 357              	.LBB3:
 190:.\Adc.c       **** 			{
 191:.\Adc.c       **** 				
 192:.\Adc.c       **** 				// Get and return adc value
 193:.\Adc.c       **** 				uint16 adcVal = AdcSar_GetResult16();
 358              		.loc 1 193 0
 359 02d2 FFF7FEFF 		bl	AdcSar_GetResult16
 360 02d6 0346     		mov	r3, r0
 361 02d8 9BB2     		uxth	r3, r3
 362 02da A7F87630 		strh	r3, [r7, #118]	@ movhi
 194:.\Adc.c       **** 				
 195:.\Adc.c       **** 				// Wait for end of conversion
 196:.\Adc.c       **** 				// Accepts either ADC_WAIT_FOR_RESULT or ADC_RETURN_STATUS
 197:.\Adc.c       **** 				AdcSar_IsEndConversion(AdcSar_WAIT_FOR_RESULT);
 363              		.loc 1 197 0
 364 02de 4FF00000 		mov	r0, #0
 365 02e2 FFF7FEFF 		bl	AdcSar_IsEndConversion
 198:.\Adc.c       **** 				
 199:.\Adc.c       **** 				// Get and return adc value
 200:.\Adc.c       **** 				adcVal = AdcSar_GetResult16();
 366              		.loc 1 200 0
 367 02e6 FFF7FEFF 		bl	AdcSar_GetResult16
 368 02ea 0346     		mov	r3, r0
 369 02ec 9BB2     		uxth	r3, r3
 370 02ee A7F87630 		strh	r3, [r7, #118]	@ movhi
 201:.\Adc.c       **** 				
 202:.\Adc.c       **** 				adcVal = AdcSar_CountsTo_mVolts(adcVal);
 371              		.loc 1 202 0
 372 02f2 B7F87630 		ldrh	r3, [r7, #118]
 373 02f6 1BB2     		sxth	r3, r3
 374 02f8 1846     		mov	r0, r3
 375 02fa FFF7FEFF 		bl	AdcSar_CountsTo_mVolts
 376 02fe 0346     		mov	r3, r0
 377 0300 9BB2     		uxth	r3, r3
 378 0302 A7F87630 		strh	r3, [r7, #118]	@ movhi
 203:.\Adc.c       **** 				
 204:.\Adc.c       **** 				#if(config_DEBUG_ADC == 1)
 205:.\Adc.c       **** 					char tempBuff1[50];
 206:.\Adc.c       **** 					snprintf(tempBuff1, sizeof(tempBuff1), "ADC: Adc voltage = %u\r\n", adcVal);
 379              		.loc 1 206 0
 380 0306 B7F87630 		ldrh	r3, [r7, #118]
 381 030a 07F13402 		add	r2, r7, #52
 382 030e 1046     		mov	r0, r2
 383 0310 4FF03201 		mov	r1, #50
 384 0314 40F20002 		movw	r2, #:lower16:.LC2
 385 0318 C0F20002 		movt	r2, #:upper16:.LC2
 386 031c FFF7FEFF 		bl	snprintf
 207:.\Adc.c       **** 					UartDebug_PutString(tempBuff1);
 387              		.loc 1 207 0
 388 0320 07F13403 		add	r3, r7, #52
 389 0324 1846     		mov	r0, r3
 390 0326 FFF7FEFF 		bl	UartDebug_PutString
ARM GAS  C:\Users\Geo\AppData\Local\Temp\cc1M6WEk.s 			page 12


 208:.\Adc.c       **** 				#endif
 209:.\Adc.c       **** 				
 210:.\Adc.c       **** 				double tempVar;
 211:.\Adc.c       **** 				
 212:.\Adc.c       **** 				// Convert 16-bit int to double
 213:.\Adc.c       **** 				tempVar = (double)adcVal;
 391              		.loc 1 213 0
 392 032a B7F87630 		ldrh	r3, [r7, #118]
 393 032e 1846     		mov	r0, r3
 394 0330 FFF7FEFF 		bl	__aeabi_ui2d
 395 0334 0246     		mov	r2, r0
 396 0336 0B46     		mov	r3, r1
 397 0338 C7E91E23 		strd	r2, [r7, #120]
 214:.\Adc.c       **** 				
 215:.\Adc.c       **** 				// Scale by resistor divider to find input voltage
 216:.\Adc.c       **** 				//tempVar = ((configBATT_VOLT_R1_KOHM + configBATT_VOLT_R2_KOHM)/configBATT_VOLT_R2_KOHM)*tempV
 217:.\Adc.c       **** 				//tempVar = tempVar*configBATT_VOLT_R_RATIO;
 218:.\Adc.c       **** 				// Save battery voltage
 219:.\Adc.c       **** 				_throttleVoltage = tempVar;
 398              		.loc 1 219 0
 399 033c 40F20003 		movw	r3, #:lower16:_throttleVoltage
 400 0340 C0F20003 		movt	r3, #:upper16:_throttleVoltage
 401 0344 D7E91E01 		ldrd	r0, [r7, #120]
 402 0348 C3E90001 		strd	r0, [r3]
 220:.\Adc.c       **** 				
 221:.\Adc.c       **** 				#if(config_DEBUG_ADC == 1)
 222:.\Adc.c       **** 					char tempBuff[50];
 223:.\Adc.c       **** 					snprintf(tempBuff, sizeof(tempBuff), "ADC: Throttle voltage = %f\r\n", _throttleVoltage);
 403              		.loc 1 223 0
 404 034c 40F20003 		movw	r3, #:lower16:_throttleVoltage
 405 0350 C0F20003 		movt	r3, #:upper16:_throttleVoltage
 406 0354 D3E90023 		ldrd	r2, [r3]
 407 0358 3946     		mov	r1, r7
 408 035a CDE90023 		strd	r2, [sp]
 409 035e 0846     		mov	r0, r1
 410 0360 4FF03201 		mov	r1, #50
 411 0364 40F20002 		movw	r2, #:lower16:.LC5
 412 0368 C0F20002 		movt	r2, #:upper16:.LC5
 413 036c FFF7FEFF 		bl	snprintf
 224:.\Adc.c       **** 					UartDebug_PutString(tempBuff);
 414              		.loc 1 224 0
 415 0370 3B46     		mov	r3, r7
 416 0372 1846     		mov	r0, r3
 417 0374 FFF7FEFF 		bl	UartDebug_PutString
 225:.\Adc.c       **** 				#endif
 226:.\Adc.c       **** 				
 227:.\Adc.c       **** 				// Go back to idle state
 228:.\Adc.c       **** 				adcState = adcIdle;
 418              		.loc 1 228 0
 419 0378 40F20003 		movw	r3, #:lower16:adcState.3739
 420 037c C0F20003 		movt	r3, #:upper16:adcState.3739
 421 0380 4FF00102 		mov	r2, #1
 422 0384 1A70     		strb	r2, [r3, #0]
 423 0386 02E0     		b	.L2
 424              	.L16:
 425              	.LBE3:
 426              		.loc 1 105 0
ARM GAS  C:\Users\Geo\AppData\Local\Temp\cc1M6WEk.s 			page 13


 427 0388 00BF     		nop
 428 038a 00E0     		b	.L2
 429              	.L17:
 430              		.loc 1 169 0
 431 038c 00BF     		nop
 432              	.L2:
 229:.\Adc.c       **** 				
 230:.\Adc.c       **** 				break;
 231:.\Adc.c       **** 			}
 232:.\Adc.c       **** 				
 233:.\Adc.c       **** 			break;
 234:.\Adc.c       **** 	}
 235:.\Adc.c       **** 	
 236:.\Adc.c       **** 	// Increment state counter
 237:.\Adc.c       **** 	stateCounter++;
 433              		.loc 1 237 0
 434 038e 40F20003 		movw	r3, #:lower16:stateCounter.3733
 435 0392 C0F20003 		movt	r3, #:upper16:stateCounter.3733
 436 0396 1B68     		ldr	r3, [r3, #0]
 437 0398 03F10102 		add	r2, r3, #1
 438 039c 40F20003 		movw	r3, #:lower16:stateCounter.3733
 439 03a0 C0F20003 		movt	r3, #:upper16:stateCounter.3733
 440 03a4 1A60     		str	r2, [r3, #0]
 238:.\Adc.c       **** }
 441              		.loc 1 238 0
 442 03a6 07F18007 		add	r7, r7, #128
 443 03aa BD46     		mov	sp, r7
 444 03ac 80BD     		pop	{r7, pc}
 445              	.L19:
 446 03ae 00BF     		.align	3
 447              	.L18:
 448 03b0 B588E6AC 		.word	-1394177867
 449 03b4 41F11840 		.word	1075376449
 450              		.cfi_endproc
 451              	.LFE29:
 452              		.size	Adc_Run, .-Adc_Run
 453              		.section	.text.Adc_EnableThrottleVoltMeas,"ax",%progbits
 454              		.align	2
 455              		.global	Adc_EnableThrottleVoltMeas
 456              		.thumb
 457              		.thumb_func
 458              		.type	Adc_EnableThrottleVoltMeas, %function
 459              	Adc_EnableThrottleVoltMeas:
 460              	.LFB30:
 239:.\Adc.c       **** 
 240:.\Adc.c       **** //! @brief		Enables or disables the throttle voltage measurement. Only needed in the mainMotorOn st
 241:.\Adc.c       **** void Adc_EnableThrottleVoltMeas(bool_t enable)
 242:.\Adc.c       **** {
 461              		.loc 1 242 0
 462              		.cfi_startproc
 463              		@ args = 0, pretend = 0, frame = 8
 464              		@ frame_needed = 1, uses_anonymous_args = 0
 465              		@ link register save eliminated.
 466 0000 80B4     		push	{r7}
 467              	.LCFI3:
 468              		.cfi_def_cfa_offset 4
 469 0002 83B0     		sub	sp, sp, #12
ARM GAS  C:\Users\Geo\AppData\Local\Temp\cc1M6WEk.s 			page 14


 470              	.LCFI4:
 471              		.cfi_def_cfa_offset 16
 472 0004 00AF     		add	r7, sp, #0
 473              		.cfi_offset 7, -4
 474              	.LCFI5:
 475              		.cfi_def_cfa_register 7
 476 0006 0346     		mov	r3, r0
 477 0008 FB71     		strb	r3, [r7, #7]
 243:.\Adc.c       **** 		_enableThrottleVoltMeasFlag = enable;
 478              		.loc 1 243 0
 479 000a 40F20003 		movw	r3, #:lower16:_enableThrottleVoltMeasFlag
 480 000e C0F20003 		movt	r3, #:upper16:_enableThrottleVoltMeasFlag
 481 0012 FA79     		ldrb	r2, [r7, #7]
 482 0014 1A70     		strb	r2, [r3, #0]
 244:.\Adc.c       **** }
 483              		.loc 1 244 0
 484 0016 07F10C07 		add	r7, r7, #12
 485 001a BD46     		mov	sp, r7
 486 001c 80BC     		pop	{r7}
 487 001e 7047     		bx	lr
 488              		.cfi_endproc
 489              	.LFE30:
 490              		.size	Adc_EnableThrottleVoltMeas, .-Adc_EnableThrottleVoltMeas
 491              		.section	.text.Adc_GetBattVolt,"ax",%progbits
 492              		.align	2
 493              		.global	Adc_GetBattVolt
 494              		.thumb
 495              		.thumb_func
 496              		.type	Adc_GetBattVolt, %function
 497              	Adc_GetBattVolt:
 498              	.LFB31:
 245:.\Adc.c       **** 
 246:.\Adc.c       **** //! @brief		Returns the battery voltage
 247:.\Adc.c       **** //! @returns 	Battery voltage as double, scaled appropriately due to voltage divider
 248:.\Adc.c       **** double Adc_GetBattVolt(void)
 249:.\Adc.c       **** {
 499              		.loc 1 249 0
 500              		.cfi_startproc
 501              		@ args = 0, pretend = 0, frame = 0
 502              		@ frame_needed = 1, uses_anonymous_args = 0
 503              		@ link register save eliminated.
 504 0000 80B4     		push	{r7}
 505              	.LCFI6:
 506              		.cfi_def_cfa_offset 4
 507 0002 00AF     		add	r7, sp, #0
 508              		.cfi_offset 7, -4
 509              	.LCFI7:
 510              		.cfi_def_cfa_register 7
 250:.\Adc.c       **** 	return _battVoltage;
 511              		.loc 1 250 0
 512 0004 40F20003 		movw	r3, #:lower16:_battVoltage
 513 0008 C0F20003 		movt	r3, #:upper16:_battVoltage
 514 000c D3E90023 		ldrd	r2, [r3]
 251:.\Adc.c       **** }
 515              		.loc 1 251 0
 516 0010 1046     		mov	r0, r2
 517 0012 1946     		mov	r1, r3
ARM GAS  C:\Users\Geo\AppData\Local\Temp\cc1M6WEk.s 			page 15


 518 0014 BD46     		mov	sp, r7
 519 0016 80BC     		pop	{r7}
 520 0018 7047     		bx	lr
 521              		.cfi_endproc
 522              	.LFE31:
 523              		.size	Adc_GetBattVolt, .-Adc_GetBattVolt
 524 001a 00BF     		.section	.text.Adc_GetThrottleVolt,"ax",%progbits
 525              		.align	2
 526              		.global	Adc_GetThrottleVolt
 527              		.thumb
 528              		.thumb_func
 529              		.type	Adc_GetThrottleVolt, %function
 530              	Adc_GetThrottleVolt:
 531              	.LFB32:
 252:.\Adc.c       **** 
 253:.\Adc.c       **** //! @brief		Returns the throttle voltage
 254:.\Adc.c       **** //! @returns 	Throttle voltage as double, scaled appropriately due to voltage divider
 255:.\Adc.c       **** double Adc_GetThrottleVolt(void)
 256:.\Adc.c       **** {
 532              		.loc 1 256 0
 533              		.cfi_startproc
 534              		@ args = 0, pretend = 0, frame = 0
 535              		@ frame_needed = 1, uses_anonymous_args = 0
 536              		@ link register save eliminated.
 537 0000 80B4     		push	{r7}
 538              	.LCFI8:
 539              		.cfi_def_cfa_offset 4
 540 0002 00AF     		add	r7, sp, #0
 541              		.cfi_offset 7, -4
 542              	.LCFI9:
 543              		.cfi_def_cfa_register 7
 257:.\Adc.c       **** 	return _throttleVoltage;
 544              		.loc 1 257 0
 545 0004 40F20003 		movw	r3, #:lower16:_throttleVoltage
 546 0008 C0F20003 		movt	r3, #:upper16:_throttleVoltage
 547 000c D3E90023 		ldrd	r2, [r3]
 258:.\Adc.c       **** }	
 548              		.loc 1 258 0
 549 0010 1046     		mov	r0, r2
 550 0012 1946     		mov	r1, r3
 551 0014 BD46     		mov	sp, r7
 552 0016 80BC     		pop	{r7}
 553 0018 7047     		bx	lr
 554              		.cfi_endproc
 555              	.LFE32:
 556              		.size	Adc_GetThrottleVolt, .-Adc_GetThrottleVolt
 557 001a 00BF     		.bss
 558              	adcState.3739:
 559 0011 00       		.space	1
 560              	prevAdcState.3740:
 561 0012 00       		.space	1
 562 0013 00       		.align	2
 563              	lastBattVoltMeasureCount.3734:
 564 0014 00000000 		.space	4
 565              		.data
 566              		.align	2
 567              		.type	battVoltMeasurePeriod.3736, %object
ARM GAS  C:\Users\Geo\AppData\Local\Temp\cc1M6WEk.s 			page 16


 568              		.size	battVoltMeasurePeriod.3736, 4
 569              	battVoltMeasurePeriod.3736:
 570 0000 F4010000 		.word	500
 571              		.bss
 572              		.align	2
 573              	stateCounter.3733:
 574 0018 00000000 		.space	4
 575              		.align	2
 576              	lastThrottleVoltMeasureCount.3735:
 577 001c 00000000 		.space	4
 578              		.data
 579              		.align	2
 580              		.type	throttleVoltMeasurePeriod.3737, %object
 581              		.size	throttleVoltMeasurePeriod.3737, 4
 582              	throttleVoltMeasurePeriod.3737:
 583 0004 05000000 		.word	5
 584              		.type	turnOn.3738, %object
 585              		.size	turnOn.3738, 1
 586              	turnOn.3738:
 587 0008 01       		.byte	1
 588 0009 000000   		.text
 589              	.Letext0: