ARM GAS  C:\Users\Geo\AppData\Local\Temp\ccuR14Bp.s 			page 1


   1              		.syntax unified
   2              		.cpu cortex-m3
   3              		.fpu softvfp
   4              		.eabi_attribute 20, 1
   5              		.eabi_attribute 21, 1
   6              		.eabi_attribute 23, 3
   7              		.eabi_attribute 24, 1
   8              		.eabi_attribute 25, 1
   9              		.eabi_attribute 26, 1
  10              		.eabi_attribute 30, 6
  11              		.eabi_attribute 18, 4
  12              		.thumb
  13              		.file	"BattMonitor.c"
  20 0000 E2000000 		.text
  20      02006900 
  20      00000201 
  20      FB0E0D00 
  20      01010101 
  21              	.Ltext0:
  22              		.cfi_sections	.debug_frame
  23              		.bss
  24              		.align	3
  25              	_remoteBattVoltMin:
  26 0000 00000000 		.space	8
  26      00000000 
  27              		.align	3
  28              	_remoteBattVoltMax:
  29 0008 00000000 		.space	8
  29      00000000 
  30              		.align	3
  31              	_remoteBattVoltThreshold1:
  32 0010 00000000 		.space	8
  32      00000000 
  33              		.align	3
  34              	_remoteBattVoltThreshold2:
  35 0018 00000000 		.space	8
  35      00000000 
  36              		.align	3
  37              	_remoteBattVoltBetweenThresholds:
  38 0020 00000000 		.space	8
  38      00000000 
  39              		.align	3
  40              	_boardBattVoltMin:
  41 0028 00000000 		.space	8
  41      00000000 
  42              		.align	3
  43              	_boardBattVoltMax:
  44 0030 00000000 		.space	8
  44      00000000 
  45              		.align	3
  46              	_boardBattVoltThreshold1:
ARM GAS  C:\Users\Geo\AppData\Local\Temp\ccuR14Bp.s 			page 2


  47 0038 00000000 		.space	8
  47      00000000 
  48              		.align	3
  49              	_boardBattVoltThreshold2:
  50 0040 00000000 		.space	8
  50      00000000 
  51              		.align	3
  52              	_boardBattVoltBetweenThresholds:
  53 0048 00000000 		.space	8
  53      00000000 
  54              		.section	.text.BattMonitor_Init,"ax",%progbits
  55              		.align	2
  56              		.global	BattMonitor_Init
  57              		.thumb
  58              		.thumb_func
  59              		.type	BattMonitor_Init, %function
  60              	BattMonitor_Init:
  61              	.LFB29:
  62              		.file 1 ".\\BattMonitor.c"
   1:.\BattMonitor.c **** //!
   2:.\BattMonitor.c **** //! @file 		BattMonitor.c
   3:.\BattMonitor.c **** //! @author 	Geoffrey Hunter (gbmhunter@gmail.com)
   4:.\BattMonitor.c **** //! @date 		14/05/2011
   5:.\BattMonitor.c **** //! @brief 		Performs actions relating to the battery voltage.
   6:.\BattMonitor.c **** //! @details
   7:.\BattMonitor.c **** //!		<b>Last Modified:			</b> 21/05/2011								\n
   8:.\BattMonitor.c **** //!		<b>Version:					</b> v1.0									\n
   9:.\BattMonitor.c **** //!		<b>Company:					</b> CladLabs								\n
  10:.\BattMonitor.c **** //!		<b>Project:					</b> Electric Skateboard - Skateboard Remote\n
  11:.\BattMonitor.c **** //!		<b>Computer Architecture:	</b> ARM									\n
  12:.\BattMonitor.c **** //!		<b>Compiler:				</b> GCC									\n
  13:.\BattMonitor.c **** //! 	<b>uC Model:				</b> PSoC5									\n
  14:.\BattMonitor.c **** //!		<b>Documentation Format:	</b> Doxygen								\n
  15:.\BattMonitor.c **** //!		
  16:.\BattMonitor.c **** //!		
  17:.\BattMonitor.c **** //!
  18:.\BattMonitor.c **** 
  19:.\BattMonitor.c **** //=================================================================================================
  20:.\BattMonitor.c **** //============================================ INFO ===============================================
  21:.\BattMonitor.c **** //=================================================================================================
  22:.\BattMonitor.c **** 
  23:.\BattMonitor.c **** //=================================================================================================
  24:.\BattMonitor.c **** //======================================= FILE INCLUSIONS =========================================
  25:.\BattMonitor.c **** //=================================================================================================
  26:.\BattMonitor.c **** 
  27:.\BattMonitor.c **** #include <device.h>
  28:.\BattMonitor.c **** #include "Config.h"
  29:.\BattMonitor.c **** #include "BattMonitor.h"
  30:.\BattMonitor.c **** #include "Lights.h"
  31:.\BattMonitor.c **** 
  32:.\BattMonitor.c **** 
  33:.\BattMonitor.c **** static double _remoteBattVoltMin;
  34:.\BattMonitor.c **** static double _remoteBattVoltMax;
  35:.\BattMonitor.c **** static double _remoteBattVoltThreshold1;
  36:.\BattMonitor.c **** static double _remoteBattVoltThreshold2;
  37:.\BattMonitor.c **** static double _remoteBattVoltBetweenThresholds;
  38:.\BattMonitor.c **** 
ARM GAS  C:\Users\Geo\AppData\Local\Temp\ccuR14Bp.s 			page 3


  39:.\BattMonitor.c **** static double _boardBattVoltMin;
  40:.\BattMonitor.c **** static double _boardBattVoltMax;
  41:.\BattMonitor.c **** static double _boardBattVoltThreshold1;
  42:.\BattMonitor.c **** static double _boardBattVoltThreshold2;
  43:.\BattMonitor.c **** static double _boardBattVoltBetweenThresholds;
  44:.\BattMonitor.c **** 
  45:.\BattMonitor.c **** double BattMonitor_CalculateFlashRate(double voltage, double voltageBetweenThresholds);
  46:.\BattMonitor.c **** 
  47:.\BattMonitor.c **** //! @brief 		Initializes battery monitor variables
  48:.\BattMonitor.c **** //! @details	Call before calling any other battery monitor function.
  49:.\BattMonitor.c **** void BattMonitor_Init()
  50:.\BattMonitor.c **** {
  63              		.loc 1 50 0
  64              		.cfi_startproc
  65              		@ args = 0, pretend = 0, frame = 0
  66              		@ frame_needed = 1, uses_anonymous_args = 0
  67              		@ link register save eliminated.
  68 0000 80B4     		push	{r7}
  69              	.LCFI0:
  70              		.cfi_def_cfa_offset 4
  71 0002 00AF     		add	r7, sp, #0
  72              		.cfi_offset 7, -4
  73              	.LCFI1:
  74              		.cfi_def_cfa_register 7
  51:.\BattMonitor.c **** 	// Store values into globals
  52:.\BattMonitor.c **** 	_remoteBattVoltMin = configREMOTE_BATT_VOLT_LOW_LEVEL_MV;
  75              		.loc 1 52 0
  76 0004 40F20003 		movw	r3, #:lower16:_remoteBattVoltMin
  77 0008 C0F20003 		movt	r3, #:upper16:_remoteBattVoltMin
  78 000c 2CA1     		adr	r1, .L3
  79 000e D1E90001 		ldrd	r0, [r1]
  80 0012 C3E90001 		strd	r0, [r3]
  53:.\BattMonitor.c **** 	_remoteBattVoltThreshold1 = (configREMOTE_BATT_VOLT_HIGH_LEVEL_MV - configREMOTE_BATT_VOLT_LOW_LEV
  81              		.loc 1 53 0
  82 0016 40F20003 		movw	r3, #:lower16:_remoteBattVoltThreshold1
  83 001a C0F20003 		movt	r3, #:upper16:_remoteBattVoltThreshold1
  84 001e 2AA1     		adr	r1, .L3+8
  85 0020 D1E90001 		ldrd	r0, [r1]
  86 0024 C3E90001 		strd	r0, [r3]
  54:.\BattMonitor.c **** 	_remoteBattVoltThreshold2 = (configREMOTE_BATT_VOLT_HIGH_LEVEL_MV - configREMOTE_BATT_VOLT_LOW_LEV
  87              		.loc 1 54 0
  88 0028 40F20003 		movw	r3, #:lower16:_remoteBattVoltThreshold2
  89 002c C0F20003 		movt	r3, #:upper16:_remoteBattVoltThreshold2
  90 0030 27A1     		adr	r1, .L3+16
  91 0032 D1E90001 		ldrd	r0, [r1]
  92 0036 C3E90001 		strd	r0, [r3]
  55:.\BattMonitor.c **** 	_remoteBattVoltMax = configREMOTE_BATT_VOLT_HIGH_LEVEL_MV;
  93              		.loc 1 55 0
  94 003a 40F20003 		movw	r3, #:lower16:_remoteBattVoltMax
  95 003e C0F20003 		movt	r3, #:upper16:_remoteBattVoltMax
  96 0042 25A1     		adr	r1, .L3+24
  97 0044 D1E90001 		ldrd	r0, [r1]
  98 0048 C3E90001 		strd	r0, [r3]
  56:.\BattMonitor.c **** 	
  57:.\BattMonitor.c **** 	// Calculate voltage interval between thresholds
  58:.\BattMonitor.c **** 	_remoteBattVoltBetweenThresholds = (configREMOTE_BATT_VOLT_HIGH_LEVEL_MV - configREMOTE_BATT_VOLT_
  99              		.loc 1 58 0
ARM GAS  C:\Users\Geo\AppData\Local\Temp\ccuR14Bp.s 			page 4


 100 004c 40F20003 		movw	r3, #:lower16:_remoteBattVoltBetweenThresholds
 101 0050 C0F20003 		movt	r3, #:upper16:_remoteBattVoltBetweenThresholds
 102 0054 22A1     		adr	r1, .L3+32
 103 0056 D1E90001 		ldrd	r0, [r1]
 104 005a C3E90001 		strd	r0, [r3]
  59:.\BattMonitor.c **** 	
  60:.\BattMonitor.c **** 	// Store values into globals
  61:.\BattMonitor.c **** 	_boardBattVoltMin = configBOARD_BATT_VOLT_LOW_LEVEL_MV;
 105              		.loc 1 61 0
 106 005e 40F20003 		movw	r3, #:lower16:_boardBattVoltMin
 107 0062 C0F20003 		movt	r3, #:upper16:_boardBattVoltMin
 108 0066 20A1     		adr	r1, .L3+40
 109 0068 D1E90001 		ldrd	r0, [r1]
 110 006c C3E90001 		strd	r0, [r3]
  62:.\BattMonitor.c **** 	_boardBattVoltThreshold1 = (configBOARD_BATT_VOLT_HIGH_LEVEL_MV - configBOARD_BATT_VOLT_LOW_LEVEL_
 111              		.loc 1 62 0
 112 0070 40F20003 		movw	r3, #:lower16:_boardBattVoltThreshold1
 113 0074 C0F20003 		movt	r3, #:upper16:_boardBattVoltThreshold1
 114 0078 1DA1     		adr	r1, .L3+48
 115 007a D1E90001 		ldrd	r0, [r1]
 116 007e C3E90001 		strd	r0, [r3]
  63:.\BattMonitor.c **** 	_boardBattVoltThreshold2 = (configBOARD_BATT_VOLT_HIGH_LEVEL_MV - configBOARD_BATT_VOLT_LOW_LEVEL_
 117              		.loc 1 63 0
 118 0082 40F20003 		movw	r3, #:lower16:_boardBattVoltThreshold2
 119 0086 C0F20003 		movt	r3, #:upper16:_boardBattVoltThreshold2
 120 008a 1BA1     		adr	r1, .L3+56
 121 008c D1E90001 		ldrd	r0, [r1]
 122 0090 C3E90001 		strd	r0, [r3]
  64:.\BattMonitor.c **** 	_boardBattVoltMax = configBOARD_BATT_VOLT_HIGH_LEVEL_MV;
 123              		.loc 1 64 0
 124 0094 40F20003 		movw	r3, #:lower16:_boardBattVoltMax
 125 0098 C0F20003 		movt	r3, #:upper16:_boardBattVoltMax
 126 009c 18A1     		adr	r1, .L3+64
 127 009e D1E90001 		ldrd	r0, [r1]
 128 00a2 C3E90001 		strd	r0, [r3]
  65:.\BattMonitor.c **** 	
  66:.\BattMonitor.c **** 	// Calculate voltage interval between thresholds
  67:.\BattMonitor.c **** 	_boardBattVoltBetweenThresholds = (configBOARD_BATT_VOLT_HIGH_LEVEL_MV - configBOARD_BATT_VOLT_LOW
 129              		.loc 1 67 0
 130 00a6 40F20003 		movw	r3, #:lower16:_boardBattVoltBetweenThresholds
 131 00aa C0F20003 		movt	r3, #:upper16:_boardBattVoltBetweenThresholds
 132 00ae 16A1     		adr	r1, .L3+72
 133 00b0 D1E90001 		ldrd	r0, [r1]
 134 00b4 C3E90001 		strd	r0, [r3]
  68:.\BattMonitor.c **** }
 135              		.loc 1 68 0
 136 00b8 BD46     		mov	sp, r7
 137 00ba 80BC     		pop	{r7}
 138 00bc 7047     		bx	lr
 139              	.L4:
 140 00be 00BF     		.align	3
 141              	.L3:
 142 00c0 00000000 		.word	0
 143 00c4 0070B740 		.word	1085763584
 144 00c8 AAAAAAAA 		.word	-1431655766
 145 00cc AAFEBB40 		.word	1086062250
 146 00d0 AAAAAAAA 		.word	-1431655766
ARM GAS  C:\Users\Geo\AppData\Local\Temp\ccuR14Bp.s 			page 5


 147 00d4 AA46C040 		.word	1086342826
 148 00d8 00000000 		.word	0
 149 00dc 008EC240 		.word	1086492160
 150 00e0 ABAAAAAA 		.word	-1431655765
 151 00e4 AA3A9240 		.word	1083325098
 152 00e8 00000000 		.word	0
 153 00ec 0017E140 		.word	1088493312
 154 00f0 55555555 		.word	1431655765
 155 00f4 55D5E440 		.word	1088738645
 156 00f8 AAAAAAAA 		.word	-1431655766
 157 00fc AA93E840 		.word	1088983978
 158 0100 00000000 		.word	0
 159 0104 0052EC40 		.word	1089229312
 160 0108 ABAAAAAA 		.word	-1431655765
 161 010c AAF2BD40 		.word	1086190250
 162              		.cfi_endproc
 163              	.LFE29:
 164              		.size	BattMonitor_Init, .-BattMonitor_Init
 165              		.global	__aeabi_dcmplt
 166              		.global	__aeabi_dsub
 167              		.global	__aeabi_dcmpge
 168              		.section	.text.BattMonitor_Run,"ax",%progbits
 169              		.align	2
 170              		.global	BattMonitor_Run
 171              		.thumb
 172              		.thumb_func
 173              		.type	BattMonitor_Run, %function
 174              	BattMonitor_Run:
 175              	.LFB30:
  69:.\BattMonitor.c **** 
  70:.\BattMonitor.c **** //! @brief		Call from main loop once per tick
  71:.\BattMonitor.c **** void BattMonitor_Run(double remoteBattVoltage, double boardBattVoltage)
  72:.\BattMonitor.c **** {
 176              		.loc 1 72 0
 177              		.cfi_startproc
 178              		@ args = 0, pretend = 0, frame = 64
 179              		@ frame_needed = 1, uses_anonymous_args = 0
 180 0000 90B5     		push	{r4, r7, lr}
 181              	.LCFI2:
 182              		.cfi_def_cfa_offset 12
 183 0002 91B0     		sub	sp, sp, #68
 184              	.LCFI3:
 185              		.cfi_def_cfa_offset 80
 186 0004 00AF     		add	r7, sp, #0
 187              		.cfi_offset 14, -4
 188              		.cfi_offset 7, -8
 189              		.cfi_offset 4, -12
 190              	.LCFI4:
 191              		.cfi_def_cfa_register 7
 192 0006 C7E90201 		strd	r0, [r7, #8]
 193 000a C7E90023 		strd	r2, [r7]
  73:.\BattMonitor.c **** 	static uint32 counter = 0;
  74:.\BattMonitor.c **** 	
  75:.\BattMonitor.c **** 	#if(configDEBUG_BATT_MONITOR == 1)
  76:.\BattMonitor.c **** 		char tempBuff[100];
  77:.\BattMonitor.c **** 		snprintf(tempBuff, sizeof(tempBuff), "BATT: Remote Batt Voltage = %f, Board Batt Voltage = %f\r\n
  78:.\BattMonitor.c **** 		UartDebug_PutString(tempBuff);
ARM GAS  C:\Users\Geo\AppData\Local\Temp\ccuR14Bp.s 			page 6


  79:.\BattMonitor.c **** 	#endif
  80:.\BattMonitor.c **** 	
  81:.\BattMonitor.c **** 	//=========================================== REMOTE BATT LEDS =================================//
  82:.\BattMonitor.c **** 	
  83:.\BattMonitor.c **** 	// Control the battery level leds
  84:.\BattMonitor.c **** 	if(remoteBattVoltage < _remoteBattVoltThreshold1)
 194              		.loc 1 84 0
 195 000e 40F20003 		movw	r3, #:lower16:_remoteBattVoltThreshold1
 196 0012 C0F20003 		movt	r3, #:upper16:_remoteBattVoltThreshold1
 197 0016 D3E90023 		ldrd	r2, [r3]
 198 001a 4FF00001 		mov	r1, #0
 199 001e 0C46     		mov	r4, r1
 200 0020 D7E90201 		ldrd	r0, [r7, #8]
 201 0024 FFF7FEFF 		bl	__aeabi_dcmplt
 202 0028 0346     		mov	r3, r0
 203 002a 002B     		cmp	r3, #0
 204 002c 02D0     		beq	.L6
 205              	.L7:
 206 002e 4FF00103 		mov	r3, #1
 207 0032 1C46     		mov	r4, r3
 208              	.L6:
 209 0034 E3B2     		uxtb	r3, r4
 210 0036 002B     		cmp	r3, #0
 211 0038 35D0     		beq	.L8
 212              	.LBB2:
  85:.\BattMonitor.c **** 	{
  86:.\BattMonitor.c **** 		// Voltage is in lower third or below min
  87:.\BattMonitor.c **** 		double flashRate = BattMonitor_CalculateFlashRate(remoteBattVoltage - _remoteBattVoltMin, _remote
 213              		.loc 1 87 0
 214 003a 40F20003 		movw	r3, #:lower16:_remoteBattVoltMin
 215 003e C0F20003 		movt	r3, #:upper16:_remoteBattVoltMin
 216 0042 D3E90023 		ldrd	r2, [r3]
 217 0046 D7E90201 		ldrd	r0, [r7, #8]
 218 004a FFF7FEFF 		bl	__aeabi_dsub
 219 004e 0246     		mov	r2, r0
 220 0050 0B46     		mov	r3, r1
 221 0052 1046     		mov	r0, r2
 222 0054 1946     		mov	r1, r3
 223 0056 40F20003 		movw	r3, #:lower16:_remoteBattVoltBetweenThresholds
 224 005a C0F20003 		movt	r3, #:upper16:_remoteBattVoltBetweenThresholds
 225 005e D3E90023 		ldrd	r2, [r3]
 226 0062 FFF7FEFF 		bl	BattMonitor_CalculateFlashRate
 227 0066 0246     		mov	r2, r0
 228 0068 0B46     		mov	r3, r1
 229 006a C7E90423 		strd	r2, [r7, #16]
  88:.\BattMonitor.c **** 		// Only flash lower led, others off
  89:.\BattMonitor.c **** 		Lights_SetLedMode(LED_REMOTE_BATT_LVL_BOT, FLASHING, flashRate);
 230              		.loc 1 89 0
 231 006e 4FF00800 		mov	r0, #8
 232 0072 4FF00201 		mov	r1, #2
 233 0076 D7E90423 		ldrd	r2, [r7, #16]
 234 007a FFF7FEFF 		bl	Lights_SetLedMode
  90:.\BattMonitor.c **** 		Lights_SetLedMode(LED_REMOTE_BATT_LVL_MID, OFF, 0);
 235              		.loc 1 90 0
 236 007e 4FF00700 		mov	r0, #7
 237 0082 4FF00001 		mov	r1, #0
 238 0086 4FF00002 		mov	r2, #0
ARM GAS  C:\Users\Geo\AppData\Local\Temp\ccuR14Bp.s 			page 7


 239 008a 4FF00003 		mov	r3, #0
 240 008e FFF7FEFF 		bl	Lights_SetLedMode
  91:.\BattMonitor.c **** 		Lights_SetLedMode(LED_REMOTE_BATT_LVL_TOP, OFF, 0);
 241              		.loc 1 91 0
 242 0092 4FF00600 		mov	r0, #6
 243 0096 4FF00001 		mov	r1, #0
 244 009a 4FF00002 		mov	r2, #0
 245 009e 4FF00003 		mov	r3, #0
 246 00a2 FFF7FEFF 		bl	Lights_SetLedMode
 247              	.L8:
 248              	.LBE2:
  92:.\BattMonitor.c **** 		
  93:.\BattMonitor.c **** 	}
  94:.\BattMonitor.c **** 	if(remoteBattVoltage >= _remoteBattVoltThreshold1 && remoteBattVoltage < _remoteBattVoltThreshold2
 249              		.loc 1 94 0
 250 00a6 40F20003 		movw	r3, #:lower16:_remoteBattVoltThreshold1
 251 00aa C0F20003 		movt	r3, #:upper16:_remoteBattVoltThreshold1
 252 00ae D3E90023 		ldrd	r2, [r3]
 253 00b2 4FF00001 		mov	r1, #0
 254 00b6 0C46     		mov	r4, r1
 255 00b8 D7E90201 		ldrd	r0, [r7, #8]
 256 00bc FFF7FEFF 		bl	__aeabi_dcmpge
 257 00c0 0346     		mov	r3, r0
 258 00c2 002B     		cmp	r3, #0
 259 00c4 02D0     		beq	.L9
 260              	.L10:
 261 00c6 4FF00103 		mov	r3, #1
 262 00ca 1C46     		mov	r4, r3
 263              	.L9:
 264 00cc E3B2     		uxtb	r3, r4
 265 00ce 002B     		cmp	r3, #0
 266 00d0 4BD0     		beq	.L11
 267 00d2 40F20003 		movw	r3, #:lower16:_remoteBattVoltThreshold2
 268 00d6 C0F20003 		movt	r3, #:upper16:_remoteBattVoltThreshold2
 269 00da D3E90023 		ldrd	r2, [r3]
 270 00de 4FF00001 		mov	r1, #0
 271 00e2 0C46     		mov	r4, r1
 272 00e4 D7E90201 		ldrd	r0, [r7, #8]
 273 00e8 FFF7FEFF 		bl	__aeabi_dcmplt
 274 00ec 0346     		mov	r3, r0
 275 00ee 002B     		cmp	r3, #0
 276 00f0 02D0     		beq	.L12
 277              	.L13:
 278 00f2 4FF00103 		mov	r3, #1
 279 00f6 1C46     		mov	r4, r3
 280              	.L12:
 281 00f8 E3B2     		uxtb	r3, r4
 282 00fa 002B     		cmp	r3, #0
 283 00fc 35D0     		beq	.L11
 284              	.LBB3:
  95:.\BattMonitor.c **** 	{
  96:.\BattMonitor.c **** 		// Voltage is in middle third
  97:.\BattMonitor.c **** 		double flashRate = BattMonitor_CalculateFlashRate(remoteBattVoltage - _remoteBattVoltThreshold1, 
 285              		.loc 1 97 0
 286 00fe 40F20003 		movw	r3, #:lower16:_remoteBattVoltThreshold1
 287 0102 C0F20003 		movt	r3, #:upper16:_remoteBattVoltThreshold1
 288 0106 D3E90023 		ldrd	r2, [r3]
ARM GAS  C:\Users\Geo\AppData\Local\Temp\ccuR14Bp.s 			page 8


 289 010a D7E90201 		ldrd	r0, [r7, #8]
 290 010e FFF7FEFF 		bl	__aeabi_dsub
 291 0112 0246     		mov	r2, r0
 292 0114 0B46     		mov	r3, r1
 293 0116 1046     		mov	r0, r2
 294 0118 1946     		mov	r1, r3
 295 011a 40F20003 		movw	r3, #:lower16:_remoteBattVoltBetweenThresholds
 296 011e C0F20003 		movt	r3, #:upper16:_remoteBattVoltBetweenThresholds
 297 0122 D3E90023 		ldrd	r2, [r3]
 298 0126 FFF7FEFF 		bl	BattMonitor_CalculateFlashRate
 299 012a 0246     		mov	r2, r0
 300 012c 0B46     		mov	r3, r1
 301 012e C7E90623 		strd	r2, [r7, #24]
  98:.\BattMonitor.c **** 		// Turn bottom led on, and flash middle led
  99:.\BattMonitor.c **** 		Lights_SetLedMode(LED_REMOTE_BATT_LVL_BOT, ON, 0);
 302              		.loc 1 99 0
 303 0132 4FF00800 		mov	r0, #8
 304 0136 4FF00101 		mov	r1, #1
 305 013a 4FF00002 		mov	r2, #0
 306 013e 4FF00003 		mov	r3, #0
 307 0142 FFF7FEFF 		bl	Lights_SetLedMode
 100:.\BattMonitor.c **** 		Lights_SetLedMode(LED_REMOTE_BATT_LVL_MID, FLASHING, flashRate);
 308              		.loc 1 100 0
 309 0146 4FF00700 		mov	r0, #7
 310 014a 4FF00201 		mov	r1, #2
 311 014e D7E90623 		ldrd	r2, [r7, #24]
 312 0152 FFF7FEFF 		bl	Lights_SetLedMode
 101:.\BattMonitor.c **** 		Lights_SetLedMode(LED_REMOTE_BATT_LVL_TOP, OFF, 0);
 313              		.loc 1 101 0
 314 0156 4FF00600 		mov	r0, #6
 315 015a 4FF00001 		mov	r1, #0
 316 015e 4FF00002 		mov	r2, #0
 317 0162 4FF00003 		mov	r3, #0
 318 0166 FFF7FEFF 		bl	Lights_SetLedMode
 319              	.L11:
 320              	.LBE3:
 102:.\BattMonitor.c **** 
 103:.\BattMonitor.c **** 	}
 104:.\BattMonitor.c **** 	if(remoteBattVoltage >= _remoteBattVoltThreshold2)
 321              		.loc 1 104 0
 322 016a 40F20003 		movw	r3, #:lower16:_remoteBattVoltThreshold2
 323 016e C0F20003 		movt	r3, #:upper16:_remoteBattVoltThreshold2
 324 0172 D3E90023 		ldrd	r2, [r3]
 325 0176 4FF00001 		mov	r1, #0
 326 017a 0C46     		mov	r4, r1
 327 017c D7E90201 		ldrd	r0, [r7, #8]
 328 0180 FFF7FEFF 		bl	__aeabi_dcmpge
 329 0184 0346     		mov	r3, r0
 330 0186 002B     		cmp	r3, #0
 331 0188 02D0     		beq	.L14
 332              	.L15:
 333 018a 4FF00103 		mov	r3, #1
 334 018e 1C46     		mov	r4, r3
 335              	.L14:
 336 0190 E3B2     		uxtb	r3, r4
 337 0192 002B     		cmp	r3, #0
 338 0194 35D0     		beq	.L16
ARM GAS  C:\Users\Geo\AppData\Local\Temp\ccuR14Bp.s 			page 9


 339              	.LBB4:
 105:.\BattMonitor.c **** 	{
 106:.\BattMonitor.c **** 		// Voltage is in top third or above max
 107:.\BattMonitor.c **** 		double flashRate = BattMonitor_CalculateFlashRate(remoteBattVoltage - _remoteBattVoltThreshold2, 
 340              		.loc 1 107 0
 341 0196 40F20003 		movw	r3, #:lower16:_remoteBattVoltThreshold2
 342 019a C0F20003 		movt	r3, #:upper16:_remoteBattVoltThreshold2
 343 019e D3E90023 		ldrd	r2, [r3]
 344 01a2 D7E90201 		ldrd	r0, [r7, #8]
 345 01a6 FFF7FEFF 		bl	__aeabi_dsub
 346 01aa 0246     		mov	r2, r0
 347 01ac 0B46     		mov	r3, r1
 348 01ae 1046     		mov	r0, r2
 349 01b0 1946     		mov	r1, r3
 350 01b2 40F20003 		movw	r3, #:lower16:_remoteBattVoltBetweenThresholds
 351 01b6 C0F20003 		movt	r3, #:upper16:_remoteBattVoltBetweenThresholds
 352 01ba D3E90023 		ldrd	r2, [r3]
 353 01be FFF7FEFF 		bl	BattMonitor_CalculateFlashRate
 354 01c2 0246     		mov	r2, r0
 355 01c4 0B46     		mov	r3, r1
 356 01c6 C7E90823 		strd	r2, [r7, #32]
 108:.\BattMonitor.c **** 		// Turn bottom two led's on, and flash top led
 109:.\BattMonitor.c **** 		Lights_SetLedMode(LED_REMOTE_BATT_LVL_BOT, ON, 0);
 357              		.loc 1 109 0
 358 01ca 4FF00800 		mov	r0, #8
 359 01ce 4FF00101 		mov	r1, #1
 360 01d2 4FF00002 		mov	r2, #0
 361 01d6 4FF00003 		mov	r3, #0
 362 01da FFF7FEFF 		bl	Lights_SetLedMode
 110:.\BattMonitor.c **** 		Lights_SetLedMode(LED_REMOTE_BATT_LVL_MID, ON, 0);
 363              		.loc 1 110 0
 364 01de 4FF00700 		mov	r0, #7
 365 01e2 4FF00101 		mov	r1, #1
 366 01e6 4FF00002 		mov	r2, #0
 367 01ea 4FF00003 		mov	r3, #0
 368 01ee FFF7FEFF 		bl	Lights_SetLedMode
 111:.\BattMonitor.c **** 		Lights_SetLedMode(LED_REMOTE_BATT_LVL_TOP, FLASHING, flashRate);
 369              		.loc 1 111 0
 370 01f2 4FF00600 		mov	r0, #6
 371 01f6 4FF00201 		mov	r1, #2
 372 01fa D7E90823 		ldrd	r2, [r7, #32]
 373 01fe FFF7FEFF 		bl	Lights_SetLedMode
 374              	.L16:
 375              	.LBE4:
 112:.\BattMonitor.c **** 	}
 113:.\BattMonitor.c **** 	
 114:.\BattMonitor.c **** 	//=========================================== BOARD BATT LEDS =================================//
 115:.\BattMonitor.c **** 	// Control the boardbattery level leds
 116:.\BattMonitor.c **** 	if(boardBattVoltage < _boardBattVoltThreshold1)
 376              		.loc 1 116 0
 377 0202 40F20003 		movw	r3, #:lower16:_boardBattVoltThreshold1
 378 0206 C0F20003 		movt	r3, #:upper16:_boardBattVoltThreshold1
 379 020a D3E90023 		ldrd	r2, [r3]
 380 020e 4FF00001 		mov	r1, #0
 381 0212 0C46     		mov	r4, r1
 382 0214 D7E90001 		ldrd	r0, [r7]
 383 0218 FFF7FEFF 		bl	__aeabi_dcmplt
ARM GAS  C:\Users\Geo\AppData\Local\Temp\ccuR14Bp.s 			page 10


 384 021c 0346     		mov	r3, r0
 385 021e 002B     		cmp	r3, #0
 386 0220 02D0     		beq	.L17
 387              	.L18:
 388 0222 4FF00103 		mov	r3, #1
 389 0226 1C46     		mov	r4, r3
 390              	.L17:
 391 0228 E3B2     		uxtb	r3, r4
 392 022a 002B     		cmp	r3, #0
 393 022c 35D0     		beq	.L19
 394              	.LBB5:
 117:.\BattMonitor.c **** 	{
 118:.\BattMonitor.c **** 		// Voltage is in lower third or below min
 119:.\BattMonitor.c **** 		double flashRate = BattMonitor_CalculateFlashRate(boardBattVoltage - _boardBattVoltMin, _boardBat
 395              		.loc 1 119 0
 396 022e 40F20003 		movw	r3, #:lower16:_boardBattVoltMin
 397 0232 C0F20003 		movt	r3, #:upper16:_boardBattVoltMin
 398 0236 D3E90023 		ldrd	r2, [r3]
 399 023a D7E90001 		ldrd	r0, [r7]
 400 023e FFF7FEFF 		bl	__aeabi_dsub
 401 0242 0246     		mov	r2, r0
 402 0244 0B46     		mov	r3, r1
 403 0246 1046     		mov	r0, r2
 404 0248 1946     		mov	r1, r3
 405 024a 40F20003 		movw	r3, #:lower16:_boardBattVoltBetweenThresholds
 406 024e C0F20003 		movt	r3, #:upper16:_boardBattVoltBetweenThresholds
 407 0252 D3E90023 		ldrd	r2, [r3]
 408 0256 FFF7FEFF 		bl	BattMonitor_CalculateFlashRate
 409 025a 0246     		mov	r2, r0
 410 025c 0B46     		mov	r3, r1
 411 025e C7E90A23 		strd	r2, [r7, #40]
 120:.\BattMonitor.c **** 		// Only flash lower led, others off
 121:.\BattMonitor.c **** 		Lights_SetLedMode(LED_BOARD_BATT_LVL_BOT, FLASHING, flashRate);
 412              		.loc 1 121 0
 413 0262 4FF00500 		mov	r0, #5
 414 0266 4FF00201 		mov	r1, #2
 415 026a D7E90A23 		ldrd	r2, [r7, #40]
 416 026e FFF7FEFF 		bl	Lights_SetLedMode
 122:.\BattMonitor.c **** 		Lights_SetLedMode(LED_BOARD_BATT_LVL_MID, OFF, 0);
 417              		.loc 1 122 0
 418 0272 4FF00400 		mov	r0, #4
 419 0276 4FF00001 		mov	r1, #0
 420 027a 4FF00002 		mov	r2, #0
 421 027e 4FF00003 		mov	r3, #0
 422 0282 FFF7FEFF 		bl	Lights_SetLedMode
 123:.\BattMonitor.c **** 		Lights_SetLedMode(LED_BOARD_BATT_LVL_TOP, OFF, 0);
 423              		.loc 1 123 0
 424 0286 4FF00300 		mov	r0, #3
 425 028a 4FF00001 		mov	r1, #0
 426 028e 4FF00002 		mov	r2, #0
 427 0292 4FF00003 		mov	r3, #0
 428 0296 FFF7FEFF 		bl	Lights_SetLedMode
 429              	.L19:
 430              	.LBE5:
 124:.\BattMonitor.c **** 		
 125:.\BattMonitor.c **** 	}
 126:.\BattMonitor.c **** 	if(boardBattVoltage >= _boardBattVoltThreshold1 && boardBattVoltage < _boardBattVoltThreshold2)
ARM GAS  C:\Users\Geo\AppData\Local\Temp\ccuR14Bp.s 			page 11


 431              		.loc 1 126 0
 432 029a 40F20003 		movw	r3, #:lower16:_boardBattVoltThreshold1
 433 029e C0F20003 		movt	r3, #:upper16:_boardBattVoltThreshold1
 434 02a2 D3E90023 		ldrd	r2, [r3]
 435 02a6 4FF00001 		mov	r1, #0
 436 02aa 0C46     		mov	r4, r1
 437 02ac D7E90001 		ldrd	r0, [r7]
 438 02b0 FFF7FEFF 		bl	__aeabi_dcmpge
 439 02b4 0346     		mov	r3, r0
 440 02b6 002B     		cmp	r3, #0
 441 02b8 02D0     		beq	.L20
 442              	.L21:
 443 02ba 4FF00103 		mov	r3, #1
 444 02be 1C46     		mov	r4, r3
 445              	.L20:
 446 02c0 E3B2     		uxtb	r3, r4
 447 02c2 002B     		cmp	r3, #0
 448 02c4 4BD0     		beq	.L22
 449 02c6 40F20003 		movw	r3, #:lower16:_boardBattVoltThreshold2
 450 02ca C0F20003 		movt	r3, #:upper16:_boardBattVoltThreshold2
 451 02ce D3E90023 		ldrd	r2, [r3]
 452 02d2 4FF00001 		mov	r1, #0
 453 02d6 0C46     		mov	r4, r1
 454 02d8 D7E90001 		ldrd	r0, [r7]
 455 02dc FFF7FEFF 		bl	__aeabi_dcmplt
 456 02e0 0346     		mov	r3, r0
 457 02e2 002B     		cmp	r3, #0
 458 02e4 02D0     		beq	.L23
 459              	.L24:
 460 02e6 4FF00103 		mov	r3, #1
 461 02ea 1C46     		mov	r4, r3
 462              	.L23:
 463 02ec E3B2     		uxtb	r3, r4
 464 02ee 002B     		cmp	r3, #0
 465 02f0 35D0     		beq	.L22
 466              	.LBB6:
 127:.\BattMonitor.c **** 	{
 128:.\BattMonitor.c **** 		// Voltage is in middle third
 129:.\BattMonitor.c **** 		double flashRate = BattMonitor_CalculateFlashRate(boardBattVoltage - _boardBattVoltThreshold1, _b
 467              		.loc 1 129 0
 468 02f2 40F20003 		movw	r3, #:lower16:_boardBattVoltThreshold1
 469 02f6 C0F20003 		movt	r3, #:upper16:_boardBattVoltThreshold1
 470 02fa D3E90023 		ldrd	r2, [r3]
 471 02fe D7E90001 		ldrd	r0, [r7]
 472 0302 FFF7FEFF 		bl	__aeabi_dsub
 473 0306 0246     		mov	r2, r0
 474 0308 0B46     		mov	r3, r1
 475 030a 1046     		mov	r0, r2
 476 030c 1946     		mov	r1, r3
 477 030e 40F20003 		movw	r3, #:lower16:_boardBattVoltBetweenThresholds
 478 0312 C0F20003 		movt	r3, #:upper16:_boardBattVoltBetweenThresholds
 479 0316 D3E90023 		ldrd	r2, [r3]
 480 031a FFF7FEFF 		bl	BattMonitor_CalculateFlashRate
 481 031e 0246     		mov	r2, r0
 482 0320 0B46     		mov	r3, r1
 483 0322 C7E90C23 		strd	r2, [r7, #48]
 130:.\BattMonitor.c **** 		// Turn bottom led on, and flash middle led
ARM GAS  C:\Users\Geo\AppData\Local\Temp\ccuR14Bp.s 			page 12


 131:.\BattMonitor.c **** 		Lights_SetLedMode(LED_BOARD_BATT_LVL_BOT, ON, 0);
 484              		.loc 1 131 0
 485 0326 4FF00500 		mov	r0, #5
 486 032a 4FF00101 		mov	r1, #1
 487 032e 4FF00002 		mov	r2, #0
 488 0332 4FF00003 		mov	r3, #0
 489 0336 FFF7FEFF 		bl	Lights_SetLedMode
 132:.\BattMonitor.c **** 		Lights_SetLedMode(LED_BOARD_BATT_LVL_MID, FLASHING, flashRate);
 490              		.loc 1 132 0
 491 033a 4FF00400 		mov	r0, #4
 492 033e 4FF00201 		mov	r1, #2
 493 0342 D7E90C23 		ldrd	r2, [r7, #48]
 494 0346 FFF7FEFF 		bl	Lights_SetLedMode
 133:.\BattMonitor.c **** 		Lights_SetLedMode(LED_BOARD_BATT_LVL_TOP, OFF, 0);
 495              		.loc 1 133 0
 496 034a 4FF00300 		mov	r0, #3
 497 034e 4FF00001 		mov	r1, #0
 498 0352 4FF00002 		mov	r2, #0
 499 0356 4FF00003 		mov	r3, #0
 500 035a FFF7FEFF 		bl	Lights_SetLedMode
 501              	.L22:
 502              	.LBE6:
 134:.\BattMonitor.c **** 
 135:.\BattMonitor.c **** 	}
 136:.\BattMonitor.c **** 	if(boardBattVoltage >= _boardBattVoltThreshold2)
 503              		.loc 1 136 0
 504 035e 40F20003 		movw	r3, #:lower16:_boardBattVoltThreshold2
 505 0362 C0F20003 		movt	r3, #:upper16:_boardBattVoltThreshold2
 506 0366 D3E90023 		ldrd	r2, [r3]
 507 036a 4FF00001 		mov	r1, #0
 508 036e 0C46     		mov	r4, r1
 509 0370 D7E90001 		ldrd	r0, [r7]
 510 0374 FFF7FEFF 		bl	__aeabi_dcmpge
 511 0378 0346     		mov	r3, r0
 512 037a 002B     		cmp	r3, #0
 513 037c 02D0     		beq	.L25
 514              	.L26:
 515 037e 4FF00103 		mov	r3, #1
 516 0382 1C46     		mov	r4, r3
 517              	.L25:
 518 0384 E3B2     		uxtb	r3, r4
 519 0386 002B     		cmp	r3, #0
 520 0388 35D0     		beq	.L27
 521              	.LBB7:
 137:.\BattMonitor.c **** 	{
 138:.\BattMonitor.c **** 		// Voltage is in top third or above max
 139:.\BattMonitor.c **** 		double flashRate = BattMonitor_CalculateFlashRate(boardBattVoltage - _boardBattVoltThreshold2, _b
 522              		.loc 1 139 0
 523 038a 40F20003 		movw	r3, #:lower16:_boardBattVoltThreshold2
 524 038e C0F20003 		movt	r3, #:upper16:_boardBattVoltThreshold2
 525 0392 D3E90023 		ldrd	r2, [r3]
 526 0396 D7E90001 		ldrd	r0, [r7]
 527 039a FFF7FEFF 		bl	__aeabi_dsub
 528 039e 0246     		mov	r2, r0
 529 03a0 0B46     		mov	r3, r1
 530 03a2 1046     		mov	r0, r2
 531 03a4 1946     		mov	r1, r3
ARM GAS  C:\Users\Geo\AppData\Local\Temp\ccuR14Bp.s 			page 13


 532 03a6 40F20003 		movw	r3, #:lower16:_boardBattVoltBetweenThresholds
 533 03aa C0F20003 		movt	r3, #:upper16:_boardBattVoltBetweenThresholds
 534 03ae D3E90023 		ldrd	r2, [r3]
 535 03b2 FFF7FEFF 		bl	BattMonitor_CalculateFlashRate
 536 03b6 0246     		mov	r2, r0
 537 03b8 0B46     		mov	r3, r1
 538 03ba C7E90E23 		strd	r2, [r7, #56]
 140:.\BattMonitor.c **** 		// Turn bottom two led's on, and flash top led
 141:.\BattMonitor.c **** 		Lights_SetLedMode(LED_BOARD_BATT_LVL_BOT, ON, 0);
 539              		.loc 1 141 0
 540 03be 4FF00500 		mov	r0, #5
 541 03c2 4FF00101 		mov	r1, #1
 542 03c6 4FF00002 		mov	r2, #0
 543 03ca 4FF00003 		mov	r3, #0
 544 03ce FFF7FEFF 		bl	Lights_SetLedMode
 142:.\BattMonitor.c **** 		Lights_SetLedMode(LED_BOARD_BATT_LVL_MID, ON, 0);
 545              		.loc 1 142 0
 546 03d2 4FF00400 		mov	r0, #4
 547 03d6 4FF00101 		mov	r1, #1
 548 03da 4FF00002 		mov	r2, #0
 549 03de 4FF00003 		mov	r3, #0
 550 03e2 FFF7FEFF 		bl	Lights_SetLedMode
 143:.\BattMonitor.c **** 		Lights_SetLedMode(LED_BOARD_BATT_LVL_TOP, FLASHING, flashRate);
 551              		.loc 1 143 0
 552 03e6 4FF00300 		mov	r0, #3
 553 03ea 4FF00201 		mov	r1, #2
 554 03ee D7E90E23 		ldrd	r2, [r7, #56]
 555 03f2 FFF7FEFF 		bl	Lights_SetLedMode
 556              	.L27:
 557              	.LBE7:
 144:.\BattMonitor.c **** 	}
 145:.\BattMonitor.c **** 	
 146:.\BattMonitor.c **** 	// Increment counter
 147:.\BattMonitor.c **** 	counter++;
 558              		.loc 1 147 0
 559 03f6 40F20003 		movw	r3, #:lower16:counter.3035
 560 03fa C0F20003 		movt	r3, #:upper16:counter.3035
 561 03fe 1B68     		ldr	r3, [r3, #0]
 562 0400 03F10102 		add	r2, r3, #1
 563 0404 40F20003 		movw	r3, #:lower16:counter.3035
 564 0408 C0F20003 		movt	r3, #:upper16:counter.3035
 565 040c 1A60     		str	r2, [r3, #0]
 148:.\BattMonitor.c **** 		
 149:.\BattMonitor.c **** }
 566              		.loc 1 149 0
 567 040e 07F14407 		add	r7, r7, #68
 568 0412 BD46     		mov	sp, r7
 569 0414 90BD     		pop	{r4, r7, pc}
 570              		.cfi_endproc
 571              	.LFE30:
 572              		.size	BattMonitor_Run, .-BattMonitor_Run
 573              		.global	__aeabi_ddiv
 574              		.global	__aeabi_dmul
 575              		.global	__aeabi_dadd
 576 0416 00BF     		.section	.text.BattMonitor_CalculateFlashRate,"ax",%progbits
 577              		.align	2
 578              		.global	BattMonitor_CalculateFlashRate
ARM GAS  C:\Users\Geo\AppData\Local\Temp\ccuR14Bp.s 			page 14


 579              		.thumb
 580              		.thumb_func
 581              		.type	BattMonitor_CalculateFlashRate, %function
 582              	BattMonitor_CalculateFlashRate:
 583              	.LFB31:
 150:.\BattMonitor.c **** 
 151:.\BattMonitor.c **** //! @brief 		Calculates the flash rate of a led given a voltage
 152:.\BattMonitor.c **** //! @details	The voltage has to range from 0 to the maximum between two voltage thresholds
 153:.\BattMonitor.c **** double BattMonitor_CalculateFlashRate(double voltage, double voltageBetweenThresholds)
 154:.\BattMonitor.c **** {
 584              		.loc 1 154 0
 585              		.cfi_startproc
 586              		@ args = 0, pretend = 0, frame = 40
 587              		@ frame_needed = 1, uses_anonymous_args = 0
 588 0000 90B5     		push	{r4, r7, lr}
 589              	.LCFI5:
 590              		.cfi_def_cfa_offset 12
 591 0002 8BB0     		sub	sp, sp, #44
 592              	.LCFI6:
 593              		.cfi_def_cfa_offset 56
 594 0004 00AF     		add	r7, sp, #0
 595              		.cfi_offset 14, -4
 596              		.cfi_offset 7, -8
 597              		.cfi_offset 4, -12
 598              	.LCFI7:
 599              		.cfi_def_cfa_register 7
 600 0006 C7E90201 		strd	r0, [r7, #8]
 601 000a C7E90023 		strd	r2, [r7]
 155:.\BattMonitor.c **** 	// If voltage happens to be negative (as with the case if it was below voltMin, set to 0
 156:.\BattMonitor.c **** 	if(voltage < 0)
 602              		.loc 1 156 0
 603 000e 4FF00003 		mov	r3, #0
 604 0012 1C46     		mov	r4, r3
 605 0014 D7E90201 		ldrd	r0, [r7, #8]
 606 0018 4FF00002 		mov	r2, #0
 607 001c 4FF00003 		mov	r3, #0
 608 0020 FFF7FEFF 		bl	__aeabi_dcmplt
 609 0024 0346     		mov	r3, r0
 610 0026 002B     		cmp	r3, #0
 611 0028 02D0     		beq	.L30
 612              	.L31:
 613 002a 4FF00103 		mov	r3, #1
 614 002e 1C46     		mov	r4, r3
 615              	.L30:
 616 0030 E3B2     		uxtb	r3, r4
 617 0032 002B     		cmp	r3, #0
 618 0034 05D0     		beq	.L32
 157:.\BattMonitor.c **** 		voltage = 0;
 619              		.loc 1 157 0
 620 0036 4FF00002 		mov	r2, #0
 621 003a 4FF00003 		mov	r3, #0
 622 003e C7E90223 		strd	r2, [r7, #8]
 623              	.L32:
 158:.\BattMonitor.c **** 	
 159:.\BattMonitor.c **** 	// Should always be between 0 and 1. Ratio goes down as battery voltage drops.
 160:.\BattMonitor.c **** 	double voltRatio = voltage/voltageBetweenThresholds;
 624              		.loc 1 160 0
ARM GAS  C:\Users\Geo\AppData\Local\Temp\ccuR14Bp.s 			page 15


 625 0042 D7E90201 		ldrd	r0, [r7, #8]
 626 0046 D7E90023 		ldrd	r2, [r7]
 627 004a FFF7FEFF 		bl	__aeabi_ddiv
 628 004e 0246     		mov	r2, r0
 629 0050 0B46     		mov	r3, r1
 630 0052 C7E90423 		strd	r2, [r7, #16]
 161:.\BattMonitor.c **** 	
 162:.\BattMonitor.c **** 	double flashInterval = (configBATT_MONITOR_HIGHEST_FLASH_PERIOD_MS - configBATT_MONITOR_LOWEST_FLA
 631              		.loc 1 162 0
 632 0056 12A3     		adr	r3, .L34
 633 0058 D3E90023 		ldrd	r2, [r3]
 634 005c C7E90623 		strd	r2, [r7, #24]
 163:.\BattMonitor.c **** 	
 164:.\BattMonitor.c **** 	// Want led to flash faster as battery voltage drops, so flashPeriod needs to decrease and ratio d
 165:.\BattMonitor.c **** 	double flashPeriod = flashInterval*voltRatio + configBATT_MONITOR_LOWEST_FLASH_PERIOD_MS;
 635              		.loc 1 165 0
 636 0060 D7E90601 		ldrd	r0, [r7, #24]
 637 0064 D7E90423 		ldrd	r2, [r7, #16]
 638 0068 FFF7FEFF 		bl	__aeabi_dmul
 639 006c 0246     		mov	r2, r0
 640 006e 0B46     		mov	r3, r1
 641 0070 1046     		mov	r0, r2
 642 0072 1946     		mov	r1, r3
 643 0074 4FF00002 		mov	r2, #0
 644 0078 4FF08043 		mov	r3, #1073741824
 645 007c 03F59203 		add	r3, r3, #4784128
 646 0080 FFF7FEFF 		bl	__aeabi_dadd
 647 0084 0246     		mov	r2, r0
 648 0086 0B46     		mov	r3, r1
 649 0088 C7E90823 		strd	r2, [r7, #32]
 166:.\BattMonitor.c **** 	
 167:.\BattMonitor.c **** 	return flashPeriod;
 650              		.loc 1 167 0
 651 008c D7E90823 		ldrd	r2, [r7, #32]
 168:.\BattMonitor.c **** }
 652              		.loc 1 168 0
 653 0090 1046     		mov	r0, r2
 654 0092 1946     		mov	r1, r3
 655 0094 07F12C07 		add	r7, r7, #44
 656 0098 BD46     		mov	sp, r7
 657 009a 90BD     		pop	{r4, r7, pc}
 658              	.L35:
 659 009c AFF30080 		.align	3
 660              	.L34:
 661 00a0 00000000 		.word	0
 662 00a4 00B08D40 		.word	1083027456
 663              		.cfi_endproc
 664              	.LFE31:
 665              		.size	BattMonitor_CalculateFlashRate, .-BattMonitor_CalculateFlashRate
 666              		.bss
 667              		.align	2
 668              	counter.3035:
 669 0050 00000000 		.space	4
 670 0054 00000000 		.text
 671              	.Letext0: