ARM GAS  C:\Users\Geo\AppData\Local\Temp\ccxrnYLn.s 			page 1


   1              		.syntax unified
   2              		.cpu cortex-m3
   3              		.fpu softvfp
   4              		.eabi_attribute 20, 1
   5              		.eabi_attribute 21, 1
   6              		.eabi_attribute 23, 3
   7              		.eabi_attribute 24, 1
   8              		.eabi_attribute 25, 1
   9              		.eabi_attribute 26, 1
  10              		.eabi_attribute 30, 6
  11              		.eabi_attribute 18, 4
  12              		.thumb
  13              		.file	"Buttons.c"
  20 0000 2F020000 		.text
  20      02001C01 
  20      00000201 
  20      FB0E0D00 
  20      01010101 
  21              	.Ltext0:
  22              		.cfi_sections	.debug_frame
  23              		.global	motorState
  24              		.bss
  25              		.type	motorState, %object
  26              		.size	motorState, 1
  27              	motorState:
  28 0000 00       		.space	1
  29              		.global	lightsOnOffState
  30              		.type	lightsOnOffState, %object
  31              		.size	lightsOnOffState, 1
  32              	lightsOnOffState:
  33 0001 00       		.space	1
  34              		.global	alarmState
  35              		.type	alarmState, %object
  36              		.size	alarmState, 1
  37              	alarmState:
  38 0002 00       		.space	1
  39              		.global	lightModeState
  40              		.type	lightModeState, %object
  41              		.size	lightModeState, 1
  42              	lightModeState:
  43 0003 00       		.space	1
  44              		.section	.text.Buttons_Init,"ax",%progbits
  45              		.align	2
  46              		.global	Buttons_Init
  47              		.thumb
  48              		.thumb_func
  49              		.type	Buttons_Init, %function
  50              	Buttons_Init:
  51              	.LFB29:
  52              		.file 1 ".\\Buttons.c"
   1:.\Buttons.c   **** //!
ARM GAS  C:\Users\Geo\AppData\Local\Temp\ccxrnYLn.s 			page 2


   2:.\Buttons.c   **** //! @file 		Buttons.c
   3:.\Buttons.c   **** //! @author 	Geoffrey Hunter (gbmhunter@gmail.com)
   4:.\Buttons.c   **** //! @date 		14/05/2011
   5:.\Buttons.c   **** //! @brief 		Handles the cap sense buttons.
   6:.\Buttons.c   **** //! @details
   7:.\Buttons.c   **** //!		<b>Last Modified:			</b> 14/05/2011								\n
   8:.\Buttons.c   **** //!		<b>Version:					</b> v1.0									\n
   9:.\Buttons.c   **** //!		<b>Company:					</b> CladLabs								\n
  10:.\Buttons.c   **** //!		<b>Project:					</b> Electric Skateboard - Skateboard Remote\n
  11:.\Buttons.c   **** //!		<b>Computer Architecture:	</b> ARM									\n
  12:.\Buttons.c   **** //!		<b>Compiler:				</b> GCC									\n
  13:.\Buttons.c   **** //! 	<b>uC Model:				</b> PSoC5									\n
  14:.\Buttons.c   **** //!		<b>Documentation Format:	</b> Doxygen								\n
  15:.\Buttons.c   **** //!		
  16:.\Buttons.c   **** //!		Controls the buttons on the board.
  17:.\Buttons.c   **** //!
  18:.\Buttons.c   **** 
  19:.\Buttons.c   **** //=================================================================================================
  20:.\Buttons.c   **** //============================================ INFO ===============================================
  21:.\Buttons.c   **** //=================================================================================================
  22:.\Buttons.c   **** 
  23:.\Buttons.c   **** //=================================================================================================
  24:.\Buttons.c   **** //======================================= FILE INCLUSIONS =========================================
  25:.\Buttons.c   **** //=================================================================================================
  26:.\Buttons.c   **** 
  27:.\Buttons.c   **** #include <device.h>
  28:.\Buttons.c   **** 
  29:.\Buttons.c   **** #include "../common/PublicObjects.h"
  30:.\Buttons.c   **** 
  31:.\Buttons.c   **** #include "Buttons.h"
  32:.\Buttons.c   **** #include "Lights.h"
  33:.\Buttons.c   **** 
  34:.\Buttons.c   **** //===============================================================================================//
  35:.\Buttons.c   **** //=================================== PRECOMPILER CHECKS ========================================//
  36:.\Buttons.c   **** //===============================================================================================//
  37:.\Buttons.c   **** 
  38:.\Buttons.c   **** //=================================================================================================
  39:.\Buttons.c   **** //========================================== DEFINES ==============================================
  40:.\Buttons.c   **** //=================================================================================================
  41:.\Buttons.c   **** 
  42:.\Buttons.c   **** //=================================================================================================
  43:.\Buttons.c   **** //========================================== TYPEDEF's ============================================
  44:.\Buttons.c   **** //=================================================================================================
  45:.\Buttons.c   **** 
  46:.\Buttons.c   **** //=================================================================================================
  47:.\Buttons.c   **** //==================================== PRIVATE VARIABLES ==========================================
  48:.\Buttons.c   **** //=================================================================================================
  49:.\Buttons.c   **** 
  50:.\Buttons.c   **** typedef enum
  51:.\Buttons.c   **** {
  52:.\Buttons.c   **** 	ST_OFF,
  53:.\Buttons.c   **** 	ST_HALF_ON,
  54:.\Buttons.c   **** 	ST_ON,
  55:.\Buttons.c   **** 	ST_HALF_OFF
  56:.\Buttons.c   **** } buttonsState_t;
  57:.\Buttons.c   **** 
  58:.\Buttons.c   **** // Button state variables
ARM GAS  C:\Users\Geo\AppData\Local\Temp\ccxrnYLn.s 			page 3


  59:.\Buttons.c   **** buttonsState_t motorState = ST_OFF;
  60:.\Buttons.c   **** buttonsState_t lightsOnOffState = ST_OFF;
  61:.\Buttons.c   **** buttonsState_t alarmState = ST_OFF;
  62:.\Buttons.c   **** buttonsState_t lightModeState = ST_OFF;
  63:.\Buttons.c   **** //=================================================================================================
  64:.\Buttons.c   **** //=============================== PRIVATE FUNCTION PROTOTYPES =====================================
  65:.\Buttons.c   **** //=================================================================================================
  66:.\Buttons.c   **** 
  67:.\Buttons.c   **** void Buttons_MotorStateMachine(uint8 motorButtonActive);
  68:.\Buttons.c   **** void Buttons_LightsOnOffStateMachine(uint8 lightsOnOffButtonActive);
  69:.\Buttons.c   **** void Buttons_AlarmStateMachine(uint8_t alarmButtonActive);
  70:.\Buttons.c   **** void Buttons_LightModeStateMachine(uint8_t lightModeButtonActive);
  71:.\Buttons.c   **** 
  72:.\Buttons.c   **** //=================================================================================================
  73:.\Buttons.c   **** //===================================== PUBLIC FUNCTIONS ==========================================
  74:.\Buttons.c   **** //=================================================================================================
  75:.\Buttons.c   **** 
  76:.\Buttons.c   **** //! @brief		Initialises cap sense required for buttons
  77:.\Buttons.c   **** //! @note		Call before calling any other Buttons.c function
  78:.\Buttons.c   **** void Buttons_Init(void)
  79:.\Buttons.c   **** {
  53              		.loc 1 79 0
  54              		.cfi_startproc
  55              		@ args = 0, pretend = 0, frame = 0
  56              		@ frame_needed = 1, uses_anonymous_args = 0
  57 0000 80B5     		push	{r7, lr}
  58              	.LCFI0:
  59              		.cfi_def_cfa_offset 8
  60 0002 00AF     		add	r7, sp, #0
  61              		.cfi_offset 14, -4
  62              		.cfi_offset 7, -8
  63              	.LCFI1:
  64              		.cfi_def_cfa_register 7
  80:.\Buttons.c   **** 	CapSense_Start();
  65              		.loc 1 80 0
  66 0004 FFF7FEFF 		bl	CapSense_Start
  81:.\Buttons.c   **** 	CapSense_InitializeAllBaselines();
  67              		.loc 1 81 0
  68 0008 FFF7FEFF 		bl	CapSense_InitializeAllBaselines
  82:.\Buttons.c   **** 	
  83:.\Buttons.c   **** }
  69              		.loc 1 83 0
  70 000c 80BD     		pop	{r7, pc}
  71              		.cfi_endproc
  72              	.LFE29:
  73              		.size	Buttons_Init, .-Buttons_Init
  74 000e 00BF     		.section	.text.Buttons_Run,"ax",%progbits
  75              		.align	2
  76              		.global	Buttons_Run
  77              		.thumb
  78              		.thumb_func
  79              		.type	Buttons_Run, %function
  80              	Buttons_Run:
  81              	.LFB30:
  84:.\Buttons.c   **** 
  85:.\Buttons.c   **** //! @brief		Buttons state machine
  86:.\Buttons.c   **** //! @note		Call once every tick
ARM GAS  C:\Users\Geo\AppData\Local\Temp\ccxrnYLn.s 			page 4


  87:.\Buttons.c   **** void Buttons_Run(void)
  88:.\Buttons.c   **** {
  82              		.loc 1 88 0
  83              		.cfi_startproc
  84              		@ args = 0, pretend = 0, frame = 8
  85              		@ frame_needed = 1, uses_anonymous_args = 0
  86 0000 80B5     		push	{r7, lr}
  87              	.LCFI2:
  88              		.cfi_def_cfa_offset 8
  89 0002 82B0     		sub	sp, sp, #8
  90              	.LCFI3:
  91              		.cfi_def_cfa_offset 16
  92 0004 00AF     		add	r7, sp, #0
  93              		.cfi_offset 14, -4
  94              		.cfi_offset 7, -8
  95              	.LCFI4:
  96              		.cfi_def_cfa_register 7
  89:.\Buttons.c   **** 	CapSense_ScanEnabledWidgets();
  97              		.loc 1 89 0
  98 0006 FFF7FEFF 		bl	CapSense_ScanEnabledWidgets
  99              	.L4:
  90:.\Buttons.c   **** 	while(CapSense_IsBusy());
 100              		.loc 1 90 0
 101 000a FFF7FEFF 		bl	CapSense_IsBusy
 102 000e 0346     		mov	r3, r0
 103 0010 002B     		cmp	r3, #0
 104 0012 FAD1     		bne	.L4
  91:.\Buttons.c   **** 	
  92:.\Buttons.c   **** 	uint8 motorButtonActive = 0;
 105              		.loc 1 92 0
 106 0014 4FF00003 		mov	r3, #0
 107 0018 3B71     		strb	r3, [r7, #4]
  93:.\Buttons.c   **** 	uint8 lightsButtonActive = 0;
 108              		.loc 1 93 0
 109 001a 4FF00003 		mov	r3, #0
 110 001e 7B71     		strb	r3, [r7, #5]
  94:.\Buttons.c   **** 	uint8 alarmButtonActive = 0;
 111              		.loc 1 94 0
 112 0020 4FF00003 		mov	r3, #0
 113 0024 BB71     		strb	r3, [r7, #6]
  95:.\Buttons.c   **** 	uint8_t lightModeButtonActive = 0;
 114              		.loc 1 95 0
 115 0026 4FF00003 		mov	r3, #0
 116 002a FB71     		strb	r3, [r7, #7]
  96:.\Buttons.c   **** 	
  97:.\Buttons.c   **** 	// Check buttons states
  98:.\Buttons.c   **** 	
  99:.\Buttons.c   **** 	//============================= MOTOR ON/OFF =======================//
 100:.\Buttons.c   **** 	
 101:.\Buttons.c   **** 	motorButtonActive = CapSense_CheckIsWidgetActive(CapSense_BUTTONMOTORONOFF__BTN);
 117              		.loc 1 101 0
 118 002c 4FF00000 		mov	r0, #0
 119 0030 FFF7FEFF 		bl	CapSense_CheckIsWidgetActive
 120 0034 0346     		mov	r3, r0
 121 0036 3B71     		strb	r3, [r7, #4]
 102:.\Buttons.c   **** 	
 103:.\Buttons.c   **** 	if(motorButtonActive)
ARM GAS  C:\Users\Geo\AppData\Local\Temp\ccxrnYLn.s 			page 5


 122              		.loc 1 103 0
 123 0038 3B79     		ldrb	r3, [r7, #4]	@ zero_extendqisi2
 124 003a 002B     		cmp	r3, #0
 125 003c 04D0     		beq	.L5
 104:.\Buttons.c   **** 		Buttons_MotorStateMachine(1);
 126              		.loc 1 104 0
 127 003e 4FF00100 		mov	r0, #1
 128 0042 FFF7FEFF 		bl	Buttons_MotorStateMachine
 129 0046 03E0     		b	.L6
 130              	.L5:
 105:.\Buttons.c   **** 	else
 106:.\Buttons.c   **** 		Buttons_MotorStateMachine(0);
 131              		.loc 1 106 0
 132 0048 4FF00000 		mov	r0, #0
 133 004c FFF7FEFF 		bl	Buttons_MotorStateMachine
 134              	.L6:
 107:.\Buttons.c   **** 		
 108:.\Buttons.c   **** 	//============================= LIGHTS ON/OFF =======================//
 109:.\Buttons.c   **** 	
 110:.\Buttons.c   **** 	lightsButtonActive = CapSense_CheckIsWidgetActive(CapSense_BUTTONLIGHTSONOFF__BTN);
 135              		.loc 1 110 0
 136 0050 4FF00100 		mov	r0, #1
 137 0054 FFF7FEFF 		bl	CapSense_CheckIsWidgetActive
 138 0058 0346     		mov	r3, r0
 139 005a 7B71     		strb	r3, [r7, #5]
 111:.\Buttons.c   **** 	
 112:.\Buttons.c   **** 	if(lightsButtonActive)
 140              		.loc 1 112 0
 141 005c 7B79     		ldrb	r3, [r7, #5]	@ zero_extendqisi2
 142 005e 002B     		cmp	r3, #0
 143 0060 04D0     		beq	.L7
 113:.\Buttons.c   **** 		Buttons_LightsOnOffStateMachine(1);
 144              		.loc 1 113 0
 145 0062 4FF00100 		mov	r0, #1
 146 0066 FFF7FEFF 		bl	Buttons_LightsOnOffStateMachine
 147 006a 03E0     		b	.L8
 148              	.L7:
 114:.\Buttons.c   **** 	else
 115:.\Buttons.c   **** 		Buttons_LightsOnOffStateMachine(0);
 149              		.loc 1 115 0
 150 006c 4FF00000 		mov	r0, #0
 151 0070 FFF7FEFF 		bl	Buttons_LightsOnOffStateMachine
 152              	.L8:
 116:.\Buttons.c   **** 		
 117:.\Buttons.c   **** 	//============================= ALARM ON/OFF =======================//
 118:.\Buttons.c   **** 	
 119:.\Buttons.c   **** 	alarmButtonActive = CapSense_CheckIsWidgetActive(CapSense_BUTTONALARMONOFF__BTN);
 153              		.loc 1 119 0
 154 0074 4FF00200 		mov	r0, #2
 155 0078 FFF7FEFF 		bl	CapSense_CheckIsWidgetActive
 156 007c 0346     		mov	r3, r0
 157 007e BB71     		strb	r3, [r7, #6]
 120:.\Buttons.c   **** 	
 121:.\Buttons.c   **** 	if(alarmButtonActive)
 158              		.loc 1 121 0
 159 0080 BB79     		ldrb	r3, [r7, #6]	@ zero_extendqisi2
 160 0082 002B     		cmp	r3, #0
ARM GAS  C:\Users\Geo\AppData\Local\Temp\ccxrnYLn.s 			page 6


 161 0084 04D0     		beq	.L9
 122:.\Buttons.c   **** 	{
 123:.\Buttons.c   **** 		Buttons_AlarmStateMachine(1);
 162              		.loc 1 123 0
 163 0086 4FF00100 		mov	r0, #1
 164 008a FFF7FEFF 		bl	Buttons_AlarmStateMachine
 165 008e 03E0     		b	.L10
 166              	.L9:
 124:.\Buttons.c   **** 	}
 125:.\Buttons.c   **** 	else
 126:.\Buttons.c   **** 		Buttons_AlarmStateMachine(0);
 167              		.loc 1 126 0
 168 0090 4FF00000 		mov	r0, #0
 169 0094 FFF7FEFF 		bl	Buttons_AlarmStateMachine
 170              	.L10:
 127:.\Buttons.c   **** 		
 128:.\Buttons.c   **** 	//============================= LIGHT MODE ON/OFF =======================//
 129:.\Buttons.c   **** 	
 130:.\Buttons.c   **** 	lightModeButtonActive = CapSense_CheckIsWidgetActive(CapSense_BUTTONLIGHTMODE__BTN);
 171              		.loc 1 130 0
 172 0098 4FF00300 		mov	r0, #3
 173 009c FFF7FEFF 		bl	CapSense_CheckIsWidgetActive
 174 00a0 0346     		mov	r3, r0
 175 00a2 FB71     		strb	r3, [r7, #7]
 131:.\Buttons.c   **** 	
 132:.\Buttons.c   **** 	if(lightModeButtonActive)
 176              		.loc 1 132 0
 177 00a4 FB79     		ldrb	r3, [r7, #7]	@ zero_extendqisi2
 178 00a6 002B     		cmp	r3, #0
 179 00a8 04D0     		beq	.L11
 133:.\Buttons.c   **** 	{
 134:.\Buttons.c   **** 		Buttons_LightModeStateMachine(1);
 180              		.loc 1 134 0
 181 00aa 4FF00100 		mov	r0, #1
 182 00ae FFF7FEFF 		bl	Buttons_LightModeStateMachine
 183 00b2 03E0     		b	.L12
 184              	.L11:
 135:.\Buttons.c   **** 	}
 136:.\Buttons.c   **** 	else
 137:.\Buttons.c   **** 		Buttons_LightModeStateMachine(0);
 185              		.loc 1 137 0
 186 00b4 4FF00000 		mov	r0, #0
 187 00b8 FFF7FEFF 		bl	Buttons_LightModeStateMachine
 188              	.L12:
 138:.\Buttons.c   **** 	
 139:.\Buttons.c   **** 	// Update the baselines
 140:.\Buttons.c   **** 	CapSense_UpdateEnabledBaselines();
 189              		.loc 1 140 0
 190 00bc FFF7FEFF 		bl	CapSense_UpdateEnabledBaselines
 141:.\Buttons.c   **** 	
 142:.\Buttons.c   **** 	
 143:.\Buttons.c   **** 	
 144:.\Buttons.c   **** }
 191              		.loc 1 144 0
 192 00c0 07F10807 		add	r7, r7, #8
 193 00c4 BD46     		mov	sp, r7
 194 00c6 80BD     		pop	{r7, pc}
ARM GAS  C:\Users\Geo\AppData\Local\Temp\ccxrnYLn.s 			page 7


 195              		.cfi_endproc
 196              	.LFE30:
 197              		.size	Buttons_Run, .-Buttons_Run
 198              		.section	.text.Buttons_IsMotorButtonPressed,"ax",%progbits
 199              		.align	2
 200              		.global	Buttons_IsMotorButtonPressed
 201              		.thumb
 202              		.thumb_func
 203              		.type	Buttons_IsMotorButtonPressed, %function
 204              	Buttons_IsMotorButtonPressed:
 205              	.LFB31:
 145:.\Buttons.c   **** 
 146:.\Buttons.c   **** 
 147:.\Buttons.c   **** bool_t Buttons_IsMotorButtonPressed(void)
 148:.\Buttons.c   **** {
 206              		.loc 1 148 0
 207              		.cfi_startproc
 208              		@ args = 0, pretend = 0, frame = 0
 209              		@ frame_needed = 1, uses_anonymous_args = 0
 210              		@ link register save eliminated.
 211 0000 80B4     		push	{r7}
 212              	.LCFI5:
 213              		.cfi_def_cfa_offset 4
 214 0002 00AF     		add	r7, sp, #0
 215              		.cfi_offset 7, -4
 216              	.LCFI6:
 217              		.cfi_def_cfa_register 7
 149:.\Buttons.c   **** 	if(motorState == ST_ON || motorState == ST_HALF_OFF)
 218              		.loc 1 149 0
 219 0004 40F20003 		movw	r3, #:lower16:motorState
 220 0008 C0F20003 		movt	r3, #:upper16:motorState
 221 000c 1B78     		ldrb	r3, [r3, #0]	@ zero_extendqisi2
 222 000e 022B     		cmp	r3, #2
 223 0010 06D0     		beq	.L15
 224 0012 40F20003 		movw	r3, #:lower16:motorState
 225 0016 C0F20003 		movt	r3, #:upper16:motorState
 226 001a 1B78     		ldrb	r3, [r3, #0]	@ zero_extendqisi2
 227 001c 032B     		cmp	r3, #3
 228 001e 02D1     		bne	.L16
 229              	.L15:
 150:.\Buttons.c   **** 		return TRUE;
 230              		.loc 1 150 0
 231 0020 4FF00103 		mov	r3, #1
 232 0024 01E0     		b	.L17
 233              	.L16:
 151:.\Buttons.c   **** 	else
 152:.\Buttons.c   **** 		return FALSE;
 234              		.loc 1 152 0
 235 0026 4FF00003 		mov	r3, #0
 236              	.L17:
 153:.\Buttons.c   **** 	
 154:.\Buttons.c   **** }
 237              		.loc 1 154 0
 238 002a 1846     		mov	r0, r3
 239 002c BD46     		mov	sp, r7
 240 002e 80BC     		pop	{r7}
 241 0030 7047     		bx	lr
ARM GAS  C:\Users\Geo\AppData\Local\Temp\ccxrnYLn.s 			page 8


 242              		.cfi_endproc
 243              	.LFE31:
 244              		.size	Buttons_IsMotorButtonPressed, .-Buttons_IsMotorButtonPressed
 245 0032 00BF     		.section	.text.Buttons_IsLightsOnOffButtonPressed,"ax",%progbits
 246              		.align	2
 247              		.global	Buttons_IsLightsOnOffButtonPressed
 248              		.thumb
 249              		.thumb_func
 250              		.type	Buttons_IsLightsOnOffButtonPressed, %function
 251              	Buttons_IsLightsOnOffButtonPressed:
 252              	.LFB32:
 155:.\Buttons.c   **** 
 156:.\Buttons.c   **** bool_t Buttons_IsLightsOnOffButtonPressed(void)
 157:.\Buttons.c   **** {
 253              		.loc 1 157 0
 254              		.cfi_startproc
 255              		@ args = 0, pretend = 0, frame = 0
 256              		@ frame_needed = 1, uses_anonymous_args = 0
 257              		@ link register save eliminated.
 258 0000 80B4     		push	{r7}
 259              	.LCFI7:
 260              		.cfi_def_cfa_offset 4
 261 0002 00AF     		add	r7, sp, #0
 262              		.cfi_offset 7, -4
 263              	.LCFI8:
 264              		.cfi_def_cfa_register 7
 158:.\Buttons.c   **** 	if(lightsOnOffState == ST_ON || lightsOnOffState == ST_HALF_OFF)
 265              		.loc 1 158 0
 266 0004 40F20003 		movw	r3, #:lower16:lightsOnOffState
 267 0008 C0F20003 		movt	r3, #:upper16:lightsOnOffState
 268 000c 1B78     		ldrb	r3, [r3, #0]	@ zero_extendqisi2
 269 000e 022B     		cmp	r3, #2
 270 0010 06D0     		beq	.L20
 271 0012 40F20003 		movw	r3, #:lower16:lightsOnOffState
 272 0016 C0F20003 		movt	r3, #:upper16:lightsOnOffState
 273 001a 1B78     		ldrb	r3, [r3, #0]	@ zero_extendqisi2
 274 001c 032B     		cmp	r3, #3
 275 001e 02D1     		bne	.L21
 276              	.L20:
 159:.\Buttons.c   **** 		return TRUE;
 277              		.loc 1 159 0
 278 0020 4FF00103 		mov	r3, #1
 279 0024 01E0     		b	.L22
 280              	.L21:
 160:.\Buttons.c   **** 	else
 161:.\Buttons.c   **** 		return FALSE;
 281              		.loc 1 161 0
 282 0026 4FF00003 		mov	r3, #0
 283              	.L22:
 162:.\Buttons.c   **** 	
 163:.\Buttons.c   **** }
 284              		.loc 1 163 0
 285 002a 1846     		mov	r0, r3
 286 002c BD46     		mov	sp, r7
 287 002e 80BC     		pop	{r7}
 288 0030 7047     		bx	lr
 289              		.cfi_endproc
ARM GAS  C:\Users\Geo\AppData\Local\Temp\ccxrnYLn.s 			page 9


 290              	.LFE32:
 291              		.size	Buttons_IsLightsOnOffButtonPressed, .-Buttons_IsLightsOnOffButtonPressed
 292 0032 00BF     		.section	.text.Buttons_IsAlarmButtonPressed,"ax",%progbits
 293              		.align	2
 294              		.global	Buttons_IsAlarmButtonPressed
 295              		.thumb
 296              		.thumb_func
 297              		.type	Buttons_IsAlarmButtonPressed, %function
 298              	Buttons_IsAlarmButtonPressed:
 299              	.LFB33:
 164:.\Buttons.c   **** 
 165:.\Buttons.c   **** bool_t Buttons_IsAlarmButtonPressed(void)
 166:.\Buttons.c   **** {
 300              		.loc 1 166 0
 301              		.cfi_startproc
 302              		@ args = 0, pretend = 0, frame = 0
 303              		@ frame_needed = 1, uses_anonymous_args = 0
 304              		@ link register save eliminated.
 305 0000 80B4     		push	{r7}
 306              	.LCFI9:
 307              		.cfi_def_cfa_offset 4
 308 0002 00AF     		add	r7, sp, #0
 309              		.cfi_offset 7, -4
 310              	.LCFI10:
 311              		.cfi_def_cfa_register 7
 167:.\Buttons.c   **** 	if(alarmState == ST_ON || alarmState == ST_HALF_OFF)
 312              		.loc 1 167 0
 313 0004 40F20003 		movw	r3, #:lower16:alarmState
 314 0008 C0F20003 		movt	r3, #:upper16:alarmState
 315 000c 1B78     		ldrb	r3, [r3, #0]	@ zero_extendqisi2
 316 000e 022B     		cmp	r3, #2
 317 0010 06D0     		beq	.L25
 318 0012 40F20003 		movw	r3, #:lower16:alarmState
 319 0016 C0F20003 		movt	r3, #:upper16:alarmState
 320 001a 1B78     		ldrb	r3, [r3, #0]	@ zero_extendqisi2
 321 001c 032B     		cmp	r3, #3
 322 001e 02D1     		bne	.L26
 323              	.L25:
 168:.\Buttons.c   **** 		return TRUE;
 324              		.loc 1 168 0
 325 0020 4FF00103 		mov	r3, #1
 326 0024 01E0     		b	.L27
 327              	.L26:
 169:.\Buttons.c   **** 	else
 170:.\Buttons.c   **** 		return FALSE;
 328              		.loc 1 170 0
 329 0026 4FF00003 		mov	r3, #0
 330              	.L27:
 171:.\Buttons.c   **** }
 331              		.loc 1 171 0
 332 002a 1846     		mov	r0, r3
 333 002c BD46     		mov	sp, r7
 334 002e 80BC     		pop	{r7}
 335 0030 7047     		bx	lr
 336              		.cfi_endproc
 337              	.LFE33:
 338              		.size	Buttons_IsAlarmButtonPressed, .-Buttons_IsAlarmButtonPressed
ARM GAS  C:\Users\Geo\AppData\Local\Temp\ccxrnYLn.s 			page 10


 339 0032 00BF     		.section	.text.Buttons_IsLightModeButtonPressed,"ax",%progbits
 340              		.align	2
 341              		.global	Buttons_IsLightModeButtonPressed
 342              		.thumb
 343              		.thumb_func
 344              		.type	Buttons_IsLightModeButtonPressed, %function
 345              	Buttons_IsLightModeButtonPressed:
 346              	.LFB34:
 172:.\Buttons.c   **** 
 173:.\Buttons.c   **** bool_t Buttons_IsLightModeButtonPressed(void)
 174:.\Buttons.c   **** {
 347              		.loc 1 174 0
 348              		.cfi_startproc
 349              		@ args = 0, pretend = 0, frame = 0
 350              		@ frame_needed = 1, uses_anonymous_args = 0
 351              		@ link register save eliminated.
 352 0000 80B4     		push	{r7}
 353              	.LCFI11:
 354              		.cfi_def_cfa_offset 4
 355 0002 00AF     		add	r7, sp, #0
 356              		.cfi_offset 7, -4
 357              	.LCFI12:
 358              		.cfi_def_cfa_register 7
 175:.\Buttons.c   **** 	if(lightModeState == ST_ON || lightModeState == ST_HALF_OFF)
 359              		.loc 1 175 0
 360 0004 40F20003 		movw	r3, #:lower16:lightModeState
 361 0008 C0F20003 		movt	r3, #:upper16:lightModeState
 362 000c 1B78     		ldrb	r3, [r3, #0]	@ zero_extendqisi2
 363 000e 022B     		cmp	r3, #2
 364 0010 06D0     		beq	.L30
 365 0012 40F20003 		movw	r3, #:lower16:lightModeState
 366 0016 C0F20003 		movt	r3, #:upper16:lightModeState
 367 001a 1B78     		ldrb	r3, [r3, #0]	@ zero_extendqisi2
 368 001c 032B     		cmp	r3, #3
 369 001e 02D1     		bne	.L31
 370              	.L30:
 176:.\Buttons.c   **** 		return TRUE;
 371              		.loc 1 176 0
 372 0020 4FF00103 		mov	r3, #1
 373 0024 01E0     		b	.L32
 374              	.L31:
 177:.\Buttons.c   **** 	else
 178:.\Buttons.c   **** 		return FALSE;
 375              		.loc 1 178 0
 376 0026 4FF00003 		mov	r3, #0
 377              	.L32:
 179:.\Buttons.c   **** }
 378              		.loc 1 179 0
 379 002a 1846     		mov	r0, r3
 380 002c BD46     		mov	sp, r7
 381 002e 80BC     		pop	{r7}
 382 0030 7047     		bx	lr
 383              		.cfi_endproc
 384              	.LFE34:
 385              		.size	Buttons_IsLightModeButtonPressed, .-Buttons_IsLightModeButtonPressed
 386 0032 00BF     		.section	.text.Buttons_ResetLightModeButtonState,"ax",%progbits
 387              		.align	2
ARM GAS  C:\Users\Geo\AppData\Local\Temp\ccxrnYLn.s 			page 11


 388              		.global	Buttons_ResetLightModeButtonState
 389              		.thumb
 390              		.thumb_func
 391              		.type	Buttons_ResetLightModeButtonState, %function
 392              	Buttons_ResetLightModeButtonState:
 393              	.LFB35:
 180:.\Buttons.c   **** 
 181:.\Buttons.c   **** //! @brief		Reset the state of the light mode button
 182:.\Buttons.c   **** void Buttons_ResetLightModeButtonState(void)
 183:.\Buttons.c   **** {
 394              		.loc 1 183 0
 395              		.cfi_startproc
 396              		@ args = 0, pretend = 0, frame = 0
 397              		@ frame_needed = 1, uses_anonymous_args = 0
 398              		@ link register save eliminated.
 399 0000 80B4     		push	{r7}
 400              	.LCFI13:
 401              		.cfi_def_cfa_offset 4
 402 0002 00AF     		add	r7, sp, #0
 403              		.cfi_offset 7, -4
 404              	.LCFI14:
 405              		.cfi_def_cfa_register 7
 184:.\Buttons.c   **** 	lightModeState = ST_OFF;
 406              		.loc 1 184 0
 407 0004 40F20003 		movw	r3, #:lower16:lightModeState
 408 0008 C0F20003 		movt	r3, #:upper16:lightModeState
 409 000c 4FF00002 		mov	r2, #0
 410 0010 1A70     		strb	r2, [r3, #0]
 185:.\Buttons.c   **** }
 411              		.loc 1 185 0
 412 0012 BD46     		mov	sp, r7
 413 0014 80BC     		pop	{r7}
 414 0016 7047     		bx	lr
 415              		.cfi_endproc
 416              	.LFE35:
 417              		.size	Buttons_ResetLightModeButtonState, .-Buttons_ResetLightModeButtonState
 418              		.section	.text.Buttons_MotorStateMachine,"ax",%progbits
 419              		.align	2
 420              		.global	Buttons_MotorStateMachine
 421              		.thumb
 422              		.thumb_func
 423              		.type	Buttons_MotorStateMachine, %function
 424              	Buttons_MotorStateMachine:
 425              	.LFB36:
 186:.\Buttons.c   **** 
 187:.\Buttons.c   **** //=================================================================================================
 188:.\Buttons.c   **** //==================================== PRIVATE FUNCTIONS ==========================================
 189:.\Buttons.c   **** //=================================================================================================
 190:.\Buttons.c   **** 
 191:.\Buttons.c   **** 
 192:.\Buttons.c   **** 
 193:.\Buttons.c   **** void Buttons_MotorStateMachine(uint8 motorButtonActive)
 194:.\Buttons.c   **** {
 426              		.loc 1 194 0
 427              		.cfi_startproc
 428              		@ args = 0, pretend = 0, frame = 8
 429              		@ frame_needed = 1, uses_anonymous_args = 0
ARM GAS  C:\Users\Geo\AppData\Local\Temp\ccxrnYLn.s 			page 12


 430              		@ link register save eliminated.
 431 0000 80B4     		push	{r7}
 432              	.LCFI15:
 433              		.cfi_def_cfa_offset 4
 434 0002 83B0     		sub	sp, sp, #12
 435              	.LCFI16:
 436              		.cfi_def_cfa_offset 16
 437 0004 00AF     		add	r7, sp, #0
 438              		.cfi_offset 7, -4
 439              	.LCFI17:
 440              		.cfi_def_cfa_register 7
 441 0006 0346     		mov	r3, r0
 442 0008 FB71     		strb	r3, [r7, #7]
 195:.\Buttons.c   **** 
 196:.\Buttons.c   **** 	if(motorButtonActive && (motorState == ST_OFF))
 443              		.loc 1 196 0
 444 000a FB79     		ldrb	r3, [r7, #7]	@ zero_extendqisi2
 445 000c 002B     		cmp	r3, #0
 446 000e 0ED0     		beq	.L37
 447 0010 40F20003 		movw	r3, #:lower16:motorState
 448 0014 C0F20003 		movt	r3, #:upper16:motorState
 449 0018 1B78     		ldrb	r3, [r3, #0]	@ zero_extendqisi2
 450 001a 002B     		cmp	r3, #0
 451 001c 07D1     		bne	.L37
 197:.\Buttons.c   **** 	{
 198:.\Buttons.c   **** 		motorState = ST_HALF_ON;
 452              		.loc 1 198 0
 453 001e 40F20003 		movw	r3, #:lower16:motorState
 454 0022 C0F20003 		movt	r3, #:upper16:motorState
 455 0026 4FF00102 		mov	r2, #1
 456 002a 1A70     		strb	r2, [r3, #0]
 457              		.loc 1 196 0
 458 002c 34E0     		b	.L41
 459              	.L37:
 199:.\Buttons.c   **** 	}
 200:.\Buttons.c   **** 	else if(!motorButtonActive && (motorState == ST_HALF_ON))
 460              		.loc 1 200 0
 461 002e FB79     		ldrb	r3, [r7, #7]	@ zero_extendqisi2
 462 0030 002B     		cmp	r3, #0
 463 0032 0ED1     		bne	.L39
 464 0034 40F20003 		movw	r3, #:lower16:motorState
 465 0038 C0F20003 		movt	r3, #:upper16:motorState
 466 003c 1B78     		ldrb	r3, [r3, #0]	@ zero_extendqisi2
 467 003e 012B     		cmp	r3, #1
 468 0040 07D1     		bne	.L39
 201:.\Buttons.c   **** 	{
 202:.\Buttons.c   **** 		motorState = ST_ON;
 469              		.loc 1 202 0
 470 0042 40F20003 		movw	r3, #:lower16:motorState
 471 0046 C0F20003 		movt	r3, #:upper16:motorState
 472 004a 4FF00202 		mov	r2, #2
 473 004e 1A70     		strb	r2, [r3, #0]
 474              		.loc 1 200 0
 475 0050 22E0     		b	.L41
 476              	.L39:
 203:.\Buttons.c   **** 	}
 204:.\Buttons.c   **** 	else if(motorButtonActive && (motorState == ST_ON))
ARM GAS  C:\Users\Geo\AppData\Local\Temp\ccxrnYLn.s 			page 13


 477              		.loc 1 204 0
 478 0052 FB79     		ldrb	r3, [r7, #7]	@ zero_extendqisi2
 479 0054 002B     		cmp	r3, #0
 480 0056 0ED0     		beq	.L40
 481 0058 40F20003 		movw	r3, #:lower16:motorState
 482 005c C0F20003 		movt	r3, #:upper16:motorState
 483 0060 1B78     		ldrb	r3, [r3, #0]	@ zero_extendqisi2
 484 0062 022B     		cmp	r3, #2
 485 0064 07D1     		bne	.L40
 205:.\Buttons.c   **** 	{
 206:.\Buttons.c   **** 		motorState = ST_HALF_OFF;
 486              		.loc 1 206 0
 487 0066 40F20003 		movw	r3, #:lower16:motorState
 488 006a C0F20003 		movt	r3, #:upper16:motorState
 489 006e 4FF00302 		mov	r2, #3
 490 0072 1A70     		strb	r2, [r3, #0]
 491              		.loc 1 204 0
 492 0074 10E0     		b	.L41
 493              	.L40:
 207:.\Buttons.c   **** 	}
 208:.\Buttons.c   **** 	else if(!motorButtonActive && (motorState == ST_HALF_OFF))
 494              		.loc 1 208 0
 495 0076 FB79     		ldrb	r3, [r7, #7]	@ zero_extendqisi2
 496 0078 002B     		cmp	r3, #0
 497 007a 0DD1     		bne	.L41
 498 007c 40F20003 		movw	r3, #:lower16:motorState
 499 0080 C0F20003 		movt	r3, #:upper16:motorState
 500 0084 1B78     		ldrb	r3, [r3, #0]	@ zero_extendqisi2
 501 0086 032B     		cmp	r3, #3
 502 0088 06D1     		bne	.L41
 209:.\Buttons.c   **** 	{
 210:.\Buttons.c   **** 		motorState = ST_OFF;
 503              		.loc 1 210 0
 504 008a 40F20003 		movw	r3, #:lower16:motorState
 505 008e C0F20003 		movt	r3, #:upper16:motorState
 506 0092 4FF00002 		mov	r2, #0
 507 0096 1A70     		strb	r2, [r3, #0]
 508              	.L41:
 211:.\Buttons.c   **** 	}
 212:.\Buttons.c   **** }
 509              		.loc 1 212 0
 510 0098 07F10C07 		add	r7, r7, #12
 511 009c BD46     		mov	sp, r7
 512 009e 80BC     		pop	{r7}
 513 00a0 7047     		bx	lr
 514              		.cfi_endproc
 515              	.LFE36:
 516              		.size	Buttons_MotorStateMachine, .-Buttons_MotorStateMachine
 517 00a2 00BF     		.section	.text.Buttons_LightsOnOffStateMachine,"ax",%progbits
 518              		.align	2
 519              		.global	Buttons_LightsOnOffStateMachine
 520              		.thumb
 521              		.thumb_func
 522              		.type	Buttons_LightsOnOffStateMachine, %function
 523              	Buttons_LightsOnOffStateMachine:
 524              	.LFB37:
 213:.\Buttons.c   **** 
ARM GAS  C:\Users\Geo\AppData\Local\Temp\ccxrnYLn.s 			page 14


 214:.\Buttons.c   **** void Buttons_LightsOnOffStateMachine(uint8 lightsOnOffButtonActive)
 215:.\Buttons.c   **** {
 525              		.loc 1 215 0
 526              		.cfi_startproc
 527              		@ args = 0, pretend = 0, frame = 8
 528              		@ frame_needed = 1, uses_anonymous_args = 0
 529              		@ link register save eliminated.
 530 0000 80B4     		push	{r7}
 531              	.LCFI18:
 532              		.cfi_def_cfa_offset 4
 533 0002 83B0     		sub	sp, sp, #12
 534              	.LCFI19:
 535              		.cfi_def_cfa_offset 16
 536 0004 00AF     		add	r7, sp, #0
 537              		.cfi_offset 7, -4
 538              	.LCFI20:
 539              		.cfi_def_cfa_register 7
 540 0006 0346     		mov	r3, r0
 541 0008 FB71     		strb	r3, [r7, #7]
 216:.\Buttons.c   **** 
 217:.\Buttons.c   **** 	if(lightsOnOffButtonActive && (lightsOnOffState == ST_OFF))
 542              		.loc 1 217 0
 543 000a FB79     		ldrb	r3, [r7, #7]	@ zero_extendqisi2
 544 000c 002B     		cmp	r3, #0
 545 000e 0ED0     		beq	.L43
 546 0010 40F20003 		movw	r3, #:lower16:lightsOnOffState
 547 0014 C0F20003 		movt	r3, #:upper16:lightsOnOffState
 548 0018 1B78     		ldrb	r3, [r3, #0]	@ zero_extendqisi2
 549 001a 002B     		cmp	r3, #0
 550 001c 07D1     		bne	.L43
 218:.\Buttons.c   **** 	{
 219:.\Buttons.c   **** 		lightsOnOffState = ST_HALF_ON;
 551              		.loc 1 219 0
 552 001e 40F20003 		movw	r3, #:lower16:lightsOnOffState
 553 0022 C0F20003 		movt	r3, #:upper16:lightsOnOffState
 554 0026 4FF00102 		mov	r2, #1
 555 002a 1A70     		strb	r2, [r3, #0]
 556              		.loc 1 217 0
 557 002c 34E0     		b	.L47
 558              	.L43:
 220:.\Buttons.c   **** 	}
 221:.\Buttons.c   **** 	else if(!lightsOnOffButtonActive && (lightsOnOffState == ST_HALF_ON))
 559              		.loc 1 221 0
 560 002e FB79     		ldrb	r3, [r7, #7]	@ zero_extendqisi2
 561 0030 002B     		cmp	r3, #0
 562 0032 0ED1     		bne	.L45
 563 0034 40F20003 		movw	r3, #:lower16:lightsOnOffState
 564 0038 C0F20003 		movt	r3, #:upper16:lightsOnOffState
 565 003c 1B78     		ldrb	r3, [r3, #0]	@ zero_extendqisi2
 566 003e 012B     		cmp	r3, #1
 567 0040 07D1     		bne	.L45
 222:.\Buttons.c   **** 	{
 223:.\Buttons.c   **** 		lightsOnOffState = ST_ON;
 568              		.loc 1 223 0
 569 0042 40F20003 		movw	r3, #:lower16:lightsOnOffState
 570 0046 C0F20003 		movt	r3, #:upper16:lightsOnOffState
 571 004a 4FF00202 		mov	r2, #2
ARM GAS  C:\Users\Geo\AppData\Local\Temp\ccxrnYLn.s 			page 15


 572 004e 1A70     		strb	r2, [r3, #0]
 573              		.loc 1 221 0
 574 0050 22E0     		b	.L47
 575              	.L45:
 224:.\Buttons.c   **** 	}
 225:.\Buttons.c   **** 	else if(lightsOnOffButtonActive && (lightsOnOffState == ST_ON))
 576              		.loc 1 225 0
 577 0052 FB79     		ldrb	r3, [r7, #7]	@ zero_extendqisi2
 578 0054 002B     		cmp	r3, #0
 579 0056 0ED0     		beq	.L46
 580 0058 40F20003 		movw	r3, #:lower16:lightsOnOffState
 581 005c C0F20003 		movt	r3, #:upper16:lightsOnOffState
 582 0060 1B78     		ldrb	r3, [r3, #0]	@ zero_extendqisi2
 583 0062 022B     		cmp	r3, #2
 584 0064 07D1     		bne	.L46
 226:.\Buttons.c   **** 	{
 227:.\Buttons.c   **** 		lightsOnOffState = ST_HALF_OFF;
 585              		.loc 1 227 0
 586 0066 40F20003 		movw	r3, #:lower16:lightsOnOffState
 587 006a C0F20003 		movt	r3, #:upper16:lightsOnOffState
 588 006e 4FF00302 		mov	r2, #3
 589 0072 1A70     		strb	r2, [r3, #0]
 590              		.loc 1 225 0
 591 0074 10E0     		b	.L47
 592              	.L46:
 228:.\Buttons.c   **** 	}
 229:.\Buttons.c   **** 	else if(!lightsOnOffButtonActive && (lightsOnOffState == ST_HALF_OFF))
 593              		.loc 1 229 0
 594 0076 FB79     		ldrb	r3, [r7, #7]	@ zero_extendqisi2
 595 0078 002B     		cmp	r3, #0
 596 007a 0DD1     		bne	.L47
 597 007c 40F20003 		movw	r3, #:lower16:lightsOnOffState
 598 0080 C0F20003 		movt	r3, #:upper16:lightsOnOffState
 599 0084 1B78     		ldrb	r3, [r3, #0]	@ zero_extendqisi2
 600 0086 032B     		cmp	r3, #3
 601 0088 06D1     		bne	.L47
 230:.\Buttons.c   **** 	{
 231:.\Buttons.c   **** 		lightsOnOffState = ST_OFF;
 602              		.loc 1 231 0
 603 008a 40F20003 		movw	r3, #:lower16:lightsOnOffState
 604 008e C0F20003 		movt	r3, #:upper16:lightsOnOffState
 605 0092 4FF00002 		mov	r2, #0
 606 0096 1A70     		strb	r2, [r3, #0]
 607              	.L47:
 232:.\Buttons.c   **** 	}
 233:.\Buttons.c   **** }
 608              		.loc 1 233 0
 609 0098 07F10C07 		add	r7, r7, #12
 610 009c BD46     		mov	sp, r7
 611 009e 80BC     		pop	{r7}
 612 00a0 7047     		bx	lr
 613              		.cfi_endproc
 614              	.LFE37:
 615              		.size	Buttons_LightsOnOffStateMachine, .-Buttons_LightsOnOffStateMachine
 616 00a2 00BF     		.section	.text.Buttons_AlarmStateMachine,"ax",%progbits
 617              		.align	2
 618              		.global	Buttons_AlarmStateMachine
ARM GAS  C:\Users\Geo\AppData\Local\Temp\ccxrnYLn.s 			page 16


 619              		.thumb
 620              		.thumb_func
 621              		.type	Buttons_AlarmStateMachine, %function
 622              	Buttons_AlarmStateMachine:
 623              	.LFB38:
 234:.\Buttons.c   **** 
 235:.\Buttons.c   **** void Buttons_AlarmStateMachine(uint8 alarmButtonActive)
 236:.\Buttons.c   **** {
 624              		.loc 1 236 0
 625              		.cfi_startproc
 626              		@ args = 0, pretend = 0, frame = 8
 627              		@ frame_needed = 1, uses_anonymous_args = 0
 628              		@ link register save eliminated.
 629 0000 80B4     		push	{r7}
 630              	.LCFI21:
 631              		.cfi_def_cfa_offset 4
 632 0002 83B0     		sub	sp, sp, #12
 633              	.LCFI22:
 634              		.cfi_def_cfa_offset 16
 635 0004 00AF     		add	r7, sp, #0
 636              		.cfi_offset 7, -4
 637              	.LCFI23:
 638              		.cfi_def_cfa_register 7
 639 0006 0346     		mov	r3, r0
 640 0008 FB71     		strb	r3, [r7, #7]
 237:.\Buttons.c   **** 
 238:.\Buttons.c   **** 	if(alarmButtonActive && (alarmState == ST_OFF))
 641              		.loc 1 238 0
 642 000a FB79     		ldrb	r3, [r7, #7]	@ zero_extendqisi2
 643 000c 002B     		cmp	r3, #0
 644 000e 0ED0     		beq	.L49
 645 0010 40F20003 		movw	r3, #:lower16:alarmState
 646 0014 C0F20003 		movt	r3, #:upper16:alarmState
 647 0018 1B78     		ldrb	r3, [r3, #0]	@ zero_extendqisi2
 648 001a 002B     		cmp	r3, #0
 649 001c 07D1     		bne	.L49
 239:.\Buttons.c   **** 	{
 240:.\Buttons.c   **** 		alarmState = ST_HALF_ON;
 650              		.loc 1 240 0
 651 001e 40F20003 		movw	r3, #:lower16:alarmState
 652 0022 C0F20003 		movt	r3, #:upper16:alarmState
 653 0026 4FF00102 		mov	r2, #1
 654 002a 1A70     		strb	r2, [r3, #0]
 655              		.loc 1 238 0
 656 002c 34E0     		b	.L53
 657              	.L49:
 241:.\Buttons.c   **** 	}
 242:.\Buttons.c   **** 	else if(!alarmButtonActive && (alarmState == ST_HALF_ON))
 658              		.loc 1 242 0
 659 002e FB79     		ldrb	r3, [r7, #7]	@ zero_extendqisi2
 660 0030 002B     		cmp	r3, #0
 661 0032 0ED1     		bne	.L51
 662 0034 40F20003 		movw	r3, #:lower16:alarmState
 663 0038 C0F20003 		movt	r3, #:upper16:alarmState
 664 003c 1B78     		ldrb	r3, [r3, #0]	@ zero_extendqisi2
 665 003e 012B     		cmp	r3, #1
 666 0040 07D1     		bne	.L51
ARM GAS  C:\Users\Geo\AppData\Local\Temp\ccxrnYLn.s 			page 17


 243:.\Buttons.c   **** 	{
 244:.\Buttons.c   **** 		alarmState = ST_ON;
 667              		.loc 1 244 0
 668 0042 40F20003 		movw	r3, #:lower16:alarmState
 669 0046 C0F20003 		movt	r3, #:upper16:alarmState
 670 004a 4FF00202 		mov	r2, #2
 671 004e 1A70     		strb	r2, [r3, #0]
 672              		.loc 1 242 0
 673 0050 22E0     		b	.L53
 674              	.L51:
 245:.\Buttons.c   **** 	}
 246:.\Buttons.c   **** 	else if(alarmButtonActive && (alarmState == ST_ON))
 675              		.loc 1 246 0
 676 0052 FB79     		ldrb	r3, [r7, #7]	@ zero_extendqisi2
 677 0054 002B     		cmp	r3, #0
 678 0056 0ED0     		beq	.L52
 679 0058 40F20003 		movw	r3, #:lower16:alarmState
 680 005c C0F20003 		movt	r3, #:upper16:alarmState
 681 0060 1B78     		ldrb	r3, [r3, #0]	@ zero_extendqisi2
 682 0062 022B     		cmp	r3, #2
 683 0064 07D1     		bne	.L52
 247:.\Buttons.c   **** 	{
 248:.\Buttons.c   **** 		alarmState = ST_HALF_OFF;
 684              		.loc 1 248 0
 685 0066 40F20003 		movw	r3, #:lower16:alarmState
 686 006a C0F20003 		movt	r3, #:upper16:alarmState
 687 006e 4FF00302 		mov	r2, #3
 688 0072 1A70     		strb	r2, [r3, #0]
 689              		.loc 1 246 0
 690 0074 10E0     		b	.L53
 691              	.L52:
 249:.\Buttons.c   **** 	}
 250:.\Buttons.c   **** 	else if(!alarmButtonActive && (alarmState == ST_HALF_OFF))
 692              		.loc 1 250 0
 693 0076 FB79     		ldrb	r3, [r7, #7]	@ zero_extendqisi2
 694 0078 002B     		cmp	r3, #0
 695 007a 0DD1     		bne	.L53
 696 007c 40F20003 		movw	r3, #:lower16:alarmState
 697 0080 C0F20003 		movt	r3, #:upper16:alarmState
 698 0084 1B78     		ldrb	r3, [r3, #0]	@ zero_extendqisi2
 699 0086 032B     		cmp	r3, #3
 700 0088 06D1     		bne	.L53
 251:.\Buttons.c   **** 	{
 252:.\Buttons.c   **** 		alarmState = ST_OFF;
 701              		.loc 1 252 0
 702 008a 40F20003 		movw	r3, #:lower16:alarmState
 703 008e C0F20003 		movt	r3, #:upper16:alarmState
 704 0092 4FF00002 		mov	r2, #0
 705 0096 1A70     		strb	r2, [r3, #0]
 706              	.L53:
 253:.\Buttons.c   **** 	}
 254:.\Buttons.c   **** }
 707              		.loc 1 254 0
 708 0098 07F10C07 		add	r7, r7, #12
 709 009c BD46     		mov	sp, r7
 710 009e 80BC     		pop	{r7}
 711 00a0 7047     		bx	lr
ARM GAS  C:\Users\Geo\AppData\Local\Temp\ccxrnYLn.s 			page 18


 712              		.cfi_endproc
 713              	.LFE38:
 714              		.size	Buttons_AlarmStateMachine, .-Buttons_AlarmStateMachine
 715 00a2 00BF     		.section	.text.Buttons_LightModeStateMachine,"ax",%progbits
 716              		.align	2
 717              		.global	Buttons_LightModeStateMachine
 718              		.thumb
 719              		.thumb_func
 720              		.type	Buttons_LightModeStateMachine, %function
 721              	Buttons_LightModeStateMachine:
 722              	.LFB39:
 255:.\Buttons.c   **** 
 256:.\Buttons.c   **** //! @brief		State machine for the light mode button
 257:.\Buttons.c   **** void Buttons_LightModeStateMachine(uint8_t lightModeButtonActive)
 258:.\Buttons.c   **** {
 723              		.loc 1 258 0
 724              		.cfi_startproc
 725              		@ args = 0, pretend = 0, frame = 8
 726              		@ frame_needed = 1, uses_anonymous_args = 0
 727              		@ link register save eliminated.
 728 0000 80B4     		push	{r7}
 729              	.LCFI24:
 730              		.cfi_def_cfa_offset 4
 731 0002 83B0     		sub	sp, sp, #12
 732              	.LCFI25:
 733              		.cfi_def_cfa_offset 16
 734 0004 00AF     		add	r7, sp, #0
 735              		.cfi_offset 7, -4
 736              	.LCFI26:
 737              		.cfi_def_cfa_register 7
 738 0006 0346     		mov	r3, r0
 739 0008 FB71     		strb	r3, [r7, #7]
 259:.\Buttons.c   **** 
 260:.\Buttons.c   **** 	if(lightModeButtonActive && (lightModeState == ST_OFF))
 740              		.loc 1 260 0
 741 000a FB79     		ldrb	r3, [r7, #7]	@ zero_extendqisi2
 742 000c 002B     		cmp	r3, #0
 743 000e 0ED0     		beq	.L55
 744 0010 40F20003 		movw	r3, #:lower16:lightModeState
 745 0014 C0F20003 		movt	r3, #:upper16:lightModeState
 746 0018 1B78     		ldrb	r3, [r3, #0]	@ zero_extendqisi2
 747 001a 002B     		cmp	r3, #0
 748 001c 07D1     		bne	.L55
 261:.\Buttons.c   **** 	{
 262:.\Buttons.c   **** 		lightModeState = ST_HALF_ON;
 749              		.loc 1 262 0
 750 001e 40F20003 		movw	r3, #:lower16:lightModeState
 751 0022 C0F20003 		movt	r3, #:upper16:lightModeState
 752 0026 4FF00102 		mov	r2, #1
 753 002a 1A70     		strb	r2, [r3, #0]
 754              		.loc 1 260 0
 755 002c 34E0     		b	.L59
 756              	.L55:
 263:.\Buttons.c   **** 	}
 264:.\Buttons.c   **** 	else if(!lightModeButtonActive && (lightModeState == ST_HALF_ON))
 757              		.loc 1 264 0
 758 002e FB79     		ldrb	r3, [r7, #7]	@ zero_extendqisi2
ARM GAS  C:\Users\Geo\AppData\Local\Temp\ccxrnYLn.s 			page 19


 759 0030 002B     		cmp	r3, #0
 760 0032 0ED1     		bne	.L57
 761 0034 40F20003 		movw	r3, #:lower16:lightModeState
 762 0038 C0F20003 		movt	r3, #:upper16:lightModeState
 763 003c 1B78     		ldrb	r3, [r3, #0]	@ zero_extendqisi2
 764 003e 012B     		cmp	r3, #1
 765 0040 07D1     		bne	.L57
 265:.\Buttons.c   **** 	{
 266:.\Buttons.c   **** 		lightModeState = ST_ON;
 766              		.loc 1 266 0
 767 0042 40F20003 		movw	r3, #:lower16:lightModeState
 768 0046 C0F20003 		movt	r3, #:upper16:lightModeState
 769 004a 4FF00202 		mov	r2, #2
 770 004e 1A70     		strb	r2, [r3, #0]
 771              		.loc 1 264 0
 772 0050 22E0     		b	.L59
 773              	.L57:
 267:.\Buttons.c   **** 	}
 268:.\Buttons.c   **** 	else if(lightModeButtonActive && (lightModeState == ST_ON))
 774              		.loc 1 268 0
 775 0052 FB79     		ldrb	r3, [r7, #7]	@ zero_extendqisi2
 776 0054 002B     		cmp	r3, #0
 777 0056 0ED0     		beq	.L58
 778 0058 40F20003 		movw	r3, #:lower16:lightModeState
 779 005c C0F20003 		movt	r3, #:upper16:lightModeState
 780 0060 1B78     		ldrb	r3, [r3, #0]	@ zero_extendqisi2
 781 0062 022B     		cmp	r3, #2
 782 0064 07D1     		bne	.L58
 269:.\Buttons.c   **** 	{
 270:.\Buttons.c   **** 		lightModeState = ST_HALF_OFF;
 783              		.loc 1 270 0
 784 0066 40F20003 		movw	r3, #:lower16:lightModeState
 785 006a C0F20003 		movt	r3, #:upper16:lightModeState
 786 006e 4FF00302 		mov	r2, #3
 787 0072 1A70     		strb	r2, [r3, #0]
 788              		.loc 1 268 0
 789 0074 10E0     		b	.L59
 790              	.L58:
 271:.\Buttons.c   **** 	}
 272:.\Buttons.c   **** 	else if(!lightModeButtonActive && (lightModeState == ST_HALF_OFF))
 791              		.loc 1 272 0
 792 0076 FB79     		ldrb	r3, [r7, #7]	@ zero_extendqisi2
 793 0078 002B     		cmp	r3, #0
 794 007a 0DD1     		bne	.L59
 795 007c 40F20003 		movw	r3, #:lower16:lightModeState
 796 0080 C0F20003 		movt	r3, #:upper16:lightModeState
 797 0084 1B78     		ldrb	r3, [r3, #0]	@ zero_extendqisi2
 798 0086 032B     		cmp	r3, #3
 799 0088 06D1     		bne	.L59
 273:.\Buttons.c   **** 	{
 274:.\Buttons.c   **** 		lightModeState = ST_OFF;
 800              		.loc 1 274 0
 801 008a 40F20003 		movw	r3, #:lower16:lightModeState
 802 008e C0F20003 		movt	r3, #:upper16:lightModeState
 803 0092 4FF00002 		mov	r2, #0
 804 0096 1A70     		strb	r2, [r3, #0]
 805              	.L59:
ARM GAS  C:\Users\Geo\AppData\Local\Temp\ccxrnYLn.s 			page 20


 275:.\Buttons.c   **** 	}
 276:.\Buttons.c   **** }
 806              		.loc 1 276 0
 807 0098 07F10C07 		add	r7, r7, #12
 808 009c BD46     		mov	sp, r7
 809 009e 80BC     		pop	{r7}
 810 00a0 7047     		bx	lr
 811              		.cfi_endproc
 812              	.LFE39:
 813              		.size	Buttons_LightModeStateMachine, .-Buttons_LightModeStateMachine
 814 00a2 00BF     		.text
 815              	.Letext0: