ARM GAS  C:\Users\Geo\AppData\Local\Temp\cc2hncsS.s 			page 1


   1              		.syntax unified
   2              		.cpu cortex-m3
   3              		.fpu softvfp
   4              		.eabi_attribute 20, 1
   5              		.eabi_attribute 21, 1
   6              		.eabi_attribute 23, 3
   7              		.eabi_attribute 24, 1
   8              		.eabi_attribute 25, 1
   9              		.eabi_attribute 26, 1
  10              		.eabi_attribute 30, 6
  11              		.eabi_attribute 18, 4
  12              		.thumb
  13              		.file	"CapSense_PM.c"
  20 0000 E0000000 		.text
  20      02007200 
  20      00000201 
  20      FB0E0D00 
  20      01010101 
  21              	.Ltext0:
  22              		.cfi_sections	.debug_frame
  23              		.global	CapSense_backup
  24              		.data
  25              		.align	2
  26              		.type	CapSense_backup, %object
  27              		.size	CapSense_backup, 3
  28              	CapSense_backup:
  29 0000 00       		.byte	0
  30 0001 07       		.byte	7
  31 0002 00       		.space	1
  32 0003 00       		.section	.text.CapSense_SaveConfig,"ax",%progbits
  33              		.align	2
  34              		.global	CapSense_SaveConfig
  35              		.thumb
  36              		.thumb_func
  37              		.type	CapSense_SaveConfig, %function
  38              	CapSense_SaveConfig:
  39              	.LFB0:
  40              		.file 1 ".\\Generated_Source\\PSoC5\\CapSense_PM.c"
   1:.\Generated_Source\PSoC5/CapSense_PM.c **** /*******************************************************************************
   2:.\Generated_Source\PSoC5/CapSense_PM.c **** * File Name: CapSense_PM.c
   3:.\Generated_Source\PSoC5/CapSense_PM.c **** * Version 3.10
   4:.\Generated_Source\PSoC5/CapSense_PM.c **** *
   5:.\Generated_Source\PSoC5/CapSense_PM.c **** * Description:
   6:.\Generated_Source\PSoC5/CapSense_PM.c **** *  This file provides Sleep APIs for CapSense CSD Component.
   7:.\Generated_Source\PSoC5/CapSense_PM.c **** *
   8:.\Generated_Source\PSoC5/CapSense_PM.c **** * Note:
   9:.\Generated_Source\PSoC5/CapSense_PM.c **** *
  10:.\Generated_Source\PSoC5/CapSense_PM.c **** ********************************************************************************
  11:.\Generated_Source\PSoC5/CapSense_PM.c **** * Copyright 2008-2011, Cypress Semiconductor Corporation.  All rights reserved.
  12:.\Generated_Source\PSoC5/CapSense_PM.c **** * You may use this file only in accordance with the license, terms, conditions, 
  13:.\Generated_Source\PSoC5/CapSense_PM.c **** * disclaimers, and limitations in the end user license agreement accompanying 
ARM GAS  C:\Users\Geo\AppData\Local\Temp\cc2hncsS.s 			page 2


  14:.\Generated_Source\PSoC5/CapSense_PM.c **** * the software package with which this file was provided.
  15:.\Generated_Source\PSoC5/CapSense_PM.c **** *******************************************************************************/
  16:.\Generated_Source\PSoC5/CapSense_PM.c **** 
  17:.\Generated_Source\PSoC5/CapSense_PM.c **** #include "CapSense.h"
  18:.\Generated_Source\PSoC5/CapSense_PM.c **** 
  19:.\Generated_Source\PSoC5/CapSense_PM.c **** CapSense_BACKUP_STRUCT CapSense_backup =
  20:.\Generated_Source\PSoC5/CapSense_PM.c **** {   
  21:.\Generated_Source\PSoC5/CapSense_PM.c ****     0x00u, /* enableState; */
  22:.\Generated_Source\PSoC5/CapSense_PM.c ****     /* Set ScanSpeed */
  23:.\Generated_Source\PSoC5/CapSense_PM.c ****     #if (CY_PSOC3_ES2 || CY_PSOC5_ES1)
  24:.\Generated_Source\PSoC5/CapSense_PM.c ****         CapSense_SCANSPEED_VALUE,  /* scan speed value */
  25:.\Generated_Source\PSoC5/CapSense_PM.c ****     #endif  /* End (CY_PSOC3_ES2 || CY_PSOC5_ES1) */
  26:.\Generated_Source\PSoC5/CapSense_PM.c **** };
  27:.\Generated_Source\PSoC5/CapSense_PM.c **** 
  28:.\Generated_Source\PSoC5/CapSense_PM.c **** 
  29:.\Generated_Source\PSoC5/CapSense_PM.c **** /*******************************************************************************
  30:.\Generated_Source\PSoC5/CapSense_PM.c **** * Function Name: CapSense_SaveConfig
  31:.\Generated_Source\PSoC5/CapSense_PM.c **** ********************************************************************************
  32:.\Generated_Source\PSoC5/CapSense_PM.c **** *
  33:.\Generated_Source\PSoC5/CapSense_PM.c **** * Summary:
  34:.\Generated_Source\PSoC5/CapSense_PM.c **** *  Saves customer configuration of CapSense none-retention registers. Resets 
  35:.\Generated_Source\PSoC5/CapSense_PM.c **** *  all sensors to an inactive state.
  36:.\Generated_Source\PSoC5/CapSense_PM.c **** *
  37:.\Generated_Source\PSoC5/CapSense_PM.c **** * Parameters:
  38:.\Generated_Source\PSoC5/CapSense_PM.c **** *  None
  39:.\Generated_Source\PSoC5/CapSense_PM.c **** *
  40:.\Generated_Source\PSoC5/CapSense_PM.c **** * Return:
  41:.\Generated_Source\PSoC5/CapSense_PM.c **** *  None
  42:.\Generated_Source\PSoC5/CapSense_PM.c **** *
  43:.\Generated_Source\PSoC5/CapSense_PM.c **** * Global Variables:
  44:.\Generated_Source\PSoC5/CapSense_PM.c **** *  CapSense_backup - used to save component state before enter sleep 
  45:.\Generated_Source\PSoC5/CapSense_PM.c **** *  mode and none-retention registers.
  46:.\Generated_Source\PSoC5/CapSense_PM.c **** *
  47:.\Generated_Source\PSoC5/CapSense_PM.c **** * Reentrant:
  48:.\Generated_Source\PSoC5/CapSense_PM.c **** *  No - for PSoC3 ES2 and PSoC5 ES1 silicon, Yes - for PSoC3 ES3.
  49:.\Generated_Source\PSoC5/CapSense_PM.c **** *
  50:.\Generated_Source\PSoC5/CapSense_PM.c **** *******************************************************************************/
  51:.\Generated_Source\PSoC5/CapSense_PM.c **** #if (CY_PSOC3_ES2 || CY_PSOC5_ES1)
  52:.\Generated_Source\PSoC5/CapSense_PM.c ****     void CapSense_SaveConfig(void)
  53:.\Generated_Source\PSoC5/CapSense_PM.c **** #else
  54:.\Generated_Source\PSoC5/CapSense_PM.c ****     void CapSense_SaveConfig(void) 
  55:.\Generated_Source\PSoC5/CapSense_PM.c **** #endif  /* End (CY_PSOC3_ES2 || CY_PSOC5_ES1) */
  56:.\Generated_Source\PSoC5/CapSense_PM.c **** {    
  41              		.loc 1 56 0
  42              		.cfi_startproc
  43              		@ args = 0, pretend = 0, frame = 0
  44              		@ frame_needed = 1, uses_anonymous_args = 0
  45 0000 80B5     		push	{r7, lr}
  46              	.LCFI0:
  47              		.cfi_def_cfa_offset 8
  48 0002 00AF     		add	r7, sp, #0
  49              		.cfi_offset 14, -4
  50              		.cfi_offset 7, -8
  51              	.LCFI1:
  52              		.cfi_def_cfa_register 7
  57:.\Generated_Source\PSoC5/CapSense_PM.c ****     /* Set ScanSpeed */
  58:.\Generated_Source\PSoC5/CapSense_PM.c ****     #if (CY_PSOC3_ES2 || CY_PSOC5_ES1)
ARM GAS  C:\Users\Geo\AppData\Local\Temp\cc2hncsS.s 			page 3


  59:.\Generated_Source\PSoC5/CapSense_PM.c ****         CapSense_backup.scanspeed = CapSense_SCANSPEED_PERIOD_REG;
  53              		.loc 1 59 0
  54 0004 46F28C43 		movw	r3, #:lower16:1073767564
  55 0008 C4F20003 		movt	r3, #:upper16:1073767564
  56 000c 1B78     		ldrb	r3, [r3, #0]
  57 000e DAB2     		uxtb	r2, r3
  58 0010 40F20003 		movw	r3, #:lower16:CapSense_backup
  59 0014 C0F20003 		movt	r3, #:upper16:CapSense_backup
  60 0018 5A70     		strb	r2, [r3, #1]
  60:.\Generated_Source\PSoC5/CapSense_PM.c ****     #endif  /* End (CY_PSOC3_ES2 || CY_PSOC5_ES1) */
  61:.\Generated_Source\PSoC5/CapSense_PM.c **** 
  62:.\Generated_Source\PSoC5/CapSense_PM.c ****     /* Set CONTROL_REG */
  63:.\Generated_Source\PSoC5/CapSense_PM.c ****     CapSense_backup.ctrlreg = CapSense_CONTROL_REG;
  61              		.loc 1 63 0
  62 001a 46F27B43 		movw	r3, #:lower16:1073767547
  63 001e C4F20003 		movt	r3, #:upper16:1073767547
  64 0022 1B78     		ldrb	r3, [r3, #0]
  65 0024 DAB2     		uxtb	r2, r3
  66 0026 40F20003 		movw	r3, #:lower16:CapSense_backup
  67 002a C0F20003 		movt	r3, #:upper16:CapSense_backup
  68 002e 9A70     		strb	r2, [r3, #2]
  64:.\Generated_Source\PSoC5/CapSense_PM.c **** 
  65:.\Generated_Source\PSoC5/CapSense_PM.c ****     /* Clear all sensors */
  66:.\Generated_Source\PSoC5/CapSense_PM.c ****     CapSense_ClearSensors();
  69              		.loc 1 66 0
  70 0030 FFF7FEFF 		bl	CapSense_ClearSensors
  67:.\Generated_Source\PSoC5/CapSense_PM.c ****     
  68:.\Generated_Source\PSoC5/CapSense_PM.c ****     /* The pins disable is customer concern: Cmod and Rb */
  69:.\Generated_Source\PSoC5/CapSense_PM.c **** }
  71              		.loc 1 69 0
  72 0034 80BD     		pop	{r7, pc}
  73              		.cfi_endproc
  74              	.LFE0:
  75              		.size	CapSense_SaveConfig, .-CapSense_SaveConfig
  76 0036 00BF     		.section	.text.CapSense_Sleep,"ax",%progbits
  77              		.align	2
  78              		.global	CapSense_Sleep
  79              		.thumb
  80              		.thumb_func
  81              		.type	CapSense_Sleep, %function
  82              	CapSense_Sleep:
  83              	.LFB1:
  70:.\Generated_Source\PSoC5/CapSense_PM.c **** 
  71:.\Generated_Source\PSoC5/CapSense_PM.c **** 
  72:.\Generated_Source\PSoC5/CapSense_PM.c **** /*******************************************************************************
  73:.\Generated_Source\PSoC5/CapSense_PM.c **** * Function Name: CapSense_Sleep
  74:.\Generated_Source\PSoC5/CapSense_PM.c **** ********************************************************************************
  75:.\Generated_Source\PSoC5/CapSense_PM.c **** *
  76:.\Generated_Source\PSoC5/CapSense_PM.c **** * Summary:
  77:.\Generated_Source\PSoC5/CapSense_PM.c **** *  Disables Active mode power template bits for number of component used within 
  78:.\Generated_Source\PSoC5/CapSense_PM.c **** *  CapSense. Calls CapSense_SaveConfig() function to save customer 
  79:.\Generated_Source\PSoC5/CapSense_PM.c **** *  configuration of CapSense none-retention registers and resets all sensors 
  80:.\Generated_Source\PSoC5/CapSense_PM.c **** *  to an inactive state.
  81:.\Generated_Source\PSoC5/CapSense_PM.c **** *
  82:.\Generated_Source\PSoC5/CapSense_PM.c **** * Parameters:
  83:.\Generated_Source\PSoC5/CapSense_PM.c **** *  None
  84:.\Generated_Source\PSoC5/CapSense_PM.c **** *
ARM GAS  C:\Users\Geo\AppData\Local\Temp\cc2hncsS.s 			page 4


  85:.\Generated_Source\PSoC5/CapSense_PM.c **** * Return:
  86:.\Generated_Source\PSoC5/CapSense_PM.c **** *  None
  87:.\Generated_Source\PSoC5/CapSense_PM.c **** *
  88:.\Generated_Source\PSoC5/CapSense_PM.c **** * Global Variables:
  89:.\Generated_Source\PSoC5/CapSense_PM.c **** *  CapSense_backup - used to save component state before enter sleep 
  90:.\Generated_Source\PSoC5/CapSense_PM.c **** *  mode and none-retention registers.
  91:.\Generated_Source\PSoC5/CapSense_PM.c **** *
  92:.\Generated_Source\PSoC5/CapSense_PM.c **** * Reentrant:
  93:.\Generated_Source\PSoC5/CapSense_PM.c **** *  No
  94:.\Generated_Source\PSoC5/CapSense_PM.c **** *
  95:.\Generated_Source\PSoC5/CapSense_PM.c **** *******************************************************************************/
  96:.\Generated_Source\PSoC5/CapSense_PM.c **** void CapSense_Sleep(void)
  97:.\Generated_Source\PSoC5/CapSense_PM.c **** {
  84              		.loc 1 97 0
  85              		.cfi_startproc
  86              		@ args = 0, pretend = 0, frame = 0
  87              		@ frame_needed = 1, uses_anonymous_args = 0
  88 0000 80B5     		push	{r7, lr}
  89              	.LCFI2:
  90              		.cfi_def_cfa_offset 8
  91 0002 00AF     		add	r7, sp, #0
  92              		.cfi_offset 14, -4
  93              		.cfi_offset 7, -8
  94              	.LCFI3:
  95              		.cfi_def_cfa_register 7
  98:.\Generated_Source\PSoC5/CapSense_PM.c ****     /* Check and save enable state */
  99:.\Generated_Source\PSoC5/CapSense_PM.c ****     if(CapSense_IS_CAPSENSE_ENABLE(CapSense_CONTROL_REG))
  96              		.loc 1 99 0
  97 0004 46F27B43 		movw	r3, #:lower16:1073767547
  98 0008 C4F20003 		movt	r3, #:upper16:1073767547
  99 000c 1B78     		ldrb	r3, [r3, #0]
 100 000e DBB2     		uxtb	r3, r3
 101 0010 5BB2     		sxtb	r3, r3
 102 0012 002B     		cmp	r3, #0
 103 0014 09DA     		bge	.L4
 100:.\Generated_Source\PSoC5/CapSense_PM.c ****     {
 101:.\Generated_Source\PSoC5/CapSense_PM.c ****         CapSense_backup.enableState = 1u;
 104              		.loc 1 101 0
 105 0016 40F20003 		movw	r3, #:lower16:CapSense_backup
 106 001a C0F20003 		movt	r3, #:upper16:CapSense_backup
 107 001e 4FF00102 		mov	r2, #1
 108 0022 1A70     		strb	r2, [r3, #0]
 102:.\Generated_Source\PSoC5/CapSense_PM.c ****         CapSense_Stop();
 109              		.loc 1 102 0
 110 0024 FFF7FEFF 		bl	CapSense_Stop
 111 0028 06E0     		b	.L5
 112              	.L4:
 103:.\Generated_Source\PSoC5/CapSense_PM.c ****     }
 104:.\Generated_Source\PSoC5/CapSense_PM.c ****     else
 105:.\Generated_Source\PSoC5/CapSense_PM.c ****     {
 106:.\Generated_Source\PSoC5/CapSense_PM.c ****         CapSense_backup.enableState = 0u;
 113              		.loc 1 106 0
 114 002a 40F20003 		movw	r3, #:lower16:CapSense_backup
 115 002e C0F20003 		movt	r3, #:upper16:CapSense_backup
 116 0032 4FF00002 		mov	r2, #0
 117 0036 1A70     		strb	r2, [r3, #0]
 118              	.L5:
ARM GAS  C:\Users\Geo\AppData\Local\Temp\cc2hncsS.s 			page 5


 107:.\Generated_Source\PSoC5/CapSense_PM.c ****     }
 108:.\Generated_Source\PSoC5/CapSense_PM.c ****     
 109:.\Generated_Source\PSoC5/CapSense_PM.c ****     CapSense_SaveConfig();
 119              		.loc 1 109 0
 120 0038 FFF7FEFF 		bl	CapSense_SaveConfig
 110:.\Generated_Source\PSoC5/CapSense_PM.c **** }
 121              		.loc 1 110 0
 122 003c 80BD     		pop	{r7, pc}
 123              		.cfi_endproc
 124              	.LFE1:
 125              		.size	CapSense_Sleep, .-CapSense_Sleep
 126 003e 00BF     		.section	.text.CapSense_RestoreConfig,"ax",%progbits
 127              		.align	2
 128              		.global	CapSense_RestoreConfig
 129              		.thumb
 130              		.thumb_func
 131              		.type	CapSense_RestoreConfig, %function
 132              	CapSense_RestoreConfig:
 133              	.LFB2:
 111:.\Generated_Source\PSoC5/CapSense_PM.c **** 
 112:.\Generated_Source\PSoC5/CapSense_PM.c **** 
 113:.\Generated_Source\PSoC5/CapSense_PM.c **** /*******************************************************************************
 114:.\Generated_Source\PSoC5/CapSense_PM.c **** * Function Name: CapSense_RestoreConfig
 115:.\Generated_Source\PSoC5/CapSense_PM.c **** ********************************************************************************
 116:.\Generated_Source\PSoC5/CapSense_PM.c **** *
 117:.\Generated_Source\PSoC5/CapSense_PM.c **** * Summary:
 118:.\Generated_Source\PSoC5/CapSense_PM.c **** *  Restores CapSense configuration and non-retention register values.
 119:.\Generated_Source\PSoC5/CapSense_PM.c **** *
 120:.\Generated_Source\PSoC5/CapSense_PM.c **** * Parameters:
 121:.\Generated_Source\PSoC5/CapSense_PM.c **** *  None
 122:.\Generated_Source\PSoC5/CapSense_PM.c **** *
 123:.\Generated_Source\PSoC5/CapSense_PM.c **** * Return:
 124:.\Generated_Source\PSoC5/CapSense_PM.c **** *  None
 125:.\Generated_Source\PSoC5/CapSense_PM.c **** *
 126:.\Generated_Source\PSoC5/CapSense_PM.c **** * Side Effects:
 127:.\Generated_Source\PSoC5/CapSense_PM.c **** *  Must be called only after CapSense_SaveConfig() routine. Otherwise 
 128:.\Generated_Source\PSoC5/CapSense_PM.c **** *  the component configuration will be overwritten with its initial setting.  
 129:.\Generated_Source\PSoC5/CapSense_PM.c **** *
 130:.\Generated_Source\PSoC5/CapSense_PM.c **** * Global Variables:
 131:.\Generated_Source\PSoC5/CapSense_PM.c **** *  CapSense_backup - used to save component state before enter sleep 
 132:.\Generated_Source\PSoC5/CapSense_PM.c **** *  mode and none-retention registers.
 133:.\Generated_Source\PSoC5/CapSense_PM.c **** *
 134:.\Generated_Source\PSoC5/CapSense_PM.c **** *******************************************************************************/
 135:.\Generated_Source\PSoC5/CapSense_PM.c **** void CapSense_RestoreConfig(void) 
 136:.\Generated_Source\PSoC5/CapSense_PM.c **** {   
 134              		.loc 1 136 0
 135              		.cfi_startproc
 136              		@ args = 0, pretend = 0, frame = 8
 137              		@ frame_needed = 1, uses_anonymous_args = 0
 138 0000 80B5     		push	{r7, lr}
 139              	.LCFI4:
 140              		.cfi_def_cfa_offset 8
 141 0002 82B0     		sub	sp, sp, #8
 142              	.LCFI5:
 143              		.cfi_def_cfa_offset 16
 144 0004 00AF     		add	r7, sp, #0
 145              		.cfi_offset 14, -4
ARM GAS  C:\Users\Geo\AppData\Local\Temp\cc2hncsS.s 			page 6


 146              		.cfi_offset 7, -8
 147              	.LCFI6:
 148              		.cfi_def_cfa_register 7
 137:.\Generated_Source\PSoC5/CapSense_PM.c ****     #if ( ((CapSense_PRS_OPTIONS) || \
 138:.\Generated_Source\PSoC5/CapSense_PM.c ****            (CapSense_IMPLEMENTATION_CH0 == CapSense_MEASURE_IMPLEMENTATION_UDB) || \
 139:.\Generated_Source\PSoC5/CapSense_PM.c ****            ( (CapSense_DESIGN_TYPE == CapSense_TWO_CHANNELS_DESIGN) && \
 140:.\Generated_Source\PSoC5/CapSense_PM.c ****              (CapSense_IMPLEMENTATION_CH1 == CapSense_MEASURE_IMPLEMENTATION_UDB))) && \
 141:.\Generated_Source\PSoC5/CapSense_PM.c ****           (CY_PSOC3_ES2 || CY_PSOC5_ES1) )
 142:.\Generated_Source\PSoC5/CapSense_PM.c ****         
 143:.\Generated_Source\PSoC5/CapSense_PM.c ****         uint8 enableInterrupts;
 144:.\Generated_Source\PSoC5/CapSense_PM.c ****     #endif /* End ( ((CapSense_PRS_OPTIONS) || \
 145:.\Generated_Source\PSoC5/CapSense_PM.c ****                      (CapSense_IMPLEMENTATION_CH0 == CapSense_MEASURE_IMPLEMENTATION_UDB) || \
 146:.\Generated_Source\PSoC5/CapSense_PM.c ****                      ( (CapSense_DESIGN_TYPE == CapSense_TWO_CHANNELS_DESIGN) && \
 147:.\Generated_Source\PSoC5/CapSense_PM.c ****                        (CapSense_IMPLEMENTATION_CH1 == CapSense_MEASURE_IMPLEMENTATION_UDB))) && \
 148:.\Generated_Source\PSoC5/CapSense_PM.c ****                     (CY_PSOC3_ES2 || CY_PSOC5_ES1) ) */
 149:.\Generated_Source\PSoC5/CapSense_PM.c ****     
 150:.\Generated_Source\PSoC5/CapSense_PM.c ****     /* Set PRS */
 151:.\Generated_Source\PSoC5/CapSense_PM.c ****     #if (CapSense_PRS_OPTIONS == CapSense_PRS_8BITS)
 152:.\Generated_Source\PSoC5/CapSense_PM.c ****         #if (CY_PSOC3_ES2 || CY_PSOC5_ES1)
 153:.\Generated_Source\PSoC5/CapSense_PM.c ****             /* Aux control set FIFO as REG */ 
 154:.\Generated_Source\PSoC5/CapSense_PM.c ****             enableInterrupts = CyEnterCriticalSection();
 155:.\Generated_Source\PSoC5/CapSense_PM.c ****             CapSense_AUX_CONTROL_A_REG |= CapSense_AUXCTRL_FIFO_SINGLE_REG;
 156:.\Generated_Source\PSoC5/CapSense_PM.c ****             CyExitCriticalSection(enableInterrupts);
 157:.\Generated_Source\PSoC5/CapSense_PM.c ****             
 158:.\Generated_Source\PSoC5/CapSense_PM.c ****             /* Write polynomial */
 159:.\Generated_Source\PSoC5/CapSense_PM.c ****             CapSense_POLYNOM_REG   = CapSense_PRS8_DEFAULT_POLYNOM;             /* D0 register */
 160:.\Generated_Source\PSoC5/CapSense_PM.c ****         #endif  /* End (CY_PSOC3_ES2 || CY_PSOC5_ES1) */
 161:.\Generated_Source\PSoC5/CapSense_PM.c ****         
 162:.\Generated_Source\PSoC5/CapSense_PM.c ****         /* Write FIFO with seed */
 163:.\Generated_Source\PSoC5/CapSense_PM.c ****         CapSense_SEED_COPY_REG = CapSense_MEASURE_FULL_RANGE_LOW;               /* F0 register */
 164:.\Generated_Source\PSoC5/CapSense_PM.c ****     
 165:.\Generated_Source\PSoC5/CapSense_PM.c ****     #elif (CapSense_PRS_OPTIONS == CapSense_PRS_16BITS)
 166:.\Generated_Source\PSoC5/CapSense_PM.c ****         #if (CY_PSOC3_ES2 || CY_PSOC5_ES1)
 167:.\Generated_Source\PSoC5/CapSense_PM.c ****             /* Aux control set FIFO as REG */
 168:.\Generated_Source\PSoC5/CapSense_PM.c ****             enableInterrupts = CyEnterCriticalSection();
 149              		.loc 1 168 0
 150 0006 FFF7FEFF 		bl	CyEnterCriticalSection
 151 000a 0346     		mov	r3, r0
 152 000c FB71     		strb	r3, [r7, #7]
 169:.\Generated_Source\PSoC5/CapSense_PM.c ****             CapSense_AUX_CONTROL_A_REG |= CapSense_AUXCTRL_FIFO_SINGLE_REG;
 153              		.loc 1 169 0
 154 000e 46F29A43 		movw	r3, #:lower16:1073767578
 155 0012 C4F20003 		movt	r3, #:upper16:1073767578
 156 0016 46F29A42 		movw	r2, #:lower16:1073767578
 157 001a C4F20002 		movt	r2, #:upper16:1073767578
 158 001e 1278     		ldrb	r2, [r2, #0]
 159 0020 D2B2     		uxtb	r2, r2
 160 0022 42F00302 		orr	r2, r2, #3
 161 0026 D2B2     		uxtb	r2, r2
 162 0028 1A70     		strb	r2, [r3, #0]
 170:.\Generated_Source\PSoC5/CapSense_PM.c ****             CapSense_AUX_CONTROL_B_REG |= CapSense_AUXCTRL_FIFO_SINGLE_REG;
 163              		.loc 1 170 0
 164 002a 46F29B43 		movw	r3, #:lower16:1073767579
 165 002e C4F20003 		movt	r3, #:upper16:1073767579
 166 0032 46F29B42 		movw	r2, #:lower16:1073767579
 167 0036 C4F20002 		movt	r2, #:upper16:1073767579
 168 003a 1278     		ldrb	r2, [r2, #0]
ARM GAS  C:\Users\Geo\AppData\Local\Temp\cc2hncsS.s 			page 7


 169 003c D2B2     		uxtb	r2, r2
 170 003e 42F00302 		orr	r2, r2, #3
 171 0042 D2B2     		uxtb	r2, r2
 172 0044 1A70     		strb	r2, [r3, #0]
 171:.\Generated_Source\PSoC5/CapSense_PM.c ****             CyExitCriticalSection(enableInterrupts);
 173              		.loc 1 171 0
 174 0046 FB79     		ldrb	r3, [r7, #7]	@ zero_extendqisi2
 175 0048 1846     		mov	r0, r3
 176 004a FFF7FEFF 		bl	CyExitCriticalSection
 172:.\Generated_Source\PSoC5/CapSense_PM.c ****             
 173:.\Generated_Source\PSoC5/CapSense_PM.c ****             /* Write polynomial */
 174:.\Generated_Source\PSoC5/CapSense_PM.c ****             CY_SET_REG16(CapSense_POLYNOM_PTR, CapSense_PRS16_DEFAULT_POLYNOM); /* D0 register */
 177              		.loc 1 174 0
 178 004e 46F22A43 		movw	r3, #:lower16:1073767466
 179 0052 C4F20003 		movt	r3, #:upper16:1073767466
 180 0056 4FF43442 		mov	r2, #46080
 181 005a 1A80     		strh	r2, [r3, #0]	@ movhi
 175:.\Generated_Source\PSoC5/CapSense_PM.c ****         #endif  /* End (CY_PSOC3_ES2 || CY_PSOC5_ES1) */
 176:.\Generated_Source\PSoC5/CapSense_PM.c ****         
 177:.\Generated_Source\PSoC5/CapSense_PM.c ****         /* Write FIFO with seed */
 178:.\Generated_Source\PSoC5/CapSense_PM.c ****         CY_SET_REG16(CapSense_SEED_COPY_PTR, CapSense_MEASURE_FULL_RANGE);      /* F0 register */
 182              		.loc 1 178 0
 183 005c 46F24A43 		movw	r3, #:lower16:1073767498
 184 0060 C4F20003 		movt	r3, #:upper16:1073767498
 185 0064 4FF6FF72 		movw	r2, #65535
 186 0068 1A80     		strh	r2, [r3, #0]	@ movhi
 179:.\Generated_Source\PSoC5/CapSense_PM.c ****                 
 180:.\Generated_Source\PSoC5/CapSense_PM.c ****     #elif (CapSense_PRS_OPTIONS == CapSense_PRS_16BITS_4X)
 181:.\Generated_Source\PSoC5/CapSense_PM.c ****         #if (CY_PSOC3_ES2 || CY_PSOC5_ES1)
 182:.\Generated_Source\PSoC5/CapSense_PM.c ****             /* Aux control set FIFO as REG */
 183:.\Generated_Source\PSoC5/CapSense_PM.c ****             enableInterrupts = CyEnterCriticalSection();
 184:.\Generated_Source\PSoC5/CapSense_PM.c ****             CapSense_AUX_CONTROL_A_REG  |= CapSense_AUXCTRL_FIFO_SINGLE_REG;
 185:.\Generated_Source\PSoC5/CapSense_PM.c ****             CyExitCriticalSection(enableInterrupts);
 186:.\Generated_Source\PSoC5/CapSense_PM.c ****             
 187:.\Generated_Source\PSoC5/CapSense_PM.c ****             /* Write polynomial */
 188:.\Generated_Source\PSoC5/CapSense_PM.c ****             CapSense_POLYNOM_A__D1_REG   = HI8(CapSense_PRS16_DEFAULT_POLYNOM); /* D0 register */
 189:.\Generated_Source\PSoC5/CapSense_PM.c ****             CapSense_POLYNOM_A__D0_REG   = LO8(CapSense_PRS16_DEFAULT_POLYNOM); /* D1 register */
 190:.\Generated_Source\PSoC5/CapSense_PM.c ****         #endif  /* End (CY_PSOC3_ES2 || CY_PSOC5_ES1) */
 191:.\Generated_Source\PSoC5/CapSense_PM.c ****         
 192:.\Generated_Source\PSoC5/CapSense_PM.c ****         /* Write FIFO with seed */
 193:.\Generated_Source\PSoC5/CapSense_PM.c ****         CapSense_SEED_COPY_A__F1_REG = CapSense_MEASURE_FULL_RANGE_LOW;         /* F0 register */
 194:.\Generated_Source\PSoC5/CapSense_PM.c ****         CapSense_SEED_COPY_A__F0_REG =CapSense_MEASURE_FULL_RANGE_LOW;          /* F1 register */
 195:.\Generated_Source\PSoC5/CapSense_PM.c ****         
 196:.\Generated_Source\PSoC5/CapSense_PM.c ****     #else
 197:.\Generated_Source\PSoC5/CapSense_PM.c ****         /* Do nothing = config without PRS */
 198:.\Generated_Source\PSoC5/CapSense_PM.c ****     #endif  /* End (CapSense_PRS_OPTIONS == CapSense_PRS_8BITS) */
 199:.\Generated_Source\PSoC5/CapSense_PM.c ****     
 200:.\Generated_Source\PSoC5/CapSense_PM.c ****     #if (CY_PSOC3_ES2 || CY_PSOC5_ES1)
 201:.\Generated_Source\PSoC5/CapSense_PM.c ****         /* Set ScanSpeed */
 202:.\Generated_Source\PSoC5/CapSense_PM.c ****         CapSense_SCANSPEED_PERIOD_REG = CapSense_backup.scanspeed;       /* Counter7_PERIOD registe
 187              		.loc 1 202 0
 188 006a 46F28C43 		movw	r3, #:lower16:1073767564
 189 006e C4F20003 		movt	r3, #:upper16:1073767564
 190 0072 40F20002 		movw	r2, #:lower16:CapSense_backup
 191 0076 C0F20002 		movt	r2, #:upper16:CapSense_backup
 192 007a 5278     		ldrb	r2, [r2, #1]	@ zero_extendqisi2
 193 007c 1A70     		strb	r2, [r3, #0]
ARM GAS  C:\Users\Geo\AppData\Local\Temp\cc2hncsS.s 			page 8


 203:.\Generated_Source\PSoC5/CapSense_PM.c ****     #endif  /* End (CY_PSOC3_ES2 || CY_PSOC5_ES1) */
 204:.\Generated_Source\PSoC5/CapSense_PM.c ****     
 205:.\Generated_Source\PSoC5/CapSense_PM.c ****     /* Set the Measure */
 206:.\Generated_Source\PSoC5/CapSense_PM.c ****     #if (CapSense_IMPLEMENTATION_CH0 == CapSense_MEASURE_IMPLEMENTATION_FF)
 207:.\Generated_Source\PSoC5/CapSense_PM.c ****         /* Window PWM  - FF Timer register are retention */
 208:.\Generated_Source\PSoC5/CapSense_PM.c ****         /* Raw Counter - FF Timer register are retention */
 209:.\Generated_Source\PSoC5/CapSense_PM.c ****     #else
 210:.\Generated_Source\PSoC5/CapSense_PM.c ****         /* Window PWM and Raw Counter AUX and D0 set */ 
 211:.\Generated_Source\PSoC5/CapSense_PM.c ****         #if (CY_PSOC3_ES2 || CY_PSOC5_ES1)
 212:.\Generated_Source\PSoC5/CapSense_PM.c ****             enableInterrupts = CyEnterCriticalSection();
 194              		.loc 1 212 0
 195 007e FFF7FEFF 		bl	CyEnterCriticalSection
 196 0082 0346     		mov	r3, r0
 197 0084 FB71     		strb	r3, [r7, #7]
 213:.\Generated_Source\PSoC5/CapSense_PM.c ****             CapSense_PWM_CH0_AUX_CONTROL_REG |= CapSense_AUXCTRL_FIFO_SINGLE_REG;   /* AUX register
 198              		.loc 1 213 0
 199 0086 46F29543 		movw	r3, #:lower16:1073767573
 200 008a C4F20003 		movt	r3, #:upper16:1073767573
 201 008e 46F29542 		movw	r2, #:lower16:1073767573
 202 0092 C4F20002 		movt	r2, #:upper16:1073767573
 203 0096 1278     		ldrb	r2, [r2, #0]
 204 0098 D2B2     		uxtb	r2, r2
 205 009a 42F00302 		orr	r2, r2, #3
 206 009e D2B2     		uxtb	r2, r2
 207 00a0 1A70     		strb	r2, [r3, #0]
 214:.\Generated_Source\PSoC5/CapSense_PM.c ****             CapSense_RAW_CH0_AUX_CONTROL_REG |= CapSense_AUXCTRL_FIFO_SINGLE_REG;   /* AUX register
 208              		.loc 1 214 0
 209 00a2 46F29343 		movw	r3, #:lower16:1073767571
 210 00a6 C4F20003 		movt	r3, #:upper16:1073767571
 211 00aa 46F29342 		movw	r2, #:lower16:1073767571
 212 00ae C4F20002 		movt	r2, #:upper16:1073767571
 213 00b2 1278     		ldrb	r2, [r2, #0]
 214 00b4 D2B2     		uxtb	r2, r2
 215 00b6 42F00302 		orr	r2, r2, #3
 216 00ba D2B2     		uxtb	r2, r2
 217 00bc 1A70     		strb	r2, [r3, #0]
 215:.\Generated_Source\PSoC5/CapSense_PM.c ****             CyExitCriticalSection(enableInterrupts);
 218              		.loc 1 215 0
 219 00be FB79     		ldrb	r3, [r7, #7]	@ zero_extendqisi2
 220 00c0 1846     		mov	r0, r3
 221 00c2 FFF7FEFF 		bl	CyExitCriticalSection
 216:.\Generated_Source\PSoC5/CapSense_PM.c ****             
 217:.\Generated_Source\PSoC5/CapSense_PM.c ****             CapSense_PWM_CH0_ADD_VALUE_REG    = CapSense_MEASURE_FULL_RANGE_LOW;    /* D0 register 
 222              		.loc 1 217 0
 223 00c6 46F22543 		movw	r3, #:lower16:1073767461
 224 00ca C4F20003 		movt	r3, #:upper16:1073767461
 225 00ce 4FF0FF32 		mov	r2, #-1
 226 00d2 1A70     		strb	r2, [r3, #0]
 218:.\Generated_Source\PSoC5/CapSense_PM.c ****             CapSense_RAW_CH0_ADD_VALUE_REG    = CapSense_MEASURE_FULL_RANGE_LOW;    /* D0 register 
 227              		.loc 1 218 0
 228 00d4 46F22343 		movw	r3, #:lower16:1073767459
 229 00d8 C4F20003 		movt	r3, #:upper16:1073767459
 230 00dc 4FF0FF32 		mov	r2, #-1
 231 00e0 1A70     		strb	r2, [r3, #0]
 219:.\Generated_Source\PSoC5/CapSense_PM.c ****             
 220:.\Generated_Source\PSoC5/CapSense_PM.c ****         #endif  /* End (CY_PSOC3_ES2 || CY_PSOC5_ES1) */
 221:.\Generated_Source\PSoC5/CapSense_PM.c ****         
ARM GAS  C:\Users\Geo\AppData\Local\Temp\cc2hncsS.s 			page 9


 222:.\Generated_Source\PSoC5/CapSense_PM.c ****         /* Window PWM */
 223:.\Generated_Source\PSoC5/CapSense_PM.c ****         CapSense_PWM_CH0_PERIOD_LO_REG    = CapSense_MEASURE_FULL_RANGE_LOW;        /* F0 register 
 232              		.loc 1 223 0
 233 00e2 46F24543 		movw	r3, #:lower16:1073767493
 234 00e6 C4F20003 		movt	r3, #:upper16:1073767493
 235 00ea 4FF0FF32 		mov	r2, #-1
 236 00ee 1A70     		strb	r2, [r3, #0]
 224:.\Generated_Source\PSoC5/CapSense_PM.c ****         
 225:.\Generated_Source\PSoC5/CapSense_PM.c ****         /* Raw Counter */
 226:.\Generated_Source\PSoC5/CapSense_PM.c ****         CapSense_RAW_CH0_PERIOD_HI_REG    = CapSense_MEASURE_FULL_RANGE_LOW;        /* F1 register 
 237              		.loc 1 226 0
 238 00f0 46F25343 		movw	r3, #:lower16:1073767507
 239 00f4 C4F20003 		movt	r3, #:upper16:1073767507
 240 00f8 4FF0FF32 		mov	r2, #-1
 241 00fc 1A70     		strb	r2, [r3, #0]
 227:.\Generated_Source\PSoC5/CapSense_PM.c ****         CapSense_RAW_CH0_PERIOD_LO_REG    = CapSense_MEASURE_FULL_RANGE_LOW;        /* F0 register 
 242              		.loc 1 227 0
 243 00fe 46F24343 		movw	r3, #:lower16:1073767491
 244 0102 C4F20003 		movt	r3, #:upper16:1073767491
 245 0106 4FF0FF32 		mov	r2, #-1
 246 010a 1A70     		strb	r2, [r3, #0]
 228:.\Generated_Source\PSoC5/CapSense_PM.c ****     
 229:.\Generated_Source\PSoC5/CapSense_PM.c ****     #endif  /* (CapSense_IMPLEMENTATION_CH0 == CapSense_MEASURE_IMPLEMENTATION_FF) */ 
 230:.\Generated_Source\PSoC5/CapSense_PM.c ****     
 231:.\Generated_Source\PSoC5/CapSense_PM.c ****     #if (CapSense_DESIGN_TYPE == CapSense_TWO_CHANNELS_DESIGN)
 232:.\Generated_Source\PSoC5/CapSense_PM.c ****         #if (CapSense_IMPLEMENTATION_CH1 == CapSense_MEASURE_IMPLEMENTATION_FF)
 233:.\Generated_Source\PSoC5/CapSense_PM.c ****             /* Window PWM  - FF Timer register are retention */
 234:.\Generated_Source\PSoC5/CapSense_PM.c ****             /* Raw Counter - FF Timer register are retention */
 235:.\Generated_Source\PSoC5/CapSense_PM.c ****         #else
 236:.\Generated_Source\PSoC5/CapSense_PM.c ****             /* Window PWM and Raw Counter AUX and D0 set */ 
 237:.\Generated_Source\PSoC5/CapSense_PM.c ****             #if (CY_PSOC3_ES2 || CY_PSOC5_ES1)
 238:.\Generated_Source\PSoC5/CapSense_PM.c ****                 enableInterrupts = CyEnterCriticalSection();
 239:.\Generated_Source\PSoC5/CapSense_PM.c ****                 CapSense_PWM_CH1_AUX_CONTROL_REG |= CapSense_AUXCTRL_FIFO_SINGLE_REG; /* AUX regist
 240:.\Generated_Source\PSoC5/CapSense_PM.c ****                 CapSense_RAW_CH1_AUX_CONTROL_REG |= CapSense_AUXCTRL_FIFO_SINGLE_REG; /* AUX regist
 241:.\Generated_Source\PSoC5/CapSense_PM.c ****                 CyExitCriticalSection(enableInterrupts);
 242:.\Generated_Source\PSoC5/CapSense_PM.c ****                 
 243:.\Generated_Source\PSoC5/CapSense_PM.c ****                 CapSense_RAW_CH1_ADD_VALUE_REG    = CapSense_MEASURE_FULL_RANGE_LOW;   /* D0 regist
 244:.\Generated_Source\PSoC5/CapSense_PM.c ****                 CapSense_PWM_CH1_ADD_VALUE_REG    = CapSense_MEASURE_FULL_RANGE_LOW;   /* D0 regist
 245:.\Generated_Source\PSoC5/CapSense_PM.c ****             #endif  /* End (CY_PSOC3_ES2 || CY_PSOC5_ES1) */
 246:.\Generated_Source\PSoC5/CapSense_PM.c ****             
 247:.\Generated_Source\PSoC5/CapSense_PM.c ****             /* Window PWM */
 248:.\Generated_Source\PSoC5/CapSense_PM.c ****             CapSense_PWM_CH1_PERIOD_LO_REG    = CapSense_MEASURE_FULL_RANGE_LOW;       /* F0 regist
 249:.\Generated_Source\PSoC5/CapSense_PM.c ****             
 250:.\Generated_Source\PSoC5/CapSense_PM.c ****             /* Raw Counter */
 251:.\Generated_Source\PSoC5/CapSense_PM.c ****             CapSense_RAW_CH1_PERIOD_HI_REG    = CapSense_MEASURE_FULL_RANGE_LOW;       /* F1 regist
 252:.\Generated_Source\PSoC5/CapSense_PM.c ****             CapSense_RAW_CH1_PERIOD_LO_REG    = CapSense_MEASURE_FULL_RANGE_LOW;       /* F0 regist
 253:.\Generated_Source\PSoC5/CapSense_PM.c ****             
 254:.\Generated_Source\PSoC5/CapSense_PM.c ****         #endif  /* End (CapSense_IMPLEMENTATION_CH1 == CapSense_MEASURE_IMPLEMENTATION_FF) */
 255:.\Generated_Source\PSoC5/CapSense_PM.c ****     
 256:.\Generated_Source\PSoC5/CapSense_PM.c ****     #endif  /* End (CapSense_DESIGN_TYPE == TWO_CHANNELS_DESIGN)*/
 257:.\Generated_Source\PSoC5/CapSense_PM.c **** 
 258:.\Generated_Source\PSoC5/CapSense_PM.c ****     /* Set CONTROL_REG */
 259:.\Generated_Source\PSoC5/CapSense_PM.c ****     CapSense_CONTROL_REG = CapSense_backup.ctrlreg;
 247              		.loc 1 259 0
 248 010c 46F27B43 		movw	r3, #:lower16:1073767547
 249 0110 C4F20003 		movt	r3, #:upper16:1073767547
 250 0114 40F20002 		movw	r2, #:lower16:CapSense_backup
ARM GAS  C:\Users\Geo\AppData\Local\Temp\cc2hncsS.s 			page 10


 251 0118 C0F20002 		movt	r2, #:upper16:CapSense_backup
 252 011c 9278     		ldrb	r2, [r2, #2]	@ zero_extendqisi2
 253 011e 1A70     		strb	r2, [r3, #0]
 260:.\Generated_Source\PSoC5/CapSense_PM.c **** 
 261:.\Generated_Source\PSoC5/CapSense_PM.c ****     /* Enable window generation */
 262:.\Generated_Source\PSoC5/CapSense_PM.c ****     CapSense_CONTROL_REG |= CapSense_CTRL_WINDOW_EN__CH0;
 254              		.loc 1 262 0
 255 0120 46F27B43 		movw	r3, #:lower16:1073767547
 256 0124 C4F20003 		movt	r3, #:upper16:1073767547
 257 0128 46F27B42 		movw	r2, #:lower16:1073767547
 258 012c C4F20002 		movt	r2, #:upper16:1073767547
 259 0130 1278     		ldrb	r2, [r2, #0]
 260 0132 D2B2     		uxtb	r2, r2
 261 0134 42F00402 		orr	r2, r2, #4
 262 0138 D2B2     		uxtb	r2, r2
 263 013a 1A70     		strb	r2, [r3, #0]
 263:.\Generated_Source\PSoC5/CapSense_PM.c ****     #if (CapSense_DESIGN_TYPE == CapSense_TWO_CHANNELS_DESIGN) 
 264:.\Generated_Source\PSoC5/CapSense_PM.c ****         CapSense_CONTROL_REG |= CapSense_CTRL_WINDOW_EN__CH1; 
 265:.\Generated_Source\PSoC5/CapSense_PM.c ****     #endif  /* End CapSense_DESIGN_TYPE */
 266:.\Generated_Source\PSoC5/CapSense_PM.c ****  
 267:.\Generated_Source\PSoC5/CapSense_PM.c ****     /* The pins enable are customer concern: Cmod and Rb */
 268:.\Generated_Source\PSoC5/CapSense_PM.c ****  }
 264              		.loc 1 268 0
 265 013c 07F10807 		add	r7, r7, #8
 266 0140 BD46     		mov	sp, r7
 267 0142 80BD     		pop	{r7, pc}
 268              		.cfi_endproc
 269              	.LFE2:
 270              		.size	CapSense_RestoreConfig, .-CapSense_RestoreConfig
 271              		.section	.text.CapSense_Wakeup,"ax",%progbits
 272              		.align	2
 273              		.global	CapSense_Wakeup
 274              		.thumb
 275              		.thumb_func
 276              		.type	CapSense_Wakeup, %function
 277              	CapSense_Wakeup:
 278              	.LFB3:
 269:.\Generated_Source\PSoC5/CapSense_PM.c ****  
 270:.\Generated_Source\PSoC5/CapSense_PM.c **** 
 271:.\Generated_Source\PSoC5/CapSense_PM.c **** /*******************************************************************************
 272:.\Generated_Source\PSoC5/CapSense_PM.c **** * Function Name: CapSense_Wakeup
 273:.\Generated_Source\PSoC5/CapSense_PM.c **** ********************************************************************************
 274:.\Generated_Source\PSoC5/CapSense_PM.c **** *
 275:.\Generated_Source\PSoC5/CapSense_PM.c **** * Summary:
 276:.\Generated_Source\PSoC5/CapSense_PM.c **** *  Restores CapSense configuration and non-retention register values. 
 277:.\Generated_Source\PSoC5/CapSense_PM.c **** *  Restores enabled state of component by setting Active mode power template 
 278:.\Generated_Source\PSoC5/CapSense_PM.c **** *  bits for number of component used within CapSense.
 279:.\Generated_Source\PSoC5/CapSense_PM.c **** *
 280:.\Generated_Source\PSoC5/CapSense_PM.c **** * Parameters:
 281:.\Generated_Source\PSoC5/CapSense_PM.c **** *  None
 282:.\Generated_Source\PSoC5/CapSense_PM.c **** *
 283:.\Generated_Source\PSoC5/CapSense_PM.c **** * Return:
 284:.\Generated_Source\PSoC5/CapSense_PM.c **** *  None
 285:.\Generated_Source\PSoC5/CapSense_PM.c **** *
 286:.\Generated_Source\PSoC5/CapSense_PM.c **** * Global Variables:
 287:.\Generated_Source\PSoC5/CapSense_PM.c **** *  CapSense_backup - used to save component state before enter sleep 
 288:.\Generated_Source\PSoC5/CapSense_PM.c **** *  mode and none-retention registers.
ARM GAS  C:\Users\Geo\AppData\Local\Temp\cc2hncsS.s 			page 11


 289:.\Generated_Source\PSoC5/CapSense_PM.c **** *
 290:.\Generated_Source\PSoC5/CapSense_PM.c **** *******************************************************************************/
 291:.\Generated_Source\PSoC5/CapSense_PM.c **** void CapSense_Wakeup(void) 
 292:.\Generated_Source\PSoC5/CapSense_PM.c **** {
 279              		.loc 1 292 0
 280              		.cfi_startproc
 281              		@ args = 0, pretend = 0, frame = 0
 282              		@ frame_needed = 1, uses_anonymous_args = 0
 283 0000 80B5     		push	{r7, lr}
 284              	.LCFI7:
 285              		.cfi_def_cfa_offset 8
 286 0002 00AF     		add	r7, sp, #0
 287              		.cfi_offset 14, -4
 288              		.cfi_offset 7, -8
 289              	.LCFI8:
 290              		.cfi_def_cfa_register 7
 293:.\Generated_Source\PSoC5/CapSense_PM.c ****     CapSense_RestoreConfig();
 291              		.loc 1 293 0
 292 0004 FFF7FEFF 		bl	CapSense_RestoreConfig
 294:.\Generated_Source\PSoC5/CapSense_PM.c ****     
 295:.\Generated_Source\PSoC5/CapSense_PM.c ****     /* Restore CapSense Enable state */
 296:.\Generated_Source\PSoC5/CapSense_PM.c ****     if (CapSense_backup.enableState != 0u)
 293              		.loc 1 296 0
 294 0008 40F20003 		movw	r3, #:lower16:CapSense_backup
 295 000c C0F20003 		movt	r3, #:upper16:CapSense_backup
 296 0010 1B78     		ldrb	r3, [r3, #0]	@ zero_extendqisi2
 297 0012 002B     		cmp	r3, #0
 298 0014 01D0     		beq	.L11
 297:.\Generated_Source\PSoC5/CapSense_PM.c ****     {
 298:.\Generated_Source\PSoC5/CapSense_PM.c ****         CapSense_Enable();
 299              		.loc 1 298 0
 300 0016 FFF7FEFF 		bl	CapSense_Enable
 301              	.L11:
 299:.\Generated_Source\PSoC5/CapSense_PM.c ****     }
 300:.\Generated_Source\PSoC5/CapSense_PM.c **** }
 302              		.loc 1 300 0
 303 001a 80BD     		pop	{r7, pc}
 304              		.cfi_endproc
 305              	.LFE3:
 306              		.size	CapSense_Wakeup, .-CapSense_Wakeup
 307              		.text
 308              	.Letext0: