ARM GAS  C:\Users\Geo\AppData\Local\Temp\cc0UCTwq.s 			page 1


   1              		.syntax unified
   2              		.cpu cortex-m3
   3              		.fpu softvfp
   4              		.eabi_attribute 20, 1
   5              		.eabi_attribute 21, 1
   6              		.eabi_attribute 23, 3
   7              		.eabi_attribute 24, 1
   8              		.eabi_attribute 25, 1
   9              		.eabi_attribute 26, 1
  10              		.eabi_attribute 30, 6
  11              		.eabi_attribute 18, 4
  12              		.thumb
  13              		.file	"CapSense_CSHL.c"
  20 0000 D4010000 		.text
  20      02006600 
  20      00000201 
  20      FB0E0D00 
  20      01010101 
  21              	.Ltext0:
  22              		.cfi_sections	.debug_frame
  23              		.comm	CapSense_rawFilterData1,8,4
  24              		.global	CapSense_SensorBaseline
  25              		.bss
  26              		.align	2
  27              		.type	CapSense_SensorBaseline, %object
  28              		.size	CapSense_SensorBaseline, 8
  29              	CapSense_SensorBaseline:
  30 0000 00000000 		.space	8
  30      00000000 
  31              		.global	CapSense_SensorBaselineLow
  32              		.align	2
  33              		.type	CapSense_SensorBaselineLow, %object
  34              		.size	CapSense_SensorBaselineLow, 4
  35              	CapSense_SensorBaselineLow:
  36 0008 00000000 		.space	4
  37              		.global	CapSense_SensorSignal
  38              		.align	2
  39              		.type	CapSense_SensorSignal, %object
  40              		.size	CapSense_SensorSignal, 4
  41              	CapSense_SensorSignal:
  42 000c 00000000 		.space	4
  43              		.global	CapSense_SensorOnMask
  44              		.align	2
  45              		.type	CapSense_SensorOnMask, %object
  46              		.size	CapSense_SensorOnMask, 1
  47              	CapSense_SensorOnMask:
  48 0010 00       		.space	1
  49              		.comm	CapSense_LowBaselineResetCnt,4,4
  50              		.global	CapSense_fingerThreshold
  51              		.section	.rodata
  52              		.align	2
ARM GAS  C:\Users\Geo\AppData\Local\Temp\cc0UCTwq.s 			page 2


  53              		.type	CapSense_fingerThreshold, %object
  54              		.size	CapSense_fingerThreshold, 4
  55              	CapSense_fingerThreshold:
  56 0000 05       		.byte	5
  57 0001 05       		.byte	5
  58 0002 05       		.byte	5
  59 0003 05       		.byte	5
  60              		.global	CapSense_noiseThreshold
  61              		.align	2
  62              		.type	CapSense_noiseThreshold, %object
  63              		.size	CapSense_noiseThreshold, 4
  64              	CapSense_noiseThreshold:
  65 0004 01       		.byte	1
  66 0005 01       		.byte	1
  67 0006 01       		.byte	1
  68 0007 01       		.byte	1
  69              		.global	CapSense_hysteresis
  70              		.align	2
  71              		.type	CapSense_hysteresis, %object
  72              		.size	CapSense_hysteresis, 4
  73              	CapSense_hysteresis:
  74 0008 01       		.byte	1
  75 0009 01       		.byte	1
  76 000a 01       		.byte	1
  77 000b 01       		.byte	1
  78              		.global	CapSense_debounce
  79              		.align	2
  80              		.type	CapSense_debounce, %object
  81              		.size	CapSense_debounce, 4
  82              	CapSense_debounce:
  83 000c 05       		.byte	5
  84 000d 05       		.byte	5
  85 000e 05       		.byte	5
  86 000f 05       		.byte	5
  87              		.global	CapSense_debounceCounter
  88              		.bss
  89 0011 000000   		.align	2
  90              		.type	CapSense_debounceCounter, %object
  91              		.size	CapSense_debounceCounter, 5
  92              	CapSense_debounceCounter:
  93 0014 00000000 		.space	5
  93      00
  94              		.global	CapSense_rawDataIndex
  95 0019 000000   		.section	.rodata
  96              		.align	2
  97              		.type	CapSense_rawDataIndex, %object
  98              		.size	CapSense_rawDataIndex, 4
  99              	CapSense_rawDataIndex:
 100 0010 00       		.byte	0
 101 0011 01       		.byte	1
 102 0012 02       		.byte	2
 103 0013 03       		.byte	3
 104              		.global	CapSense_numberOfSensors
 105              		.align	2
 106              		.type	CapSense_numberOfSensors, %object
 107              		.size	CapSense_numberOfSensors, 4
 108              	CapSense_numberOfSensors:
ARM GAS  C:\Users\Geo\AppData\Local\Temp\cc0UCTwq.s 			page 3


 109 0014 01       		.byte	1
 110 0015 01       		.byte	1
 111 0016 01       		.byte	1
 112 0017 01       		.byte	1
 113              		.section	.text.CapSense_BaseInit,"ax",%progbits
 114              		.align	2
 115              		.global	CapSense_BaseInit
 116              		.thumb
 117              		.thumb_func
 118              		.type	CapSense_BaseInit, %function
 119              	CapSense_BaseInit:
 120              	.LFB0:
 121              		.file 1 ".\\Generated_Source\\PSoC5\\CapSense_CSHL.c"
   1:.\Generated_Source\PSoC5/CapSense_CSHL.c **** /*******************************************************************************
   2:.\Generated_Source\PSoC5/CapSense_CSHL.c **** * File Name: CapSense_CSHL.c
   3:.\Generated_Source\PSoC5/CapSense_CSHL.c **** * Version 3.10
   4:.\Generated_Source\PSoC5/CapSense_CSHL.c **** *
   5:.\Generated_Source\PSoC5/CapSense_CSHL.c **** * Description:
   6:.\Generated_Source\PSoC5/CapSense_CSHL.c **** *  This file provides the source code to the High Level APIs for the CapSesne
   7:.\Generated_Source\PSoC5/CapSense_CSHL.c **** *  CSD component.
   8:.\Generated_Source\PSoC5/CapSense_CSHL.c **** *
   9:.\Generated_Source\PSoC5/CapSense_CSHL.c **** * Note:
  10:.\Generated_Source\PSoC5/CapSense_CSHL.c **** *
  11:.\Generated_Source\PSoC5/CapSense_CSHL.c **** ********************************************************************************
  12:.\Generated_Source\PSoC5/CapSense_CSHL.c **** * Copyright 2008-2011, Cypress Semiconductor Corporation.  All rights reserved.
  13:.\Generated_Source\PSoC5/CapSense_CSHL.c **** * You may use this file only in accordance with the license, terms, conditions,
  14:.\Generated_Source\PSoC5/CapSense_CSHL.c **** * disclaimers, and limitations in the end user license agreement accompanying
  15:.\Generated_Source\PSoC5/CapSense_CSHL.c **** * the software package with which this file was provided.
  16:.\Generated_Source\PSoC5/CapSense_CSHL.c **** *******************************************************************************/
  17:.\Generated_Source\PSoC5/CapSense_CSHL.c **** 
  18:.\Generated_Source\PSoC5/CapSense_CSHL.c **** #include "CapSense_CSHL.h"
  19:.\Generated_Source\PSoC5/CapSense_CSHL.c **** 
  20:.\Generated_Source\PSoC5/CapSense_CSHL.c **** /* SmartSense functions */
  21:.\Generated_Source\PSoC5/CapSense_CSHL.c **** #if (CapSense_TUNING_METHOD == CapSense_AUTO_TUNING)
  22:.\Generated_Source\PSoC5/CapSense_CSHL.c ****     extern void CapSense_CalculateThresholds(uint8 SensorNumber);
  23:.\Generated_Source\PSoC5/CapSense_CSHL.c **** #endif /* End (CapSense_TUNING_METHOD == CapSense_AUTO_TUNING) */
  24:.\Generated_Source\PSoC5/CapSense_CSHL.c **** 
  25:.\Generated_Source\PSoC5/CapSense_CSHL.c **** /* Median filter function prototype */
  26:.\Generated_Source\PSoC5/CapSense_CSHL.c **** #if ( (CapSense_RAW_FILTER_MASK & CapSense_MEDIAN_FILTER) || \
  27:.\Generated_Source\PSoC5/CapSense_CSHL.c ****       (CapSense_POS_FILTERS_MASK & CapSense_MEDIAN_FILTER) )
  28:.\Generated_Source\PSoC5/CapSense_CSHL.c ****     uint16 CapSense_MedianFilter(uint16 x1, uint16 x2, uint16 x3) \
  29:.\Generated_Source\PSoC5/CapSense_CSHL.c ****     ;
  30:.\Generated_Source\PSoC5/CapSense_CSHL.c **** #endif /* End CapSense_RAW_FILTER_MASK && CapSense_POS_FILTERS_MASK */
  31:.\Generated_Source\PSoC5/CapSense_CSHL.c **** 
  32:.\Generated_Source\PSoC5/CapSense_CSHL.c **** /* Averaging filter function prototype */
  33:.\Generated_Source\PSoC5/CapSense_CSHL.c **** #if ( (CapSense_RAW_FILTER_MASK & CapSense_AVERAGING_FILTER) || \
  34:.\Generated_Source\PSoC5/CapSense_CSHL.c ****       (CapSense_POS_FILTERS_MASK & CapSense_AVERAGING_FILTER) )
  35:.\Generated_Source\PSoC5/CapSense_CSHL.c ****     uint16 CapSense_AveragingFilter(uint16 x1, uint16 x2, uint16 x3) \
  36:.\Generated_Source\PSoC5/CapSense_CSHL.c ****     ;
  37:.\Generated_Source\PSoC5/CapSense_CSHL.c **** #endif /* End CapSense_RAW_FILTER_MASK && CapSense_POS_FILTERS_MASK */
  38:.\Generated_Source\PSoC5/CapSense_CSHL.c **** 
  39:.\Generated_Source\PSoC5/CapSense_CSHL.c **** /* IIR2Filter(1/2prev + 1/2cur) filter function prototype */
  40:.\Generated_Source\PSoC5/CapSense_CSHL.c **** #if ( (CapSense_RAW_FILTER_MASK & CapSense_IIR2_FILTER) || \
  41:.\Generated_Source\PSoC5/CapSense_CSHL.c ****       (CapSense_POS_FILTERS_MASK & CapSense_IIR2_FILTER) )
  42:.\Generated_Source\PSoC5/CapSense_CSHL.c **** uint16 CapSense_IIR2Filter(uint16 x1, uint16 x2) ;
  43:.\Generated_Source\PSoC5/CapSense_CSHL.c **** #endif /* End CapSense_RAW_FILTER_MASK && CapSense_POS_FILTERS_MASK */
  44:.\Generated_Source\PSoC5/CapSense_CSHL.c **** 
ARM GAS  C:\Users\Geo\AppData\Local\Temp\cc0UCTwq.s 			page 4


  45:.\Generated_Source\PSoC5/CapSense_CSHL.c **** /* IIR4Filter(3/4prev + 1/4cur) filter function prototype */
  46:.\Generated_Source\PSoC5/CapSense_CSHL.c **** #if ( (CapSense_RAW_FILTER_MASK & CapSense_IIR4_FILTER) || \
  47:.\Generated_Source\PSoC5/CapSense_CSHL.c ****       (CapSense_POS_FILTERS_MASK & CapSense_IIR4_FILTER) )
  48:.\Generated_Source\PSoC5/CapSense_CSHL.c ****     uint16 CapSense_IIR4Filter(uint16 x1, uint16 x2) ;
  49:.\Generated_Source\PSoC5/CapSense_CSHL.c **** #endif /* End CapSense_RAW_FILTER_MASK && CapSense_POS_FILTERS_MASK */
  50:.\Generated_Source\PSoC5/CapSense_CSHL.c **** 
  51:.\Generated_Source\PSoC5/CapSense_CSHL.c **** /* IIR8Filter(7/8prev + 1/8cur) filter function prototype - RawCounts only */
  52:.\Generated_Source\PSoC5/CapSense_CSHL.c **** #if (CapSense_RAW_FILTER_MASK & CapSense_IIR8_FILTER)
  53:.\Generated_Source\PSoC5/CapSense_CSHL.c ****     uint16 CapSense_IIR8Filter(uint16 x1, uint16 x2) ;
  54:.\Generated_Source\PSoC5/CapSense_CSHL.c **** #endif /* End CapSense_RAW_FILTER_MASK */
  55:.\Generated_Source\PSoC5/CapSense_CSHL.c **** 
  56:.\Generated_Source\PSoC5/CapSense_CSHL.c **** /* IIR16Filter(15/16prev + 1/16cur) filter function prototype - RawCounts only */
  57:.\Generated_Source\PSoC5/CapSense_CSHL.c **** #if (CapSense_RAW_FILTER_MASK & CapSense_IIR16_FILTER)
  58:.\Generated_Source\PSoC5/CapSense_CSHL.c ****     uint16 CapSense_IIR16Filter(uint16 x1, uint16 x2) ;
  59:.\Generated_Source\PSoC5/CapSense_CSHL.c **** #endif /* End CapSense_RAW_FILTER_MASK */
  60:.\Generated_Source\PSoC5/CapSense_CSHL.c **** 
  61:.\Generated_Source\PSoC5/CapSense_CSHL.c **** /* JitterFilter filter function prototype */
  62:.\Generated_Source\PSoC5/CapSense_CSHL.c **** #if ( (CapSense_RAW_FILTER_MASK & CapSense_JITTER_FILTER) || \
  63:.\Generated_Source\PSoC5/CapSense_CSHL.c ****       (CapSense_POS_FILTERS_MASK & CapSense_JITTER_FILTER) )
  64:.\Generated_Source\PSoC5/CapSense_CSHL.c ****     uint16 CapSense_JitterFilter(uint16 x1, uint16 x2) ;
  65:.\Generated_Source\PSoC5/CapSense_CSHL.c **** #endif /* End CapSense_RAW_FILTER_MASK && CapSense_POS_FILTERS_MASK */
  66:.\Generated_Source\PSoC5/CapSense_CSHL.c **** 
  67:.\Generated_Source\PSoC5/CapSense_CSHL.c **** /* Storage of filters data */
  68:.\Generated_Source\PSoC5/CapSense_CSHL.c **** #if ( (CapSense_RAW_FILTER_MASK & CapSense_MEDIAN_FILTER) || \
  69:.\Generated_Source\PSoC5/CapSense_CSHL.c ****       (CapSense_RAW_FILTER_MASK & CapSense_AVERAGING_FILTER) )
  70:.\Generated_Source\PSoC5/CapSense_CSHL.c **** 
  71:.\Generated_Source\PSoC5/CapSense_CSHL.c ****     uint16 CapSense_rawFilterData1[CapSense_TOTAL_SENSOR_COUNT];
  72:.\Generated_Source\PSoC5/CapSense_CSHL.c ****     uint16 CapSense_rawFilterData2[CapSense_TOTAL_SENSOR_COUNT];
  73:.\Generated_Source\PSoC5/CapSense_CSHL.c **** 
  74:.\Generated_Source\PSoC5/CapSense_CSHL.c **** #elif ( (CapSense_RAW_FILTER_MASK & CapSense_IIR2_FILTER)   || \
  75:.\Generated_Source\PSoC5/CapSense_CSHL.c ****         (CapSense_RAW_FILTER_MASK & CapSense_IIR4_FILTER)   || \
  76:.\Generated_Source\PSoC5/CapSense_CSHL.c ****         (CapSense_RAW_FILTER_MASK & CapSense_JITTER_FILTER) || \
  77:.\Generated_Source\PSoC5/CapSense_CSHL.c ****         (CapSense_RAW_FILTER_MASK & CapSense_IIR8_FILTER)   || \
  78:.\Generated_Source\PSoC5/CapSense_CSHL.c ****         (CapSense_RAW_FILTER_MASK & CapSense_IIR16_FILTER) )
  79:.\Generated_Source\PSoC5/CapSense_CSHL.c ****         
  80:.\Generated_Source\PSoC5/CapSense_CSHL.c ****     uint16 CapSense_rawFilterData1[CapSense_TOTAL_SENSOR_COUNT];
  81:.\Generated_Source\PSoC5/CapSense_CSHL.c **** 
  82:.\Generated_Source\PSoC5/CapSense_CSHL.c **** #else
  83:.\Generated_Source\PSoC5/CapSense_CSHL.c ****     /* No Raw filters */
  84:.\Generated_Source\PSoC5/CapSense_CSHL.c **** #endif  /* End CapSense_RAW_FILTER_MASK */
  85:.\Generated_Source\PSoC5/CapSense_CSHL.c **** 
  86:.\Generated_Source\PSoC5/CapSense_CSHL.c **** extern uint16 CapSense_SensorRaw[CapSense_TOTAL_SENSOR_COUNT];
  87:.\Generated_Source\PSoC5/CapSense_CSHL.c **** extern uint8 CapSense_SensorEnableMask[(((CapSense_TOTAL_SENSOR_COUNT - 1u) / 8u) + 1u)];
  88:.\Generated_Source\PSoC5/CapSense_CSHL.c **** extern const uint8 CYCODE CapSense_widgetNumber[];
  89:.\Generated_Source\PSoC5/CapSense_CSHL.c **** 
  90:.\Generated_Source\PSoC5/CapSense_CSHL.c **** uint16 CapSense_SensorBaseline[CapSense_TOTAL_SENSOR_COUNT] = {0u};
  91:.\Generated_Source\PSoC5/CapSense_CSHL.c **** uint8 CapSense_SensorBaselineLow[CapSense_TOTAL_SENSOR_COUNT] = {0u};
  92:.\Generated_Source\PSoC5/CapSense_CSHL.c **** uint8 CapSense_SensorSignal[CapSense_TOTAL_SENSOR_COUNT] = {0u};
  93:.\Generated_Source\PSoC5/CapSense_CSHL.c **** uint8 CapSense_SensorOnMask[(((CapSense_TOTAL_SENSOR_COUNT - 1u) / 8u) + 1u)] = {0u};
  94:.\Generated_Source\PSoC5/CapSense_CSHL.c **** 
  95:.\Generated_Source\PSoC5/CapSense_CSHL.c **** uint8 CapSense_LowBaselineResetCnt[CapSense_TOTAL_SENSOR_COUNT];
  96:.\Generated_Source\PSoC5/CapSense_CSHL.c **** 
  97:.\Generated_Source\PSoC5/CapSense_CSHL.c **** /* Helps while centroid calulation */
  98:.\Generated_Source\PSoC5/CapSense_CSHL.c **** #if (CapSense_TOTAL_CENTROIDS_COUNT)
  99:.\Generated_Source\PSoC5/CapSense_CSHL.c ****     static uint8 CapSense_centroid[3];
 100:.\Generated_Source\PSoC5/CapSense_CSHL.c **** #endif  /* End (CapSense_TOTAL_CENTROIDS_COUNT) */
 101:.\Generated_Source\PSoC5/CapSense_CSHL.c **** 
ARM GAS  C:\Users\Geo\AppData\Local\Temp\cc0UCTwq.s 			page 5


 102:.\Generated_Source\PSoC5/CapSense_CSHL.c **** const uint8 CYCODE CapSense_fingerThreshold[] = {
 103:.\Generated_Source\PSoC5/CapSense_CSHL.c ****     5u, 5u, 5u, 5u, 
 104:.\Generated_Source\PSoC5/CapSense_CSHL.c **** };
 105:.\Generated_Source\PSoC5/CapSense_CSHL.c **** 
 106:.\Generated_Source\PSoC5/CapSense_CSHL.c **** const uint8 CYCODE CapSense_noiseThreshold[] = {
 107:.\Generated_Source\PSoC5/CapSense_CSHL.c ****     1u, 1u, 1u, 1u, 
 108:.\Generated_Source\PSoC5/CapSense_CSHL.c **** };
 109:.\Generated_Source\PSoC5/CapSense_CSHL.c **** 
 110:.\Generated_Source\PSoC5/CapSense_CSHL.c **** const uint8 CYCODE CapSense_hysteresis[] = {
 111:.\Generated_Source\PSoC5/CapSense_CSHL.c ****     1u, 1u, 1u, 1u, 
 112:.\Generated_Source\PSoC5/CapSense_CSHL.c **** };
 113:.\Generated_Source\PSoC5/CapSense_CSHL.c **** 
 114:.\Generated_Source\PSoC5/CapSense_CSHL.c **** const uint8 CYCODE CapSense_debounce[] = {
 115:.\Generated_Source\PSoC5/CapSense_CSHL.c ****     5u, 5u, 5u, 5u, 
 116:.\Generated_Source\PSoC5/CapSense_CSHL.c **** };
 117:.\Generated_Source\PSoC5/CapSense_CSHL.c **** 
 118:.\Generated_Source\PSoC5/CapSense_CSHL.c **** uint8 CapSense_debounceCounter[] = {
 119:.\Generated_Source\PSoC5/CapSense_CSHL.c ****     0u, 0u, 0u, 0u, 0u, 
 120:.\Generated_Source\PSoC5/CapSense_CSHL.c **** };
 121:.\Generated_Source\PSoC5/CapSense_CSHL.c **** 
 122:.\Generated_Source\PSoC5/CapSense_CSHL.c **** const uint8 CYCODE CapSense_rawDataIndex[] = {
 123:.\Generated_Source\PSoC5/CapSense_CSHL.c ****     0u, /* ButtonMotorOnOff__BTN */
 124:.\Generated_Source\PSoC5/CapSense_CSHL.c ****     1u, /* ButtonLightsOnOff__BTN */
 125:.\Generated_Source\PSoC5/CapSense_CSHL.c ****     2u, /* ButtonAlarmOnOff__BTN */
 126:.\Generated_Source\PSoC5/CapSense_CSHL.c ****     3u, /* ButtonLightMode__BTN */
 127:.\Generated_Source\PSoC5/CapSense_CSHL.c **** 
 128:.\Generated_Source\PSoC5/CapSense_CSHL.c **** };
 129:.\Generated_Source\PSoC5/CapSense_CSHL.c **** 
 130:.\Generated_Source\PSoC5/CapSense_CSHL.c **** const uint8 CYCODE CapSense_numberOfSensors[] = {
 131:.\Generated_Source\PSoC5/CapSense_CSHL.c ****     1u, /* ButtonMotorOnOff__BTN */
 132:.\Generated_Source\PSoC5/CapSense_CSHL.c ****     1u, /* ButtonLightsOnOff__BTN */
 133:.\Generated_Source\PSoC5/CapSense_CSHL.c ****     1u, /* ButtonAlarmOnOff__BTN */
 134:.\Generated_Source\PSoC5/CapSense_CSHL.c ****     1u, /* ButtonLightMode__BTN */
 135:.\Generated_Source\PSoC5/CapSense_CSHL.c **** 
 136:.\Generated_Source\PSoC5/CapSense_CSHL.c **** };
 137:.\Generated_Source\PSoC5/CapSense_CSHL.c **** 
 138:.\Generated_Source\PSoC5/CapSense_CSHL.c **** 
 139:.\Generated_Source\PSoC5/CapSense_CSHL.c **** 
 140:.\Generated_Source\PSoC5/CapSense_CSHL.c **** /*******************************************************************************
 141:.\Generated_Source\PSoC5/CapSense_CSHL.c **** * Function Name: CapSense_BaseInit
 142:.\Generated_Source\PSoC5/CapSense_CSHL.c **** ********************************************************************************
 143:.\Generated_Source\PSoC5/CapSense_CSHL.c **** *
 144:.\Generated_Source\PSoC5/CapSense_CSHL.c **** * Summary:
 145:.\Generated_Source\PSoC5/CapSense_CSHL.c **** *  Loads the CapSense_SensorBaseline[sensor] array element with an 
 146:.\Generated_Source\PSoC5/CapSense_CSHL.c **** *  initial value which is equal to raw count value. 
 147:.\Generated_Source\PSoC5/CapSense_CSHL.c **** *  Resets to zero CapSense_SensorBaselineLow[senesor] and 
 148:.\Generated_Source\PSoC5/CapSense_CSHL.c **** *  CapSense_SensorSignal[sensor] array element.
 149:.\Generated_Source\PSoC5/CapSense_CSHL.c **** *  Loads CapSense_debounceCounter[sensor] array element with initial 
 150:.\Generated_Source\PSoC5/CapSense_CSHL.c **** *  value equal CapSense_debounce[].
 151:.\Generated_Source\PSoC5/CapSense_CSHL.c **** *  Loads the CapSense_rawFilterData2[sensor] and 
 152:.\Generated_Source\PSoC5/CapSense_CSHL.c **** *  CapSense_rawFilterData2[sensor] array element with an 
 153:.\Generated_Source\PSoC5/CapSense_CSHL.c **** *  initial value which is equal raw count value if raw data filter is enabled.
 154:.\Generated_Source\PSoC5/CapSense_CSHL.c **** *
 155:.\Generated_Source\PSoC5/CapSense_CSHL.c **** * Parameters:
 156:.\Generated_Source\PSoC5/CapSense_CSHL.c **** *  sensor:  Sensor number.
 157:.\Generated_Source\PSoC5/CapSense_CSHL.c **** *
 158:.\Generated_Source\PSoC5/CapSense_CSHL.c **** * Return:
ARM GAS  C:\Users\Geo\AppData\Local\Temp\cc0UCTwq.s 			page 6


 159:.\Generated_Source\PSoC5/CapSense_CSHL.c **** *  None
 160:.\Generated_Source\PSoC5/CapSense_CSHL.c **** *
 161:.\Generated_Source\PSoC5/CapSense_CSHL.c **** * Global Variables:
 162:.\Generated_Source\PSoC5/CapSense_CSHL.c **** *  CapSense_SensorBaseline[]    - used to store baseline value.
 163:.\Generated_Source\PSoC5/CapSense_CSHL.c **** *  CapSense_SensorBaselineLow[] - used to store fraction byte of 
 164:.\Generated_Source\PSoC5/CapSense_CSHL.c **** *  baseline value.
 165:.\Generated_Source\PSoC5/CapSense_CSHL.c **** *  CapSense_SensorSignal[]      - used to store diffence between 
 166:.\Generated_Source\PSoC5/CapSense_CSHL.c **** *  current value of raw data and previous value of baseline.
 167:.\Generated_Source\PSoC5/CapSense_CSHL.c **** *  CapSense_debounceCounter[]   - used to store current debounce 
 168:.\Generated_Source\PSoC5/CapSense_CSHL.c **** *  counter of sensor. Widget which has this parameter are buttons, matrix 
 169:.\Generated_Source\PSoC5/CapSense_CSHL.c **** *  buttons, proximity, guard. All other widgets haven't debounce parameter
 170:.\Generated_Source\PSoC5/CapSense_CSHL.c **** *  and use the last element of this array with value 0 (it means no debounce).
 171:.\Generated_Source\PSoC5/CapSense_CSHL.c **** *  CapSense_rawFilterData1[]    - used to store previous sample of 
 172:.\Generated_Source\PSoC5/CapSense_CSHL.c **** *  any enabled raw data filter.
 173:.\Generated_Source\PSoC5/CapSense_CSHL.c **** *  CapSense_rawFilterData2[]    - used to store before previous sample
 174:.\Generated_Source\PSoC5/CapSense_CSHL.c **** *  of enabled raw data filter. Only required for median or average filters.
 175:.\Generated_Source\PSoC5/CapSense_CSHL.c **** *
 176:.\Generated_Source\PSoC5/CapSense_CSHL.c **** * Reentrant:
 177:.\Generated_Source\PSoC5/CapSense_CSHL.c **** *  No
 178:.\Generated_Source\PSoC5/CapSense_CSHL.c **** *
 179:.\Generated_Source\PSoC5/CapSense_CSHL.c **** *******************************************************************************/
 180:.\Generated_Source\PSoC5/CapSense_CSHL.c **** void CapSense_BaseInit(uint8 sensor)
 181:.\Generated_Source\PSoC5/CapSense_CSHL.c **** {
 122              		.loc 1 181 0
 123              		.cfi_startproc
 124              		@ args = 0, pretend = 0, frame = 16
 125              		@ frame_needed = 1, uses_anonymous_args = 0
 126              		@ link register save eliminated.
 127 0000 80B4     		push	{r7}
 128              	.LCFI0:
 129              		.cfi_def_cfa_offset 4
 130 0002 85B0     		sub	sp, sp, #20
 131              	.LCFI1:
 132              		.cfi_def_cfa_offset 24
 133 0004 00AF     		add	r7, sp, #0
 134              		.cfi_offset 7, -4
 135              	.LCFI2:
 136              		.cfi_def_cfa_register 7
 137 0006 0346     		mov	r3, r0
 138 0008 FB71     		strb	r3, [r7, #7]
 182:.\Generated_Source\PSoC5/CapSense_CSHL.c ****     #if ((CapSense_TOTAL_BUTTONS_COUNT) || (CapSense_TOTAL_MATRIX_BUTTONS_COUNT) || \
 183:.\Generated_Source\PSoC5/CapSense_CSHL.c ****          (CapSense_TOTAL_GENERICS_COUNT))
 184:.\Generated_Source\PSoC5/CapSense_CSHL.c ****         uint8 widget = CapSense_widgetNumber[sensor];
 139              		.loc 1 184 0
 140 000a FA79     		ldrb	r2, [r7, #7]	@ zero_extendqisi2
 141 000c 40F20003 		movw	r3, #:lower16:CapSense_widgetNumber
 142 0010 C0F20003 		movt	r3, #:upper16:CapSense_widgetNumber
 143 0014 9B5C     		ldrb	r3, [r3, r2]
 144 0016 FB73     		strb	r3, [r7, #15]
 185:.\Generated_Source\PSoC5/CapSense_CSHL.c ****     #endif /* ((CapSense_TOTAL_MATRIX_BUTTONS_COUNT) || (CapSense_TOTAL_MATRIX_BUTTONS_COUNT)) */
 186:.\Generated_Source\PSoC5/CapSense_CSHL.c ****     
 187:.\Generated_Source\PSoC5/CapSense_CSHL.c ****     #if (CapSense_TOTAL_MATRIX_BUTTONS_COUNT)
 188:.\Generated_Source\PSoC5/CapSense_CSHL.c ****         uint8 debounceIndex;
 189:.\Generated_Source\PSoC5/CapSense_CSHL.c ****     #endif  /* End (CapSense_TOTAL_MATRIX_BUTTONS_COUNT != 0u) */
 190:.\Generated_Source\PSoC5/CapSense_CSHL.c ****     
 191:.\Generated_Source\PSoC5/CapSense_CSHL.c ****     #if (CapSense_TOTAL_GENERICS_COUNT)
 192:.\Generated_Source\PSoC5/CapSense_CSHL.c ****         /* Exclude generic widget */
ARM GAS  C:\Users\Geo\AppData\Local\Temp\cc0UCTwq.s 			page 7


 193:.\Generated_Source\PSoC5/CapSense_CSHL.c ****         if(widget < CapSense_END_OF_WIDGETS_INDEX)
 194:.\Generated_Source\PSoC5/CapSense_CSHL.c ****         {
 195:.\Generated_Source\PSoC5/CapSense_CSHL.c ****     #endif  /* End CapSense_TOTAL_GENERICS_COUNT */
 196:.\Generated_Source\PSoC5/CapSense_CSHL.c ****     
 197:.\Generated_Source\PSoC5/CapSense_CSHL.c ****     /* Initialize Baseline */
 198:.\Generated_Source\PSoC5/CapSense_CSHL.c ****     CapSense_SensorBaseline[sensor] = CapSense_SensorRaw[sensor];
 145              		.loc 1 198 0
 146 0018 FA79     		ldrb	r2, [r7, #7]	@ zero_extendqisi2
 147 001a F979     		ldrb	r1, [r7, #7]	@ zero_extendqisi2
 148 001c 40F20003 		movw	r3, #:lower16:CapSense_SensorRaw
 149 0020 C0F20003 		movt	r3, #:upper16:CapSense_SensorRaw
 150 0024 33F81110 		ldrh	r1, [r3, r1, lsl #1]
 151 0028 40F20003 		movw	r3, #:lower16:CapSense_SensorBaseline
 152 002c C0F20003 		movt	r3, #:upper16:CapSense_SensorBaseline
 153 0030 23F81210 		strh	r1, [r3, r2, lsl #1]	@ movhi
 199:.\Generated_Source\PSoC5/CapSense_CSHL.c ****     CapSense_SensorBaselineLow[sensor] = 0u;
 154              		.loc 1 199 0
 155 0034 FA79     		ldrb	r2, [r7, #7]	@ zero_extendqisi2
 156 0036 40F20003 		movw	r3, #:lower16:CapSense_SensorBaselineLow
 157 003a C0F20003 		movt	r3, #:upper16:CapSense_SensorBaselineLow
 158 003e 4FF00001 		mov	r1, #0
 159 0042 9954     		strb	r1, [r3, r2]
 200:.\Generated_Source\PSoC5/CapSense_CSHL.c ****     CapSense_SensorSignal[sensor] = 0u;
 160              		.loc 1 200 0
 161 0044 FA79     		ldrb	r2, [r7, #7]	@ zero_extendqisi2
 162 0046 40F20003 		movw	r3, #:lower16:CapSense_SensorSignal
 163 004a C0F20003 		movt	r3, #:upper16:CapSense_SensorSignal
 164 004e 4FF00001 		mov	r1, #0
 165 0052 9954     		strb	r1, [r3, r2]
 201:.\Generated_Source\PSoC5/CapSense_CSHL.c ****         
 202:.\Generated_Source\PSoC5/CapSense_CSHL.c ****     CapSense_debounceCounter[widget] =  CapSense_debounce[widget];
 166              		.loc 1 202 0
 167 0054 FA7B     		ldrb	r2, [r7, #15]	@ zero_extendqisi2
 168 0056 F97B     		ldrb	r1, [r7, #15]	@ zero_extendqisi2
 169 0058 40F20003 		movw	r3, #:lower16:CapSense_debounce
 170 005c C0F20003 		movt	r3, #:upper16:CapSense_debounce
 171 0060 595C     		ldrb	r1, [r3, r1]	@ zero_extendqisi2
 172 0062 40F20003 		movw	r3, #:lower16:CapSense_debounceCounter
 173 0066 C0F20003 		movt	r3, #:upper16:CapSense_debounceCounter
 174 006a 9954     		strb	r1, [r3, r2]
 203:.\Generated_Source\PSoC5/CapSense_CSHL.c **** 
 204:.\Generated_Source\PSoC5/CapSense_CSHL.c ****     
 205:.\Generated_Source\PSoC5/CapSense_CSHL.c ****     #if ((CapSense_RAW_FILTER_MASK & CapSense_MEDIAN_FILTER) ||\
 206:.\Generated_Source\PSoC5/CapSense_CSHL.c ****          (CapSense_RAW_FILTER_MASK & CapSense_AVERAGING_FILTER))
 207:.\Generated_Source\PSoC5/CapSense_CSHL.c **** 
 208:.\Generated_Source\PSoC5/CapSense_CSHL.c ****         CapSense_rawFilterData1[sensor] = CapSense_SensorRaw[sensor];
 209:.\Generated_Source\PSoC5/CapSense_CSHL.c ****         CapSense_rawFilterData2[sensor] = CapSense_SensorRaw[sensor];
 210:.\Generated_Source\PSoC5/CapSense_CSHL.c ****     
 211:.\Generated_Source\PSoC5/CapSense_CSHL.c ****     #elif ((CapSense_RAW_FILTER_MASK & CapSense_IIR2_FILTER) ||\
 212:.\Generated_Source\PSoC5/CapSense_CSHL.c ****            (CapSense_RAW_FILTER_MASK & CapSense_IIR4_FILTER) ||\
 213:.\Generated_Source\PSoC5/CapSense_CSHL.c ****            (CapSense_RAW_FILTER_MASK & CapSense_JITTER_FILTER) ||\
 214:.\Generated_Source\PSoC5/CapSense_CSHL.c ****            (CapSense_RAW_FILTER_MASK & CapSense_IIR8_FILTER) ||\
 215:.\Generated_Source\PSoC5/CapSense_CSHL.c ****            (CapSense_RAW_FILTER_MASK & CapSense_IIR16_FILTER))
 216:.\Generated_Source\PSoC5/CapSense_CSHL.c ****             
 217:.\Generated_Source\PSoC5/CapSense_CSHL.c ****         CapSense_rawFilterData1[sensor] = CapSense_SensorRaw[sensor];
 175              		.loc 1 217 0
 176 006c FA79     		ldrb	r2, [r7, #7]	@ zero_extendqisi2
ARM GAS  C:\Users\Geo\AppData\Local\Temp\cc0UCTwq.s 			page 8


 177 006e F979     		ldrb	r1, [r7, #7]	@ zero_extendqisi2
 178 0070 40F20003 		movw	r3, #:lower16:CapSense_SensorRaw
 179 0074 C0F20003 		movt	r3, #:upper16:CapSense_SensorRaw
 180 0078 33F81110 		ldrh	r1, [r3, r1, lsl #1]
 181 007c 40F20003 		movw	r3, #:lower16:CapSense_rawFilterData1
 182 0080 C0F20003 		movt	r3, #:upper16:CapSense_rawFilterData1
 183 0084 23F81210 		strh	r1, [r3, r2, lsl #1]	@ movhi
 218:.\Generated_Source\PSoC5/CapSense_CSHL.c ****     
 219:.\Generated_Source\PSoC5/CapSense_CSHL.c ****     #else
 220:.\Generated_Source\PSoC5/CapSense_CSHL.c ****         /* No Raw filters */
 221:.\Generated_Source\PSoC5/CapSense_CSHL.c ****     #endif  /* End CapSense_RAW_FILTER_MASK */
 222:.\Generated_Source\PSoC5/CapSense_CSHL.c ****     
 223:.\Generated_Source\PSoC5/CapSense_CSHL.c ****     #if (CapSense_TOTAL_GENERICS_COUNT)
 224:.\Generated_Source\PSoC5/CapSense_CSHL.c ****         /* Exclude generic widget */
 225:.\Generated_Source\PSoC5/CapSense_CSHL.c ****         }
 226:.\Generated_Source\PSoC5/CapSense_CSHL.c ****     #endif  /* End CapSense_TOTAL_GENERICS_COUNT */
 227:.\Generated_Source\PSoC5/CapSense_CSHL.c **** }
 184              		.loc 1 227 0
 185 0088 07F11407 		add	r7, r7, #20
 186 008c BD46     		mov	sp, r7
 187 008e 80BC     		pop	{r7}
 188 0090 7047     		bx	lr
 189              		.cfi_endproc
 190              	.LFE0:
 191              		.size	CapSense_BaseInit, .-CapSense_BaseInit
 192 0092 00BF     		.section	.text.CapSense_InitializeSensorBaseline,"ax",%progbits
 193              		.align	2
 194              		.global	CapSense_InitializeSensorBaseline
 195              		.thumb
 196              		.thumb_func
 197              		.type	CapSense_InitializeSensorBaseline, %function
 198              	CapSense_InitializeSensorBaseline:
 199              	.LFB1:
 228:.\Generated_Source\PSoC5/CapSense_CSHL.c **** 
 229:.\Generated_Source\PSoC5/CapSense_CSHL.c **** 
 230:.\Generated_Source\PSoC5/CapSense_CSHL.c **** /*******************************************************************************
 231:.\Generated_Source\PSoC5/CapSense_CSHL.c **** * Function Name: CapSense_InitializeSensorBaseline
 232:.\Generated_Source\PSoC5/CapSense_CSHL.c **** ********************************************************************************
 233:.\Generated_Source\PSoC5/CapSense_CSHL.c **** *
 234:.\Generated_Source\PSoC5/CapSense_CSHL.c **** * Summary:
 235:.\Generated_Source\PSoC5/CapSense_CSHL.c **** *  Loads the CapSense_SensorBaseline[sensor] array element with an 
 236:.\Generated_Source\PSoC5/CapSense_CSHL.c **** *  initial value by scanning the selected sensor (one channel design) or pair 
 237:.\Generated_Source\PSoC5/CapSense_CSHL.c **** *  of sensors (two channels designs). The raw count value is copied into the 
 238:.\Generated_Source\PSoC5/CapSense_CSHL.c **** *  baseline array for each sensor. The raw data filters are initialized if 
 239:.\Generated_Source\PSoC5/CapSense_CSHL.c **** *  enabled.
 240:.\Generated_Source\PSoC5/CapSense_CSHL.c **** *
 241:.\Generated_Source\PSoC5/CapSense_CSHL.c **** * Parameters:
 242:.\Generated_Source\PSoC5/CapSense_CSHL.c **** *  sensor:  Sensor number.
 243:.\Generated_Source\PSoC5/CapSense_CSHL.c **** *
 244:.\Generated_Source\PSoC5/CapSense_CSHL.c **** * Return:
 245:.\Generated_Source\PSoC5/CapSense_CSHL.c **** *  None
 246:.\Generated_Source\PSoC5/CapSense_CSHL.c **** *
 247:.\Generated_Source\PSoC5/CapSense_CSHL.c **** * Reentrant:
 248:.\Generated_Source\PSoC5/CapSense_CSHL.c **** *  No
 249:.\Generated_Source\PSoC5/CapSense_CSHL.c **** *
 250:.\Generated_Source\PSoC5/CapSense_CSHL.c **** *******************************************************************************/
 251:.\Generated_Source\PSoC5/CapSense_CSHL.c **** void CapSense_InitializeSensorBaseline(uint8 sensor)
ARM GAS  C:\Users\Geo\AppData\Local\Temp\cc0UCTwq.s 			page 9


 252:.\Generated_Source\PSoC5/CapSense_CSHL.c **** {
 200              		.loc 1 252 0
 201              		.cfi_startproc
 202              		@ args = 0, pretend = 0, frame = 8
 203              		@ frame_needed = 1, uses_anonymous_args = 0
 204 0000 80B5     		push	{r7, lr}
 205              	.LCFI3:
 206              		.cfi_def_cfa_offset 8
 207 0002 82B0     		sub	sp, sp, #8
 208              	.LCFI4:
 209              		.cfi_def_cfa_offset 16
 210 0004 00AF     		add	r7, sp, #0
 211              		.cfi_offset 14, -4
 212              		.cfi_offset 7, -8
 213              	.LCFI5:
 214              		.cfi_def_cfa_register 7
 215 0006 0346     		mov	r3, r0
 216 0008 FB71     		strb	r3, [r7, #7]
 253:.\Generated_Source\PSoC5/CapSense_CSHL.c ****     /* Scan sensor */
 254:.\Generated_Source\PSoC5/CapSense_CSHL.c ****     CapSense_ScanSensor(sensor);
 217              		.loc 1 254 0
 218 000a FB79     		ldrb	r3, [r7, #7]	@ zero_extendqisi2
 219 000c 1846     		mov	r0, r3
 220 000e FFF7FEFF 		bl	CapSense_ScanSensor
 221              	.L4:
 255:.\Generated_Source\PSoC5/CapSense_CSHL.c ****     while(CapSense_IsBusy() != 0u) {;}
 222              		.loc 1 255 0
 223 0012 FFF7FEFF 		bl	CapSense_IsBusy
 224 0016 0346     		mov	r3, r0
 225 0018 002B     		cmp	r3, #0
 226 001a FAD1     		bne	.L4
 256:.\Generated_Source\PSoC5/CapSense_CSHL.c ****     
 257:.\Generated_Source\PSoC5/CapSense_CSHL.c ****     #if (CapSense_DESIGN_TYPE == CapSense_ONE_CHANNEL_DESIGN)
 258:.\Generated_Source\PSoC5/CapSense_CSHL.c ****         /* Initialize Baseline, Signal and debounce counters */       
 259:.\Generated_Source\PSoC5/CapSense_CSHL.c ****         CapSense_BaseInit(sensor);
 227              		.loc 1 259 0
 228 001c FB79     		ldrb	r3, [r7, #7]	@ zero_extendqisi2
 229 001e 1846     		mov	r0, r3
 230 0020 FFF7FEFF 		bl	CapSense_BaseInit
 260:.\Generated_Source\PSoC5/CapSense_CSHL.c ****         
 261:.\Generated_Source\PSoC5/CapSense_CSHL.c ****     #else
 262:.\Generated_Source\PSoC5/CapSense_CSHL.c ****     
 263:.\Generated_Source\PSoC5/CapSense_CSHL.c ****         if(sensor < CapSense_TOTAL_SENSOR_COUNT__CH0)
 264:.\Generated_Source\PSoC5/CapSense_CSHL.c ****         {
 265:.\Generated_Source\PSoC5/CapSense_CSHL.c ****             /* Initialize Baseline, Signal and debounce counters */ 
 266:.\Generated_Source\PSoC5/CapSense_CSHL.c ****             CapSense_BaseInit(sensor);
 267:.\Generated_Source\PSoC5/CapSense_CSHL.c ****         }
 268:.\Generated_Source\PSoC5/CapSense_CSHL.c ****         
 269:.\Generated_Source\PSoC5/CapSense_CSHL.c ****         if(sensor < CapSense_TOTAL_SENSOR_COUNT__CH1)
 270:.\Generated_Source\PSoC5/CapSense_CSHL.c ****         {
 271:.\Generated_Source\PSoC5/CapSense_CSHL.c ****             /* Initialize Baseline, Signal and debounce counters */
 272:.\Generated_Source\PSoC5/CapSense_CSHL.c ****             CapSense_BaseInit(sensor + CapSense_TOTAL_SENSOR_COUNT__CH0);
 273:.\Generated_Source\PSoC5/CapSense_CSHL.c ****         }
 274:.\Generated_Source\PSoC5/CapSense_CSHL.c ****     
 275:.\Generated_Source\PSoC5/CapSense_CSHL.c ****     #endif  /* End (CapSense_DESIGN_TYPE == CapSense_ONE_CHANNEL_DESIGN) */
 276:.\Generated_Source\PSoC5/CapSense_CSHL.c **** }
 231              		.loc 1 276 0
ARM GAS  C:\Users\Geo\AppData\Local\Temp\cc0UCTwq.s 			page 10


 232 0024 07F10807 		add	r7, r7, #8
 233 0028 BD46     		mov	sp, r7
 234 002a 80BD     		pop	{r7, pc}
 235              		.cfi_endproc
 236              	.LFE1:
 237              		.size	CapSense_InitializeSensorBaseline, .-CapSense_InitializeSensorBaseline
 238              		.section	.text.CapSense_InitializeAllBaselines,"ax",%progbits
 239              		.align	2
 240              		.global	CapSense_InitializeAllBaselines
 241              		.thumb
 242              		.thumb_func
 243              		.type	CapSense_InitializeAllBaselines, %function
 244              	CapSense_InitializeAllBaselines:
 245              	.LFB2:
 277:.\Generated_Source\PSoC5/CapSense_CSHL.c **** 
 278:.\Generated_Source\PSoC5/CapSense_CSHL.c **** 
 279:.\Generated_Source\PSoC5/CapSense_CSHL.c **** /*******************************************************************************
 280:.\Generated_Source\PSoC5/CapSense_CSHL.c **** * Function Name: CapSense_InitializeAllBaselines
 281:.\Generated_Source\PSoC5/CapSense_CSHL.c **** ********************************************************************************
 282:.\Generated_Source\PSoC5/CapSense_CSHL.c **** *
 283:.\Generated_Source\PSoC5/CapSense_CSHL.c **** * Summary:
 284:.\Generated_Source\PSoC5/CapSense_CSHL.c **** *  Uses the CapSense_InitializeSensorBaseline function to loads the 
 285:.\Generated_Source\PSoC5/CapSense_CSHL.c **** *  CapSense_SensorBaseline[] array with an initial values by scanning 
 286:.\Generated_Source\PSoC5/CapSense_CSHL.c **** *  all sensors. The raw count values are copied into the baseline array for 
 287:.\Generated_Source\PSoC5/CapSense_CSHL.c **** *  all sensors. The raw data filters are initialized if enabled.
 288:.\Generated_Source\PSoC5/CapSense_CSHL.c **** *
 289:.\Generated_Source\PSoC5/CapSense_CSHL.c **** * Parameters:
 290:.\Generated_Source\PSoC5/CapSense_CSHL.c **** *  None
 291:.\Generated_Source\PSoC5/CapSense_CSHL.c **** *
 292:.\Generated_Source\PSoC5/CapSense_CSHL.c **** * Return:
 293:.\Generated_Source\PSoC5/CapSense_CSHL.c **** *  None
 294:.\Generated_Source\PSoC5/CapSense_CSHL.c **** *
 295:.\Generated_Source\PSoC5/CapSense_CSHL.c **** * Reentrant:
 296:.\Generated_Source\PSoC5/CapSense_CSHL.c **** *  No
 297:.\Generated_Source\PSoC5/CapSense_CSHL.c **** *
 298:.\Generated_Source\PSoC5/CapSense_CSHL.c **** *******************************************************************************/
 299:.\Generated_Source\PSoC5/CapSense_CSHL.c **** void CapSense_InitializeAllBaselines(void)
 300:.\Generated_Source\PSoC5/CapSense_CSHL.c **** {
 246              		.loc 1 300 0
 247              		.cfi_startproc
 248              		@ args = 0, pretend = 0, frame = 8
 249              		@ frame_needed = 1, uses_anonymous_args = 0
 250 0000 80B5     		push	{r7, lr}
 251              	.LCFI6:
 252              		.cfi_def_cfa_offset 8
 253 0002 82B0     		sub	sp, sp, #8
 254              	.LCFI7:
 255              		.cfi_def_cfa_offset 16
 256 0004 00AF     		add	r7, sp, #0
 257              		.cfi_offset 14, -4
 258              		.cfi_offset 7, -8
 259              	.LCFI8:
 260              		.cfi_def_cfa_register 7
 301:.\Generated_Source\PSoC5/CapSense_CSHL.c ****     uint8 i;
 302:.\Generated_Source\PSoC5/CapSense_CSHL.c ****     
 303:.\Generated_Source\PSoC5/CapSense_CSHL.c ****     /* The baseline initialize by sensor of sensor pair */
 304:.\Generated_Source\PSoC5/CapSense_CSHL.c ****     for(i = 0u; i < CapSense_TOTAL_SCANSLOT_COUNT; i++)
ARM GAS  C:\Users\Geo\AppData\Local\Temp\cc0UCTwq.s 			page 11


 261              		.loc 1 304 0
 262 0006 4FF00003 		mov	r3, #0
 263 000a FB71     		strb	r3, [r7, #7]
 264 000c 07E0     		b	.L7
 265              	.L8:
 305:.\Generated_Source\PSoC5/CapSense_CSHL.c ****     {
 306:.\Generated_Source\PSoC5/CapSense_CSHL.c ****         CapSense_InitializeSensorBaseline(i);
 266              		.loc 1 306 0
 267 000e FB79     		ldrb	r3, [r7, #7]	@ zero_extendqisi2
 268 0010 1846     		mov	r0, r3
 269 0012 FFF7FEFF 		bl	CapSense_InitializeSensorBaseline
 270              		.loc 1 304 0
 271 0016 FB79     		ldrb	r3, [r7, #7]
 272 0018 03F10103 		add	r3, r3, #1
 273 001c FB71     		strb	r3, [r7, #7]
 274              	.L7:
 275 001e FB79     		ldrb	r3, [r7, #7]	@ zero_extendqisi2
 276 0020 032B     		cmp	r3, #3
 277 0022 F4D9     		bls	.L8
 307:.\Generated_Source\PSoC5/CapSense_CSHL.c ****     }
 308:.\Generated_Source\PSoC5/CapSense_CSHL.c **** }
 278              		.loc 1 308 0
 279 0024 07F10807 		add	r7, r7, #8
 280 0028 BD46     		mov	sp, r7
 281 002a 80BD     		pop	{r7, pc}
 282              		.cfi_endproc
 283              	.LFE2:
 284              		.size	CapSense_InitializeAllBaselines, .-CapSense_InitializeAllBaselines
 285              		.section	.text.CapSense_InitializeEnabledBaselines,"ax",%progbits
 286              		.align	2
 287              		.global	CapSense_InitializeEnabledBaselines
 288              		.thumb
 289              		.thumb_func
 290              		.type	CapSense_InitializeEnabledBaselines, %function
 291              	CapSense_InitializeEnabledBaselines:
 292              	.LFB3:
 309:.\Generated_Source\PSoC5/CapSense_CSHL.c **** 
 310:.\Generated_Source\PSoC5/CapSense_CSHL.c **** 
 311:.\Generated_Source\PSoC5/CapSense_CSHL.c **** /*******************************************************************************
 312:.\Generated_Source\PSoC5/CapSense_CSHL.c **** * Function Name: CapSense_InitializeEnabledBaselines
 313:.\Generated_Source\PSoC5/CapSense_CSHL.c **** ********************************************************************************
 314:.\Generated_Source\PSoC5/CapSense_CSHL.c **** *
 315:.\Generated_Source\PSoC5/CapSense_CSHL.c **** * Summary:
 316:.\Generated_Source\PSoC5/CapSense_CSHL.c **** *  Scans all enabled widgets and the raw count values are copied into the 
 317:.\Generated_Source\PSoC5/CapSense_CSHL.c **** *  baseline array for all sensors enabled in scanning process. Baselines 
 318:.\Generated_Source\PSoC5/CapSense_CSHL.c **** *  initialize with zero values for sensors disabled from scanning process. 
 319:.\Generated_Source\PSoC5/CapSense_CSHL.c **** *  The raw data filters are initialized if enabled.
 320:.\Generated_Source\PSoC5/CapSense_CSHL.c **** *
 321:.\Generated_Source\PSoC5/CapSense_CSHL.c **** * Parameters:
 322:.\Generated_Source\PSoC5/CapSense_CSHL.c **** *  None
 323:.\Generated_Source\PSoC5/CapSense_CSHL.c **** *
 324:.\Generated_Source\PSoC5/CapSense_CSHL.c **** * Return:
 325:.\Generated_Source\PSoC5/CapSense_CSHL.c **** *  None
 326:.\Generated_Source\PSoC5/CapSense_CSHL.c **** *
 327:.\Generated_Source\PSoC5/CapSense_CSHL.c **** * Reentrant:
 328:.\Generated_Source\PSoC5/CapSense_CSHL.c **** *  No
 329:.\Generated_Source\PSoC5/CapSense_CSHL.c **** *
ARM GAS  C:\Users\Geo\AppData\Local\Temp\cc0UCTwq.s 			page 12


 330:.\Generated_Source\PSoC5/CapSense_CSHL.c **** *******************************************************************************/
 331:.\Generated_Source\PSoC5/CapSense_CSHL.c **** void CapSense_InitializeEnabledBaselines(void)
 332:.\Generated_Source\PSoC5/CapSense_CSHL.c **** {
 293              		.loc 1 332 0
 294              		.cfi_startproc
 295              		@ args = 0, pretend = 0, frame = 8
 296              		@ frame_needed = 1, uses_anonymous_args = 0
 297 0000 80B5     		push	{r7, lr}
 298              	.LCFI9:
 299              		.cfi_def_cfa_offset 8
 300 0002 82B0     		sub	sp, sp, #8
 301              	.LCFI10:
 302              		.cfi_def_cfa_offset 16
 303 0004 00AF     		add	r7, sp, #0
 304              		.cfi_offset 14, -4
 305              		.cfi_offset 7, -8
 306              	.LCFI11:
 307              		.cfi_def_cfa_register 7
 333:.\Generated_Source\PSoC5/CapSense_CSHL.c ****     uint8 i;
 334:.\Generated_Source\PSoC5/CapSense_CSHL.c ****     uint8 pos;
 335:.\Generated_Source\PSoC5/CapSense_CSHL.c ****     uint8 enMask;
 336:.\Generated_Source\PSoC5/CapSense_CSHL.c ****     
 337:.\Generated_Source\PSoC5/CapSense_CSHL.c ****     CapSense_ScanEnabledWidgets();
 308              		.loc 1 337 0
 309 0006 FFF7FEFF 		bl	CapSense_ScanEnabledWidgets
 310              	.L11:
 338:.\Generated_Source\PSoC5/CapSense_CSHL.c ****     while(CapSense_IsBusy() != 0u){;}
 311              		.loc 1 338 0
 312 000a FFF7FEFF 		bl	CapSense_IsBusy
 313 000e 0346     		mov	r3, r0
 314 0010 002B     		cmp	r3, #0
 315 0012 FAD1     		bne	.L11
 339:.\Generated_Source\PSoC5/CapSense_CSHL.c ****     
 340:.\Generated_Source\PSoC5/CapSense_CSHL.c ****     for(i = 0u; i < CapSense_TOTAL_SENSOR_COUNT; i++)
 316              		.loc 1 340 0
 317 0014 4FF00003 		mov	r3, #0
 318 0018 7B71     		strb	r3, [r7, #5]
 319 001a 28E0     		b	.L12
 320              	.L14:
 341:.\Generated_Source\PSoC5/CapSense_CSHL.c ****     {
 342:.\Generated_Source\PSoC5/CapSense_CSHL.c ****         pos = (i >> 3u);
 321              		.loc 1 342 0
 322 001c 7B79     		ldrb	r3, [r7, #5]	@ zero_extendqisi2
 323 001e 4FEAD303 		lsr	r3, r3, #3
 324 0022 BB71     		strb	r3, [r7, #6]
 343:.\Generated_Source\PSoC5/CapSense_CSHL.c ****         enMask = 0x01u << (i & 0x07u);
 325              		.loc 1 343 0
 326 0024 7B79     		ldrb	r3, [r7, #5]	@ zero_extendqisi2
 327 0026 03F00703 		and	r3, r3, #7
 328 002a 4FF00102 		mov	r2, #1
 329 002e 02FA03F3 		lsl	r3, r2, r3
 330 0032 FB71     		strb	r3, [r7, #7]
 344:.\Generated_Source\PSoC5/CapSense_CSHL.c ****         
 345:.\Generated_Source\PSoC5/CapSense_CSHL.c ****         /* Clear raw data if sensor is disabled from scanning process */
 346:.\Generated_Source\PSoC5/CapSense_CSHL.c ****         if((CapSense_SensorEnableMask[pos] & enMask) == 0u)
 331              		.loc 1 346 0
 332 0034 BA79     		ldrb	r2, [r7, #6]	@ zero_extendqisi2
ARM GAS  C:\Users\Geo\AppData\Local\Temp\cc0UCTwq.s 			page 13


 333 0036 40F20003 		movw	r3, #:lower16:CapSense_SensorEnableMask
 334 003a C0F20003 		movt	r3, #:upper16:CapSense_SensorEnableMask
 335 003e 9A5C     		ldrb	r2, [r3, r2]	@ zero_extendqisi2
 336 0040 FB79     		ldrb	r3, [r7, #7]
 337 0042 02EA0303 		and	r3, r2, r3
 338 0046 DBB2     		uxtb	r3, r3
 339 0048 002B     		cmp	r3, #0
 340 004a 08D1     		bne	.L13
 347:.\Generated_Source\PSoC5/CapSense_CSHL.c ****         {
 348:.\Generated_Source\PSoC5/CapSense_CSHL.c ****             CapSense_SensorRaw[i] = 0u;
 341              		.loc 1 348 0
 342 004c 7A79     		ldrb	r2, [r7, #5]	@ zero_extendqisi2
 343 004e 40F20003 		movw	r3, #:lower16:CapSense_SensorRaw
 344 0052 C0F20003 		movt	r3, #:upper16:CapSense_SensorRaw
 345 0056 4FF00001 		mov	r1, #0
 346 005a 23F81210 		strh	r1, [r3, r2, lsl #1]	@ movhi
 347              	.L13:
 349:.\Generated_Source\PSoC5/CapSense_CSHL.c ****         }
 350:.\Generated_Source\PSoC5/CapSense_CSHL.c ****         
 351:.\Generated_Source\PSoC5/CapSense_CSHL.c ****         /* Initialize baselines */
 352:.\Generated_Source\PSoC5/CapSense_CSHL.c ****         CapSense_BaseInit(i);
 348              		.loc 1 352 0
 349 005e 7B79     		ldrb	r3, [r7, #5]	@ zero_extendqisi2
 350 0060 1846     		mov	r0, r3
 351 0062 FFF7FEFF 		bl	CapSense_BaseInit
 352              		.loc 1 340 0
 353 0066 7B79     		ldrb	r3, [r7, #5]
 354 0068 03F10103 		add	r3, r3, #1
 355 006c 7B71     		strb	r3, [r7, #5]
 356              	.L12:
 357 006e 7B79     		ldrb	r3, [r7, #5]	@ zero_extendqisi2
 358 0070 032B     		cmp	r3, #3
 359 0072 D3D9     		bls	.L14
 353:.\Generated_Source\PSoC5/CapSense_CSHL.c ****     }
 354:.\Generated_Source\PSoC5/CapSense_CSHL.c **** }  
 360              		.loc 1 354 0
 361 0074 07F10807 		add	r7, r7, #8
 362 0078 BD46     		mov	sp, r7
 363 007a 80BD     		pop	{r7, pc}
 364              		.cfi_endproc
 365              	.LFE3:
 366              		.size	CapSense_InitializeEnabledBaselines, .-CapSense_InitializeEnabledBaselines
 367              		.section	.text.CapSense_UpdateSensorBaseline,"ax",%progbits
 368              		.align	2
 369              		.global	CapSense_UpdateSensorBaseline
 370              		.thumb
 371              		.thumb_func
 372              		.type	CapSense_UpdateSensorBaseline, %function
 373              	CapSense_UpdateSensorBaseline:
 374              	.LFB4:
 355:.\Generated_Source\PSoC5/CapSense_CSHL.c **** 
 356:.\Generated_Source\PSoC5/CapSense_CSHL.c **** 
 357:.\Generated_Source\PSoC5/CapSense_CSHL.c **** /*******************************************************************************
 358:.\Generated_Source\PSoC5/CapSense_CSHL.c **** * Function Name: CapSense_UpdateSensorBaseline
 359:.\Generated_Source\PSoC5/CapSense_CSHL.c **** ********************************************************************************
 360:.\Generated_Source\PSoC5/CapSense_CSHL.c **** *
 361:.\Generated_Source\PSoC5/CapSense_CSHL.c **** * Summary:
ARM GAS  C:\Users\Geo\AppData\Local\Temp\cc0UCTwq.s 			page 14


 362:.\Generated_Source\PSoC5/CapSense_CSHL.c **** *  Updates the CapSense_SensorBaseline[sensor] array element using the 
 363:.\Generated_Source\PSoC5/CapSense_CSHL.c **** *  LP filter with k = 256. The signal calculates the difference of count by 
 364:.\Generated_Source\PSoC5/CapSense_CSHL.c **** *  subtracting the previous baseline from the current raw count value and stores
 365:.\Generated_Source\PSoC5/CapSense_CSHL.c **** *  it in CapSense_SensorSignal[sensor]. 
 366:.\Generated_Source\PSoC5/CapSense_CSHL.c **** *  If auto reset option is enabled the baseline updated regards noise threshold. 
 367:.\Generated_Source\PSoC5/CapSense_CSHL.c **** *  If auto reset option is disabled the baseline stops updating if signal is 
 368:.\Generated_Source\PSoC5/CapSense_CSHL.c **** *  greater that zero and baseline loads with raw count value if signal is less 
 369:.\Generated_Source\PSoC5/CapSense_CSHL.c **** *  that noise threshold.
 370:.\Generated_Source\PSoC5/CapSense_CSHL.c **** *  Raw data filters are applied to the values if enabled before baseline 
 371:.\Generated_Source\PSoC5/CapSense_CSHL.c **** *  calculation.
 372:.\Generated_Source\PSoC5/CapSense_CSHL.c **** *
 373:.\Generated_Source\PSoC5/CapSense_CSHL.c **** * Parameters:
 374:.\Generated_Source\PSoC5/CapSense_CSHL.c **** *  sensor:  Sensor number.
 375:.\Generated_Source\PSoC5/CapSense_CSHL.c **** *
 376:.\Generated_Source\PSoC5/CapSense_CSHL.c **** * Return:
 377:.\Generated_Source\PSoC5/CapSense_CSHL.c **** *  None
 378:.\Generated_Source\PSoC5/CapSense_CSHL.c **** *
 379:.\Generated_Source\PSoC5/CapSense_CSHL.c **** * Global Variables:
 380:.\Generated_Source\PSoC5/CapSense_CSHL.c **** *  CapSense_SensorBaseline[]    - used to store baseline value.
 381:.\Generated_Source\PSoC5/CapSense_CSHL.c **** *  CapSense_SensorBaselineLow[] - used to store fraction byte of 
 382:.\Generated_Source\PSoC5/CapSense_CSHL.c **** *  baseline value.
 383:.\Generated_Source\PSoC5/CapSense_CSHL.c **** *  CapSense_SensorSignal[]      - used to store diffence between 
 384:.\Generated_Source\PSoC5/CapSense_CSHL.c **** *  current value of raw data and previous value of baseline.
 385:.\Generated_Source\PSoC5/CapSense_CSHL.c **** *  CapSense_rawFilterData1[]    - used to store previous sample of 
 386:.\Generated_Source\PSoC5/CapSense_CSHL.c **** *  any enabled raw data filter.
 387:.\Generated_Source\PSoC5/CapSense_CSHL.c **** *  CapSense_rawFilterData2[]    - used to store before previous sample
 388:.\Generated_Source\PSoC5/CapSense_CSHL.c **** *  of enabled raw data filter. Only required for median or average filters.
 389:.\Generated_Source\PSoC5/CapSense_CSHL.c **** *
 390:.\Generated_Source\PSoC5/CapSense_CSHL.c **** * Reentrant:
 391:.\Generated_Source\PSoC5/CapSense_CSHL.c **** *  No
 392:.\Generated_Source\PSoC5/CapSense_CSHL.c **** *
 393:.\Generated_Source\PSoC5/CapSense_CSHL.c **** *******************************************************************************/
 394:.\Generated_Source\PSoC5/CapSense_CSHL.c ****  void CapSense_UpdateSensorBaseline(uint8 sensor)
 395:.\Generated_Source\PSoC5/CapSense_CSHL.c **** {
 375              		.loc 1 395 0
 376              		.cfi_startproc
 377              		@ args = 0, pretend = 0, frame = 24
 378              		@ frame_needed = 1, uses_anonymous_args = 0
 379 0000 80B5     		push	{r7, lr}
 380              	.LCFI12:
 381              		.cfi_def_cfa_offset 8
 382 0002 86B0     		sub	sp, sp, #24
 383              	.LCFI13:
 384              		.cfi_def_cfa_offset 32
 385 0004 00AF     		add	r7, sp, #0
 386              		.cfi_offset 14, -4
 387              		.cfi_offset 7, -8
 388              	.LCFI14:
 389              		.cfi_def_cfa_register 7
 390 0006 0346     		mov	r3, r0
 391 0008 FB71     		strb	r3, [r7, #7]
 396:.\Generated_Source\PSoC5/CapSense_CSHL.c ****     uint32 calc;
 397:.\Generated_Source\PSoC5/CapSense_CSHL.c ****     uint16 tempRaw;
 398:.\Generated_Source\PSoC5/CapSense_CSHL.c ****     uint16 filteredRawData;
 399:.\Generated_Source\PSoC5/CapSense_CSHL.c ****     uint8 widget = CapSense_widgetNumber[sensor];
 392              		.loc 1 399 0
 393 000a FA79     		ldrb	r2, [r7, #7]	@ zero_extendqisi2
ARM GAS  C:\Users\Geo\AppData\Local\Temp\cc0UCTwq.s 			page 15


 394 000c 40F20003 		movw	r3, #:lower16:CapSense_widgetNumber
 395 0010 C0F20003 		movt	r3, #:upper16:CapSense_widgetNumber
 396 0014 9B5C     		ldrb	r3, [r3, r2]
 397 0016 BB75     		strb	r3, [r7, #22]
 400:.\Generated_Source\PSoC5/CapSense_CSHL.c ****     uint8 noiseThreshold = CapSense_noiseThreshold[widget];
 398              		.loc 1 400 0
 399 0018 BA7D     		ldrb	r2, [r7, #22]	@ zero_extendqisi2
 400 001a 40F20003 		movw	r3, #:lower16:CapSense_noiseThreshold
 401 001e C0F20003 		movt	r3, #:upper16:CapSense_noiseThreshold
 402 0022 9B5C     		ldrb	r3, [r3, r2]
 403 0024 FB75     		strb	r3, [r7, #23]
 401:.\Generated_Source\PSoC5/CapSense_CSHL.c ****     
 402:.\Generated_Source\PSoC5/CapSense_CSHL.c ****     #if (CapSense_TOTAL_GENERICS_COUNT)
 403:.\Generated_Source\PSoC5/CapSense_CSHL.c ****         /* Exclude generic widget */
 404:.\Generated_Source\PSoC5/CapSense_CSHL.c ****         if(widget < CapSense_END_OF_WIDGETS_INDEX)
 405:.\Generated_Source\PSoC5/CapSense_CSHL.c ****         {
 406:.\Generated_Source\PSoC5/CapSense_CSHL.c ****     #endif  /* End CapSense_TOTAL_GENERICS_COUNT */
 407:.\Generated_Source\PSoC5/CapSense_CSHL.c ****     
 408:.\Generated_Source\PSoC5/CapSense_CSHL.c ****     filteredRawData = CapSense_SensorRaw[sensor];
 404              		.loc 1 408 0
 405 0026 FA79     		ldrb	r2, [r7, #7]	@ zero_extendqisi2
 406 0028 40F20003 		movw	r3, #:lower16:CapSense_SensorRaw
 407 002c C0F20003 		movt	r3, #:upper16:CapSense_SensorRaw
 408 0030 33F81230 		ldrh	r3, [r3, r2, lsl #1]	@ movhi
 409 0034 BB82     		strh	r3, [r7, #20]	@ movhi
 409:.\Generated_Source\PSoC5/CapSense_CSHL.c ****     
 410:.\Generated_Source\PSoC5/CapSense_CSHL.c ****     #if (CapSense_RAW_FILTER_MASK & CapSense_MEDIAN_FILTER)
 411:.\Generated_Source\PSoC5/CapSense_CSHL.c ****         tempRaw = filteredRawData;
 412:.\Generated_Source\PSoC5/CapSense_CSHL.c ****         filteredRawData = CapSense_MedianFilter(filteredRawData, CapSense_rawFilterData1[sensor], 
 413:.\Generated_Source\PSoC5/CapSense_CSHL.c ****                                                         CapSense_rawFilterData2[sensor]);
 414:.\Generated_Source\PSoC5/CapSense_CSHL.c ****         CapSense_rawFilterData2[sensor] = CapSense_rawFilterData1[sensor];
 415:.\Generated_Source\PSoC5/CapSense_CSHL.c ****         CapSense_rawFilterData1[sensor] = tempRaw;
 416:.\Generated_Source\PSoC5/CapSense_CSHL.c ****         
 417:.\Generated_Source\PSoC5/CapSense_CSHL.c ****     #elif (CapSense_RAW_FILTER_MASK & CapSense_AVERAGING_FILTER)
 418:.\Generated_Source\PSoC5/CapSense_CSHL.c ****         tempRaw = filteredRawData;
 419:.\Generated_Source\PSoC5/CapSense_CSHL.c ****         filteredRawData = CapSense_AveragingFilter(filteredRawData, CapSense_rawFilterData1[sensor]
 420:.\Generated_Source\PSoC5/CapSense_CSHL.c ****                                                            CapSense_rawFilterData2[sensor]);
 421:.\Generated_Source\PSoC5/CapSense_CSHL.c ****         CapSense_rawFilterData2[sensor] = CapSense_rawFilterData1[sensor];
 422:.\Generated_Source\PSoC5/CapSense_CSHL.c ****         CapSense_rawFilterData1[sensor] = tempRaw;
 423:.\Generated_Source\PSoC5/CapSense_CSHL.c ****         
 424:.\Generated_Source\PSoC5/CapSense_CSHL.c ****     #elif (CapSense_RAW_FILTER_MASK & CapSense_IIR2_FILTER)
 425:.\Generated_Source\PSoC5/CapSense_CSHL.c ****         filteredRawData = CapSense_IIR2Filter(filteredRawData, CapSense_rawFilterData1[sensor]);
 426:.\Generated_Source\PSoC5/CapSense_CSHL.c ****         CapSense_rawFilterData1[sensor] = filteredRawData;
 427:.\Generated_Source\PSoC5/CapSense_CSHL.c ****         
 428:.\Generated_Source\PSoC5/CapSense_CSHL.c ****     #elif (CapSense_RAW_FILTER_MASK & CapSense_IIR4_FILTER)
 429:.\Generated_Source\PSoC5/CapSense_CSHL.c ****         filteredRawData = CapSense_IIR4Filter(filteredRawData, CapSense_rawFilterData1[sensor]);
 410              		.loc 1 429 0
 411 0036 FA79     		ldrb	r2, [r7, #7]	@ zero_extendqisi2
 412 0038 40F20003 		movw	r3, #:lower16:CapSense_rawFilterData1
 413 003c C0F20003 		movt	r3, #:upper16:CapSense_rawFilterData1
 414 0040 33F81230 		ldrh	r3, [r3, r2, lsl #1]
 415 0044 BA8A     		ldrh	r2, [r7, #20]
 416 0046 1046     		mov	r0, r2
 417 0048 1946     		mov	r1, r3
 418 004a FFF7FEFF 		bl	CapSense_IIR4Filter
 419 004e 0346     		mov	r3, r0
 420 0050 BB82     		strh	r3, [r7, #20]	@ movhi
ARM GAS  C:\Users\Geo\AppData\Local\Temp\cc0UCTwq.s 			page 16


 430:.\Generated_Source\PSoC5/CapSense_CSHL.c ****         CapSense_rawFilterData1[sensor] = filteredRawData;
 421              		.loc 1 430 0
 422 0052 FA79     		ldrb	r2, [r7, #7]	@ zero_extendqisi2
 423 0054 40F20003 		movw	r3, #:lower16:CapSense_rawFilterData1
 424 0058 C0F20003 		movt	r3, #:upper16:CapSense_rawFilterData1
 425 005c B98A     		ldrh	r1, [r7, #20]	@ movhi
 426 005e 23F81210 		strh	r1, [r3, r2, lsl #1]	@ movhi
 431:.\Generated_Source\PSoC5/CapSense_CSHL.c ****             
 432:.\Generated_Source\PSoC5/CapSense_CSHL.c ****     #elif (CapSense_RAW_FILTER_MASK & CapSense_JITTER_FILTER)
 433:.\Generated_Source\PSoC5/CapSense_CSHL.c ****         filteredRawData = CapSense_JitterFilter(filteredRawData, CapSense_rawFilterData1[sensor]);
 434:.\Generated_Source\PSoC5/CapSense_CSHL.c ****         CapSense_rawFilterData1[sensor] = filteredRawData;
 435:.\Generated_Source\PSoC5/CapSense_CSHL.c ****         
 436:.\Generated_Source\PSoC5/CapSense_CSHL.c ****     #elif (CapSense_RAW_FILTER_MASK & CapSense_IIR8_FILTER)
 437:.\Generated_Source\PSoC5/CapSense_CSHL.c ****         filteredRawData = CapSense_IIR8Filter(filteredRawData, CapSense_rawFilterData1[sensor]);
 438:.\Generated_Source\PSoC5/CapSense_CSHL.c ****         CapSense_rawFilterData1[sensor] = filteredRawData;
 439:.\Generated_Source\PSoC5/CapSense_CSHL.c ****         
 440:.\Generated_Source\PSoC5/CapSense_CSHL.c ****     #elif (CapSense_RAW_FILTER_MASK & CapSense_IIR16_FILTER)
 441:.\Generated_Source\PSoC5/CapSense_CSHL.c ****         filteredRawData = CapSense_IIR16Filter(filteredRawData, CapSense_rawFilterData1[sensor]);
 442:.\Generated_Source\PSoC5/CapSense_CSHL.c ****         CapSense_rawFilterData1[sensor] = filteredRawData;
 443:.\Generated_Source\PSoC5/CapSense_CSHL.c ****         
 444:.\Generated_Source\PSoC5/CapSense_CSHL.c ****     #else
 445:.\Generated_Source\PSoC5/CapSense_CSHL.c ****         /* No Raw filters */
 446:.\Generated_Source\PSoC5/CapSense_CSHL.c ****     #endif  /* End (CapSense_RAW_FILTER_MASK & CapSense_MEDIAN_FILTER) */
 447:.\Generated_Source\PSoC5/CapSense_CSHL.c ****     
 448:.\Generated_Source\PSoC5/CapSense_CSHL.c ****     #if (CapSense_TUNING_METHOD == CapSense_AUTO_TUNING)
 449:.\Generated_Source\PSoC5/CapSense_CSHL.c ****         CapSense_CalculateThresholds(sensor);
 450:.\Generated_Source\PSoC5/CapSense_CSHL.c ****     #endif /* End (CapSense_TUNING_METHOD == CapSense_AUTO_TUNING) */
 451:.\Generated_Source\PSoC5/CapSense_CSHL.c **** 
 452:.\Generated_Source\PSoC5/CapSense_CSHL.c **** 
 453:.\Generated_Source\PSoC5/CapSense_CSHL.c ****     /* Baseline calculation */
 454:.\Generated_Source\PSoC5/CapSense_CSHL.c ****     /* Calculate difference RawData[cur] - Baseline[prev] */
 455:.\Generated_Source\PSoC5/CapSense_CSHL.c ****     if(filteredRawData >= CapSense_SensorBaseline[sensor])
 427              		.loc 1 455 0
 428 0062 FA79     		ldrb	r2, [r7, #7]	@ zero_extendqisi2
 429 0064 40F20003 		movw	r3, #:lower16:CapSense_SensorBaseline
 430 0068 C0F20003 		movt	r3, #:upper16:CapSense_SensorBaseline
 431 006c 33F81230 		ldrh	r3, [r3, r2, lsl #1]
 432 0070 BA8A     		ldrh	r2, [r7, #20]
 433 0072 9A42     		cmp	r2, r3
 434 0074 0ED3     		bcc	.L17
 456:.\Generated_Source\PSoC5/CapSense_CSHL.c ****     {
 457:.\Generated_Source\PSoC5/CapSense_CSHL.c ****         tempRaw = filteredRawData - CapSense_SensorBaseline[sensor];
 435              		.loc 1 457 0
 436 0076 FA79     		ldrb	r2, [r7, #7]	@ zero_extendqisi2
 437 0078 40F20003 		movw	r3, #:lower16:CapSense_SensorBaseline
 438 007c C0F20003 		movt	r3, #:upper16:CapSense_SensorBaseline
 439 0080 33F81230 		ldrh	r3, [r3, r2, lsl #1]
 440 0084 BA8A     		ldrh	r2, [r7, #20]	@ movhi
 441 0086 C3EB0203 		rsb	r3, r3, r2
 442 008a 7B82     		strh	r3, [r7, #18]	@ movhi
 458:.\Generated_Source\PSoC5/CapSense_CSHL.c ****         widget = 1u;    /* Positive difference - Calculate the Signal */
 443              		.loc 1 458 0
 444 008c 4FF00103 		mov	r3, #1
 445 0090 BB75     		strb	r3, [r7, #22]
 446 0092 0DE0     		b	.L18
 447              	.L17:
 459:.\Generated_Source\PSoC5/CapSense_CSHL.c ****     }
ARM GAS  C:\Users\Geo\AppData\Local\Temp\cc0UCTwq.s 			page 17


 460:.\Generated_Source\PSoC5/CapSense_CSHL.c ****     else
 461:.\Generated_Source\PSoC5/CapSense_CSHL.c ****     {
 462:.\Generated_Source\PSoC5/CapSense_CSHL.c ****         tempRaw = CapSense_SensorBaseline[sensor] - filteredRawData;
 448              		.loc 1 462 0
 449 0094 FA79     		ldrb	r2, [r7, #7]	@ zero_extendqisi2
 450 0096 40F20003 		movw	r3, #:lower16:CapSense_SensorBaseline
 451 009a C0F20003 		movt	r3, #:upper16:CapSense_SensorBaseline
 452 009e 33F81220 		ldrh	r2, [r3, r2, lsl #1]
 453 00a2 BB8A     		ldrh	r3, [r7, #20]	@ movhi
 454 00a4 C3EB0203 		rsb	r3, r3, r2
 455 00a8 7B82     		strh	r3, [r7, #18]	@ movhi
 463:.\Generated_Source\PSoC5/CapSense_CSHL.c ****         widget = 0u;    /* Negative difference - Do NOT calculate the Signal */
 456              		.loc 1 463 0
 457 00aa 4FF00003 		mov	r3, #0
 458 00ae BB75     		strb	r3, [r7, #22]
 459              	.L18:
 464:.\Generated_Source\PSoC5/CapSense_CSHL.c ****     }
 465:.\Generated_Source\PSoC5/CapSense_CSHL.c **** 
 466:.\Generated_Source\PSoC5/CapSense_CSHL.c ****     if((widget == 0u) && (tempRaw > (uint16) CapSense_NEGATIVE_NOISE_THRESHOLD))
 460              		.loc 1 466 0
 461 00b0 BB7D     		ldrb	r3, [r7, #22]	@ zero_extendqisi2
 462 00b2 002B     		cmp	r3, #0
 463 00b4 26D1     		bne	.L19
 464 00b6 7B8A     		ldrh	r3, [r7, #18]
 465 00b8 142B     		cmp	r3, #20
 466 00ba 23D9     		bls	.L19
 467:.\Generated_Source\PSoC5/CapSense_CSHL.c ****     {
 468:.\Generated_Source\PSoC5/CapSense_CSHL.c ****         if(CapSense_LowBaselineResetCnt[sensor] >= CapSense_LOW_BASELINE_RESET)
 467              		.loc 1 468 0
 468 00bc FA79     		ldrb	r2, [r7, #7]	@ zero_extendqisi2
 469 00be 40F20003 		movw	r3, #:lower16:CapSense_LowBaselineResetCnt
 470 00c2 C0F20003 		movt	r3, #:upper16:CapSense_LowBaselineResetCnt
 471 00c6 9B5C     		ldrb	r3, [r3, r2]	@ zero_extendqisi2
 472 00c8 042B     		cmp	r3, #4
 473 00ca 0CD9     		bls	.L20
 469:.\Generated_Source\PSoC5/CapSense_CSHL.c ****         {
 470:.\Generated_Source\PSoC5/CapSense_CSHL.c ****             CapSense_BaseInit(sensor);
 474              		.loc 1 470 0
 475 00cc FB79     		ldrb	r3, [r7, #7]	@ zero_extendqisi2
 476 00ce 1846     		mov	r0, r3
 477 00d0 FFF7FEFF 		bl	CapSense_BaseInit
 471:.\Generated_Source\PSoC5/CapSense_CSHL.c ****             CapSense_LowBaselineResetCnt[sensor] = 0;
 478              		.loc 1 471 0
 479 00d4 FA79     		ldrb	r2, [r7, #7]	@ zero_extendqisi2
 480 00d6 40F20003 		movw	r3, #:lower16:CapSense_LowBaselineResetCnt
 481 00da C0F20003 		movt	r3, #:upper16:CapSense_LowBaselineResetCnt
 482 00de 4FF00001 		mov	r1, #0
 483 00e2 9954     		strb	r1, [r3, r2]
 484              		.loc 1 466 0
 485 00e4 56E0     		b	.L22
 486              	.L20:
 472:.\Generated_Source\PSoC5/CapSense_CSHL.c ****         }
 473:.\Generated_Source\PSoC5/CapSense_CSHL.c ****         else
 474:.\Generated_Source\PSoC5/CapSense_CSHL.c ****         {
 475:.\Generated_Source\PSoC5/CapSense_CSHL.c ****             CapSense_LowBaselineResetCnt[sensor]++;
 487              		.loc 1 475 0
 488 00e6 FA79     		ldrb	r2, [r7, #7]	@ zero_extendqisi2
ARM GAS  C:\Users\Geo\AppData\Local\Temp\cc0UCTwq.s 			page 18


 489 00e8 40F20003 		movw	r3, #:lower16:CapSense_LowBaselineResetCnt
 490 00ec C0F20003 		movt	r3, #:upper16:CapSense_LowBaselineResetCnt
 491 00f0 9B5C     		ldrb	r3, [r3, r2]	@ zero_extendqisi2
 492 00f2 03F10103 		add	r3, r3, #1
 493 00f6 D9B2     		uxtb	r1, r3
 494 00f8 40F20003 		movw	r3, #:lower16:CapSense_LowBaselineResetCnt
 495 00fc C0F20003 		movt	r3, #:upper16:CapSense_LowBaselineResetCnt
 496 0100 9954     		strb	r1, [r3, r2]
 497              		.loc 1 466 0
 498 0102 47E0     		b	.L22
 499              	.L19:
 476:.\Generated_Source\PSoC5/CapSense_CSHL.c ****         }
 477:.\Generated_Source\PSoC5/CapSense_CSHL.c ****     }
 478:.\Generated_Source\PSoC5/CapSense_CSHL.c ****     else
 479:.\Generated_Source\PSoC5/CapSense_CSHL.c ****     {
 480:.\Generated_Source\PSoC5/CapSense_CSHL.c ****         #if (CapSense_AUTO_RESET == CapSense_AUTO_RESET_DISABLE)
 481:.\Generated_Source\PSoC5/CapSense_CSHL.c ****             /* Update Baseline if lower that noiseThreshold */
 482:.\Generated_Source\PSoC5/CapSense_CSHL.c ****             if ( (tempRaw <= (uint16) noiseThreshold) || 
 500              		.loc 1 482 0
 501 0104 FB7D     		ldrb	r3, [r7, #23]	@ zero_extendqisi2
 502 0106 7A8A     		ldrh	r2, [r7, #18]
 503 0108 9A42     		cmp	r2, r3
 504 010a 05D9     		bls	.L23
 505 010c 7B8A     		ldrh	r3, [r7, #18]
 506 010e 132B     		cmp	r3, #19
 507 0110 40D8     		bhi	.L22
 508 0112 BB7D     		ldrb	r3, [r7, #22]	@ zero_extendqisi2
 509 0114 002B     		cmp	r3, #0
 510 0116 3DD1     		bne	.L22
 511              	.L23:
 483:.\Generated_Source\PSoC5/CapSense_CSHL.c ****                  ((tempRaw < (uint16) CapSense_NEGATIVE_NOISE_THRESHOLD)
 484:.\Generated_Source\PSoC5/CapSense_CSHL.c ****                    && widget == 0))
 485:.\Generated_Source\PSoC5/CapSense_CSHL.c ****             {
 486:.\Generated_Source\PSoC5/CapSense_CSHL.c ****         #endif /* (CapSense_AUTO_RESET == CapSense_AUTO_RESET_DISABLE) */
 487:.\Generated_Source\PSoC5/CapSense_CSHL.c ****                 /* Make full Baseline 23 bits */
 488:.\Generated_Source\PSoC5/CapSense_CSHL.c ****                 calc = (uint32) CapSense_SensorBaseline[sensor] << 8u;
 512              		.loc 1 488 0
 513 0118 FA79     		ldrb	r2, [r7, #7]	@ zero_extendqisi2
 514 011a 40F20003 		movw	r3, #:lower16:CapSense_SensorBaseline
 515 011e C0F20003 		movt	r3, #:upper16:CapSense_SensorBaseline
 516 0122 33F81230 		ldrh	r3, [r3, r2, lsl #1]
 517 0126 4FEA0323 		lsl	r3, r3, #8
 518 012a FB60     		str	r3, [r7, #12]
 489:.\Generated_Source\PSoC5/CapSense_CSHL.c ****                 calc |= (uint32) CapSense_SensorBaselineLow[sensor];
 519              		.loc 1 489 0
 520 012c FA79     		ldrb	r2, [r7, #7]	@ zero_extendqisi2
 521 012e 40F20003 		movw	r3, #:lower16:CapSense_SensorBaselineLow
 522 0132 C0F20003 		movt	r3, #:upper16:CapSense_SensorBaselineLow
 523 0136 9B5C     		ldrb	r3, [r3, r2]	@ zero_extendqisi2
 524 0138 FA68     		ldr	r2, [r7, #12]
 525 013a 42EA0303 		orr	r3, r2, r3
 526 013e FB60     		str	r3, [r7, #12]
 490:.\Generated_Source\PSoC5/CapSense_CSHL.c **** 
 491:.\Generated_Source\PSoC5/CapSense_CSHL.c ****                 /* Add Raw Data to Baseline */
 492:.\Generated_Source\PSoC5/CapSense_CSHL.c ****                 calc += filteredRawData;
 527              		.loc 1 492 0
 528 0140 BB8A     		ldrh	r3, [r7, #20]
ARM GAS  C:\Users\Geo\AppData\Local\Temp\cc0UCTwq.s 			page 19


 529 0142 FA68     		ldr	r2, [r7, #12]
 530 0144 1344     		add	r3, r2, r3
 531 0146 FB60     		str	r3, [r7, #12]
 493:.\Generated_Source\PSoC5/CapSense_CSHL.c **** 
 494:.\Generated_Source\PSoC5/CapSense_CSHL.c ****                 /* Sub the high Baseline */
 495:.\Generated_Source\PSoC5/CapSense_CSHL.c ****                 calc -= CapSense_SensorBaseline[sensor];
 532              		.loc 1 495 0
 533 0148 FA79     		ldrb	r2, [r7, #7]	@ zero_extendqisi2
 534 014a 40F20003 		movw	r3, #:lower16:CapSense_SensorBaseline
 535 014e C0F20003 		movt	r3, #:upper16:CapSense_SensorBaseline
 536 0152 33F81230 		ldrh	r3, [r3, r2, lsl #1]
 537 0156 FA68     		ldr	r2, [r7, #12]
 538 0158 C3EB0203 		rsb	r3, r3, r2
 539 015c FB60     		str	r3, [r7, #12]
 496:.\Generated_Source\PSoC5/CapSense_CSHL.c **** 
 497:.\Generated_Source\PSoC5/CapSense_CSHL.c ****                 /* Put Baseline and BaselineLow */
 498:.\Generated_Source\PSoC5/CapSense_CSHL.c ****                 CapSense_SensorBaseline[sensor] = ((uint16) (calc >> 8u));
 540              		.loc 1 498 0
 541 015e FA79     		ldrb	r2, [r7, #7]	@ zero_extendqisi2
 542 0160 FB68     		ldr	r3, [r7, #12]
 543 0162 4FEA1323 		lsr	r3, r3, #8
 544 0166 99B2     		uxth	r1, r3
 545 0168 40F20003 		movw	r3, #:lower16:CapSense_SensorBaseline
 546 016c C0F20003 		movt	r3, #:upper16:CapSense_SensorBaseline
 547 0170 23F81210 		strh	r1, [r3, r2, lsl #1]	@ movhi
 499:.\Generated_Source\PSoC5/CapSense_CSHL.c ****                 CapSense_SensorBaselineLow[sensor] = ((uint8) calc);
 548              		.loc 1 499 0
 549 0174 FA79     		ldrb	r2, [r7, #7]	@ zero_extendqisi2
 550 0176 FB68     		ldr	r3, [r7, #12]
 551 0178 D9B2     		uxtb	r1, r3
 552 017a 40F20003 		movw	r3, #:lower16:CapSense_SensorBaselineLow
 553 017e C0F20003 		movt	r3, #:upper16:CapSense_SensorBaselineLow
 554 0182 9954     		strb	r1, [r3, r2]
 500:.\Generated_Source\PSoC5/CapSense_CSHL.c **** 
 501:.\Generated_Source\PSoC5/CapSense_CSHL.c ****                 CapSense_LowBaselineResetCnt[sensor] = 0;
 555              		.loc 1 501 0
 556 0184 FA79     		ldrb	r2, [r7, #7]	@ zero_extendqisi2
 557 0186 40F20003 		movw	r3, #:lower16:CapSense_LowBaselineResetCnt
 558 018a C0F20003 		movt	r3, #:upper16:CapSense_LowBaselineResetCnt
 559 018e 4FF00001 		mov	r1, #0
 560 0192 9954     		strb	r1, [r3, r2]
 561              	.L22:
 502:.\Generated_Source\PSoC5/CapSense_CSHL.c ****         #if (CapSense_AUTO_RESET == CapSense_AUTO_RESET_DISABLE)
 503:.\Generated_Source\PSoC5/CapSense_CSHL.c ****             }
 504:.\Generated_Source\PSoC5/CapSense_CSHL.c ****         #endif /* (CapSense_AUTO_RESET == CapSense_AUTO_RESET_DISABLE) */
 505:.\Generated_Source\PSoC5/CapSense_CSHL.c ****     }
 506:.\Generated_Source\PSoC5/CapSense_CSHL.c **** 
 507:.\Generated_Source\PSoC5/CapSense_CSHL.c ****     /* Calculate Signal if possitive difference > noiseThreshold */
 508:.\Generated_Source\PSoC5/CapSense_CSHL.c ****     if((tempRaw > (uint16) noiseThreshold) && (widget != 0u))
 562              		.loc 1 508 0
 563 0194 FB7D     		ldrb	r3, [r7, #23]	@ zero_extendqisi2
 564 0196 7A8A     		ldrh	r2, [r7, #18]
 565 0198 9A42     		cmp	r2, r3
 566 019a 17D9     		bls	.L24
 567 019c BB7D     		ldrb	r3, [r7, #22]	@ zero_extendqisi2
 568 019e 002B     		cmp	r3, #0
 569 01a0 14D0     		beq	.L24
ARM GAS  C:\Users\Geo\AppData\Local\Temp\cc0UCTwq.s 			page 20


 509:.\Generated_Source\PSoC5/CapSense_CSHL.c ****     {
 510:.\Generated_Source\PSoC5/CapSense_CSHL.c ****         #if (CapSense_SIGNAL_SIZE == CapSense_SIGNAL_SIZE_UINT8)
 511:.\Generated_Source\PSoC5/CapSense_CSHL.c ****             /* Over flow defence for uint8 */
 512:.\Generated_Source\PSoC5/CapSense_CSHL.c ****             if (tempRaw > 0xFFu)
 570              		.loc 1 512 0
 571 01a2 7B8A     		ldrh	r3, [r7, #18]
 572 01a4 FF2B     		cmp	r3, #255
 573 01a6 08D9     		bls	.L25
 513:.\Generated_Source\PSoC5/CapSense_CSHL.c ****             {
 514:.\Generated_Source\PSoC5/CapSense_CSHL.c ****                 CapSense_SensorSignal[sensor] = 0xFFu;
 574              		.loc 1 514 0
 575 01a8 FA79     		ldrb	r2, [r7, #7]	@ zero_extendqisi2
 576 01aa 40F20003 		movw	r3, #:lower16:CapSense_SensorSignal
 577 01ae C0F20003 		movt	r3, #:upper16:CapSense_SensorSignal
 578 01b2 4FF0FF31 		mov	r1, #-1
 579 01b6 9954     		strb	r1, [r3, r2]
 580              		.loc 1 508 0
 581 01b8 10E0     		b	.L28
 582              	.L25:
 515:.\Generated_Source\PSoC5/CapSense_CSHL.c ****             }    
 516:.\Generated_Source\PSoC5/CapSense_CSHL.c ****             else 
 517:.\Generated_Source\PSoC5/CapSense_CSHL.c ****             {
 518:.\Generated_Source\PSoC5/CapSense_CSHL.c ****                 CapSense_SensorSignal[sensor] = ((uint8) tempRaw);
 583              		.loc 1 518 0
 584 01ba FA79     		ldrb	r2, [r7, #7]	@ zero_extendqisi2
 585 01bc 7B8A     		ldrh	r3, [r7, #18]	@ movhi
 586 01be D9B2     		uxtb	r1, r3
 587 01c0 40F20003 		movw	r3, #:lower16:CapSense_SensorSignal
 588 01c4 C0F20003 		movt	r3, #:upper16:CapSense_SensorSignal
 589 01c8 9954     		strb	r1, [r3, r2]
 590              		.loc 1 508 0
 591 01ca 07E0     		b	.L28
 592              	.L24:
 519:.\Generated_Source\PSoC5/CapSense_CSHL.c ****             }
 520:.\Generated_Source\PSoC5/CapSense_CSHL.c ****         #else
 521:.\Generated_Source\PSoC5/CapSense_CSHL.c ****             CapSense_SensorSignal[sensor] = ((uint16) tempRaw);
 522:.\Generated_Source\PSoC5/CapSense_CSHL.c ****         #endif  /* End (CapSense_SIGNAL_SIZE == CapSense_SIGNAL_SIZE_UINT8) */
 523:.\Generated_Source\PSoC5/CapSense_CSHL.c ****     }
 524:.\Generated_Source\PSoC5/CapSense_CSHL.c ****     else
 525:.\Generated_Source\PSoC5/CapSense_CSHL.c ****     {
 526:.\Generated_Source\PSoC5/CapSense_CSHL.c ****         /* Signal is zero */
 527:.\Generated_Source\PSoC5/CapSense_CSHL.c ****         CapSense_SensorSignal[sensor] = 0u;
 593              		.loc 1 527 0
 594 01cc FA79     		ldrb	r2, [r7, #7]	@ zero_extendqisi2
 595 01ce 40F20003 		movw	r3, #:lower16:CapSense_SensorSignal
 596 01d2 C0F20003 		movt	r3, #:upper16:CapSense_SensorSignal
 597 01d6 4FF00001 		mov	r1, #0
 598 01da 9954     		strb	r1, [r3, r2]
 599              	.L28:
 528:.\Generated_Source\PSoC5/CapSense_CSHL.c ****     }
 529:.\Generated_Source\PSoC5/CapSense_CSHL.c **** 
 530:.\Generated_Source\PSoC5/CapSense_CSHL.c ****     #if (CapSense_TOTAL_GENERICS_COUNT)
 531:.\Generated_Source\PSoC5/CapSense_CSHL.c ****         /* Exclude generic widget */
 532:.\Generated_Source\PSoC5/CapSense_CSHL.c ****         }
 533:.\Generated_Source\PSoC5/CapSense_CSHL.c ****     #endif  /* End CapSense_TOTAL_GENERICS_COUNT */
 534:.\Generated_Source\PSoC5/CapSense_CSHL.c **** }
 600              		.loc 1 534 0
ARM GAS  C:\Users\Geo\AppData\Local\Temp\cc0UCTwq.s 			page 21


 601 01dc 07F11807 		add	r7, r7, #24
 602 01e0 BD46     		mov	sp, r7
 603 01e2 80BD     		pop	{r7, pc}
 604              		.cfi_endproc
 605              	.LFE4:
 606              		.size	CapSense_UpdateSensorBaseline, .-CapSense_UpdateSensorBaseline
 607              		.section	.text.CapSense_UpdateEnabledBaselines,"ax",%progbits
 608              		.align	2
 609              		.global	CapSense_UpdateEnabledBaselines
 610              		.thumb
 611              		.thumb_func
 612              		.type	CapSense_UpdateEnabledBaselines, %function
 613              	CapSense_UpdateEnabledBaselines:
 614              	.LFB5:
 535:.\Generated_Source\PSoC5/CapSense_CSHL.c **** 
 536:.\Generated_Source\PSoC5/CapSense_CSHL.c **** 
 537:.\Generated_Source\PSoC5/CapSense_CSHL.c **** /*******************************************************************************
 538:.\Generated_Source\PSoC5/CapSense_CSHL.c **** * Function Name: CapSense_UpdateEnabledBaselines
 539:.\Generated_Source\PSoC5/CapSense_CSHL.c **** ********************************************************************************
 540:.\Generated_Source\PSoC5/CapSense_CSHL.c **** *
 541:.\Generated_Source\PSoC5/CapSense_CSHL.c **** * Summary:
 542:.\Generated_Source\PSoC5/CapSense_CSHL.c **** *  Checks CapSense_SensorEnableMask[] array and calls the 
 543:.\Generated_Source\PSoC5/CapSense_CSHL.c **** *  CapSense_UpdateSensorBaseline function to update the baselines 
 544:.\Generated_Source\PSoC5/CapSense_CSHL.c **** *  for enabled sensors.
 545:.\Generated_Source\PSoC5/CapSense_CSHL.c **** *
 546:.\Generated_Source\PSoC5/CapSense_CSHL.c **** * Parameters:
 547:.\Generated_Source\PSoC5/CapSense_CSHL.c **** *  None
 548:.\Generated_Source\PSoC5/CapSense_CSHL.c **** *
 549:.\Generated_Source\PSoC5/CapSense_CSHL.c **** * Return:
 550:.\Generated_Source\PSoC5/CapSense_CSHL.c **** *  None
 551:.\Generated_Source\PSoC5/CapSense_CSHL.c **** *
 552:.\Generated_Source\PSoC5/CapSense_CSHL.c **** * Global Variables:
 553:.\Generated_Source\PSoC5/CapSense_CSHL.c **** *  CapSense_SensorEnableMask[] - used to store the sensor scanning 
 554:.\Generated_Source\PSoC5/CapSense_CSHL.c **** *  state.
 555:.\Generated_Source\PSoC5/CapSense_CSHL.c **** *  CapSense_SensorEnableMask[0] contains the masked bits for sensors 
 556:.\Generated_Source\PSoC5/CapSense_CSHL.c **** *   0 through 7 (sensor 0 is bit 0, sensor 1 is bit 1).
 557:.\Generated_Source\PSoC5/CapSense_CSHL.c **** *  CapSense_SensorEnableMask[1] contains the masked bits for 
 558:.\Generated_Source\PSoC5/CapSense_CSHL.c **** *  sensors 8 through 15 (if needed), and so on.
 559:.\Generated_Source\PSoC5/CapSense_CSHL.c **** *  0 - sensor doesn't scan by CapSense_ScanEnabledWidgets().
 560:.\Generated_Source\PSoC5/CapSense_CSHL.c **** *  1 - sensor scans by CapSense_ScanEnabledWidgets().
 561:.\Generated_Source\PSoC5/CapSense_CSHL.c **** *
 562:.\Generated_Source\PSoC5/CapSense_CSHL.c **** * Reentrant:
 563:.\Generated_Source\PSoC5/CapSense_CSHL.c **** *  No
 564:.\Generated_Source\PSoC5/CapSense_CSHL.c **** *
 565:.\Generated_Source\PSoC5/CapSense_CSHL.c **** *******************************************************************************/
 566:.\Generated_Source\PSoC5/CapSense_CSHL.c ****  void CapSense_UpdateEnabledBaselines(void)
 567:.\Generated_Source\PSoC5/CapSense_CSHL.c **** {
 615              		.loc 1 567 0
 616              		.cfi_startproc
 617              		@ args = 0, pretend = 0, frame = 8
 618              		@ frame_needed = 1, uses_anonymous_args = 0
 619 0000 80B5     		push	{r7, lr}
 620              	.LCFI15:
 621              		.cfi_def_cfa_offset 8
 622 0002 82B0     		sub	sp, sp, #8
 623              	.LCFI16:
 624              		.cfi_def_cfa_offset 16
ARM GAS  C:\Users\Geo\AppData\Local\Temp\cc0UCTwq.s 			page 22


 625 0004 00AF     		add	r7, sp, #0
 626              		.cfi_offset 14, -4
 627              		.cfi_offset 7, -8
 628              	.LCFI17:
 629              		.cfi_def_cfa_register 7
 568:.\Generated_Source\PSoC5/CapSense_CSHL.c ****     uint8 i;
 569:.\Generated_Source\PSoC5/CapSense_CSHL.c ****     uint8 pos;
 570:.\Generated_Source\PSoC5/CapSense_CSHL.c ****     uint8 enMask;
 571:.\Generated_Source\PSoC5/CapSense_CSHL.c ****     
 572:.\Generated_Source\PSoC5/CapSense_CSHL.c ****     for(i = 0; i < CapSense_TOTAL_SENSOR_COUNT; i++)
 630              		.loc 1 572 0
 631 0006 4FF00003 		mov	r3, #0
 632 000a 7B71     		strb	r3, [r7, #5]
 633 000c 1FE0     		b	.L30
 634              	.L32:
 573:.\Generated_Source\PSoC5/CapSense_CSHL.c ****     {
 574:.\Generated_Source\PSoC5/CapSense_CSHL.c ****         pos = (i >> 3u);
 635              		.loc 1 574 0
 636 000e 7B79     		ldrb	r3, [r7, #5]	@ zero_extendqisi2
 637 0010 4FEAD303 		lsr	r3, r3, #3
 638 0014 BB71     		strb	r3, [r7, #6]
 575:.\Generated_Source\PSoC5/CapSense_CSHL.c ****         enMask = 0x01u << (i & 0x07u);
 639              		.loc 1 575 0
 640 0016 7B79     		ldrb	r3, [r7, #5]	@ zero_extendqisi2
 641 0018 03F00703 		and	r3, r3, #7
 642 001c 4FF00102 		mov	r2, #1
 643 0020 02FA03F3 		lsl	r3, r2, r3
 644 0024 FB71     		strb	r3, [r7, #7]
 576:.\Generated_Source\PSoC5/CapSense_CSHL.c ****         if((CapSense_SensorEnableMask[pos] & enMask) != 0u)
 645              		.loc 1 576 0
 646 0026 BA79     		ldrb	r2, [r7, #6]	@ zero_extendqisi2
 647 0028 40F20003 		movw	r3, #:lower16:CapSense_SensorEnableMask
 648 002c C0F20003 		movt	r3, #:upper16:CapSense_SensorEnableMask
 649 0030 9A5C     		ldrb	r2, [r3, r2]	@ zero_extendqisi2
 650 0032 FB79     		ldrb	r3, [r7, #7]
 651 0034 02EA0303 		and	r3, r2, r3
 652 0038 DBB2     		uxtb	r3, r3
 653 003a 002B     		cmp	r3, #0
 654 003c 03D0     		beq	.L31
 577:.\Generated_Source\PSoC5/CapSense_CSHL.c ****         {
 578:.\Generated_Source\PSoC5/CapSense_CSHL.c ****             CapSense_UpdateSensorBaseline(i);
 655              		.loc 1 578 0
 656 003e 7B79     		ldrb	r3, [r7, #5]	@ zero_extendqisi2
 657 0040 1846     		mov	r0, r3
 658 0042 FFF7FEFF 		bl	CapSense_UpdateSensorBaseline
 659              	.L31:
 660              		.loc 1 572 0
 661 0046 7B79     		ldrb	r3, [r7, #5]
 662 0048 03F10103 		add	r3, r3, #1
 663 004c 7B71     		strb	r3, [r7, #5]
 664              	.L30:
 665 004e 7B79     		ldrb	r3, [r7, #5]	@ zero_extendqisi2
 666 0050 032B     		cmp	r3, #3
 667 0052 DCD9     		bls	.L32
 579:.\Generated_Source\PSoC5/CapSense_CSHL.c ****         }
 580:.\Generated_Source\PSoC5/CapSense_CSHL.c ****     }
 581:.\Generated_Source\PSoC5/CapSense_CSHL.c **** }
ARM GAS  C:\Users\Geo\AppData\Local\Temp\cc0UCTwq.s 			page 23


 668              		.loc 1 581 0
 669 0054 07F10807 		add	r7, r7, #8
 670 0058 BD46     		mov	sp, r7
 671 005a 80BD     		pop	{r7, pc}
 672              		.cfi_endproc
 673              	.LFE5:
 674              		.size	CapSense_UpdateEnabledBaselines, .-CapSense_UpdateEnabledBaselines
 675              		.section	.text.CapSense_CheckIsSensorActive,"ax",%progbits
 676              		.align	2
 677              		.global	CapSense_CheckIsSensorActive
 678              		.thumb
 679              		.thumb_func
 680              		.type	CapSense_CheckIsSensorActive, %function
 681              	CapSense_CheckIsSensorActive:
 682              	.LFB6:
 582:.\Generated_Source\PSoC5/CapSense_CSHL.c **** 
 583:.\Generated_Source\PSoC5/CapSense_CSHL.c **** 
 584:.\Generated_Source\PSoC5/CapSense_CSHL.c **** /*******************************************************************************
 585:.\Generated_Source\PSoC5/CapSense_CSHL.c **** * Function Name: CapSense_CheckIsSensorActive
 586:.\Generated_Source\PSoC5/CapSense_CSHL.c **** ********************************************************************************
 587:.\Generated_Source\PSoC5/CapSense_CSHL.c **** *
 588:.\Generated_Source\PSoC5/CapSense_CSHL.c **** * Summary:
 589:.\Generated_Source\PSoC5/CapSense_CSHL.c **** *  Compares the CapSense_SensorSignal[sensor] array element to finger
 590:.\Generated_Source\PSoC5/CapSense_CSHL.c **** *  threshold of widget it belongs to. The hysteresis and debounce are taken into 
 591:.\Generated_Source\PSoC5/CapSense_CSHL.c **** *  account. The hysteresis is added or subtracted from the finger threshold 
 592:.\Generated_Source\PSoC5/CapSense_CSHL.c **** *  based on whether the sensor is currently active. 
 593:.\Generated_Source\PSoC5/CapSense_CSHL.c **** *  If the sensor is active, the threshold is lowered by the hysteresis amount.
 594:.\Generated_Source\PSoC5/CapSense_CSHL.c **** *  If the sensor is inactive, the threshold is raised by the hysteresis amount.
 595:.\Generated_Source\PSoC5/CapSense_CSHL.c **** *  The debounce counter added to the sensor active transition.
 596:.\Generated_Source\PSoC5/CapSense_CSHL.c **** *  This function updates CapSense_SensorOnMask[] array element.
 597:.\Generated_Source\PSoC5/CapSense_CSHL.c **** *
 598:.\Generated_Source\PSoC5/CapSense_CSHL.c **** * Parameters:
 599:.\Generated_Source\PSoC5/CapSense_CSHL.c **** *  sensor:  Sensor number.
 600:.\Generated_Source\PSoC5/CapSense_CSHL.c **** *
 601:.\Generated_Source\PSoC5/CapSense_CSHL.c **** * Return:
 602:.\Generated_Source\PSoC5/CapSense_CSHL.c **** *  Returns sensor state 1 if active, 0 if not active.
 603:.\Generated_Source\PSoC5/CapSense_CSHL.c **** *
 604:.\Generated_Source\PSoC5/CapSense_CSHL.c **** * Global Variables:
 605:.\Generated_Source\PSoC5/CapSense_CSHL.c **** *  CapSense_SensorSignal[]      - used to store diffence between 
 606:.\Generated_Source\PSoC5/CapSense_CSHL.c **** *  current value of raw data and previous value of baseline.
 607:.\Generated_Source\PSoC5/CapSense_CSHL.c **** *  CapSense_debounceCounter[]   - used to store current debounce 
 608:.\Generated_Source\PSoC5/CapSense_CSHL.c **** *  counter of sensor. Widget which has this parameter are buttons, matrix 
 609:.\Generated_Source\PSoC5/CapSense_CSHL.c **** *  buttons, proximity, guard. All other widgets haven't debounce parameter
 610:.\Generated_Source\PSoC5/CapSense_CSHL.c **** *  and use the last element of this array with value 0 (it means no debounce).
 611:.\Generated_Source\PSoC5/CapSense_CSHL.c **** *  CapSense_SensorOnMask[] - used to store sensors on/off state.
 612:.\Generated_Source\PSoC5/CapSense_CSHL.c **** *  CapSense_SensorOnMask[0] contains the masked bits for sensors 
 613:.\Generated_Source\PSoC5/CapSense_CSHL.c **** *   0 through 7 (sensor 0 is bit 0, sensor 1 is bit 1).
 614:.\Generated_Source\PSoC5/CapSense_CSHL.c **** *  CapSense_SensorEnableMask[1] contains the masked bits for 
 615:.\Generated_Source\PSoC5/CapSense_CSHL.c **** *  sensors 8 through 15 (if needed), and so on.
 616:.\Generated_Source\PSoC5/CapSense_CSHL.c **** *  0 - sensor is inactive.
 617:.\Generated_Source\PSoC5/CapSense_CSHL.c **** *  1 - sensor is active.
 618:.\Generated_Source\PSoC5/CapSense_CSHL.c **** *
 619:.\Generated_Source\PSoC5/CapSense_CSHL.c **** * Reentrant:
 620:.\Generated_Source\PSoC5/CapSense_CSHL.c **** *  No
 621:.\Generated_Source\PSoC5/CapSense_CSHL.c **** *
 622:.\Generated_Source\PSoC5/CapSense_CSHL.c **** *******************************************************************************/
 623:.\Generated_Source\PSoC5/CapSense_CSHL.c **** uint8 CapSense_CheckIsSensorActive(uint8 sensor)
ARM GAS  C:\Users\Geo\AppData\Local\Temp\cc0UCTwq.s 			page 24


 624:.\Generated_Source\PSoC5/CapSense_CSHL.c **** {
 683              		.loc 1 624 0
 684              		.cfi_startproc
 685              		@ args = 0, pretend = 0, frame = 16
 686              		@ frame_needed = 1, uses_anonymous_args = 0
 687              		@ link register save eliminated.
 688 0000 80B4     		push	{r7}
 689              	.LCFI18:
 690              		.cfi_def_cfa_offset 4
 691 0002 85B0     		sub	sp, sp, #20
 692              	.LCFI19:
 693              		.cfi_def_cfa_offset 24
 694 0004 00AF     		add	r7, sp, #0
 695              		.cfi_offset 7, -4
 696              	.LCFI20:
 697              		.cfi_def_cfa_register 7
 698 0006 0346     		mov	r3, r0
 699 0008 FB71     		strb	r3, [r7, #7]
 625:.\Generated_Source\PSoC5/CapSense_CSHL.c ****     uint8 debounceIndex;
 626:.\Generated_Source\PSoC5/CapSense_CSHL.c ****     /* Get On/Off mask */
 627:.\Generated_Source\PSoC5/CapSense_CSHL.c ****     uint8 pos = (sensor >> 3u);
 700              		.loc 1 627 0
 701 000a FB79     		ldrb	r3, [r7, #7]	@ zero_extendqisi2
 702 000c 4FEAD303 		lsr	r3, r3, #3
 703 0010 BB72     		strb	r3, [r7, #10]
 628:.\Generated_Source\PSoC5/CapSense_CSHL.c ****     uint8 onMask = 0x01u << (sensor & 0x07u);
 704              		.loc 1 628 0
 705 0012 FB79     		ldrb	r3, [r7, #7]	@ zero_extendqisi2
 706 0014 03F00703 		and	r3, r3, #7
 707 0018 4FF00102 		mov	r2, #1
 708 001c 02FA03F3 		lsl	r3, r2, r3
 709 0020 FB72     		strb	r3, [r7, #11]
 629:.\Generated_Source\PSoC5/CapSense_CSHL.c ****     /* Prepare to find debounce counter index */
 630:.\Generated_Source\PSoC5/CapSense_CSHL.c ****     uint8 widget = CapSense_widgetNumber[sensor];
 710              		.loc 1 630 0
 711 0022 FA79     		ldrb	r2, [r7, #7]	@ zero_extendqisi2
 712 0024 40F20003 		movw	r3, #:lower16:CapSense_widgetNumber
 713 0028 C0F20003 		movt	r3, #:upper16:CapSense_widgetNumber
 714 002c 9B5C     		ldrb	r3, [r3, r2]
 715 002e 3B73     		strb	r3, [r7, #12]
 631:.\Generated_Source\PSoC5/CapSense_CSHL.c ****     uint8 fingerThreshold = CapSense_fingerThreshold[widget];
 716              		.loc 1 631 0
 717 0030 3A7B     		ldrb	r2, [r7, #12]	@ zero_extendqisi2
 718 0032 40F20003 		movw	r3, #:lower16:CapSense_fingerThreshold
 719 0036 C0F20003 		movt	r3, #:upper16:CapSense_fingerThreshold
 720 003a 9B5C     		ldrb	r3, [r3, r2]
 721 003c 7B73     		strb	r3, [r7, #13]
 632:.\Generated_Source\PSoC5/CapSense_CSHL.c ****     uint8 hysteresis = CapSense_hysteresis[widget];
 722              		.loc 1 632 0
 723 003e 3A7B     		ldrb	r2, [r7, #12]	@ zero_extendqisi2
 724 0040 40F20003 		movw	r3, #:lower16:CapSense_hysteresis
 725 0044 C0F20003 		movt	r3, #:upper16:CapSense_hysteresis
 726 0048 9B5C     		ldrb	r3, [r3, r2]
 727 004a BB73     		strb	r3, [r7, #14]
 633:.\Generated_Source\PSoC5/CapSense_CSHL.c ****     uint8 debounce = CapSense_debounce[widget];
 728              		.loc 1 633 0
 729 004c 3A7B     		ldrb	r2, [r7, #12]	@ zero_extendqisi2
ARM GAS  C:\Users\Geo\AppData\Local\Temp\cc0UCTwq.s 			page 25


 730 004e 40F20003 		movw	r3, #:lower16:CapSense_debounce
 731 0052 C0F20003 		movt	r3, #:upper16:CapSense_debounce
 732 0056 9B5C     		ldrb	r3, [r3, r2]
 733 0058 FB73     		strb	r3, [r7, #15]
 634:.\Generated_Source\PSoC5/CapSense_CSHL.c ****     
 635:.\Generated_Source\PSoC5/CapSense_CSHL.c ****     debounceIndex = widget;
 734              		.loc 1 635 0
 735 005a 3B7B     		ldrb	r3, [r7, #12]
 736 005c 7B72     		strb	r3, [r7, #9]
 636:.\Generated_Source\PSoC5/CapSense_CSHL.c **** 
 637:.\Generated_Source\PSoC5/CapSense_CSHL.c ****     
 638:.\Generated_Source\PSoC5/CapSense_CSHL.c ****     /* Was on */
 639:.\Generated_Source\PSoC5/CapSense_CSHL.c ****     if (CapSense_SensorOnMask[pos] & onMask)
 737              		.loc 1 639 0
 738 005e BA7A     		ldrb	r2, [r7, #10]	@ zero_extendqisi2
 739 0060 40F20003 		movw	r3, #:lower16:CapSense_SensorOnMask
 740 0064 C0F20003 		movt	r3, #:upper16:CapSense_SensorOnMask
 741 0068 9A5C     		ldrb	r2, [r3, r2]	@ zero_extendqisi2
 742 006a FB7A     		ldrb	r3, [r7, #11]
 743 006c 02EA0303 		and	r3, r2, r3
 744 0070 DBB2     		uxtb	r3, r3
 745 0072 002B     		cmp	r3, #0
 746 0074 29D0     		beq	.L35
 640:.\Generated_Source\PSoC5/CapSense_CSHL.c ****     {
 641:.\Generated_Source\PSoC5/CapSense_CSHL.c ****         /* Hysteresis minus */
 642:.\Generated_Source\PSoC5/CapSense_CSHL.c ****         if (CapSense_SensorSignal[sensor] < (fingerThreshold - hysteresis))
 747              		.loc 1 642 0
 748 0076 FA79     		ldrb	r2, [r7, #7]	@ zero_extendqisi2
 749 0078 40F20003 		movw	r3, #:lower16:CapSense_SensorSignal
 750 007c C0F20003 		movt	r3, #:upper16:CapSense_SensorSignal
 751 0080 9B5C     		ldrb	r3, [r3, r2]	@ zero_extendqisi2
 752 0082 1A46     		mov	r2, r3
 753 0084 797B     		ldrb	r1, [r7, #13]	@ zero_extendqisi2
 754 0086 BB7B     		ldrb	r3, [r7, #14]	@ zero_extendqisi2
 755 0088 C3EB0103 		rsb	r3, r3, r1
 756 008c 9A42     		cmp	r2, r3
 757 008e 56DA     		bge	.L43
 643:.\Generated_Source\PSoC5/CapSense_CSHL.c ****         {
 644:.\Generated_Source\PSoC5/CapSense_CSHL.c ****             CapSense_SensorOnMask[pos] &= ~onMask;
 758              		.loc 1 644 0
 759 0090 BA7A     		ldrb	r2, [r7, #10]	@ zero_extendqisi2
 760 0092 B97A     		ldrb	r1, [r7, #10]	@ zero_extendqisi2
 761 0094 40F20003 		movw	r3, #:lower16:CapSense_SensorOnMask
 762 0098 C0F20003 		movt	r3, #:upper16:CapSense_SensorOnMask
 763 009c 5B5C     		ldrb	r3, [r3, r1]	@ zero_extendqisi2
 764 009e 1946     		mov	r1, r3
 765 00a0 FB7A     		ldrb	r3, [r7, #11]	@ zero_extendqisi2
 766 00a2 6FEA0303 		mvn	r3, r3
 767 00a6 DBB2     		uxtb	r3, r3
 768 00a8 01EA0303 		and	r3, r1, r3
 769 00ac DBB2     		uxtb	r3, r3
 770 00ae D9B2     		uxtb	r1, r3
 771 00b0 40F20003 		movw	r3, #:lower16:CapSense_SensorOnMask
 772 00b4 C0F20003 		movt	r3, #:upper16:CapSense_SensorOnMask
 773 00b8 9954     		strb	r1, [r3, r2]
 645:.\Generated_Source\PSoC5/CapSense_CSHL.c ****             CapSense_debounceCounter[debounceIndex] = debounce; 
 774              		.loc 1 645 0
ARM GAS  C:\Users\Geo\AppData\Local\Temp\cc0UCTwq.s 			page 26


 775 00ba 7A7A     		ldrb	r2, [r7, #9]	@ zero_extendqisi2
 776 00bc 40F20003 		movw	r3, #:lower16:CapSense_debounceCounter
 777 00c0 C0F20003 		movt	r3, #:upper16:CapSense_debounceCounter
 778 00c4 F97B     		ldrb	r1, [r7, #15]
 779 00c6 9954     		strb	r1, [r3, r2]
 780 00c8 3CE0     		b	.L37
 781              	.L35:
 646:.\Generated_Source\PSoC5/CapSense_CSHL.c ****         }
 647:.\Generated_Source\PSoC5/CapSense_CSHL.c ****     }
 648:.\Generated_Source\PSoC5/CapSense_CSHL.c ****     else    /* Was off */
 649:.\Generated_Source\PSoC5/CapSense_CSHL.c ****     {
 650:.\Generated_Source\PSoC5/CapSense_CSHL.c ****         /* Hysteresis plus */
 651:.\Generated_Source\PSoC5/CapSense_CSHL.c ****         if (CapSense_SensorSignal[sensor] > (fingerThreshold + hysteresis))
 782              		.loc 1 651 0
 783 00ca FA79     		ldrb	r2, [r7, #7]	@ zero_extendqisi2
 784 00cc 40F20003 		movw	r3, #:lower16:CapSense_SensorSignal
 785 00d0 C0F20003 		movt	r3, #:upper16:CapSense_SensorSignal
 786 00d4 9B5C     		ldrb	r3, [r3, r2]	@ zero_extendqisi2
 787 00d6 1A46     		mov	r2, r3
 788 00d8 797B     		ldrb	r1, [r7, #13]	@ zero_extendqisi2
 789 00da BB7B     		ldrb	r3, [r7, #14]	@ zero_extendqisi2
 790 00dc 0B44     		add	r3, r1, r3
 791 00de 9A42     		cmp	r2, r3
 792 00e0 25DD     		ble	.L38
 652:.\Generated_Source\PSoC5/CapSense_CSHL.c ****         {
 653:.\Generated_Source\PSoC5/CapSense_CSHL.c ****             /* Sensor active, decrement debounce counter */
 654:.\Generated_Source\PSoC5/CapSense_CSHL.c ****             if (CapSense_debounceCounter[debounceIndex]-- <= 1u)
 793              		.loc 1 654 0
 794 00e2 7A7A     		ldrb	r2, [r7, #9]	@ zero_extendqisi2
 795 00e4 40F20003 		movw	r3, #:lower16:CapSense_debounceCounter
 796 00e8 C0F20003 		movt	r3, #:upper16:CapSense_debounceCounter
 797 00ec 9B5C     		ldrb	r3, [r3, r2]	@ zero_extendqisi2
 798 00ee 012B     		cmp	r3, #1
 799 00f0 8CBF     		ite	hi
 800 00f2 0021     		movhi	r1, #0
 801 00f4 0121     		movls	r1, #1
 802 00f6 C9B2     		uxtb	r1, r1
 803 00f8 03F1FF33 		add	r3, r3, #-1
 804 00fc D8B2     		uxtb	r0, r3
 805 00fe 40F20003 		movw	r3, #:lower16:CapSense_debounceCounter
 806 0102 C0F20003 		movt	r3, #:upper16:CapSense_debounceCounter
 807 0106 9854     		strb	r0, [r3, r2]
 808 0108 0029     		cmp	r1, #0
 809 010a 1AD0     		beq	.L44
 655:.\Generated_Source\PSoC5/CapSense_CSHL.c ****             {
 656:.\Generated_Source\PSoC5/CapSense_CSHL.c ****                 CapSense_SensorOnMask[pos] |= onMask; 
 810              		.loc 1 656 0
 811 010c BA7A     		ldrb	r2, [r7, #10]	@ zero_extendqisi2
 812 010e B97A     		ldrb	r1, [r7, #10]	@ zero_extendqisi2
 813 0110 40F20003 		movw	r3, #:lower16:CapSense_SensorOnMask
 814 0114 C0F20003 		movt	r3, #:upper16:CapSense_SensorOnMask
 815 0118 595C     		ldrb	r1, [r3, r1]	@ zero_extendqisi2
 816 011a FB7A     		ldrb	r3, [r7, #11]
 817 011c 41EA0303 		orr	r3, r1, r3
 818 0120 D9B2     		uxtb	r1, r3
 819 0122 40F20003 		movw	r3, #:lower16:CapSense_SensorOnMask
 820 0126 C0F20003 		movt	r3, #:upper16:CapSense_SensorOnMask
ARM GAS  C:\Users\Geo\AppData\Local\Temp\cc0UCTwq.s 			page 27


 821 012a 9954     		strb	r1, [r3, r2]
 822 012c 0AE0     		b	.L37
 823              	.L38:
 657:.\Generated_Source\PSoC5/CapSense_CSHL.c ****             }
 658:.\Generated_Source\PSoC5/CapSense_CSHL.c ****         }
 659:.\Generated_Source\PSoC5/CapSense_CSHL.c ****         else
 660:.\Generated_Source\PSoC5/CapSense_CSHL.c ****         {
 661:.\Generated_Source\PSoC5/CapSense_CSHL.c ****             /* Sensor inactive - reset Debounce counter */
 662:.\Generated_Source\PSoC5/CapSense_CSHL.c ****             CapSense_debounceCounter[debounceIndex] = debounce;
 824              		.loc 1 662 0
 825 012e 7A7A     		ldrb	r2, [r7, #9]	@ zero_extendqisi2
 826 0130 40F20003 		movw	r3, #:lower16:CapSense_debounceCounter
 827 0134 C0F20003 		movt	r3, #:upper16:CapSense_debounceCounter
 828 0138 F97B     		ldrb	r1, [r7, #15]
 829 013a 9954     		strb	r1, [r3, r2]
 830 013c 02E0     		b	.L37
 831              	.L43:
 832              		.loc 1 645 0
 833 013e 00BF     		nop
 834 0140 00E0     		b	.L37
 835              	.L44:
 836              		.loc 1 656 0
 837 0142 00BF     		nop
 838              	.L37:
 663:.\Generated_Source\PSoC5/CapSense_CSHL.c ****         }
 664:.\Generated_Source\PSoC5/CapSense_CSHL.c ****     }
 665:.\Generated_Source\PSoC5/CapSense_CSHL.c ****     
 666:.\Generated_Source\PSoC5/CapSense_CSHL.c ****     return (CapSense_SensorOnMask[pos] & onMask) ? 1u : 0u;
 839              		.loc 1 666 0
 840 0144 BA7A     		ldrb	r2, [r7, #10]	@ zero_extendqisi2
 841 0146 40F20003 		movw	r3, #:lower16:CapSense_SensorOnMask
 842 014a C0F20003 		movt	r3, #:upper16:CapSense_SensorOnMask
 843 014e 9A5C     		ldrb	r2, [r3, r2]	@ zero_extendqisi2
 844 0150 FB7A     		ldrb	r3, [r7, #11]
 845 0152 02EA0303 		and	r3, r2, r3
 846 0156 DBB2     		uxtb	r3, r3
 847 0158 002B     		cmp	r3, #0
 848 015a 02D0     		beq	.L40
 849 015c 4FF00103 		mov	r3, #1
 850 0160 01E0     		b	.L41
 851              	.L40:
 852 0162 4FF00003 		mov	r3, #0
 853              	.L41:
 667:.\Generated_Source\PSoC5/CapSense_CSHL.c **** }
 854              		.loc 1 667 0
 855 0166 1846     		mov	r0, r3
 856 0168 07F11407 		add	r7, r7, #20
 857 016c BD46     		mov	sp, r7
 858 016e 80BC     		pop	{r7}
 859 0170 7047     		bx	lr
 860              		.cfi_endproc
 861              	.LFE6:
 862              		.size	CapSense_CheckIsSensorActive, .-CapSense_CheckIsSensorActive
 863 0172 00BF     		.section	.text.CapSense_CheckIsWidgetActive,"ax",%progbits
 864              		.align	2
 865              		.global	CapSense_CheckIsWidgetActive
 866              		.thumb
ARM GAS  C:\Users\Geo\AppData\Local\Temp\cc0UCTwq.s 			page 28


 867              		.thumb_func
 868              		.type	CapSense_CheckIsWidgetActive, %function
 869              	CapSense_CheckIsWidgetActive:
 870              	.LFB7:
 668:.\Generated_Source\PSoC5/CapSense_CSHL.c **** 
 669:.\Generated_Source\PSoC5/CapSense_CSHL.c **** 
 670:.\Generated_Source\PSoC5/CapSense_CSHL.c **** /*******************************************************************************
 671:.\Generated_Source\PSoC5/CapSense_CSHL.c **** * Function Name: CapSense_CheckIsWidgetActive
 672:.\Generated_Source\PSoC5/CapSense_CSHL.c **** ********************************************************************************
 673:.\Generated_Source\PSoC5/CapSense_CSHL.c **** *
 674:.\Generated_Source\PSoC5/CapSense_CSHL.c **** * Summary:
 675:.\Generated_Source\PSoC5/CapSense_CSHL.c **** *  Use function CapSense_CheckIsSensorActive() to update 
 676:.\Generated_Source\PSoC5/CapSense_CSHL.c **** *  CapSense_SensorOnMask[] for all sensors within the widget.
 677:.\Generated_Source\PSoC5/CapSense_CSHL.c **** *  If one of sensors within widget is active the function return that widget is 
 678:.\Generated_Source\PSoC5/CapSense_CSHL.c **** *  active.
 679:.\Generated_Source\PSoC5/CapSense_CSHL.c **** *  The touch pad and matrix buttons widgets need to have active sensor within 
 680:.\Generated_Source\PSoC5/CapSense_CSHL.c **** *  col and row to return widget active status.
 681:.\Generated_Source\PSoC5/CapSense_CSHL.c **** *
 682:.\Generated_Source\PSoC5/CapSense_CSHL.c **** * Parameters:
 683:.\Generated_Source\PSoC5/CapSense_CSHL.c **** *  widget:  widget number.
 684:.\Generated_Source\PSoC5/CapSense_CSHL.c **** *
 685:.\Generated_Source\PSoC5/CapSense_CSHL.c **** * Return:
 686:.\Generated_Source\PSoC5/CapSense_CSHL.c **** *  Returns widget sensor state 1 if one or more sensors within widget is/are 
 687:.\Generated_Source\PSoC5/CapSense_CSHL.c **** *  active, 0 if all sensors within widget are inactive.
 688:.\Generated_Source\PSoC5/CapSense_CSHL.c **** *
 689:.\Generated_Source\PSoC5/CapSense_CSHL.c **** * Reentrant:
 690:.\Generated_Source\PSoC5/CapSense_CSHL.c **** *  No
 691:.\Generated_Source\PSoC5/CapSense_CSHL.c **** *
 692:.\Generated_Source\PSoC5/CapSense_CSHL.c **** *******************************************************************************/
 693:.\Generated_Source\PSoC5/CapSense_CSHL.c **** uint8 CapSense_CheckIsWidgetActive(uint8 widget)
 694:.\Generated_Source\PSoC5/CapSense_CSHL.c **** {
 871              		.loc 1 694 0
 872              		.cfi_startproc
 873              		@ args = 0, pretend = 0, frame = 16
 874              		@ frame_needed = 1, uses_anonymous_args = 0
 875 0000 80B5     		push	{r7, lr}
 876              	.LCFI21:
 877              		.cfi_def_cfa_offset 8
 878 0002 84B0     		sub	sp, sp, #16
 879              	.LCFI22:
 880              		.cfi_def_cfa_offset 24
 881 0004 00AF     		add	r7, sp, #0
 882              		.cfi_offset 14, -4
 883              		.cfi_offset 7, -8
 884              	.LCFI23:
 885              		.cfi_def_cfa_register 7
 886 0006 0346     		mov	r3, r0
 887 0008 FB71     		strb	r3, [r7, #7]
 695:.\Generated_Source\PSoC5/CapSense_CSHL.c ****     uint8 rawIndex = CapSense_rawDataIndex[widget];
 888              		.loc 1 695 0
 889 000a FA79     		ldrb	r2, [r7, #7]	@ zero_extendqisi2
 890 000c 40F20003 		movw	r3, #:lower16:CapSense_rawDataIndex
 891 0010 C0F20003 		movt	r3, #:upper16:CapSense_rawDataIndex
 892 0014 9B5C     		ldrb	r3, [r3, r2]
 893 0016 7B73     		strb	r3, [r7, #13]
 696:.\Generated_Source\PSoC5/CapSense_CSHL.c ****     uint8 numberOfSensors = CapSense_numberOfSensors[widget] + rawIndex;
 894              		.loc 1 696 0
ARM GAS  C:\Users\Geo\AppData\Local\Temp\cc0UCTwq.s 			page 29


 895 0018 FA79     		ldrb	r2, [r7, #7]	@ zero_extendqisi2
 896 001a 40F20003 		movw	r3, #:lower16:CapSense_numberOfSensors
 897 001e C0F20003 		movt	r3, #:upper16:CapSense_numberOfSensors
 898 0022 9A5C     		ldrb	r2, [r3, r2]	@ zero_extendqisi2
 899 0024 7B7B     		ldrb	r3, [r7, #13]
 900 0026 1344     		add	r3, r2, r3
 901 0028 BB73     		strb	r3, [r7, #14]
 697:.\Generated_Source\PSoC5/CapSense_CSHL.c ****     uint8 state = 0u;
 902              		.loc 1 697 0
 903 002a 4FF00003 		mov	r3, #0
 904 002e FB73     		strb	r3, [r7, #15]
 905              	.L47:
 698:.\Generated_Source\PSoC5/CapSense_CSHL.c **** 
 699:.\Generated_Source\PSoC5/CapSense_CSHL.c ****     /* Check all sensors of the widget */
 700:.\Generated_Source\PSoC5/CapSense_CSHL.c ****     do
 701:.\Generated_Source\PSoC5/CapSense_CSHL.c ****     {
 702:.\Generated_Source\PSoC5/CapSense_CSHL.c ****         if(CapSense_CheckIsSensorActive(rawIndex) != 0u)
 906              		.loc 1 702 0
 907 0030 7B7B     		ldrb	r3, [r7, #13]	@ zero_extendqisi2
 908 0032 1846     		mov	r0, r3
 909 0034 FFF7FEFF 		bl	CapSense_CheckIsSensorActive
 910 0038 0346     		mov	r3, r0
 911 003a 002B     		cmp	r3, #0
 912 003c 02D0     		beq	.L46
 703:.\Generated_Source\PSoC5/CapSense_CSHL.c ****         {
 704:.\Generated_Source\PSoC5/CapSense_CSHL.c ****             state = CapSense_SENSOR_1_IS_ACTIVE;
 913              		.loc 1 704 0
 914 003e 4FF00103 		mov	r3, #1
 915 0042 FB73     		strb	r3, [r7, #15]
 916              	.L46:
 705:.\Generated_Source\PSoC5/CapSense_CSHL.c ****         }
 706:.\Generated_Source\PSoC5/CapSense_CSHL.c ****         rawIndex++;
 917              		.loc 1 706 0
 918 0044 7B7B     		ldrb	r3, [r7, #13]
 919 0046 03F10103 		add	r3, r3, #1
 920 004a 7B73     		strb	r3, [r7, #13]
 707:.\Generated_Source\PSoC5/CapSense_CSHL.c ****     }
 708:.\Generated_Source\PSoC5/CapSense_CSHL.c ****     while(rawIndex < numberOfSensors);
 921              		.loc 1 708 0
 922 004c 7A7B     		ldrb	r2, [r7, #13]	@ zero_extendqisi2
 923 004e BB7B     		ldrb	r3, [r7, #14]	@ zero_extendqisi2
 924 0050 9A42     		cmp	r2, r3
 925 0052 EDD3     		bcc	.L47
 709:.\Generated_Source\PSoC5/CapSense_CSHL.c ****     
 710:.\Generated_Source\PSoC5/CapSense_CSHL.c **** 
 711:.\Generated_Source\PSoC5/CapSense_CSHL.c ****     
 712:.\Generated_Source\PSoC5/CapSense_CSHL.c ****     return state;
 926              		.loc 1 712 0
 927 0054 FB7B     		ldrb	r3, [r7, #15]	@ zero_extendqisi2
 713:.\Generated_Source\PSoC5/CapSense_CSHL.c **** }
 928              		.loc 1 713 0
 929 0056 1846     		mov	r0, r3
 930 0058 07F11007 		add	r7, r7, #16
 931 005c BD46     		mov	sp, r7
 932 005e 80BD     		pop	{r7, pc}
 933              		.cfi_endproc
 934              	.LFE7:
ARM GAS  C:\Users\Geo\AppData\Local\Temp\cc0UCTwq.s 			page 30


 935              		.size	CapSense_CheckIsWidgetActive, .-CapSense_CheckIsWidgetActive
 936              		.section	.text.CapSense_CheckIsAnyWidgetActive,"ax",%progbits
 937              		.align	2
 938              		.global	CapSense_CheckIsAnyWidgetActive
 939              		.thumb
 940              		.thumb_func
 941              		.type	CapSense_CheckIsAnyWidgetActive, %function
 942              	CapSense_CheckIsAnyWidgetActive:
 943              	.LFB8:
 714:.\Generated_Source\PSoC5/CapSense_CSHL.c **** 
 715:.\Generated_Source\PSoC5/CapSense_CSHL.c **** 
 716:.\Generated_Source\PSoC5/CapSense_CSHL.c **** /*******************************************************************************
 717:.\Generated_Source\PSoC5/CapSense_CSHL.c **** * Function Name: CapSense_CheckIsAnyWidgetActive
 718:.\Generated_Source\PSoC5/CapSense_CSHL.c **** ********************************************************************************
 719:.\Generated_Source\PSoC5/CapSense_CSHL.c **** *
 720:.\Generated_Source\PSoC5/CapSense_CSHL.c **** * Summary:
 721:.\Generated_Source\PSoC5/CapSense_CSHL.c **** *  Compares all sensors of the CapSense_Signal[] array to their finger 
 722:.\Generated_Source\PSoC5/CapSense_CSHL.c **** *  threshold. Calls CapSense_CheckIsWidgetActive() for each widget so 
 723:.\Generated_Source\PSoC5/CapSense_CSHL.c **** *  the CapSense_SensorOnMask[] array is up to date after calling this 
 724:.\Generated_Source\PSoC5/CapSense_CSHL.c **** *  function.
 725:.\Generated_Source\PSoC5/CapSense_CSHL.c **** *
 726:.\Generated_Source\PSoC5/CapSense_CSHL.c **** * Parameters:
 727:.\Generated_Source\PSoC5/CapSense_CSHL.c **** *  widget:  widget number.
 728:.\Generated_Source\PSoC5/CapSense_CSHL.c **** *
 729:.\Generated_Source\PSoC5/CapSense_CSHL.c **** * Return:
 730:.\Generated_Source\PSoC5/CapSense_CSHL.c **** *  Returns 1 if any widget is active, 0 none of widgets are active.
 731:.\Generated_Source\PSoC5/CapSense_CSHL.c **** *
 732:.\Generated_Source\PSoC5/CapSense_CSHL.c **** * Reentrant:
 733:.\Generated_Source\PSoC5/CapSense_CSHL.c **** *  No
 734:.\Generated_Source\PSoC5/CapSense_CSHL.c **** *
 735:.\Generated_Source\PSoC5/CapSense_CSHL.c **** *******************************************************************************/
 736:.\Generated_Source\PSoC5/CapSense_CSHL.c **** uint8 CapSense_CheckIsAnyWidgetActive(void)
 737:.\Generated_Source\PSoC5/CapSense_CSHL.c **** {
 944              		.loc 1 737 0
 945              		.cfi_startproc
 946              		@ args = 0, pretend = 0, frame = 8
 947              		@ frame_needed = 1, uses_anonymous_args = 0
 948 0000 80B5     		push	{r7, lr}
 949              	.LCFI24:
 950              		.cfi_def_cfa_offset 8
 951 0002 82B0     		sub	sp, sp, #8
 952              	.LCFI25:
 953              		.cfi_def_cfa_offset 16
 954 0004 00AF     		add	r7, sp, #0
 955              		.cfi_offset 14, -4
 956              		.cfi_offset 7, -8
 957              	.LCFI26:
 958              		.cfi_def_cfa_register 7
 738:.\Generated_Source\PSoC5/CapSense_CSHL.c ****     uint8 i;
 739:.\Generated_Source\PSoC5/CapSense_CSHL.c ****     uint8 state = 0u;
 959              		.loc 1 739 0
 960 0006 4FF00003 		mov	r3, #0
 961 000a FB71     		strb	r3, [r7, #7]
 740:.\Generated_Source\PSoC5/CapSense_CSHL.c ****     
 741:.\Generated_Source\PSoC5/CapSense_CSHL.c ****     for(i = 0u; i < CapSense_TOTAL_WIDGET_COUNT; i++)
 962              		.loc 1 741 0
 963 000c 4FF00003 		mov	r3, #0
ARM GAS  C:\Users\Geo\AppData\Local\Temp\cc0UCTwq.s 			page 31


 964 0010 BB71     		strb	r3, [r7, #6]
 965 0012 0DE0     		b	.L50
 966              	.L52:
 742:.\Generated_Source\PSoC5/CapSense_CSHL.c ****     {
 743:.\Generated_Source\PSoC5/CapSense_CSHL.c ****         if (CapSense_CheckIsWidgetActive(i) != 0u)
 967              		.loc 1 743 0
 968 0014 BB79     		ldrb	r3, [r7, #6]	@ zero_extendqisi2
 969 0016 1846     		mov	r0, r3
 970 0018 FFF7FEFF 		bl	CapSense_CheckIsWidgetActive
 971 001c 0346     		mov	r3, r0
 972 001e 002B     		cmp	r3, #0
 973 0020 02D0     		beq	.L51
 744:.\Generated_Source\PSoC5/CapSense_CSHL.c ****         {
 745:.\Generated_Source\PSoC5/CapSense_CSHL.c ****             state = CapSense_WIDGET_IS_ACTIVE;
 974              		.loc 1 745 0
 975 0022 4FF00103 		mov	r3, #1
 976 0026 FB71     		strb	r3, [r7, #7]
 977              	.L51:
 978              		.loc 1 741 0
 979 0028 BB79     		ldrb	r3, [r7, #6]
 980 002a 03F10103 		add	r3, r3, #1
 981 002e BB71     		strb	r3, [r7, #6]
 982              	.L50:
 983 0030 BB79     		ldrb	r3, [r7, #6]	@ zero_extendqisi2
 984 0032 032B     		cmp	r3, #3
 985 0034 EED9     		bls	.L52
 746:.\Generated_Source\PSoC5/CapSense_CSHL.c ****         }
 747:.\Generated_Source\PSoC5/CapSense_CSHL.c ****     }
 748:.\Generated_Source\PSoC5/CapSense_CSHL.c ****     
 749:.\Generated_Source\PSoC5/CapSense_CSHL.c **** 
 750:.\Generated_Source\PSoC5/CapSense_CSHL.c ****     return state;
 986              		.loc 1 750 0
 987 0036 FB79     		ldrb	r3, [r7, #7]	@ zero_extendqisi2
 751:.\Generated_Source\PSoC5/CapSense_CSHL.c **** }
 988              		.loc 1 751 0
 989 0038 1846     		mov	r0, r3
 990 003a 07F10807 		add	r7, r7, #8
 991 003e BD46     		mov	sp, r7
 992 0040 80BD     		pop	{r7, pc}
 993              		.cfi_endproc
 994              	.LFE8:
 995              		.size	CapSense_CheckIsAnyWidgetActive, .-CapSense_CheckIsAnyWidgetActive
 996 0042 00BF     		.section	.text.CapSense_EnableWidget,"ax",%progbits
 997              		.align	2
 998              		.global	CapSense_EnableWidget
 999              		.thumb
 1000              		.thumb_func
 1001              		.type	CapSense_EnableWidget, %function
 1002              	CapSense_EnableWidget:
 1003              	.LFB9:
 752:.\Generated_Source\PSoC5/CapSense_CSHL.c **** 
 753:.\Generated_Source\PSoC5/CapSense_CSHL.c **** 
 754:.\Generated_Source\PSoC5/CapSense_CSHL.c **** /*******************************************************************************
 755:.\Generated_Source\PSoC5/CapSense_CSHL.c **** * Function Name: CapSense_EnableWidget
 756:.\Generated_Source\PSoC5/CapSense_CSHL.c **** ********************************************************************************
 757:.\Generated_Source\PSoC5/CapSense_CSHL.c **** *
 758:.\Generated_Source\PSoC5/CapSense_CSHL.c **** * Summary:
ARM GAS  C:\Users\Geo\AppData\Local\Temp\cc0UCTwq.s 			page 32


 759:.\Generated_Source\PSoC5/CapSense_CSHL.c **** *  Enable all widget elements (sensors) to scanning process.
 760:.\Generated_Source\PSoC5/CapSense_CSHL.c **** *
 761:.\Generated_Source\PSoC5/CapSense_CSHL.c **** * Parameters:
 762:.\Generated_Source\PSoC5/CapSense_CSHL.c **** *  widget:  widget number.
 763:.\Generated_Source\PSoC5/CapSense_CSHL.c **** *
 764:.\Generated_Source\PSoC5/CapSense_CSHL.c **** * Return:
 765:.\Generated_Source\PSoC5/CapSense_CSHL.c **** *  None
 766:.\Generated_Source\PSoC5/CapSense_CSHL.c **** *
 767:.\Generated_Source\PSoC5/CapSense_CSHL.c **** * Global Variables:
 768:.\Generated_Source\PSoC5/CapSense_CSHL.c **** *  CapSense_SensorEnableMask[] - used to store the sensor scanning 
 769:.\Generated_Source\PSoC5/CapSense_CSHL.c **** *  state.
 770:.\Generated_Source\PSoC5/CapSense_CSHL.c **** *  CapSense_SensorEnableMask[0] contains the masked bits for sensors 
 771:.\Generated_Source\PSoC5/CapSense_CSHL.c **** *  0 through 7 (sensor 0 is bit 0, sensor 1 is bit 1).
 772:.\Generated_Source\PSoC5/CapSense_CSHL.c **** *  CapSense_SensorEnableMask[1] contains the masked bits for 
 773:.\Generated_Source\PSoC5/CapSense_CSHL.c **** *  sensors 8 through 15 (if needed), and so on.
 774:.\Generated_Source\PSoC5/CapSense_CSHL.c **** *  0 - sensor doesn't scan by CapSense_ScanEnabledWidgets().
 775:.\Generated_Source\PSoC5/CapSense_CSHL.c **** *  1 - sensor scans by CapSense_ScanEnabledWidgets().
 776:.\Generated_Source\PSoC5/CapSense_CSHL.c **** *
 777:.\Generated_Source\PSoC5/CapSense_CSHL.c **** * Reentrant:
 778:.\Generated_Source\PSoC5/CapSense_CSHL.c **** *  No
 779:.\Generated_Source\PSoC5/CapSense_CSHL.c **** *
 780:.\Generated_Source\PSoC5/CapSense_CSHL.c **** *******************************************************************************/
 781:.\Generated_Source\PSoC5/CapSense_CSHL.c **** void CapSense_EnableWidget(uint8 widget)
 782:.\Generated_Source\PSoC5/CapSense_CSHL.c **** {
 1004              		.loc 1 782 0
 1005              		.cfi_startproc
 1006              		@ args = 0, pretend = 0, frame = 16
 1007              		@ frame_needed = 1, uses_anonymous_args = 0
 1008              		@ link register save eliminated.
 1009 0000 80B4     		push	{r7}
 1010              	.LCFI27:
 1011              		.cfi_def_cfa_offset 4
 1012 0002 85B0     		sub	sp, sp, #20
 1013              	.LCFI28:
 1014              		.cfi_def_cfa_offset 24
 1015 0004 00AF     		add	r7, sp, #0
 1016              		.cfi_offset 7, -4
 1017              	.LCFI29:
 1018              		.cfi_def_cfa_register 7
 1019 0006 0346     		mov	r3, r0
 1020 0008 FB71     		strb	r3, [r7, #7]
 783:.\Generated_Source\PSoC5/CapSense_CSHL.c ****     uint8 pos;
 784:.\Generated_Source\PSoC5/CapSense_CSHL.c ****     uint8 enMask;
 785:.\Generated_Source\PSoC5/CapSense_CSHL.c ****     uint8 rawIndex = CapSense_rawDataIndex[widget];
 1021              		.loc 1 785 0
 1022 000a FA79     		ldrb	r2, [r7, #7]	@ zero_extendqisi2
 1023 000c 40F20003 		movw	r3, #:lower16:CapSense_rawDataIndex
 1024 0010 C0F20003 		movt	r3, #:upper16:CapSense_rawDataIndex
 1025 0014 9B5C     		ldrb	r3, [r3, r2]
 1026 0016 BB73     		strb	r3, [r7, #14]
 786:.\Generated_Source\PSoC5/CapSense_CSHL.c ****     uint8 numberOfSensors = CapSense_numberOfSensors[widget] + rawIndex;
 1027              		.loc 1 786 0
 1028 0018 FA79     		ldrb	r2, [r7, #7]	@ zero_extendqisi2
 1029 001a 40F20003 		movw	r3, #:lower16:CapSense_numberOfSensors
 1030 001e C0F20003 		movt	r3, #:upper16:CapSense_numberOfSensors
 1031 0022 9A5C     		ldrb	r2, [r3, r2]	@ zero_extendqisi2
 1032 0024 BB7B     		ldrb	r3, [r7, #14]
ARM GAS  C:\Users\Geo\AppData\Local\Temp\cc0UCTwq.s 			page 33


 1033 0026 1344     		add	r3, r2, r3
 1034 0028 FB73     		strb	r3, [r7, #15]
 1035              	.L55:
 787:.\Generated_Source\PSoC5/CapSense_CSHL.c ****     
 788:.\Generated_Source\PSoC5/CapSense_CSHL.c ****     /* Enable all sensors of the widget */
 789:.\Generated_Source\PSoC5/CapSense_CSHL.c ****     do
 790:.\Generated_Source\PSoC5/CapSense_CSHL.c ****     {
 791:.\Generated_Source\PSoC5/CapSense_CSHL.c ****         pos = (rawIndex >> 3u);
 1036              		.loc 1 791 0
 1037 002a BB7B     		ldrb	r3, [r7, #14]	@ zero_extendqisi2
 1038 002c 4FEAD303 		lsr	r3, r3, #3
 1039 0030 3B73     		strb	r3, [r7, #12]
 792:.\Generated_Source\PSoC5/CapSense_CSHL.c ****         enMask = 0x01u << (rawIndex & 0x07u);
 1040              		.loc 1 792 0
 1041 0032 BB7B     		ldrb	r3, [r7, #14]	@ zero_extendqisi2
 1042 0034 03F00703 		and	r3, r3, #7
 1043 0038 4FF00102 		mov	r2, #1
 1044 003c 02FA03F3 		lsl	r3, r2, r3
 1045 0040 7B73     		strb	r3, [r7, #13]
 793:.\Generated_Source\PSoC5/CapSense_CSHL.c ****         
 794:.\Generated_Source\PSoC5/CapSense_CSHL.c ****         CapSense_SensorEnableMask[pos] |= enMask;
 1046              		.loc 1 794 0
 1047 0042 3A7B     		ldrb	r2, [r7, #12]	@ zero_extendqisi2
 1048 0044 397B     		ldrb	r1, [r7, #12]	@ zero_extendqisi2
 1049 0046 40F20003 		movw	r3, #:lower16:CapSense_SensorEnableMask
 1050 004a C0F20003 		movt	r3, #:upper16:CapSense_SensorEnableMask
 1051 004e 595C     		ldrb	r1, [r3, r1]	@ zero_extendqisi2
 1052 0050 7B7B     		ldrb	r3, [r7, #13]
 1053 0052 41EA0303 		orr	r3, r1, r3
 1054 0056 D9B2     		uxtb	r1, r3
 1055 0058 40F20003 		movw	r3, #:lower16:CapSense_SensorEnableMask
 1056 005c C0F20003 		movt	r3, #:upper16:CapSense_SensorEnableMask
 1057 0060 9954     		strb	r1, [r3, r2]
 795:.\Generated_Source\PSoC5/CapSense_CSHL.c ****         rawIndex++;
 1058              		.loc 1 795 0
 1059 0062 BB7B     		ldrb	r3, [r7, #14]
 1060 0064 03F10103 		add	r3, r3, #1
 1061 0068 BB73     		strb	r3, [r7, #14]
 796:.\Generated_Source\PSoC5/CapSense_CSHL.c ****     }
 797:.\Generated_Source\PSoC5/CapSense_CSHL.c ****     while(rawIndex < numberOfSensors);
 1062              		.loc 1 797 0
 1063 006a BA7B     		ldrb	r2, [r7, #14]	@ zero_extendqisi2
 1064 006c FB7B     		ldrb	r3, [r7, #15]	@ zero_extendqisi2
 1065 006e 9A42     		cmp	r2, r3
 1066 0070 DBD3     		bcc	.L55
 798:.\Generated_Source\PSoC5/CapSense_CSHL.c ****     
 799:.\Generated_Source\PSoC5/CapSense_CSHL.c **** 
 800:.\Generated_Source\PSoC5/CapSense_CSHL.c **** }
 1067              		.loc 1 800 0
 1068 0072 07F11407 		add	r7, r7, #20
 1069 0076 BD46     		mov	sp, r7
 1070 0078 80BC     		pop	{r7}
 1071 007a 7047     		bx	lr
 1072              		.cfi_endproc
 1073              	.LFE9:
 1074              		.size	CapSense_EnableWidget, .-CapSense_EnableWidget
 1075              		.section	.text.CapSense_DisableWidget,"ax",%progbits
ARM GAS  C:\Users\Geo\AppData\Local\Temp\cc0UCTwq.s 			page 34


 1076              		.align	2
 1077              		.global	CapSense_DisableWidget
 1078              		.thumb
 1079              		.thumb_func
 1080              		.type	CapSense_DisableWidget, %function
 1081              	CapSense_DisableWidget:
 1082              	.LFB10:
 801:.\Generated_Source\PSoC5/CapSense_CSHL.c **** 
 802:.\Generated_Source\PSoC5/CapSense_CSHL.c **** 
 803:.\Generated_Source\PSoC5/CapSense_CSHL.c **** /*******************************************************************************
 804:.\Generated_Source\PSoC5/CapSense_CSHL.c **** * Function Name: CapSense_DisableWidget
 805:.\Generated_Source\PSoC5/CapSense_CSHL.c **** ********************************************************************************
 806:.\Generated_Source\PSoC5/CapSense_CSHL.c **** *
 807:.\Generated_Source\PSoC5/CapSense_CSHL.c **** * Summary:
 808:.\Generated_Source\PSoC5/CapSense_CSHL.c **** *  Disable all widget elements (sensors) from scanning process.
 809:.\Generated_Source\PSoC5/CapSense_CSHL.c **** *
 810:.\Generated_Source\PSoC5/CapSense_CSHL.c **** * Parameters:
 811:.\Generated_Source\PSoC5/CapSense_CSHL.c **** *  widget:  widget number.
 812:.\Generated_Source\PSoC5/CapSense_CSHL.c **** *
 813:.\Generated_Source\PSoC5/CapSense_CSHL.c **** * Return:
 814:.\Generated_Source\PSoC5/CapSense_CSHL.c **** *  None
 815:.\Generated_Source\PSoC5/CapSense_CSHL.c **** *
 816:.\Generated_Source\PSoC5/CapSense_CSHL.c **** * Global Variables:
 817:.\Generated_Source\PSoC5/CapSense_CSHL.c **** *  CapSense_SensorEnableMask[] - used to store the sensor scanning 
 818:.\Generated_Source\PSoC5/CapSense_CSHL.c **** *  state.
 819:.\Generated_Source\PSoC5/CapSense_CSHL.c **** *  CapSense_SensorEnableMask[0] contains the masked bits for sensors 
 820:.\Generated_Source\PSoC5/CapSense_CSHL.c **** *  0 through 7 (sensor 0 is bit 0, sensor 1 is bit 1).
 821:.\Generated_Source\PSoC5/CapSense_CSHL.c **** *  CapSense_SensorEnableMask[1] contains the masked bits for 
 822:.\Generated_Source\PSoC5/CapSense_CSHL.c **** *  sensors 8 through 15 (if needed), and so on.
 823:.\Generated_Source\PSoC5/CapSense_CSHL.c **** *  0 - sensor doesn't scan by CapSense_ScanEnabledWidgets().
 824:.\Generated_Source\PSoC5/CapSense_CSHL.c **** *  1 - sensor scans by CapSense_ScanEnabledWidgets().
 825:.\Generated_Source\PSoC5/CapSense_CSHL.c **** *
 826:.\Generated_Source\PSoC5/CapSense_CSHL.c **** * Reentrant:
 827:.\Generated_Source\PSoC5/CapSense_CSHL.c **** *  No
 828:.\Generated_Source\PSoC5/CapSense_CSHL.c **** *
 829:.\Generated_Source\PSoC5/CapSense_CSHL.c **** *******************************************************************************/
 830:.\Generated_Source\PSoC5/CapSense_CSHL.c **** void CapSense_DisableWidget(uint8 widget)
 831:.\Generated_Source\PSoC5/CapSense_CSHL.c **** {
 1083              		.loc 1 831 0
 1084              		.cfi_startproc
 1085              		@ args = 0, pretend = 0, frame = 16
 1086              		@ frame_needed = 1, uses_anonymous_args = 0
 1087              		@ link register save eliminated.
 1088 0000 80B4     		push	{r7}
 1089              	.LCFI30:
 1090              		.cfi_def_cfa_offset 4
 1091 0002 85B0     		sub	sp, sp, #20
 1092              	.LCFI31:
 1093              		.cfi_def_cfa_offset 24
 1094 0004 00AF     		add	r7, sp, #0
 1095              		.cfi_offset 7, -4
 1096              	.LCFI32:
 1097              		.cfi_def_cfa_register 7
 1098 0006 0346     		mov	r3, r0
 1099 0008 FB71     		strb	r3, [r7, #7]
 832:.\Generated_Source\PSoC5/CapSense_CSHL.c ****     uint8 pos;
 833:.\Generated_Source\PSoC5/CapSense_CSHL.c ****     uint8 enMask;
ARM GAS  C:\Users\Geo\AppData\Local\Temp\cc0UCTwq.s 			page 35


 834:.\Generated_Source\PSoC5/CapSense_CSHL.c ****     uint8 rawIndex = CapSense_rawDataIndex[widget];
 1100              		.loc 1 834 0
 1101 000a FA79     		ldrb	r2, [r7, #7]	@ zero_extendqisi2
 1102 000c 40F20003 		movw	r3, #:lower16:CapSense_rawDataIndex
 1103 0010 C0F20003 		movt	r3, #:upper16:CapSense_rawDataIndex
 1104 0014 9B5C     		ldrb	r3, [r3, r2]
 1105 0016 BB73     		strb	r3, [r7, #14]
 835:.\Generated_Source\PSoC5/CapSense_CSHL.c ****     uint8 numberOfSensors = CapSense_numberOfSensors[widget] + rawIndex;
 1106              		.loc 1 835 0
 1107 0018 FA79     		ldrb	r2, [r7, #7]	@ zero_extendqisi2
 1108 001a 40F20003 		movw	r3, #:lower16:CapSense_numberOfSensors
 1109 001e C0F20003 		movt	r3, #:upper16:CapSense_numberOfSensors
 1110 0022 9A5C     		ldrb	r2, [r3, r2]	@ zero_extendqisi2
 1111 0024 BB7B     		ldrb	r3, [r7, #14]
 1112 0026 1344     		add	r3, r2, r3
 1113 0028 FB73     		strb	r3, [r7, #15]
 1114              	.L58:
 836:.\Generated_Source\PSoC5/CapSense_CSHL.c ****    
 837:.\Generated_Source\PSoC5/CapSense_CSHL.c ****     /* Disable all sensors of the widget */
 838:.\Generated_Source\PSoC5/CapSense_CSHL.c ****     do
 839:.\Generated_Source\PSoC5/CapSense_CSHL.c ****     {
 840:.\Generated_Source\PSoC5/CapSense_CSHL.c ****         pos = (rawIndex >> 3u);
 1115              		.loc 1 840 0
 1116 002a BB7B     		ldrb	r3, [r7, #14]	@ zero_extendqisi2
 1117 002c 4FEAD303 		lsr	r3, r3, #3
 1118 0030 3B73     		strb	r3, [r7, #12]
 841:.\Generated_Source\PSoC5/CapSense_CSHL.c ****         enMask = 0x01u << (rawIndex & 0x07u);
 1119              		.loc 1 841 0
 1120 0032 BB7B     		ldrb	r3, [r7, #14]	@ zero_extendqisi2
 1121 0034 03F00703 		and	r3, r3, #7
 1122 0038 4FF00102 		mov	r2, #1
 1123 003c 02FA03F3 		lsl	r3, r2, r3
 1124 0040 7B73     		strb	r3, [r7, #13]
 842:.\Generated_Source\PSoC5/CapSense_CSHL.c ****         
 843:.\Generated_Source\PSoC5/CapSense_CSHL.c ****         CapSense_SensorEnableMask[pos] &= ~enMask;
 1125              		.loc 1 843 0
 1126 0042 3A7B     		ldrb	r2, [r7, #12]	@ zero_extendqisi2
 1127 0044 397B     		ldrb	r1, [r7, #12]	@ zero_extendqisi2
 1128 0046 40F20003 		movw	r3, #:lower16:CapSense_SensorEnableMask
 1129 004a C0F20003 		movt	r3, #:upper16:CapSense_SensorEnableMask
 1130 004e 5B5C     		ldrb	r3, [r3, r1]	@ zero_extendqisi2
 1131 0050 1946     		mov	r1, r3
 1132 0052 7B7B     		ldrb	r3, [r7, #13]	@ zero_extendqisi2
 1133 0054 6FEA0303 		mvn	r3, r3
 1134 0058 DBB2     		uxtb	r3, r3
 1135 005a 01EA0303 		and	r3, r1, r3
 1136 005e DBB2     		uxtb	r3, r3
 1137 0060 D9B2     		uxtb	r1, r3
 1138 0062 40F20003 		movw	r3, #:lower16:CapSense_SensorEnableMask
 1139 0066 C0F20003 		movt	r3, #:upper16:CapSense_SensorEnableMask
 1140 006a 9954     		strb	r1, [r3, r2]
 844:.\Generated_Source\PSoC5/CapSense_CSHL.c ****         rawIndex++;
 1141              		.loc 1 844 0
 1142 006c BB7B     		ldrb	r3, [r7, #14]
 1143 006e 03F10103 		add	r3, r3, #1
 1144 0072 BB73     		strb	r3, [r7, #14]
 845:.\Generated_Source\PSoC5/CapSense_CSHL.c ****     }
ARM GAS  C:\Users\Geo\AppData\Local\Temp\cc0UCTwq.s 			page 36


 846:.\Generated_Source\PSoC5/CapSense_CSHL.c ****     while(rawIndex < numberOfSensors);
 1145              		.loc 1 846 0
 1146 0074 BA7B     		ldrb	r2, [r7, #14]	@ zero_extendqisi2
 1147 0076 FB7B     		ldrb	r3, [r7, #15]	@ zero_extendqisi2
 1148 0078 9A42     		cmp	r2, r3
 1149 007a D6D3     		bcc	.L58
 847:.\Generated_Source\PSoC5/CapSense_CSHL.c ****     
 848:.\Generated_Source\PSoC5/CapSense_CSHL.c **** 
 849:.\Generated_Source\PSoC5/CapSense_CSHL.c **** }
 1150              		.loc 1 849 0
 1151 007c 07F11407 		add	r7, r7, #20
 1152 0080 BD46     		mov	sp, r7
 1153 0082 80BC     		pop	{r7}
 1154 0084 7047     		bx	lr
 1155              		.cfi_endproc
 1156              	.LFE10:
 1157              		.size	CapSense_DisableWidget, .-CapSense_DisableWidget
 1158 0086 00BF     		.section	.text.CapSense_IIR4Filter,"ax",%progbits
 1159              		.align	2
 1160              		.global	CapSense_IIR4Filter
 1161              		.thumb
 1162              		.thumb_func
 1163              		.type	CapSense_IIR4Filter, %function
 1164              	CapSense_IIR4Filter:
 1165              	.LFB11:
 850:.\Generated_Source\PSoC5/CapSense_CSHL.c **** #if(CapSense_TOTAL_CENTROIDS_COUNT)
 851:.\Generated_Source\PSoC5/CapSense_CSHL.c ****     /*******************************************************************************
 852:.\Generated_Source\PSoC5/CapSense_CSHL.c ****     * Function Name: CapSense_FindMaximum
 853:.\Generated_Source\PSoC5/CapSense_CSHL.c ****     ********************************************************************************
 854:.\Generated_Source\PSoC5/CapSense_CSHL.c ****     *
 855:.\Generated_Source\PSoC5/CapSense_CSHL.c ****     * Summary:
 856:.\Generated_Source\PSoC5/CapSense_CSHL.c ****     *  Finds index of maximum element within defined centroid. Checks 
 857:.\Generated_Source\PSoC5/CapSense_CSHL.c ****     *  CapSense_SensorSignal[] within defined cenrtoid and 
 858:.\Generated_Source\PSoC5/CapSense_CSHL.c ****     *  returns index of maximum element. The values below finger threshold are 
 859:.\Generated_Source\PSoC5/CapSense_CSHL.c ****     *  ignored.
 860:.\Generated_Source\PSoC5/CapSense_CSHL.c ****     *  The centrod defines by offset of first element and number of elements - count.
 861:.\Generated_Source\PSoC5/CapSense_CSHL.c ****     *  The diplexed centroid requires at least consecutive two elements above
 862:.\Generated_Source\PSoC5/CapSense_CSHL.c ****     *  FingerThreshold to find index of maximum element.
 863:.\Generated_Source\PSoC5/CapSense_CSHL.c ****     * 
 864:.\Generated_Source\PSoC5/CapSense_CSHL.c ****     * Parameters:
 865:.\Generated_Source\PSoC5/CapSense_CSHL.c ****     *  offset:  Start index of cetroid in CapSense_SensorSignal[] array.
 866:.\Generated_Source\PSoC5/CapSense_CSHL.c ****     *  count:   number of elements within centroid.
 867:.\Generated_Source\PSoC5/CapSense_CSHL.c ****     *  fingerThreshold:  Finger threshould.
 868:.\Generated_Source\PSoC5/CapSense_CSHL.c ****     *  diplex:   pointer to diplex table.
 869:.\Generated_Source\PSoC5/CapSense_CSHL.c ****     * 
 870:.\Generated_Source\PSoC5/CapSense_CSHL.c ****     * Return:
 871:.\Generated_Source\PSoC5/CapSense_CSHL.c ****     *  Returns index of maximum element within defined centroid.
 872:.\Generated_Source\PSoC5/CapSense_CSHL.c ****     *  If index of maximum element doesn't find the 0xFF returns.
 873:.\Generated_Source\PSoC5/CapSense_CSHL.c ****     * 
 874:.\Generated_Source\PSoC5/CapSense_CSHL.c ****     *******************************************************************************/
 875:.\Generated_Source\PSoC5/CapSense_CSHL.c ****     #if (CapSense_IS_DIPLEX_SLIDER)
 876:.\Generated_Source\PSoC5/CapSense_CSHL.c ****         uint8 CapSense_FindMaximum(uint8 offset, uint8 count, uint8 fingerThreshold, const uint8 CY
 877:.\Generated_Source\PSoC5/CapSense_CSHL.c ****     #else 
 878:.\Generated_Source\PSoC5/CapSense_CSHL.c ****         uint8 CapSense_FindMaximum(uint8 offset, uint8 count, uint8 fingerThreshold)
 879:.\Generated_Source\PSoC5/CapSense_CSHL.c ****     #endif
 880:.\Generated_Source\PSoC5/CapSense_CSHL.c ****     {
 881:.\Generated_Source\PSoC5/CapSense_CSHL.c ****         uint8 i;
ARM GAS  C:\Users\Geo\AppData\Local\Temp\cc0UCTwq.s 			page 37


 882:.\Generated_Source\PSoC5/CapSense_CSHL.c ****         #if (CapSense_IS_DIPLEX_SLIDER)        
 883:.\Generated_Source\PSoC5/CapSense_CSHL.c ****             uint8 curPos = 0u;
 884:.\Generated_Source\PSoC5/CapSense_CSHL.c ****             /* No centroid at the Start */
 885:.\Generated_Source\PSoC5/CapSense_CSHL.c ****             uint8 curCntrdSize = 0u;
 886:.\Generated_Source\PSoC5/CapSense_CSHL.c ****             uint8 curCtrdStartPos = 0xFFu;
 887:.\Generated_Source\PSoC5/CapSense_CSHL.c ****             /* The biggset centroid is zero */
 888:.\Generated_Source\PSoC5/CapSense_CSHL.c ****             uint8 biggestCtrdSize = 0u;
 889:.\Generated_Source\PSoC5/CapSense_CSHL.c ****             uint8 biggestCtrdStartPos = 0u;
 890:.\Generated_Source\PSoC5/CapSense_CSHL.c ****         #endif
 891:.\Generated_Source\PSoC5/CapSense_CSHL.c ****         uint8 maximum = 0xFFu;
 892:.\Generated_Source\PSoC5/CapSense_CSHL.c ****         uint8 temp = 0u;
 893:.\Generated_Source\PSoC5/CapSense_CSHL.c ****         uint8 *startOfSlider = &CapSense_SensorSignal[offset]; 
 894:.\Generated_Source\PSoC5/CapSense_CSHL.c **** 
 895:.\Generated_Source\PSoC5/CapSense_CSHL.c ****         #if (CapSense_IS_DIPLEX_SLIDER)        
 896:.\Generated_Source\PSoC5/CapSense_CSHL.c ****             if(diplex != 0u)
 897:.\Generated_Source\PSoC5/CapSense_CSHL.c ****             {
 898:.\Generated_Source\PSoC5/CapSense_CSHL.c ****                 /* Initialize */
 899:.\Generated_Source\PSoC5/CapSense_CSHL.c ****                 i = 0u;
 900:.\Generated_Source\PSoC5/CapSense_CSHL.c ****                 
 901:.\Generated_Source\PSoC5/CapSense_CSHL.c ****                 /* Make slider x2 as Diplexed */
 902:.\Generated_Source\PSoC5/CapSense_CSHL.c ****                 count <<= 1u;
 903:.\Generated_Source\PSoC5/CapSense_CSHL.c ****                 while(1u)
 904:.\Generated_Source\PSoC5/CapSense_CSHL.c ****                 { 
 905:.\Generated_Source\PSoC5/CapSense_CSHL.c ****                     if (startOfSlider[curPos] > 0u)    /* Looking for centroids */
 906:.\Generated_Source\PSoC5/CapSense_CSHL.c ****                     {
 907:.\Generated_Source\PSoC5/CapSense_CSHL.c ****                         if (curCtrdStartPos == 0xFFu)
 908:.\Generated_Source\PSoC5/CapSense_CSHL.c ****                         {
 909:.\Generated_Source\PSoC5/CapSense_CSHL.c ****                             /* Start of centroid */
 910:.\Generated_Source\PSoC5/CapSense_CSHL.c ****                             curCtrdStartPos = i;
 911:.\Generated_Source\PSoC5/CapSense_CSHL.c ****                             curCntrdSize++;
 912:.\Generated_Source\PSoC5/CapSense_CSHL.c ****                         }
 913:.\Generated_Source\PSoC5/CapSense_CSHL.c ****                         else
 914:.\Generated_Source\PSoC5/CapSense_CSHL.c ****                         {
 915:.\Generated_Source\PSoC5/CapSense_CSHL.c ****                             curCntrdSize++;
 916:.\Generated_Source\PSoC5/CapSense_CSHL.c ****                         }
 917:.\Generated_Source\PSoC5/CapSense_CSHL.c ****                     }
 918:.\Generated_Source\PSoC5/CapSense_CSHL.c ****                     else   /* Select the bigest and indicate zero start */
 919:.\Generated_Source\PSoC5/CapSense_CSHL.c ****                     {          
 920:.\Generated_Source\PSoC5/CapSense_CSHL.c ****                         if(curCntrdSize > 0)
 921:.\Generated_Source\PSoC5/CapSense_CSHL.c ****                         {
 922:.\Generated_Source\PSoC5/CapSense_CSHL.c ****                             /* We are in the end of current */
 923:.\Generated_Source\PSoC5/CapSense_CSHL.c ****                             if(curCntrdSize > biggestCtrdSize)
 924:.\Generated_Source\PSoC5/CapSense_CSHL.c ****                             {
 925:.\Generated_Source\PSoC5/CapSense_CSHL.c ****                                 biggestCtrdSize = curCntrdSize;
 926:.\Generated_Source\PSoC5/CapSense_CSHL.c ****                                 biggestCtrdStartPos = curCtrdStartPos;
 927:.\Generated_Source\PSoC5/CapSense_CSHL.c ****                             }
 928:.\Generated_Source\PSoC5/CapSense_CSHL.c ****                             
 929:.\Generated_Source\PSoC5/CapSense_CSHL.c ****                             curCntrdSize = 0u;
 930:.\Generated_Source\PSoC5/CapSense_CSHL.c ****                             curCtrdStartPos = 0xFFu;
 931:.\Generated_Source\PSoC5/CapSense_CSHL.c ****                         }
 932:.\Generated_Source\PSoC5/CapSense_CSHL.c ****                     }
 933:.\Generated_Source\PSoC5/CapSense_CSHL.c ****                     
 934:.\Generated_Source\PSoC5/CapSense_CSHL.c ****                     i++; 
 935:.\Generated_Source\PSoC5/CapSense_CSHL.c ****                     curPos = diplex[i];
 936:.\Generated_Source\PSoC5/CapSense_CSHL.c ****                     if(i == count)
 937:.\Generated_Source\PSoC5/CapSense_CSHL.c ****                     {
 938:.\Generated_Source\PSoC5/CapSense_CSHL.c ****                         break;
ARM GAS  C:\Users\Geo\AppData\Local\Temp\cc0UCTwq.s 			page 38


 939:.\Generated_Source\PSoC5/CapSense_CSHL.c ****                     }            
 940:.\Generated_Source\PSoC5/CapSense_CSHL.c ****                 }
 941:.\Generated_Source\PSoC5/CapSense_CSHL.c ****                     
 942:.\Generated_Source\PSoC5/CapSense_CSHL.c ****                     /* Find the biggest centroid if two are the same size, last one wins
 943:.\Generated_Source\PSoC5/CapSense_CSHL.c ****                        We are in the end of current */
 944:.\Generated_Source\PSoC5/CapSense_CSHL.c ****                 if (curCntrdSize >= biggestCtrdSize) 
 945:.\Generated_Source\PSoC5/CapSense_CSHL.c ****                 {
 946:.\Generated_Source\PSoC5/CapSense_CSHL.c ****                     biggestCtrdSize = curCntrdSize;
 947:.\Generated_Source\PSoC5/CapSense_CSHL.c ****                     biggestCtrdStartPos = curCtrdStartPos;
 948:.\Generated_Source\PSoC5/CapSense_CSHL.c ****                 }
 949:.\Generated_Source\PSoC5/CapSense_CSHL.c ****             }
 950:.\Generated_Source\PSoC5/CapSense_CSHL.c ****             else
 951:.\Generated_Source\PSoC5/CapSense_CSHL.c ****             {
 952:.\Generated_Source\PSoC5/CapSense_CSHL.c ****                 /* Without diplexing */ 
 953:.\Generated_Source\PSoC5/CapSense_CSHL.c ****                 biggestCtrdSize = count;
 954:.\Generated_Source\PSoC5/CapSense_CSHL.c ****             }
 955:.\Generated_Source\PSoC5/CapSense_CSHL.c ****                         
 956:.\Generated_Source\PSoC5/CapSense_CSHL.c **** 
 957:.\Generated_Source\PSoC5/CapSense_CSHL.c ****             /* Check centroid size */
 958:.\Generated_Source\PSoC5/CapSense_CSHL.c ****             #if (CapSense_IS_NON_DIPLEX_SLIDER)
 959:.\Generated_Source\PSoC5/CapSense_CSHL.c ****                 if((biggestCtrdSize >= 2u) || ((biggestCtrdSize == 1u) && (diplex == 0u)))
 960:.\Generated_Source\PSoC5/CapSense_CSHL.c ****             #else                    
 961:.\Generated_Source\PSoC5/CapSense_CSHL.c ****                 if(biggestCtrdSize >= 2u)
 962:.\Generated_Source\PSoC5/CapSense_CSHL.c ****             #endif
 963:.\Generated_Source\PSoC5/CapSense_CSHL.c ****                 {
 964:.\Generated_Source\PSoC5/CapSense_CSHL.c ****                     for (i = biggestCtrdStartPos; i < (biggestCtrdStartPos + biggestCtrdSize); i++)
 965:.\Generated_Source\PSoC5/CapSense_CSHL.c ****                     {
 966:.\Generated_Source\PSoC5/CapSense_CSHL.c ****                         #if (CapSense_IS_DIPLEX_SLIDER && CapSense_IS_NON_DIPLEX_SLIDER)           
 967:.\Generated_Source\PSoC5/CapSense_CSHL.c ****                             if (diplex == 0u)
 968:.\Generated_Source\PSoC5/CapSense_CSHL.c ****                             {
 969:.\Generated_Source\PSoC5/CapSense_CSHL.c ****                                 curPos = i;
 970:.\Generated_Source\PSoC5/CapSense_CSHL.c ****                             }
 971:.\Generated_Source\PSoC5/CapSense_CSHL.c ****                             else
 972:.\Generated_Source\PSoC5/CapSense_CSHL.c ****                             {
 973:.\Generated_Source\PSoC5/CapSense_CSHL.c ****                                 curPos = diplex[i];
 974:.\Generated_Source\PSoC5/CapSense_CSHL.c ****                             }                    
 975:.\Generated_Source\PSoC5/CapSense_CSHL.c ****                         #elif (CapSense_IS_DIPLEX_SLIDER)                    
 976:.\Generated_Source\PSoC5/CapSense_CSHL.c ****                             curPos = diplex[i];                    
 977:.\Generated_Source\PSoC5/CapSense_CSHL.c ****                         #endif
 978:.\Generated_Source\PSoC5/CapSense_CSHL.c ****                         /* Looking for the grater element within centroid */
 979:.\Generated_Source\PSoC5/CapSense_CSHL.c ****                         if(startOfSlider[curPos] > fingerThreshold)
 980:.\Generated_Source\PSoC5/CapSense_CSHL.c ****                         {
 981:.\Generated_Source\PSoC5/CapSense_CSHL.c ****                             if(startOfSlider[curPos] > temp)
 982:.\Generated_Source\PSoC5/CapSense_CSHL.c ****                             {
 983:.\Generated_Source\PSoC5/CapSense_CSHL.c ****                                 maximum = i;
 984:.\Generated_Source\PSoC5/CapSense_CSHL.c ****                                 temp = startOfSlider[curPos];
 985:.\Generated_Source\PSoC5/CapSense_CSHL.c ****                             }
 986:.\Generated_Source\PSoC5/CapSense_CSHL.c ****                         }
 987:.\Generated_Source\PSoC5/CapSense_CSHL.c ****                     }
 988:.\Generated_Source\PSoC5/CapSense_CSHL.c ****                 } 
 989:.\Generated_Source\PSoC5/CapSense_CSHL.c ****         #else
 990:.\Generated_Source\PSoC5/CapSense_CSHL.c ****             for (i = 0u; i < count; i++)
 991:.\Generated_Source\PSoC5/CapSense_CSHL.c ****             {                      
 992:.\Generated_Source\PSoC5/CapSense_CSHL.c ****                 /* Looking for the grater element within centroid */
 993:.\Generated_Source\PSoC5/CapSense_CSHL.c ****                 if(startOfSlider[i] > fingerThreshold)
 994:.\Generated_Source\PSoC5/CapSense_CSHL.c ****                 {
 995:.\Generated_Source\PSoC5/CapSense_CSHL.c ****                     if(startOfSlider[i] > temp)
ARM GAS  C:\Users\Geo\AppData\Local\Temp\cc0UCTwq.s 			page 39


 996:.\Generated_Source\PSoC5/CapSense_CSHL.c ****                     {
 997:.\Generated_Source\PSoC5/CapSense_CSHL.c ****                         maximum = i;
 998:.\Generated_Source\PSoC5/CapSense_CSHL.c ****                         temp = startOfSlider[i];
 999:.\Generated_Source\PSoC5/CapSense_CSHL.c ****                     }
1000:.\Generated_Source\PSoC5/CapSense_CSHL.c ****                 }
1001:.\Generated_Source\PSoC5/CapSense_CSHL.c ****             }    
1002:.\Generated_Source\PSoC5/CapSense_CSHL.c ****         #endif
1003:.\Generated_Source\PSoC5/CapSense_CSHL.c ****         return (maximum);
1004:.\Generated_Source\PSoC5/CapSense_CSHL.c ****     }
1005:.\Generated_Source\PSoC5/CapSense_CSHL.c ****     
1006:.\Generated_Source\PSoC5/CapSense_CSHL.c ****     
1007:.\Generated_Source\PSoC5/CapSense_CSHL.c ****     /*******************************************************************************
1008:.\Generated_Source\PSoC5/CapSense_CSHL.c ****     * Function Name: CapSense_CalcCentroid
1009:.\Generated_Source\PSoC5/CapSense_CSHL.c ****     ********************************************************************************
1010:.\Generated_Source\PSoC5/CapSense_CSHL.c ****     *
1011:.\Generated_Source\PSoC5/CapSense_CSHL.c ****     * Summary:
1012:.\Generated_Source\PSoC5/CapSense_CSHL.c ****     *  Returns position value calculated accoring index of maximum element and API
1013:.\Generated_Source\PSoC5/CapSense_CSHL.c ****     *  resolution.
1014:.\Generated_Source\PSoC5/CapSense_CSHL.c ****     *
1015:.\Generated_Source\PSoC5/CapSense_CSHL.c ****     * Parameters:
1016:.\Generated_Source\PSoC5/CapSense_CSHL.c ****     *  type:  widget type.
1017:.\Generated_Source\PSoC5/CapSense_CSHL.c ****     *  diplex:  pointer to diplex table.
1018:.\Generated_Source\PSoC5/CapSense_CSHL.c ****     *  maximum:  Index of maximum element within centroid.
1019:.\Generated_Source\PSoC5/CapSense_CSHL.c ****     *  offset:   Start index of cetroid in CapSense_SensorSignal[] array.
1020:.\Generated_Source\PSoC5/CapSense_CSHL.c ****     *  count:    Number of elements within centroid.
1021:.\Generated_Source\PSoC5/CapSense_CSHL.c ****     *  resolution:  multiplicator calculated according to centroid type and
1022:.\Generated_Source\PSoC5/CapSense_CSHL.c ****     *  API resolution.
1023:.\Generated_Source\PSoC5/CapSense_CSHL.c ****     *  noiseThreshold:  Noise threshould.
1024:.\Generated_Source\PSoC5/CapSense_CSHL.c ****     * 
1025:.\Generated_Source\PSoC5/CapSense_CSHL.c ****     * Return:
1026:.\Generated_Source\PSoC5/CapSense_CSHL.c ****     *  Returns position value of the slider.
1027:.\Generated_Source\PSoC5/CapSense_CSHL.c ****     * 
1028:.\Generated_Source\PSoC5/CapSense_CSHL.c ****     *
1029:.\Generated_Source\PSoC5/CapSense_CSHL.c ****     * Reentrant:
1030:.\Generated_Source\PSoC5/CapSense_CSHL.c ****     *  No.
1031:.\Generated_Source\PSoC5/CapSense_CSHL.c ****     *
1032:.\Generated_Source\PSoC5/CapSense_CSHL.c ****     *******************************************************************************/
1033:.\Generated_Source\PSoC5/CapSense_CSHL.c ****     uint8 CapSense_CalcCentroid(uint8 maximum, uint8 offset, uint8 count, uint16 resolution, uint8 
1034:.\Generated_Source\PSoC5/CapSense_CSHL.c ****     {
1035:.\Generated_Source\PSoC5/CapSense_CSHL.c ****         #if ((CapSense_TOTAL_LINEAR_SLIDERS_COUNT > 0u) || (CapSense_TOTAL_TOUCH_PADS_COUNT > 0u)) 
1036:.\Generated_Source\PSoC5/CapSense_CSHL.c ****             uint8 posPrev;
1037:.\Generated_Source\PSoC5/CapSense_CSHL.c ****             uint8 posNext;
1038:.\Generated_Source\PSoC5/CapSense_CSHL.c ****         #endif
1039:.\Generated_Source\PSoC5/CapSense_CSHL.c ****                
1040:.\Generated_Source\PSoC5/CapSense_CSHL.c ****         #if (CapSense_IS_DIPLEX_SLIDER)                
1041:.\Generated_Source\PSoC5/CapSense_CSHL.c ****             uint8 pos;
1042:.\Generated_Source\PSoC5/CapSense_CSHL.c ****         #endif
1043:.\Generated_Source\PSoC5/CapSense_CSHL.c **** 
1044:.\Generated_Source\PSoC5/CapSense_CSHL.c ****         uint8 position;
1045:.\Generated_Source\PSoC5/CapSense_CSHL.c ****         int32 numerator;
1046:.\Generated_Source\PSoC5/CapSense_CSHL.c ****         int32 denominator;
1047:.\Generated_Source\PSoC5/CapSense_CSHL.c ****         uint8 *startOfSlider = &CapSense_SensorSignal[offset];
1048:.\Generated_Source\PSoC5/CapSense_CSHL.c ****                     
1049:.\Generated_Source\PSoC5/CapSense_CSHL.c ****         #if (CapSense_ADD_SLIDER_TYPE)
1050:.\Generated_Source\PSoC5/CapSense_CSHL.c ****             if(type == CapSense_TYPE_RADIAL_SLIDER)
1051:.\Generated_Source\PSoC5/CapSense_CSHL.c ****             {
1052:.\Generated_Source\PSoC5/CapSense_CSHL.c ****         #endif
ARM GAS  C:\Users\Geo\AppData\Local\Temp\cc0UCTwq.s 			page 40


1053:.\Generated_Source\PSoC5/CapSense_CSHL.c **** 
1054:.\Generated_Source\PSoC5/CapSense_CSHL.c ****             #if (CapSense_TOTAL_RADIAL_SLIDERS_COUNT > 0u)                
1055:.\Generated_Source\PSoC5/CapSense_CSHL.c ****                 /* Copy Signal for found centriod */
1056:.\Generated_Source\PSoC5/CapSense_CSHL.c ****                 CapSense_centroid[CapSense_POS] = startOfSlider[maximum];
1057:.\Generated_Source\PSoC5/CapSense_CSHL.c ****                  
1058:.\Generated_Source\PSoC5/CapSense_CSHL.c ****                 /* Check borders for ROTARY Slider */
1059:.\Generated_Source\PSoC5/CapSense_CSHL.c ****                 if (maximum == 0u)                   /* Start of centroid */
1060:.\Generated_Source\PSoC5/CapSense_CSHL.c ****                 { 
1061:.\Generated_Source\PSoC5/CapSense_CSHL.c ****                     CapSense_centroid[CapSense_POS_PREV] = startOfSlider[count - 1u];
1062:.\Generated_Source\PSoC5/CapSense_CSHL.c ****                     CapSense_centroid[CapSense_POS_NEXT] = startOfSlider[maximum + 1u];
1063:.\Generated_Source\PSoC5/CapSense_CSHL.c ****                 }
1064:.\Generated_Source\PSoC5/CapSense_CSHL.c ****                 else if (maximum == (count - 1u))    /* End of centroid */
1065:.\Generated_Source\PSoC5/CapSense_CSHL.c ****                 {
1066:.\Generated_Source\PSoC5/CapSense_CSHL.c ****                     CapSense_centroid[CapSense_POS_PREV] = startOfSlider[maximum - 1u];
1067:.\Generated_Source\PSoC5/CapSense_CSHL.c ****                     CapSense_centroid[CapSense_POS_NEXT] = startOfSlider[0u];
1068:.\Generated_Source\PSoC5/CapSense_CSHL.c ****                 }
1069:.\Generated_Source\PSoC5/CapSense_CSHL.c ****                 else                                /* Not first Not last */
1070:.\Generated_Source\PSoC5/CapSense_CSHL.c ****                 {
1071:.\Generated_Source\PSoC5/CapSense_CSHL.c ****                     CapSense_centroid[CapSense_POS_PREV] = startOfSlider[maximum - 1u];
1072:.\Generated_Source\PSoC5/CapSense_CSHL.c ****                     CapSense_centroid[CapSense_POS_NEXT] = startOfSlider[maximum + 1u];
1073:.\Generated_Source\PSoC5/CapSense_CSHL.c ****                 }
1074:.\Generated_Source\PSoC5/CapSense_CSHL.c ****             #endif
1075:.\Generated_Source\PSoC5/CapSense_CSHL.c **** 
1076:.\Generated_Source\PSoC5/CapSense_CSHL.c ****         #if (CapSense_ADD_SLIDER_TYPE)
1077:.\Generated_Source\PSoC5/CapSense_CSHL.c ****             }
1078:.\Generated_Source\PSoC5/CapSense_CSHL.c ****             else
1079:.\Generated_Source\PSoC5/CapSense_CSHL.c ****             {
1080:.\Generated_Source\PSoC5/CapSense_CSHL.c ****         #endif
1081:.\Generated_Source\PSoC5/CapSense_CSHL.c **** 
1082:.\Generated_Source\PSoC5/CapSense_CSHL.c ****             #if ((CapSense_TOTAL_LINEAR_SLIDERS_COUNT > 0u) || (CapSense_TOTAL_TOUCH_PADS_COUNT > 0
1083:.\Generated_Source\PSoC5/CapSense_CSHL.c ****                 #if (CapSense_IS_DIPLEX_SLIDER && CapSense_IS_NON_DIPLEX_SLIDER)                   
1084:.\Generated_Source\PSoC5/CapSense_CSHL.c ****                     /* Calculate next and previous near to maximum */
1085:.\Generated_Source\PSoC5/CapSense_CSHL.c ****                     if(diplex == 0u)
1086:.\Generated_Source\PSoC5/CapSense_CSHL.c ****                     {
1087:.\Generated_Source\PSoC5/CapSense_CSHL.c ****                         pos     = maximum;
1088:.\Generated_Source\PSoC5/CapSense_CSHL.c ****                         posPrev = maximum - 1u;
1089:.\Generated_Source\PSoC5/CapSense_CSHL.c ****                         posNext = maximum + 1u; 
1090:.\Generated_Source\PSoC5/CapSense_CSHL.c ****                     }
1091:.\Generated_Source\PSoC5/CapSense_CSHL.c ****                     else
1092:.\Generated_Source\PSoC5/CapSense_CSHL.c ****                     {
1093:.\Generated_Source\PSoC5/CapSense_CSHL.c ****                         pos     = diplex[maximum];
1094:.\Generated_Source\PSoC5/CapSense_CSHL.c ****                         posPrev = diplex[maximum - 1u];
1095:.\Generated_Source\PSoC5/CapSense_CSHL.c ****                         posNext = diplex[maximum + 1u];
1096:.\Generated_Source\PSoC5/CapSense_CSHL.c ****                         count <<= 1u;
1097:.\Generated_Source\PSoC5/CapSense_CSHL.c ****                     }                    
1098:.\Generated_Source\PSoC5/CapSense_CSHL.c ****                 #elif (CapSense_IS_DIPLEX_SLIDER)
1099:.\Generated_Source\PSoC5/CapSense_CSHL.c ****                     /* Calculate next and previous near to maximum */
1100:.\Generated_Source\PSoC5/CapSense_CSHL.c ****                     pos     = diplex[maximum];
1101:.\Generated_Source\PSoC5/CapSense_CSHL.c ****                     posPrev = diplex[maximum - 1u];
1102:.\Generated_Source\PSoC5/CapSense_CSHL.c ****                     posNext = diplex[maximum + 1u];
1103:.\Generated_Source\PSoC5/CapSense_CSHL.c ****                     count <<= 1u;                    
1104:.\Generated_Source\PSoC5/CapSense_CSHL.c ****                 #else                    
1105:.\Generated_Source\PSoC5/CapSense_CSHL.c ****                     /* Calculate next and previous near to maximum */
1106:.\Generated_Source\PSoC5/CapSense_CSHL.c ****                     posPrev = maximum - 1u;
1107:.\Generated_Source\PSoC5/CapSense_CSHL.c ****                     posNext = maximum + 1u; 
1108:.\Generated_Source\PSoC5/CapSense_CSHL.c ****                 #endif
1109:.\Generated_Source\PSoC5/CapSense_CSHL.c ****                         
ARM GAS  C:\Users\Geo\AppData\Local\Temp\cc0UCTwq.s 			page 41


1110:.\Generated_Source\PSoC5/CapSense_CSHL.c ****                 /* Copy Signal for found centriod */
1111:.\Generated_Source\PSoC5/CapSense_CSHL.c ****                 #if (CapSense_IS_DIPLEX_SLIDER)
1112:.\Generated_Source\PSoC5/CapSense_CSHL.c ****                     CapSense_centroid[CapSense_POS] = startOfSlider[pos];
1113:.\Generated_Source\PSoC5/CapSense_CSHL.c ****                 #else
1114:.\Generated_Source\PSoC5/CapSense_CSHL.c ****                     CapSense_centroid[CapSense_POS] = startOfSlider[maximum];
1115:.\Generated_Source\PSoC5/CapSense_CSHL.c ****                 #endif
1116:.\Generated_Source\PSoC5/CapSense_CSHL.c ****                     
1117:.\Generated_Source\PSoC5/CapSense_CSHL.c ****                 /* Check borders for LINEAR Slider */
1118:.\Generated_Source\PSoC5/CapSense_CSHL.c ****                 if (maximum == 0u)                   /* Start of centroid */
1119:.\Generated_Source\PSoC5/CapSense_CSHL.c ****                 { 
1120:.\Generated_Source\PSoC5/CapSense_CSHL.c ****                     CapSense_centroid[CapSense_POS_PREV] = 0u;
1121:.\Generated_Source\PSoC5/CapSense_CSHL.c ****                     CapSense_centroid[CapSense_POS_NEXT] = startOfSlider[posNext];
1122:.\Generated_Source\PSoC5/CapSense_CSHL.c ****                 }
1123:.\Generated_Source\PSoC5/CapSense_CSHL.c ****                 else if (maximum == ((count) - 1u)) /* End of centroid */
1124:.\Generated_Source\PSoC5/CapSense_CSHL.c ****                 {
1125:.\Generated_Source\PSoC5/CapSense_CSHL.c ****                     CapSense_centroid[CapSense_POS_PREV] = startOfSlider[posPrev];
1126:.\Generated_Source\PSoC5/CapSense_CSHL.c ****                     CapSense_centroid[CapSense_POS_NEXT] = 0u;
1127:.\Generated_Source\PSoC5/CapSense_CSHL.c ****                 }
1128:.\Generated_Source\PSoC5/CapSense_CSHL.c ****                 else                                /* Not first Not last */
1129:.\Generated_Source\PSoC5/CapSense_CSHL.c ****                 {
1130:.\Generated_Source\PSoC5/CapSense_CSHL.c ****                     CapSense_centroid[CapSense_POS_PREV] = startOfSlider[posPrev];
1131:.\Generated_Source\PSoC5/CapSense_CSHL.c ****                     CapSense_centroid[CapSense_POS_NEXT] = startOfSlider[posNext];
1132:.\Generated_Source\PSoC5/CapSense_CSHL.c ****                 }
1133:.\Generated_Source\PSoC5/CapSense_CSHL.c ****             #endif
1134:.\Generated_Source\PSoC5/CapSense_CSHL.c **** 
1135:.\Generated_Source\PSoC5/CapSense_CSHL.c ****         #if (CapSense_ADD_SLIDER_TYPE)
1136:.\Generated_Source\PSoC5/CapSense_CSHL.c ****             }
1137:.\Generated_Source\PSoC5/CapSense_CSHL.c ****         #endif
1138:.\Generated_Source\PSoC5/CapSense_CSHL.c ****     
1139:.\Generated_Source\PSoC5/CapSense_CSHL.c ****         /* Subtract noiseThreshold */
1140:.\Generated_Source\PSoC5/CapSense_CSHL.c ****         if(CapSense_centroid[CapSense_POS_PREV] > noiseThreshold)
1141:.\Generated_Source\PSoC5/CapSense_CSHL.c ****         {
1142:.\Generated_Source\PSoC5/CapSense_CSHL.c ****             CapSense_centroid[CapSense_POS_PREV] -= noiseThreshold;
1143:.\Generated_Source\PSoC5/CapSense_CSHL.c ****         }
1144:.\Generated_Source\PSoC5/CapSense_CSHL.c ****         else
1145:.\Generated_Source\PSoC5/CapSense_CSHL.c ****         {
1146:.\Generated_Source\PSoC5/CapSense_CSHL.c ****             CapSense_centroid[CapSense_POS_PREV] = 0u;
1147:.\Generated_Source\PSoC5/CapSense_CSHL.c ****         }
1148:.\Generated_Source\PSoC5/CapSense_CSHL.c ****         
1149:.\Generated_Source\PSoC5/CapSense_CSHL.c ****         /* Maximum always grater than fingerThreshold, so grate than noiseThreshold */
1150:.\Generated_Source\PSoC5/CapSense_CSHL.c ****         CapSense_centroid[CapSense_POS] -= noiseThreshold;
1151:.\Generated_Source\PSoC5/CapSense_CSHL.c ****         
1152:.\Generated_Source\PSoC5/CapSense_CSHL.c ****         /* Subtract noiseThreshold */
1153:.\Generated_Source\PSoC5/CapSense_CSHL.c ****         if(CapSense_centroid[CapSense_POS_NEXT] > noiseThreshold)
1154:.\Generated_Source\PSoC5/CapSense_CSHL.c ****         {
1155:.\Generated_Source\PSoC5/CapSense_CSHL.c ****             CapSense_centroid[CapSense_POS_NEXT] -= noiseThreshold;
1156:.\Generated_Source\PSoC5/CapSense_CSHL.c ****         }
1157:.\Generated_Source\PSoC5/CapSense_CSHL.c ****         else
1158:.\Generated_Source\PSoC5/CapSense_CSHL.c ****         {
1159:.\Generated_Source\PSoC5/CapSense_CSHL.c ****             CapSense_centroid[CapSense_POS_NEXT] = 0u;
1160:.\Generated_Source\PSoC5/CapSense_CSHL.c ****         }
1161:.\Generated_Source\PSoC5/CapSense_CSHL.c ****         
1162:.\Generated_Source\PSoC5/CapSense_CSHL.c ****         
1163:.\Generated_Source\PSoC5/CapSense_CSHL.c ****         /* Si+1 - Si-1 */
1164:.\Generated_Source\PSoC5/CapSense_CSHL.c ****         numerator = (int32) CapSense_centroid[CapSense_POS_NEXT] - 
1165:.\Generated_Source\PSoC5/CapSense_CSHL.c ****                     (int32) CapSense_centroid[CapSense_POS_PREV];
1166:.\Generated_Source\PSoC5/CapSense_CSHL.c ****         
ARM GAS  C:\Users\Geo\AppData\Local\Temp\cc0UCTwq.s 			page 42


1167:.\Generated_Source\PSoC5/CapSense_CSHL.c ****         /* Si+1 + Si + Si-1 */
1168:.\Generated_Source\PSoC5/CapSense_CSHL.c ****         denominator = (int32) CapSense_centroid[CapSense_POS_PREV] + 
1169:.\Generated_Source\PSoC5/CapSense_CSHL.c ****                       (int32) CapSense_centroid[CapSense_POS] + 
1170:.\Generated_Source\PSoC5/CapSense_CSHL.c ****                       (int32) CapSense_centroid[CapSense_POS_NEXT];
1171:.\Generated_Source\PSoC5/CapSense_CSHL.c ****         
1172:.\Generated_Source\PSoC5/CapSense_CSHL.c ****         /* (numerator/denominator) + maximum */
1173:.\Generated_Source\PSoC5/CapSense_CSHL.c ****         denominator = (numerator << 8u)/denominator + ((uint16) maximum << 8u);
1174:.\Generated_Source\PSoC5/CapSense_CSHL.c ****         
1175:.\Generated_Source\PSoC5/CapSense_CSHL.c ****         #if(CapSense_TOTAL_RADIAL_SLIDERS_COUNT > 0u)
1176:.\Generated_Source\PSoC5/CapSense_CSHL.c ****             /* Only required for RADIAL Slider */
1177:.\Generated_Source\PSoC5/CapSense_CSHL.c ****             if(denominator < 0)
1178:.\Generated_Source\PSoC5/CapSense_CSHL.c ****             {
1179:.\Generated_Source\PSoC5/CapSense_CSHL.c ****                 denominator += ((uint16) count << 8u);
1180:.\Generated_Source\PSoC5/CapSense_CSHL.c ****             }
1181:.\Generated_Source\PSoC5/CapSense_CSHL.c ****         #endif
1182:.\Generated_Source\PSoC5/CapSense_CSHL.c ****         
1183:.\Generated_Source\PSoC5/CapSense_CSHL.c ****         denominator *= resolution;
1184:.\Generated_Source\PSoC5/CapSense_CSHL.c ****         
1185:.\Generated_Source\PSoC5/CapSense_CSHL.c ****         /* Round the relust and put it to uint8 */
1186:.\Generated_Source\PSoC5/CapSense_CSHL.c ****         position = ((uint8) HI16(denominator + CapSense_CENTROID_ROUND_VALUE));
1187:.\Generated_Source\PSoC5/CapSense_CSHL.c **** 
1188:.\Generated_Source\PSoC5/CapSense_CSHL.c ****         return (position);
1189:.\Generated_Source\PSoC5/CapSense_CSHL.c ****     }    
1190:.\Generated_Source\PSoC5/CapSense_CSHL.c **** #endif
1191:.\Generated_Source\PSoC5/CapSense_CSHL.c **** 
1192:.\Generated_Source\PSoC5/CapSense_CSHL.c **** 
1193:.\Generated_Source\PSoC5/CapSense_CSHL.c **** #if(CapSense_TOTAL_LINEAR_SLIDERS_COUNT > 0u)
1194:.\Generated_Source\PSoC5/CapSense_CSHL.c ****     /*******************************************************************************
1195:.\Generated_Source\PSoC5/CapSense_CSHL.c ****     * Function Name: CapSense_GetCentroidPos
1196:.\Generated_Source\PSoC5/CapSense_CSHL.c ****     ********************************************************************************
1197:.\Generated_Source\PSoC5/CapSense_CSHL.c ****     *
1198:.\Generated_Source\PSoC5/CapSense_CSHL.c ****     * Summary:
1199:.\Generated_Source\PSoC5/CapSense_CSHL.c ****     *  Checks the CapSense_Signal[ ] array for a centroid within
1200:.\Generated_Source\PSoC5/CapSense_CSHL.c ****     *  slider specified range. The centroid position is calculated to the resolution
1201:.\Generated_Source\PSoC5/CapSense_CSHL.c ****     *  specified in the CapSense customizer. The position filters are applied to the
1202:.\Generated_Source\PSoC5/CapSense_CSHL.c ****     *  result if enabled.
1203:.\Generated_Source\PSoC5/CapSense_CSHL.c ****     *
1204:.\Generated_Source\PSoC5/CapSense_CSHL.c ****     * Parameters:
1205:.\Generated_Source\PSoC5/CapSense_CSHL.c ****     *  widget:  Widget number.
1206:.\Generated_Source\PSoC5/CapSense_CSHL.c ****     *  For every linear slider widget there are defines in this format:
1207:.\Generated_Source\PSoC5/CapSense_CSHL.c ****     *  #define CapSense_LS__"widget_name"            5
1208:.\Generated_Source\PSoC5/CapSense_CSHL.c ****     * 
1209:.\Generated_Source\PSoC5/CapSense_CSHL.c ****     * Return:
1210:.\Generated_Source\PSoC5/CapSense_CSHL.c ****     *  Returns position value of the linear slider.
1211:.\Generated_Source\PSoC5/CapSense_CSHL.c ****     *
1212:.\Generated_Source\PSoC5/CapSense_CSHL.c ****     * Side Effects:
1213:.\Generated_Source\PSoC5/CapSense_CSHL.c ****     *  If any sensor within the slider widget is active, the function returns values
1214:.\Generated_Source\PSoC5/CapSense_CSHL.c ****     *  from zero to the API resolution value set in the CapSense customizer. If no
1215:.\Generated_Source\PSoC5/CapSense_CSHL.c ****     *  sensors are active, the function returns 0xFFFF. If an error occurs during
1216:.\Generated_Source\PSoC5/CapSense_CSHL.c ****     *  execution of the centroid/diplexing algorithm, the function returns 0xFFFF.
1217:.\Generated_Source\PSoC5/CapSense_CSHL.c ****     *  There are no checks of widget type argument provided to this function.
1218:.\Generated_Source\PSoC5/CapSense_CSHL.c ****     *  The unproper widget type provided will cause unexpected position calculations.
1219:.\Generated_Source\PSoC5/CapSense_CSHL.c ****     *
1220:.\Generated_Source\PSoC5/CapSense_CSHL.c ****     * Note:
1221:.\Generated_Source\PSoC5/CapSense_CSHL.c ****     *  If noise counts on the slider segments are greater than the noise
1222:.\Generated_Source\PSoC5/CapSense_CSHL.c ****     *  threshold, this subroutine may generate a false centroid result. The noise
1223:.\Generated_Source\PSoC5/CapSense_CSHL.c ****     *  threshold should be set carefully (high enough above the noise level) so
ARM GAS  C:\Users\Geo\AppData\Local\Temp\cc0UCTwq.s 			page 43


1224:.\Generated_Source\PSoC5/CapSense_CSHL.c ****     *  that noise will not generate a false centroid.
1225:.\Generated_Source\PSoC5/CapSense_CSHL.c ****     *
1226:.\Generated_Source\PSoC5/CapSense_CSHL.c ****     * Reentrant:
1227:.\Generated_Source\PSoC5/CapSense_CSHL.c ****     *  No.
1228:.\Generated_Source\PSoC5/CapSense_CSHL.c ****     *
1229:.\Generated_Source\PSoC5/CapSense_CSHL.c ****     *******************************************************************************/
1230:.\Generated_Source\PSoC5/CapSense_CSHL.c ****     uint16 CapSense_GetCentroidPos(uint8 widget)
1231:.\Generated_Source\PSoC5/CapSense_CSHL.c ****     {
1232:.\Generated_Source\PSoC5/CapSense_CSHL.c ****         #if (CapSense_IS_DIPLEX_SLIDER)
1233:.\Generated_Source\PSoC5/CapSense_CSHL.c ****             const uint8 CYCODE *diplex;
1234:.\Generated_Source\PSoC5/CapSense_CSHL.c ****         #endif
1235:.\Generated_Source\PSoC5/CapSense_CSHL.c ****                 
1236:.\Generated_Source\PSoC5/CapSense_CSHL.c ****         #if (0u != CapSense_LINEAR_SLIDERS_POS_FILTERS_MASK)
1237:.\Generated_Source\PSoC5/CapSense_CSHL.c ****             uint8 posIndex;
1238:.\Generated_Source\PSoC5/CapSense_CSHL.c ****             uint8 firstTimeIndex = CapSense_posFiltersData[widget];
1239:.\Generated_Source\PSoC5/CapSense_CSHL.c ****             uint8 posFiltersMask = CapSense_posFiltersMask[widget];  
1240:.\Generated_Source\PSoC5/CapSense_CSHL.c **** 
1241:.\Generated_Source\PSoC5/CapSense_CSHL.c ****         #endif
1242:.\Generated_Source\PSoC5/CapSense_CSHL.c ****         #if ((0u != (CapSense_MEDIAN_FILTER & CapSense_LINEAR_SLIDERS_POS_FILTERS_MASK)) || \
1243:.\Generated_Source\PSoC5/CapSense_CSHL.c ****              (0u != (CapSense_AVERAGING_FILTER & CapSense_LINEAR_SLIDERS_POS_FILTERS_MASK)))
1244:.\Generated_Source\PSoC5/CapSense_CSHL.c ****             uint8 tempPos;
1245:.\Generated_Source\PSoC5/CapSense_CSHL.c ****         #endif
1246:.\Generated_Source\PSoC5/CapSense_CSHL.c **** 
1247:.\Generated_Source\PSoC5/CapSense_CSHL.c ****         uint8 maximum;
1248:.\Generated_Source\PSoC5/CapSense_CSHL.c ****         uint16 position;
1249:.\Generated_Source\PSoC5/CapSense_CSHL.c ****         uint8 offset = CapSense_rawDataIndex[widget];
1250:.\Generated_Source\PSoC5/CapSense_CSHL.c ****         uint8 count = CapSense_numberOfSensors[widget];
1251:.\Generated_Source\PSoC5/CapSense_CSHL.c ****                         
1252:.\Generated_Source\PSoC5/CapSense_CSHL.c ****         #if (CapSense_IS_DIPLEX_SLIDER)
1253:.\Generated_Source\PSoC5/CapSense_CSHL.c ****             if(widget < CapSense_TOTAL_DIPLEXED_SLIDERS_COUNT)
1254:.\Generated_Source\PSoC5/CapSense_CSHL.c ****             {
1255:.\Generated_Source\PSoC5/CapSense_CSHL.c ****                 maximum = CapSense_diplexTable[widget];
1256:.\Generated_Source\PSoC5/CapSense_CSHL.c ****                 diplex = &CapSense_diplexTable[maximum];
1257:.\Generated_Source\PSoC5/CapSense_CSHL.c ****             }
1258:.\Generated_Source\PSoC5/CapSense_CSHL.c ****             else
1259:.\Generated_Source\PSoC5/CapSense_CSHL.c ****             {
1260:.\Generated_Source\PSoC5/CapSense_CSHL.c ****                 diplex = 0u;
1261:.\Generated_Source\PSoC5/CapSense_CSHL.c ****             }
1262:.\Generated_Source\PSoC5/CapSense_CSHL.c ****         #endif
1263:.\Generated_Source\PSoC5/CapSense_CSHL.c **** 
1264:.\Generated_Source\PSoC5/CapSense_CSHL.c ****         /* Find Maximum within centroid */      
1265:.\Generated_Source\PSoC5/CapSense_CSHL.c ****         #if (CapSense_IS_DIPLEX_SLIDER)        
1266:.\Generated_Source\PSoC5/CapSense_CSHL.c ****             maximum = CapSense_FindMaximum(offset, count, CapSense_fingerThreshold[widget], diplex)
1267:.\Generated_Source\PSoC5/CapSense_CSHL.c ****         #else
1268:.\Generated_Source\PSoC5/CapSense_CSHL.c ****             maximum = CapSense_FindMaximum(offset, count, CapSense_fingerThreshold[widget]);
1269:.\Generated_Source\PSoC5/CapSense_CSHL.c ****         #endif
1270:.\Generated_Source\PSoC5/CapSense_CSHL.c **** 
1271:.\Generated_Source\PSoC5/CapSense_CSHL.c ****         if (maximum != 0xFFu)
1272:.\Generated_Source\PSoC5/CapSense_CSHL.c ****         {
1273:.\Generated_Source\PSoC5/CapSense_CSHL.c ****             /* Calculate centroid */
1274:.\Generated_Source\PSoC5/CapSense_CSHL.c ****             position = (uint16) CapSense_CalcCentroid(maximum, 
1275:.\Generated_Source\PSoC5/CapSense_CSHL.c ****                          offset, count, CapSense_centroidMult[widget], CapSense_noiseThreshold[widg
1276:.\Generated_Source\PSoC5/CapSense_CSHL.c **** 
1277:.\Generated_Source\PSoC5/CapSense_CSHL.c ****             #if (0u != CapSense_LINEAR_SLIDERS_POS_FILTERS_MASK)
1278:.\Generated_Source\PSoC5/CapSense_CSHL.c ****                 /* Check if this linear slider has enabled filters */
1279:.\Generated_Source\PSoC5/CapSense_CSHL.c ****                 if (0u != (posFiltersMask & CapSense_ANY_POS_FILTER))
1280:.\Generated_Source\PSoC5/CapSense_CSHL.c ****                 {
ARM GAS  C:\Users\Geo\AppData\Local\Temp\cc0UCTwq.s 			page 44


1281:.\Generated_Source\PSoC5/CapSense_CSHL.c ****                     /* Caluclate position to store filters data */
1282:.\Generated_Source\PSoC5/CapSense_CSHL.c ****                     posIndex  = firstTimeIndex + 1u;
1283:.\Generated_Source\PSoC5/CapSense_CSHL.c ****                     
1284:.\Generated_Source\PSoC5/CapSense_CSHL.c ****                     if (0u == CapSense_posFiltersData[firstTimeIndex])
1285:.\Generated_Source\PSoC5/CapSense_CSHL.c ****                     {
1286:.\Generated_Source\PSoC5/CapSense_CSHL.c ****                         /* Init filters */
1287:.\Generated_Source\PSoC5/CapSense_CSHL.c ****                         CapSense_posFiltersData[posIndex] = (uint8) position;
1288:.\Generated_Source\PSoC5/CapSense_CSHL.c ****                         #if ((0u != (CapSense_MEDIAN_FILTER & CapSense_LINEAR_SLIDERS_POS_FILTERS_M
1289:.\Generated_Source\PSoC5/CapSense_CSHL.c ****                              (0u != (CapSense_AVERAGING_FILTER & CapSense_LINEAR_SLIDERS_POS_FILTER
1290:.\Generated_Source\PSoC5/CapSense_CSHL.c ****                             if ( (0u != (posFiltersMask & CapSense_MEDIAN_FILTER)) || 
1291:.\Generated_Source\PSoC5/CapSense_CSHL.c ****                                  (0u != (posFiltersMask & CapSense_AVERAGING_FILTER)) )
1292:.\Generated_Source\PSoC5/CapSense_CSHL.c ****                             {
1293:.\Generated_Source\PSoC5/CapSense_CSHL.c ****                                 CapSense_posFiltersData[posIndex + 1u] = (uint8) position;
1294:.\Generated_Source\PSoC5/CapSense_CSHL.c ****                             }
1295:.\Generated_Source\PSoC5/CapSense_CSHL.c ****                         #endif
1296:.\Generated_Source\PSoC5/CapSense_CSHL.c ****                         
1297:.\Generated_Source\PSoC5/CapSense_CSHL.c ****                         CapSense_posFiltersData[firstTimeIndex] = 1u;
1298:.\Generated_Source\PSoC5/CapSense_CSHL.c ****                     }
1299:.\Generated_Source\PSoC5/CapSense_CSHL.c ****                     else
1300:.\Generated_Source\PSoC5/CapSense_CSHL.c ****                     {
1301:.\Generated_Source\PSoC5/CapSense_CSHL.c ****                         /* Do filtering */
1302:.\Generated_Source\PSoC5/CapSense_CSHL.c ****                         #if (0u != (CapSense_MEDIAN_FILTER & CapSense_LINEAR_SLIDERS_POS_FILTERS_MA
1303:.\Generated_Source\PSoC5/CapSense_CSHL.c ****                             if (0u != (posFiltersMask & CapSense_MEDIAN_FILTER))
1304:.\Generated_Source\PSoC5/CapSense_CSHL.c ****                             {
1305:.\Generated_Source\PSoC5/CapSense_CSHL.c ****                                 tempPos = (uint8) position;
1306:.\Generated_Source\PSoC5/CapSense_CSHL.c ****                                 position = CapSense_MedianFilter(position, CapSense_posFiltersData[
1307:.\Generated_Source\PSoC5/CapSense_CSHL.c ****                                 CapSense_posFiltersData[posIndex + 1u] = CapSense_posFiltersData[po
1308:.\Generated_Source\PSoC5/CapSense_CSHL.c ****                                 CapSense_posFiltersData[posIndex] = tempPos;
1309:.\Generated_Source\PSoC5/CapSense_CSHL.c ****                             }
1310:.\Generated_Source\PSoC5/CapSense_CSHL.c ****                         #endif
1311:.\Generated_Source\PSoC5/CapSense_CSHL.c **** 
1312:.\Generated_Source\PSoC5/CapSense_CSHL.c ****                         #if (0u != (CapSense_AVERAGING_FILTER & CapSense_LINEAR_SLIDERS_POS_FILTERS
1313:.\Generated_Source\PSoC5/CapSense_CSHL.c ****                             if (0u != (posFiltersMask & CapSense_AVERAGING_FILTER)) 
1314:.\Generated_Source\PSoC5/CapSense_CSHL.c ****                             {
1315:.\Generated_Source\PSoC5/CapSense_CSHL.c ****                                 tempPos = (uint8) position;
1316:.\Generated_Source\PSoC5/CapSense_CSHL.c ****                                 position = CapSense_AveragingFilter(position, CapSense_posFiltersDa
1317:.\Generated_Source\PSoC5/CapSense_CSHL.c ****                                 CapSense_posFiltersData[posIndex + 1u] = CapSense_posFiltersData[po
1318:.\Generated_Source\PSoC5/CapSense_CSHL.c ****                                 CapSense_posFiltersData[posIndex] = tempPos;
1319:.\Generated_Source\PSoC5/CapSense_CSHL.c ****                             }
1320:.\Generated_Source\PSoC5/CapSense_CSHL.c ****                         #endif
1321:.\Generated_Source\PSoC5/CapSense_CSHL.c **** 
1322:.\Generated_Source\PSoC5/CapSense_CSHL.c ****                         #if (0u != (CapSense_IIR2_FILTER & CapSense_LINEAR_SLIDERS_POS_FILTERS_MASK
1323:.\Generated_Source\PSoC5/CapSense_CSHL.c ****                             if (0u != (posFiltersMask & CapSense_IIR2_FILTER)) 
1324:.\Generated_Source\PSoC5/CapSense_CSHL.c ****                             {
1325:.\Generated_Source\PSoC5/CapSense_CSHL.c ****                                 position = CapSense_IIR2Filter(position, CapSense_posFiltersData[po
1326:.\Generated_Source\PSoC5/CapSense_CSHL.c ****                                 CapSense_posFiltersData[posIndex] = (uint8) position;
1327:.\Generated_Source\PSoC5/CapSense_CSHL.c ****                             }
1328:.\Generated_Source\PSoC5/CapSense_CSHL.c ****                         #endif
1329:.\Generated_Source\PSoC5/CapSense_CSHL.c **** 
1330:.\Generated_Source\PSoC5/CapSense_CSHL.c ****                         #if (0u != (CapSense_IIR4_FILTER & CapSense_LINEAR_SLIDERS_POS_FILTERS_MASK
1331:.\Generated_Source\PSoC5/CapSense_CSHL.c ****                             if (0u != (posFiltersMask & CapSense_IIR4_FILTER))
1332:.\Generated_Source\PSoC5/CapSense_CSHL.c ****                             {
1333:.\Generated_Source\PSoC5/CapSense_CSHL.c ****                                 position = CapSense_IIR4Filter(position, CapSense_posFiltersData[po
1334:.\Generated_Source\PSoC5/CapSense_CSHL.c ****                                 CapSense_posFiltersData[posIndex] = (uint8) position;
1335:.\Generated_Source\PSoC5/CapSense_CSHL.c ****                             }                                
1336:.\Generated_Source\PSoC5/CapSense_CSHL.c ****                         #endif
1337:.\Generated_Source\PSoC5/CapSense_CSHL.c **** 
ARM GAS  C:\Users\Geo\AppData\Local\Temp\cc0UCTwq.s 			page 45


1338:.\Generated_Source\PSoC5/CapSense_CSHL.c ****                         #if (0u != (CapSense_JITTER_FILTER & CapSense_LINEAR_SLIDERS_POS_FILTERS_MA
1339:.\Generated_Source\PSoC5/CapSense_CSHL.c ****                             if (0u != (posFiltersMask & CapSense_JITTER_FILTER))
1340:.\Generated_Source\PSoC5/CapSense_CSHL.c ****                             {
1341:.\Generated_Source\PSoC5/CapSense_CSHL.c ****                                 position = CapSense_JitterFilter(position, CapSense_posFiltersData[
1342:.\Generated_Source\PSoC5/CapSense_CSHL.c ****                                 CapSense_posFiltersData[posIndex] = (uint8) position;
1343:.\Generated_Source\PSoC5/CapSense_CSHL.c ****                             }
1344:.\Generated_Source\PSoC5/CapSense_CSHL.c ****                         #endif
1345:.\Generated_Source\PSoC5/CapSense_CSHL.c ****                     }
1346:.\Generated_Source\PSoC5/CapSense_CSHL.c ****                 }
1347:.\Generated_Source\PSoC5/CapSense_CSHL.c ****             #endif
1348:.\Generated_Source\PSoC5/CapSense_CSHL.c **** 
1349:.\Generated_Source\PSoC5/CapSense_CSHL.c ****         }
1350:.\Generated_Source\PSoC5/CapSense_CSHL.c ****         else
1351:.\Generated_Source\PSoC5/CapSense_CSHL.c ****         {
1352:.\Generated_Source\PSoC5/CapSense_CSHL.c ****             /* The maximum didn't find */
1353:.\Generated_Source\PSoC5/CapSense_CSHL.c ****             position = 0xFFFFu;
1354:.\Generated_Source\PSoC5/CapSense_CSHL.c **** 
1355:.\Generated_Source\PSoC5/CapSense_CSHL.c ****             #if(0u != CapSense_LINEAR_SLIDERS_POS_FILTERS_MASK)
1356:.\Generated_Source\PSoC5/CapSense_CSHL.c ****                 /* Reset the filters */
1357:.\Generated_Source\PSoC5/CapSense_CSHL.c ****                 if(0u != (posFiltersMask & CapSense_ANY_POS_FILTER))
1358:.\Generated_Source\PSoC5/CapSense_CSHL.c ****                 {
1359:.\Generated_Source\PSoC5/CapSense_CSHL.c ****                     CapSense_posFiltersData[firstTimeIndex] = 0u;
1360:.\Generated_Source\PSoC5/CapSense_CSHL.c ****                 }
1361:.\Generated_Source\PSoC5/CapSense_CSHL.c ****             #endif
1362:.\Generated_Source\PSoC5/CapSense_CSHL.c ****         }
1363:.\Generated_Source\PSoC5/CapSense_CSHL.c **** 
1364:.\Generated_Source\PSoC5/CapSense_CSHL.c ****         
1365:.\Generated_Source\PSoC5/CapSense_CSHL.c ****         return (position);
1366:.\Generated_Source\PSoC5/CapSense_CSHL.c ****     }
1367:.\Generated_Source\PSoC5/CapSense_CSHL.c **** #endif
1368:.\Generated_Source\PSoC5/CapSense_CSHL.c **** 
1369:.\Generated_Source\PSoC5/CapSense_CSHL.c **** 
1370:.\Generated_Source\PSoC5/CapSense_CSHL.c **** #if(CapSense_TOTAL_RADIAL_SLIDERS_COUNT > 0u)
1371:.\Generated_Source\PSoC5/CapSense_CSHL.c ****     /*******************************************************************************
1372:.\Generated_Source\PSoC5/CapSense_CSHL.c ****     * Function Name: CapSense_GetRadialCentroidPos
1373:.\Generated_Source\PSoC5/CapSense_CSHL.c ****     ********************************************************************************
1374:.\Generated_Source\PSoC5/CapSense_CSHL.c ****     *
1375:.\Generated_Source\PSoC5/CapSense_CSHL.c ****     * Summary:
1376:.\Generated_Source\PSoC5/CapSense_CSHL.c ****     *  Checks the CapSense_Signal[ ] array for a centroid within
1377:.\Generated_Source\PSoC5/CapSense_CSHL.c ****     *  slider specified range. The centroid position is calculated to the resolution
1378:.\Generated_Source\PSoC5/CapSense_CSHL.c ****     *  specified in the CapSense customizer. The position filters are applied to the
1379:.\Generated_Source\PSoC5/CapSense_CSHL.c ****     *  result if enabled.
1380:.\Generated_Source\PSoC5/CapSense_CSHL.c ****     *
1381:.\Generated_Source\PSoC5/CapSense_CSHL.c ****     * Parameters:
1382:.\Generated_Source\PSoC5/CapSense_CSHL.c ****     *  widget:  Widget number.
1383:.\Generated_Source\PSoC5/CapSense_CSHL.c ****     *  For every radial slider widget there are defines in this format:
1384:.\Generated_Source\PSoC5/CapSense_CSHL.c ****     *  #define CapSense_RS_"widget_name"            5
1385:.\Generated_Source\PSoC5/CapSense_CSHL.c ****     * 
1386:.\Generated_Source\PSoC5/CapSense_CSHL.c ****     * Return:
1387:.\Generated_Source\PSoC5/CapSense_CSHL.c ****     *  Returns position value of the radial slider.
1388:.\Generated_Source\PSoC5/CapSense_CSHL.c ****     *
1389:.\Generated_Source\PSoC5/CapSense_CSHL.c ****     * Side Effects:
1390:.\Generated_Source\PSoC5/CapSense_CSHL.c ****     *  If any sensor within the slider widget is active, the function returns values
1391:.\Generated_Source\PSoC5/CapSense_CSHL.c ****     *  from zero to the API resolution value set in the CapSense customizer. If no
1392:.\Generated_Source\PSoC5/CapSense_CSHL.c ****     *  sensors are active, the function returns 0xFFFF.
1393:.\Generated_Source\PSoC5/CapSense_CSHL.c ****     *  There are no checks of widget type argument provided to this function.
1394:.\Generated_Source\PSoC5/CapSense_CSHL.c ****     *  The unproper widget type provided will cause unexpected position calculations.
ARM GAS  C:\Users\Geo\AppData\Local\Temp\cc0UCTwq.s 			page 46


1395:.\Generated_Source\PSoC5/CapSense_CSHL.c ****     *
1396:.\Generated_Source\PSoC5/CapSense_CSHL.c ****     * Note:
1397:.\Generated_Source\PSoC5/CapSense_CSHL.c ****     *  If noise counts on the slider segments are greater than the noise
1398:.\Generated_Source\PSoC5/CapSense_CSHL.c ****     *  threshold, this subroutine may generate a false centroid result. The noise
1399:.\Generated_Source\PSoC5/CapSense_CSHL.c ****     *  threshold should be set carefully (high enough above the noise level) so 
1400:.\Generated_Source\PSoC5/CapSense_CSHL.c ****     *  that noise will not generate a false centroid.
1401:.\Generated_Source\PSoC5/CapSense_CSHL.c ****     *
1402:.\Generated_Source\PSoC5/CapSense_CSHL.c ****     *
1403:.\Generated_Source\PSoC5/CapSense_CSHL.c ****     * Reentrant:
1404:.\Generated_Source\PSoC5/CapSense_CSHL.c ****     *  No.
1405:.\Generated_Source\PSoC5/CapSense_CSHL.c ****     *
1406:.\Generated_Source\PSoC5/CapSense_CSHL.c ****     *******************************************************************************/
1407:.\Generated_Source\PSoC5/CapSense_CSHL.c ****      uint16 CapSense_GetRadialCentroidPos(uint8 widget)
1408:.\Generated_Source\PSoC5/CapSense_CSHL.c ****     {
1409:.\Generated_Source\PSoC5/CapSense_CSHL.c ****         #if (0u != CapSense_RADIAL_SLIDERS_POS_FILTERS_MASK)
1410:.\Generated_Source\PSoC5/CapSense_CSHL.c ****             uint8 posIndex;
1411:.\Generated_Source\PSoC5/CapSense_CSHL.c ****             uint8 firstTimeIndex = CapSense_posFiltersData[widget];
1412:.\Generated_Source\PSoC5/CapSense_CSHL.c ****             uint8 posFiltersMask = CapSense_posFiltersMask[widget]; 
1413:.\Generated_Source\PSoC5/CapSense_CSHL.c **** 
1414:.\Generated_Source\PSoC5/CapSense_CSHL.c ****         #endif
1415:.\Generated_Source\PSoC5/CapSense_CSHL.c ****         #if ((0u != (CapSense_MEDIAN_FILTER & CapSense_RADIAL_SLIDERS_POS_FILTERS_MASK)) || \
1416:.\Generated_Source\PSoC5/CapSense_CSHL.c ****              (0u != (CapSense_AVERAGING_FILTER & CapSense_RADIAL_SLIDERS_POS_FILTERS_MASK)))
1417:.\Generated_Source\PSoC5/CapSense_CSHL.c ****             uint8 tempPos;
1418:.\Generated_Source\PSoC5/CapSense_CSHL.c ****         #endif
1419:.\Generated_Source\PSoC5/CapSense_CSHL.c **** 
1420:.\Generated_Source\PSoC5/CapSense_CSHL.c ****         uint8 maximum;
1421:.\Generated_Source\PSoC5/CapSense_CSHL.c ****         uint16 position;
1422:.\Generated_Source\PSoC5/CapSense_CSHL.c ****         uint8 offset = CapSense_rawDataIndex[widget];
1423:.\Generated_Source\PSoC5/CapSense_CSHL.c ****         uint8 count = CapSense_numberOfSensors[widget];
1424:.\Generated_Source\PSoC5/CapSense_CSHL.c ****         
1425:.\Generated_Source\PSoC5/CapSense_CSHL.c ****         /* Find Maximum within centroid */        
1426:.\Generated_Source\PSoC5/CapSense_CSHL.c ****         #if (CapSense_IS_DIPLEX_SLIDER)
1427:.\Generated_Source\PSoC5/CapSense_CSHL.c ****             maximum = CapSense_FindMaximum(offset, count, CapSense_fingerThreshold[widget], 0u);
1428:.\Generated_Source\PSoC5/CapSense_CSHL.c ****         #else
1429:.\Generated_Source\PSoC5/CapSense_CSHL.c ****             maximum = CapSense_FindMaximum(offset, count, CapSense_fingerThreshold[widget]);
1430:.\Generated_Source\PSoC5/CapSense_CSHL.c ****         #endif
1431:.\Generated_Source\PSoC5/CapSense_CSHL.c ****         
1432:.\Generated_Source\PSoC5/CapSense_CSHL.c ****         if (maximum != 0xFFu)
1433:.\Generated_Source\PSoC5/CapSense_CSHL.c ****         {
1434:.\Generated_Source\PSoC5/CapSense_CSHL.c ****             /* Calculate centroid */
1435:.\Generated_Source\PSoC5/CapSense_CSHL.c ****             position = (uint16) CapSense_CalcCentroid(maximum, 
1436:.\Generated_Source\PSoC5/CapSense_CSHL.c ****                          offset, count, CapSense_centroidMult[widget], CapSense_noiseThreshold[widg
1437:.\Generated_Source\PSoC5/CapSense_CSHL.c **** 
1438:.\Generated_Source\PSoC5/CapSense_CSHL.c ****             #if (0u != CapSense_RADIAL_SLIDERS_POS_FILTERS_MASK)
1439:.\Generated_Source\PSoC5/CapSense_CSHL.c ****                 /* Check if this Radial slider has enabled filters */
1440:.\Generated_Source\PSoC5/CapSense_CSHL.c ****                 if (0u != (posFiltersMask & CapSense_ANY_POS_FILTER))
1441:.\Generated_Source\PSoC5/CapSense_CSHL.c ****                 {
1442:.\Generated_Source\PSoC5/CapSense_CSHL.c ****                     /* Caluclate position to store filters data */
1443:.\Generated_Source\PSoC5/CapSense_CSHL.c ****                     posIndex  = firstTimeIndex + 1u;
1444:.\Generated_Source\PSoC5/CapSense_CSHL.c ****                     
1445:.\Generated_Source\PSoC5/CapSense_CSHL.c ****                     if (0u == CapSense_posFiltersData[firstTimeIndex])
1446:.\Generated_Source\PSoC5/CapSense_CSHL.c ****                     {
1447:.\Generated_Source\PSoC5/CapSense_CSHL.c ****                         /* Init filters */
1448:.\Generated_Source\PSoC5/CapSense_CSHL.c ****                         CapSense_posFiltersData[posIndex] = (uint8) position;
1449:.\Generated_Source\PSoC5/CapSense_CSHL.c ****                         #if ((0u != (CapSense_MEDIAN_FILTER & CapSense_RADIAL_SLIDERS_POS_FILTERS_M
1450:.\Generated_Source\PSoC5/CapSense_CSHL.c ****                              (0u != (CapSense_AVERAGING_FILTER & CapSense_RADIAL_SLIDERS_POS_FILTER
1451:.\Generated_Source\PSoC5/CapSense_CSHL.c ****                             if ( (0u != (posFiltersMask & CapSense_MEDIAN_FILTER))  || 
ARM GAS  C:\Users\Geo\AppData\Local\Temp\cc0UCTwq.s 			page 47


1452:.\Generated_Source\PSoC5/CapSense_CSHL.c ****                                  (0u != (posFiltersMask & CapSense_AVERAGING_FILTER)) )
1453:.\Generated_Source\PSoC5/CapSense_CSHL.c ****                             {
1454:.\Generated_Source\PSoC5/CapSense_CSHL.c ****                                 CapSense_posFiltersData[posIndex + 1u] = (uint8) position;
1455:.\Generated_Source\PSoC5/CapSense_CSHL.c ****                             }
1456:.\Generated_Source\PSoC5/CapSense_CSHL.c ****                         #endif
1457:.\Generated_Source\PSoC5/CapSense_CSHL.c ****                         
1458:.\Generated_Source\PSoC5/CapSense_CSHL.c ****                         CapSense_posFiltersData[firstTimeIndex] = 1u;
1459:.\Generated_Source\PSoC5/CapSense_CSHL.c ****                     }
1460:.\Generated_Source\PSoC5/CapSense_CSHL.c ****                     else
1461:.\Generated_Source\PSoC5/CapSense_CSHL.c ****                     {
1462:.\Generated_Source\PSoC5/CapSense_CSHL.c ****                         /* Do filtering */
1463:.\Generated_Source\PSoC5/CapSense_CSHL.c ****                         #if (0u != (CapSense_MEDIAN_FILTER & CapSense_RADIAL_SLIDERS_POS_FILTERS_MA
1464:.\Generated_Source\PSoC5/CapSense_CSHL.c ****                             if (0u != (posFiltersMask & CapSense_MEDIAN_FILTER))
1465:.\Generated_Source\PSoC5/CapSense_CSHL.c ****                             {
1466:.\Generated_Source\PSoC5/CapSense_CSHL.c ****                                 tempPos = (uint8) position;
1467:.\Generated_Source\PSoC5/CapSense_CSHL.c ****                                 position = CapSense_MedianFilter(position,CapSense_posFiltersData[p
1468:.\Generated_Source\PSoC5/CapSense_CSHL.c ****                                   CapSense_posFiltersData[posIndex + 1u]);
1469:.\Generated_Source\PSoC5/CapSense_CSHL.c ****                                 CapSense_posFiltersData[posIndex + 1u] = CapSense_posFiltersData[po
1470:.\Generated_Source\PSoC5/CapSense_CSHL.c ****                                 CapSense_posFiltersData[posIndex] = tempPos;
1471:.\Generated_Source\PSoC5/CapSense_CSHL.c ****                             }
1472:.\Generated_Source\PSoC5/CapSense_CSHL.c ****                         #endif
1473:.\Generated_Source\PSoC5/CapSense_CSHL.c **** 
1474:.\Generated_Source\PSoC5/CapSense_CSHL.c ****                         #if (0u != (CapSense_AVERAGING_FILTER & CapSense_RADIAL_SLIDERS_POS_FILTERS
1475:.\Generated_Source\PSoC5/CapSense_CSHL.c ****                             if (0u != (posFiltersMask & CapSense_AVERAGING_FILTER))
1476:.\Generated_Source\PSoC5/CapSense_CSHL.c ****                             {
1477:.\Generated_Source\PSoC5/CapSense_CSHL.c ****                                 tempPos = (uint8) position;
1478:.\Generated_Source\PSoC5/CapSense_CSHL.c ****                                 position = CapSense_AveragingFilter(position, CapSense_posFiltersDa
1479:.\Generated_Source\PSoC5/CapSense_CSHL.c ****                                   CapSense_posFiltersData[posIndex + 1u]);
1480:.\Generated_Source\PSoC5/CapSense_CSHL.c ****                                 CapSense_posFiltersData[posIndex + 1u] = CapSense_posFiltersData[po
1481:.\Generated_Source\PSoC5/CapSense_CSHL.c ****                                 CapSense_posFiltersData[posIndex] = tempPos;
1482:.\Generated_Source\PSoC5/CapSense_CSHL.c ****                             }
1483:.\Generated_Source\PSoC5/CapSense_CSHL.c ****                         #endif
1484:.\Generated_Source\PSoC5/CapSense_CSHL.c **** 
1485:.\Generated_Source\PSoC5/CapSense_CSHL.c ****                         #if (0u != (CapSense_IIR2_FILTER & CapSense_RADIAL_SLIDERS_POS_FILTERS_MASK
1486:.\Generated_Source\PSoC5/CapSense_CSHL.c ****                             if (0u != (posFiltersMask & CapSense_IIR2_FILTER))
1487:.\Generated_Source\PSoC5/CapSense_CSHL.c ****                             {
1488:.\Generated_Source\PSoC5/CapSense_CSHL.c ****                                 position = CapSense_IIR2Filter(position, CapSense_posFiltersData[po
1489:.\Generated_Source\PSoC5/CapSense_CSHL.c ****                                 CapSense_posFiltersData[posIndex] = (uint8) position;
1490:.\Generated_Source\PSoC5/CapSense_CSHL.c ****                             }
1491:.\Generated_Source\PSoC5/CapSense_CSHL.c ****                         #endif
1492:.\Generated_Source\PSoC5/CapSense_CSHL.c **** 
1493:.\Generated_Source\PSoC5/CapSense_CSHL.c ****                         #if (0u != (CapSense_IIR4_FILTER & CapSense_RADIAL_SLIDERS_POS_FILTERS_MASK
1494:.\Generated_Source\PSoC5/CapSense_CSHL.c ****                             if (0u != (posFiltersMask & CapSense_IIR4_FILTER))
1495:.\Generated_Source\PSoC5/CapSense_CSHL.c ****                             {
1496:.\Generated_Source\PSoC5/CapSense_CSHL.c ****                                 position = CapSense_IIR4Filter(position, CapSense_posFiltersData[po
1497:.\Generated_Source\PSoC5/CapSense_CSHL.c ****                                 CapSense_posFiltersData[posIndex] = (uint8) position;
1498:.\Generated_Source\PSoC5/CapSense_CSHL.c ****                             }
1499:.\Generated_Source\PSoC5/CapSense_CSHL.c ****                         #endif
1500:.\Generated_Source\PSoC5/CapSense_CSHL.c **** 
1501:.\Generated_Source\PSoC5/CapSense_CSHL.c ****                         #if (0u != (CapSense_JITTER_FILTER & CapSense_RADIAL_SLIDERS_POS_FILTERS_MA
1502:.\Generated_Source\PSoC5/CapSense_CSHL.c ****                             if (0u != (posFiltersMask & CapSense_JITTER_FILTER))
1503:.\Generated_Source\PSoC5/CapSense_CSHL.c ****                             {
1504:.\Generated_Source\PSoC5/CapSense_CSHL.c ****                                 position = CapSense_JitterFilter(position, CapSense_posFiltersData[
1505:.\Generated_Source\PSoC5/CapSense_CSHL.c ****                                 CapSense_posFiltersData[posIndex] = (uint8) position;
1506:.\Generated_Source\PSoC5/CapSense_CSHL.c ****                             }
1507:.\Generated_Source\PSoC5/CapSense_CSHL.c ****                         #endif
1508:.\Generated_Source\PSoC5/CapSense_CSHL.c ****                     }
ARM GAS  C:\Users\Geo\AppData\Local\Temp\cc0UCTwq.s 			page 48


1509:.\Generated_Source\PSoC5/CapSense_CSHL.c ****                 }
1510:.\Generated_Source\PSoC5/CapSense_CSHL.c ****             #endif
1511:.\Generated_Source\PSoC5/CapSense_CSHL.c **** 
1512:.\Generated_Source\PSoC5/CapSense_CSHL.c ****         }
1513:.\Generated_Source\PSoC5/CapSense_CSHL.c ****         else
1514:.\Generated_Source\PSoC5/CapSense_CSHL.c ****         {
1515:.\Generated_Source\PSoC5/CapSense_CSHL.c ****             /* The maximum didn't find */
1516:.\Generated_Source\PSoC5/CapSense_CSHL.c ****             position = 0xFFFFu;
1517:.\Generated_Source\PSoC5/CapSense_CSHL.c **** 
1518:.\Generated_Source\PSoC5/CapSense_CSHL.c ****             #if (0u != CapSense_RADIAL_SLIDERS_POS_FILTERS_MASK)
1519:.\Generated_Source\PSoC5/CapSense_CSHL.c ****                 /* Reset the filters */
1520:.\Generated_Source\PSoC5/CapSense_CSHL.c ****                 if((posFiltersMask & CapSense_ANY_POS_FILTER) != 0u)
1521:.\Generated_Source\PSoC5/CapSense_CSHL.c ****                 {
1522:.\Generated_Source\PSoC5/CapSense_CSHL.c ****                     CapSense_posFiltersData[firstTimeIndex] = 0u;
1523:.\Generated_Source\PSoC5/CapSense_CSHL.c ****                 }
1524:.\Generated_Source\PSoC5/CapSense_CSHL.c ****             #endif
1525:.\Generated_Source\PSoC5/CapSense_CSHL.c ****         }
1526:.\Generated_Source\PSoC5/CapSense_CSHL.c ****         
1527:.\Generated_Source\PSoC5/CapSense_CSHL.c ****         return (position);
1528:.\Generated_Source\PSoC5/CapSense_CSHL.c ****     }
1529:.\Generated_Source\PSoC5/CapSense_CSHL.c **** #endif
1530:.\Generated_Source\PSoC5/CapSense_CSHL.c **** 
1531:.\Generated_Source\PSoC5/CapSense_CSHL.c **** 
1532:.\Generated_Source\PSoC5/CapSense_CSHL.c **** #if(CapSense_TOTAL_TOUCH_PADS_COUNT > 0u)
1533:.\Generated_Source\PSoC5/CapSense_CSHL.c ****     /*******************************************************************************
1534:.\Generated_Source\PSoC5/CapSense_CSHL.c ****     * Function Name: CapSense_GetTouchCentroidPos
1535:.\Generated_Source\PSoC5/CapSense_CSHL.c ****     ********************************************************************************
1536:.\Generated_Source\PSoC5/CapSense_CSHL.c ****     *
1537:.\Generated_Source\PSoC5/CapSense_CSHL.c ****     * Summary:
1538:.\Generated_Source\PSoC5/CapSense_CSHL.c ****     *  If a finger is present on touch pad, this function calculates the X and Y
1539:.\Generated_Source\PSoC5/CapSense_CSHL.c ****     *  position of the finger by calculating the centroids within touch pad specified
1540:.\Generated_Source\PSoC5/CapSense_CSHL.c ****     *  range. The X and Y positions are calculated to the API resolutions set in the
1541:.\Generated_Source\PSoC5/CapSense_CSHL.c ****     *  CapSense customizer. Returns a 1 if a finger is on the touchpad.
1542:.\Generated_Source\PSoC5/CapSense_CSHL.c ****     *  The position filter is applied to the result if enabled.
1543:.\Generated_Source\PSoC5/CapSense_CSHL.c ****     *  This function is available only if a touch pad is defined by the CapSense
1544:.\Generated_Source\PSoC5/CapSense_CSHL.c ****     *  customizer.
1545:.\Generated_Source\PSoC5/CapSense_CSHL.c ****     *
1546:.\Generated_Source\PSoC5/CapSense_CSHL.c ****     * Parameters:
1547:.\Generated_Source\PSoC5/CapSense_CSHL.c ****     *  widget:  Widget number. 
1548:.\Generated_Source\PSoC5/CapSense_CSHL.c ****     *  For every touchpad widget there are defines in this format:
1549:.\Generated_Source\PSoC5/CapSense_CSHL.c ****     *  #define CapSense_TP_"widget_name"            5
1550:.\Generated_Source\PSoC5/CapSense_CSHL.c ****     *
1551:.\Generated_Source\PSoC5/CapSense_CSHL.c ****     *  pos:     Pointer to the array of two uint16 elements, where result
1552:.\Generated_Source\PSoC5/CapSense_CSHL.c ****     *  result of calculation of X and Y position are stored.
1553:.\Generated_Source\PSoC5/CapSense_CSHL.c ****     *  pos[0u]  - position of X
1554:.\Generated_Source\PSoC5/CapSense_CSHL.c ****     *  pos[1u]  - position of Y
1555:.\Generated_Source\PSoC5/CapSense_CSHL.c ****     *
1556:.\Generated_Source\PSoC5/CapSense_CSHL.c ****     * Return:
1557:.\Generated_Source\PSoC5/CapSense_CSHL.c ****     *  Returns a 1 if a finger is on the touch pad, 0 - if not.
1558:.\Generated_Source\PSoC5/CapSense_CSHL.c ****     *
1559:.\Generated_Source\PSoC5/CapSense_CSHL.c ****     * Side Effects:
1560:.\Generated_Source\PSoC5/CapSense_CSHL.c ****     *   There are no checks of widget type argument provided to this function.
1561:.\Generated_Source\PSoC5/CapSense_CSHL.c ****     *   The unproper widget type provided will cause unexpected position
1562:.\Generated_Source\PSoC5/CapSense_CSHL.c ****     *   calculations.
1563:.\Generated_Source\PSoC5/CapSense_CSHL.c ****     *
1564:.\Generated_Source\PSoC5/CapSense_CSHL.c ****     * Reentrant:
1565:.\Generated_Source\PSoC5/CapSense_CSHL.c ****     *  No.
ARM GAS  C:\Users\Geo\AppData\Local\Temp\cc0UCTwq.s 			page 49


1566:.\Generated_Source\PSoC5/CapSense_CSHL.c ****     *
1567:.\Generated_Source\PSoC5/CapSense_CSHL.c ****     *******************************************************************************/
1568:.\Generated_Source\PSoC5/CapSense_CSHL.c ****     uint8 CapSense_GetTouchCentroidPos(uint8 widget, uint16* pos)
1569:.\Generated_Source\PSoC5/CapSense_CSHL.c ****     {
1570:.\Generated_Source\PSoC5/CapSense_CSHL.c ****         #if (0u != CapSense_TOUCH_PADS_POS_FILTERS_MASK)
1571:.\Generated_Source\PSoC5/CapSense_CSHL.c ****             uint8 posXIndex;
1572:.\Generated_Source\PSoC5/CapSense_CSHL.c ****             uint8 posYIndex;
1573:.\Generated_Source\PSoC5/CapSense_CSHL.c ****             uint8 firstTimeIndex = CapSense_posFiltersData[widget];
1574:.\Generated_Source\PSoC5/CapSense_CSHL.c ****             uint8 posFiltersMask = CapSense_posFiltersMask[widget];
1575:.\Generated_Source\PSoC5/CapSense_CSHL.c ****         #endif
1576:.\Generated_Source\PSoC5/CapSense_CSHL.c ****         #if ((0u != (CapSense_MEDIAN_FILTER & CapSense_TOUCH_PADS_POS_FILTERS_MASK)) || \
1577:.\Generated_Source\PSoC5/CapSense_CSHL.c ****              (0u != (CapSense_AVERAGING_FILTER & CapSense_TOUCH_PADS_POS_FILTERS_MASK)))
1578:.\Generated_Source\PSoC5/CapSense_CSHL.c ****             uint16 tempPos;
1579:.\Generated_Source\PSoC5/CapSense_CSHL.c ****         #endif
1580:.\Generated_Source\PSoC5/CapSense_CSHL.c **** 
1581:.\Generated_Source\PSoC5/CapSense_CSHL.c ****         uint8 MaxX;
1582:.\Generated_Source\PSoC5/CapSense_CSHL.c ****         uint8 MaxY;
1583:.\Generated_Source\PSoC5/CapSense_CSHL.c ****         uint8 posX;
1584:.\Generated_Source\PSoC5/CapSense_CSHL.c ****         uint8 posY;
1585:.\Generated_Source\PSoC5/CapSense_CSHL.c ****         uint8 touch = 0u;
1586:.\Generated_Source\PSoC5/CapSense_CSHL.c ****         uint8 offset = CapSense_rawDataIndex[widget];
1587:.\Generated_Source\PSoC5/CapSense_CSHL.c ****         uint8 count = CapSense_numberOfSensors[widget];
1588:.\Generated_Source\PSoC5/CapSense_CSHL.c ****         
1589:.\Generated_Source\PSoC5/CapSense_CSHL.c ****         /* Find Maximum within X centroid */
1590:.\Generated_Source\PSoC5/CapSense_CSHL.c ****         #if (CapSense_IS_DIPLEX_SLIDER)
1591:.\Generated_Source\PSoC5/CapSense_CSHL.c ****             MaxX = CapSense_FindMaximum(offset, count, CapSense_fingerThreshold[widget], 0u);
1592:.\Generated_Source\PSoC5/CapSense_CSHL.c ****         #else
1593:.\Generated_Source\PSoC5/CapSense_CSHL.c ****             MaxX = CapSense_FindMaximum(offset, count, CapSense_fingerThreshold[widget]);
1594:.\Generated_Source\PSoC5/CapSense_CSHL.c ****         #endif
1595:.\Generated_Source\PSoC5/CapSense_CSHL.c **** 
1596:.\Generated_Source\PSoC5/CapSense_CSHL.c ****         if (MaxX != 0xFFu)
1597:.\Generated_Source\PSoC5/CapSense_CSHL.c ****         {
1598:.\Generated_Source\PSoC5/CapSense_CSHL.c ****             offset = CapSense_rawDataIndex[widget + 1u];
1599:.\Generated_Source\PSoC5/CapSense_CSHL.c ****             count = CapSense_numberOfSensors[widget + 1u];
1600:.\Generated_Source\PSoC5/CapSense_CSHL.c **** 
1601:.\Generated_Source\PSoC5/CapSense_CSHL.c ****             /* Find Maximum within Y centroid */
1602:.\Generated_Source\PSoC5/CapSense_CSHL.c ****             #if (CapSense_IS_DIPLEX_SLIDER)
1603:.\Generated_Source\PSoC5/CapSense_CSHL.c ****                 MaxY = CapSense_FindMaximum(offset, count, CapSense_fingerThreshold[widget + 1u], 0
1604:.\Generated_Source\PSoC5/CapSense_CSHL.c ****             #else
1605:.\Generated_Source\PSoC5/CapSense_CSHL.c ****                 MaxY = CapSense_FindMaximum(offset, count, CapSense_fingerThreshold[widget + 1u]);
1606:.\Generated_Source\PSoC5/CapSense_CSHL.c ****             #endif
1607:.\Generated_Source\PSoC5/CapSense_CSHL.c **** 
1608:.\Generated_Source\PSoC5/CapSense_CSHL.c ****             if (MaxY != 0xFFu)
1609:.\Generated_Source\PSoC5/CapSense_CSHL.c ****             {
1610:.\Generated_Source\PSoC5/CapSense_CSHL.c ****                 /* X and Y maximums are found = true touch */
1611:.\Generated_Source\PSoC5/CapSense_CSHL.c ****                 touch = 1u;
1612:.\Generated_Source\PSoC5/CapSense_CSHL.c ****                 
1613:.\Generated_Source\PSoC5/CapSense_CSHL.c ****                 /* Calculate Y centroid */
1614:.\Generated_Source\PSoC5/CapSense_CSHL.c ****                 posY = CapSense_CalcCentroid(MaxY, offset, count, 
1615:.\Generated_Source\PSoC5/CapSense_CSHL.c ****                             CapSense_centroidMult[widget + 1u], CapSense_noiseThreshold[widget + 1u
1616:.\Generated_Source\PSoC5/CapSense_CSHL.c ****                 
1617:.\Generated_Source\PSoC5/CapSense_CSHL.c ****                 /* Calculate X centroid */
1618:.\Generated_Source\PSoC5/CapSense_CSHL.c ****                 offset = CapSense_rawDataIndex[widget];
1619:.\Generated_Source\PSoC5/CapSense_CSHL.c ****                 count = CapSense_numberOfSensors[widget];
1620:.\Generated_Source\PSoC5/CapSense_CSHL.c ****                 
1621:.\Generated_Source\PSoC5/CapSense_CSHL.c ****                 posX = CapSense_CalcCentroid(MaxX, offset, count, 
1622:.\Generated_Source\PSoC5/CapSense_CSHL.c ****                             CapSense_centroidMult[widget],CapSense_noiseThreshold[widget]);
ARM GAS  C:\Users\Geo\AppData\Local\Temp\cc0UCTwq.s 			page 50


1623:.\Generated_Source\PSoC5/CapSense_CSHL.c ****     
1624:.\Generated_Source\PSoC5/CapSense_CSHL.c ****                 #if (0u != CapSense_TOUCH_PADS_POS_FILTERS_MASK)
1625:.\Generated_Source\PSoC5/CapSense_CSHL.c ****                     /* Check if this TP has enabled filters */
1626:.\Generated_Source\PSoC5/CapSense_CSHL.c ****                     if (0u != (posFiltersMask & CapSense_ANY_POS_FILTER))
1627:.\Generated_Source\PSoC5/CapSense_CSHL.c ****                     {
1628:.\Generated_Source\PSoC5/CapSense_CSHL.c ****                         /* Caluclate position to store filters data */
1629:.\Generated_Source\PSoC5/CapSense_CSHL.c ****                         posXIndex  = firstTimeIndex + 1u;
1630:.\Generated_Source\PSoC5/CapSense_CSHL.c ****                         posYIndex  = CapSense_posFiltersData[widget + 1u];
1631:.\Generated_Source\PSoC5/CapSense_CSHL.c ****                         
1632:.\Generated_Source\PSoC5/CapSense_CSHL.c ****                         if (0u == CapSense_posFiltersData[firstTimeIndex])
1633:.\Generated_Source\PSoC5/CapSense_CSHL.c ****                         {
1634:.\Generated_Source\PSoC5/CapSense_CSHL.c ****                             /* Init filters */
1635:.\Generated_Source\PSoC5/CapSense_CSHL.c ****                             CapSense_posFiltersData[posXIndex] = posX;
1636:.\Generated_Source\PSoC5/CapSense_CSHL.c ****                             CapSense_posFiltersData[posYIndex] = posY;
1637:.\Generated_Source\PSoC5/CapSense_CSHL.c ****                             #if ((0u != (CapSense_MEDIAN_FILTER & CapSense_TOUCH_PADS_POS_FILTERS_M
1638:.\Generated_Source\PSoC5/CapSense_CSHL.c ****                                  (0u != (CapSense_AVERAGING_FILTER & CapSense_TOUCH_PADS_POS_FILTER
1639:.\Generated_Source\PSoC5/CapSense_CSHL.c ****                                 if ( (0u != (posFiltersMask & CapSense_MEDIAN_FILTER)) || 
1640:.\Generated_Source\PSoC5/CapSense_CSHL.c ****                                      (0u != (posFiltersMask & CapSense_AVERAGING_FILTER)) )
1641:.\Generated_Source\PSoC5/CapSense_CSHL.c ****                                 {
1642:.\Generated_Source\PSoC5/CapSense_CSHL.c ****                                     CapSense_posFiltersData[posXIndex + 1u] = posX;
1643:.\Generated_Source\PSoC5/CapSense_CSHL.c ****                                     CapSense_posFiltersData[posYIndex + 1u] = posY;
1644:.\Generated_Source\PSoC5/CapSense_CSHL.c ****                                 }
1645:.\Generated_Source\PSoC5/CapSense_CSHL.c ****                             #endif
1646:.\Generated_Source\PSoC5/CapSense_CSHL.c ****                             
1647:.\Generated_Source\PSoC5/CapSense_CSHL.c ****                             CapSense_posFiltersData[firstTimeIndex] = 1u;
1648:.\Generated_Source\PSoC5/CapSense_CSHL.c ****                         }
1649:.\Generated_Source\PSoC5/CapSense_CSHL.c ****                         else
1650:.\Generated_Source\PSoC5/CapSense_CSHL.c ****                         {
1651:.\Generated_Source\PSoC5/CapSense_CSHL.c ****                             /* Do filtering */
1652:.\Generated_Source\PSoC5/CapSense_CSHL.c ****                             #if (0u != (CapSense_MEDIAN_FILTER & CapSense_TOUCH_PADS_POS_FILTERS_MA
1653:.\Generated_Source\PSoC5/CapSense_CSHL.c ****                                 if (0u != (posFiltersMask & CapSense_MEDIAN_FILTER))
1654:.\Generated_Source\PSoC5/CapSense_CSHL.c ****                                 {
1655:.\Generated_Source\PSoC5/CapSense_CSHL.c ****                                     tempPos = posX;
1656:.\Generated_Source\PSoC5/CapSense_CSHL.c ****                                     posX = (uint8) CapSense_MedianFilter(posX, CapSense_posFiltersD
1657:.\Generated_Source\PSoC5/CapSense_CSHL.c ****                                       CapSense_posFiltersData[posXIndex + 1u]);
1658:.\Generated_Source\PSoC5/CapSense_CSHL.c ****                                     CapSense_posFiltersData[posXIndex + 1u] = CapSense_posFiltersDa
1659:.\Generated_Source\PSoC5/CapSense_CSHL.c ****                                     CapSense_posFiltersData[posXIndex] = tempPos;
1660:.\Generated_Source\PSoC5/CapSense_CSHL.c ****                                     
1661:.\Generated_Source\PSoC5/CapSense_CSHL.c ****                                     tempPos = posY;
1662:.\Generated_Source\PSoC5/CapSense_CSHL.c ****                                     posY = (uint8) CapSense_MedianFilter(posY, CapSense_posFiltersD
1663:.\Generated_Source\PSoC5/CapSense_CSHL.c ****                                       CapSense_posFiltersData[posYIndex + 1u]);
1664:.\Generated_Source\PSoC5/CapSense_CSHL.c ****                                     CapSense_posFiltersData[posYIndex + 1u] = CapSense_posFiltersDa
1665:.\Generated_Source\PSoC5/CapSense_CSHL.c ****                                     CapSense_posFiltersData[posYIndex] = tempPos;
1666:.\Generated_Source\PSoC5/CapSense_CSHL.c ****                                 }
1667:.\Generated_Source\PSoC5/CapSense_CSHL.c ****                                 
1668:.\Generated_Source\PSoC5/CapSense_CSHL.c ****                             #endif
1669:.\Generated_Source\PSoC5/CapSense_CSHL.c **** 
1670:.\Generated_Source\PSoC5/CapSense_CSHL.c ****                             #if (0u != (CapSense_AVERAGING_FILTER & CapSense_TOUCH_PADS_POS_FILTERS
1671:.\Generated_Source\PSoC5/CapSense_CSHL.c ****                                 if (0u != (posFiltersMask & CapSense_AVERAGING_FILTER))
1672:.\Generated_Source\PSoC5/CapSense_CSHL.c ****                                 {
1673:.\Generated_Source\PSoC5/CapSense_CSHL.c ****                                     tempPos = posX;
1674:.\Generated_Source\PSoC5/CapSense_CSHL.c ****                                     posX = (uint8) CapSense_AveragingFilter(posX, CapSense_posFilte
1675:.\Generated_Source\PSoC5/CapSense_CSHL.c ****                                       CapSense_posFiltersData[posXIndex + 1u]);
1676:.\Generated_Source\PSoC5/CapSense_CSHL.c ****                                     CapSense_posFiltersData[posXIndex + 1u] = CapSense_posFiltersDa
1677:.\Generated_Source\PSoC5/CapSense_CSHL.c ****                                     CapSense_posFiltersData[posXIndex] = tempPos;
1678:.\Generated_Source\PSoC5/CapSense_CSHL.c ****                                     
1679:.\Generated_Source\PSoC5/CapSense_CSHL.c ****                                     tempPos = posY;
ARM GAS  C:\Users\Geo\AppData\Local\Temp\cc0UCTwq.s 			page 51


1680:.\Generated_Source\PSoC5/CapSense_CSHL.c ****                                     posY = (uint8) CapSense_AveragingFilter(posY, CapSense_posFilte
1681:.\Generated_Source\PSoC5/CapSense_CSHL.c ****                                       CapSense_posFiltersData[posYIndex + 1u]);
1682:.\Generated_Source\PSoC5/CapSense_CSHL.c ****                                     CapSense_posFiltersData[posYIndex + 1u] = CapSense_posFiltersDa
1683:.\Generated_Source\PSoC5/CapSense_CSHL.c ****                                     CapSense_posFiltersData[posYIndex] = tempPos;
1684:.\Generated_Source\PSoC5/CapSense_CSHL.c ****                                 }
1685:.\Generated_Source\PSoC5/CapSense_CSHL.c ****                                 
1686:.\Generated_Source\PSoC5/CapSense_CSHL.c ****                             #endif
1687:.\Generated_Source\PSoC5/CapSense_CSHL.c **** 
1688:.\Generated_Source\PSoC5/CapSense_CSHL.c ****                             #if (0u != (CapSense_IIR2_FILTER & CapSense_TOUCH_PADS_POS_FILTERS_MASK
1689:.\Generated_Source\PSoC5/CapSense_CSHL.c ****                                 if (0u != (posFiltersMask & CapSense_IIR2_FILTER))
1690:.\Generated_Source\PSoC5/CapSense_CSHL.c ****                                 {
1691:.\Generated_Source\PSoC5/CapSense_CSHL.c ****                                     posX = (uint8) CapSense_IIR2Filter(posX, CapSense_posFiltersDat
1692:.\Generated_Source\PSoC5/CapSense_CSHL.c ****                                     CapSense_posFiltersData[posXIndex] = posX;
1693:.\Generated_Source\PSoC5/CapSense_CSHL.c ****                                     
1694:.\Generated_Source\PSoC5/CapSense_CSHL.c ****                                     posY = (uint8) CapSense_IIR2Filter(posY, CapSense_posFiltersDat
1695:.\Generated_Source\PSoC5/CapSense_CSHL.c ****                                     CapSense_posFiltersData[posYIndex] = posY;
1696:.\Generated_Source\PSoC5/CapSense_CSHL.c ****                                 }
1697:.\Generated_Source\PSoC5/CapSense_CSHL.c ****                                 
1698:.\Generated_Source\PSoC5/CapSense_CSHL.c ****                             #endif
1699:.\Generated_Source\PSoC5/CapSense_CSHL.c **** 
1700:.\Generated_Source\PSoC5/CapSense_CSHL.c ****                             #if (0u != (CapSense_IIR4_FILTER & CapSense_TOUCH_PADS_POS_FILTERS_MASK
1701:.\Generated_Source\PSoC5/CapSense_CSHL.c ****                                 if (0u != (posFiltersMask & CapSense_IIR4_FILTER))
1702:.\Generated_Source\PSoC5/CapSense_CSHL.c ****                                 {
1703:.\Generated_Source\PSoC5/CapSense_CSHL.c ****                                     posX = (uint8) CapSense_IIR4Filter(posX, CapSense_posFiltersDat
1704:.\Generated_Source\PSoC5/CapSense_CSHL.c ****                                     CapSense_posFiltersData[posXIndex] = posX;
1705:.\Generated_Source\PSoC5/CapSense_CSHL.c ****                                     
1706:.\Generated_Source\PSoC5/CapSense_CSHL.c ****                                     posY = (uint8) CapSense_IIR4Filter(posY, CapSense_posFiltersDat
1707:.\Generated_Source\PSoC5/CapSense_CSHL.c ****                                     CapSense_posFiltersData[posYIndex] = posY;
1708:.\Generated_Source\PSoC5/CapSense_CSHL.c ****                                 }
1709:.\Generated_Source\PSoC5/CapSense_CSHL.c ****                                 
1710:.\Generated_Source\PSoC5/CapSense_CSHL.c ****                             #endif
1711:.\Generated_Source\PSoC5/CapSense_CSHL.c **** 
1712:.\Generated_Source\PSoC5/CapSense_CSHL.c ****                             #if (0u != (CapSense_JITTER_FILTER & CapSense_TOUCH_PADS_POS_FILTERS_MA
1713:.\Generated_Source\PSoC5/CapSense_CSHL.c ****                                 if (0u != (posFiltersMask & CapSense_JITTER_FILTER))
1714:.\Generated_Source\PSoC5/CapSense_CSHL.c ****                                     {
1715:.\Generated_Source\PSoC5/CapSense_CSHL.c ****                                         posX = (uint8) CapSense_JitterFilter(posX, CapSense_posFilt
1716:.\Generated_Source\PSoC5/CapSense_CSHL.c ****                                         CapSense_posFiltersData[posXIndex] = posX;
1717:.\Generated_Source\PSoC5/CapSense_CSHL.c ****                                         
1718:.\Generated_Source\PSoC5/CapSense_CSHL.c ****                                         posY = (uint8) CapSense_JitterFilter(posY, CapSense_posFilt
1719:.\Generated_Source\PSoC5/CapSense_CSHL.c ****                                         CapSense_posFiltersData[posYIndex] = posY;
1720:.\Generated_Source\PSoC5/CapSense_CSHL.c ****                                     }
1721:.\Generated_Source\PSoC5/CapSense_CSHL.c ****                             #endif
1722:.\Generated_Source\PSoC5/CapSense_CSHL.c ****                         }
1723:.\Generated_Source\PSoC5/CapSense_CSHL.c ****                     }
1724:.\Generated_Source\PSoC5/CapSense_CSHL.c ****                 #endif
1725:.\Generated_Source\PSoC5/CapSense_CSHL.c **** 
1726:.\Generated_Source\PSoC5/CapSense_CSHL.c ****                 /* Save positions */
1727:.\Generated_Source\PSoC5/CapSense_CSHL.c ****                 pos[0u] = posX;
1728:.\Generated_Source\PSoC5/CapSense_CSHL.c ****                 pos[1u] = posY;
1729:.\Generated_Source\PSoC5/CapSense_CSHL.c ****             }
1730:.\Generated_Source\PSoC5/CapSense_CSHL.c ****         }
1731:.\Generated_Source\PSoC5/CapSense_CSHL.c **** 
1732:.\Generated_Source\PSoC5/CapSense_CSHL.c ****         #if (0u != CapSense_TOUCH_PADS_POS_FILTERS_MASK)
1733:.\Generated_Source\PSoC5/CapSense_CSHL.c ****             if(touch == 0u)
1734:.\Generated_Source\PSoC5/CapSense_CSHL.c ****             {
1735:.\Generated_Source\PSoC5/CapSense_CSHL.c ****                 /* Reset the filters */
1736:.\Generated_Source\PSoC5/CapSense_CSHL.c ****                 if ((posFiltersMask & CapSense_ANY_POS_FILTER) != 0u)
ARM GAS  C:\Users\Geo\AppData\Local\Temp\cc0UCTwq.s 			page 52


1737:.\Generated_Source\PSoC5/CapSense_CSHL.c ****                 {
1738:.\Generated_Source\PSoC5/CapSense_CSHL.c ****                     CapSense_posFiltersData[firstTimeIndex] = 0u;
1739:.\Generated_Source\PSoC5/CapSense_CSHL.c ****                 }
1740:.\Generated_Source\PSoC5/CapSense_CSHL.c ****             }
1741:.\Generated_Source\PSoC5/CapSense_CSHL.c ****         #endif
1742:.\Generated_Source\PSoC5/CapSense_CSHL.c ****         
1743:.\Generated_Source\PSoC5/CapSense_CSHL.c ****         return (touch);
1744:.\Generated_Source\PSoC5/CapSense_CSHL.c ****     }
1745:.\Generated_Source\PSoC5/CapSense_CSHL.c **** #endif
1746:.\Generated_Source\PSoC5/CapSense_CSHL.c **** 
1747:.\Generated_Source\PSoC5/CapSense_CSHL.c **** 
1748:.\Generated_Source\PSoC5/CapSense_CSHL.c **** #if ( (CapSense_RAW_FILTER_MASK & CapSense_MEDIAN_FILTER) || \
1749:.\Generated_Source\PSoC5/CapSense_CSHL.c ****       (CapSense_POS_FILTERS_MASK & CapSense_MEDIAN_FILTER) )
1750:.\Generated_Source\PSoC5/CapSense_CSHL.c ****     /*******************************************************************************
1751:.\Generated_Source\PSoC5/CapSense_CSHL.c ****     * Function Name: CapSense_MedianFilter
1752:.\Generated_Source\PSoC5/CapSense_CSHL.c ****     ********************************************************************************
1753:.\Generated_Source\PSoC5/CapSense_CSHL.c ****     *
1754:.\Generated_Source\PSoC5/CapSense_CSHL.c ****     * Summary:
1755:.\Generated_Source\PSoC5/CapSense_CSHL.c ****     *  Median filter function. 
1756:.\Generated_Source\PSoC5/CapSense_CSHL.c ****     *  The median filter looks at the three most recent samples and reports the 
1757:.\Generated_Source\PSoC5/CapSense_CSHL.c ****     *  median value.
1758:.\Generated_Source\PSoC5/CapSense_CSHL.c ****     *
1759:.\Generated_Source\PSoC5/CapSense_CSHL.c ****     * Parameters:
1760:.\Generated_Source\PSoC5/CapSense_CSHL.c ****     *  x1:  Current value.
1761:.\Generated_Source\PSoC5/CapSense_CSHL.c ****     *  x2:  Previous value.
1762:.\Generated_Source\PSoC5/CapSense_CSHL.c ****     *  x3:  Before previous value.
1763:.\Generated_Source\PSoC5/CapSense_CSHL.c ****     *
1764:.\Generated_Source\PSoC5/CapSense_CSHL.c ****     * Return:
1765:.\Generated_Source\PSoC5/CapSense_CSHL.c ****     *  Returns filtered value.
1766:.\Generated_Source\PSoC5/CapSense_CSHL.c ****     *
1767:.\Generated_Source\PSoC5/CapSense_CSHL.c ****     *******************************************************************************/
1768:.\Generated_Source\PSoC5/CapSense_CSHL.c ****     uint16 CapSense_MedianFilter(uint16 x1, uint16 x2, uint16 x3) \
1769:.\Generated_Source\PSoC5/CapSense_CSHL.c ****                                          
1770:.\Generated_Source\PSoC5/CapSense_CSHL.c ****     {
1771:.\Generated_Source\PSoC5/CapSense_CSHL.c ****         uint16 tmp;
1772:.\Generated_Source\PSoC5/CapSense_CSHL.c ****         
1773:.\Generated_Source\PSoC5/CapSense_CSHL.c ****         if (x1 > x2)
1774:.\Generated_Source\PSoC5/CapSense_CSHL.c ****         {
1775:.\Generated_Source\PSoC5/CapSense_CSHL.c ****             tmp = x2;
1776:.\Generated_Source\PSoC5/CapSense_CSHL.c ****             x2 = x1;
1777:.\Generated_Source\PSoC5/CapSense_CSHL.c ****             x1 = tmp;
1778:.\Generated_Source\PSoC5/CapSense_CSHL.c ****         }
1779:.\Generated_Source\PSoC5/CapSense_CSHL.c ****         
1780:.\Generated_Source\PSoC5/CapSense_CSHL.c ****         if (x2 > x3)
1781:.\Generated_Source\PSoC5/CapSense_CSHL.c ****         {
1782:.\Generated_Source\PSoC5/CapSense_CSHL.c ****             x2 = x3;
1783:.\Generated_Source\PSoC5/CapSense_CSHL.c ****         }
1784:.\Generated_Source\PSoC5/CapSense_CSHL.c ****         
1785:.\Generated_Source\PSoC5/CapSense_CSHL.c ****         return ((x1 > x2) ? x1 : x2);
1786:.\Generated_Source\PSoC5/CapSense_CSHL.c ****     }
1787:.\Generated_Source\PSoC5/CapSense_CSHL.c **** #endif /* End CapSense_RAW_FILTER_MASK && CapSense_POS_FILTERS_MASK */
1788:.\Generated_Source\PSoC5/CapSense_CSHL.c **** 
1789:.\Generated_Source\PSoC5/CapSense_CSHL.c **** 
1790:.\Generated_Source\PSoC5/CapSense_CSHL.c **** #if ( (CapSense_RAW_FILTER_MASK & CapSense_AVERAGING_FILTER) || \
1791:.\Generated_Source\PSoC5/CapSense_CSHL.c ****       (CapSense_POS_FILTERS_MASK & CapSense_AVERAGING_FILTER) )
1792:.\Generated_Source\PSoC5/CapSense_CSHL.c ****     /*******************************************************************************
1793:.\Generated_Source\PSoC5/CapSense_CSHL.c ****     * Function Name: CapSense_AveragingFilter
ARM GAS  C:\Users\Geo\AppData\Local\Temp\cc0UCTwq.s 			page 53


1794:.\Generated_Source\PSoC5/CapSense_CSHL.c ****     ********************************************************************************
1795:.\Generated_Source\PSoC5/CapSense_CSHL.c ****     *
1796:.\Generated_Source\PSoC5/CapSense_CSHL.c ****     * Summary:
1797:.\Generated_Source\PSoC5/CapSense_CSHL.c ****     *  Averaging filter function.
1798:.\Generated_Source\PSoC5/CapSense_CSHL.c ****     *  The averaging filter looks at the three most recent samples of position and
1799:.\Generated_Source\PSoC5/CapSense_CSHL.c ****     *  reports the averaging value.
1800:.\Generated_Source\PSoC5/CapSense_CSHL.c ****     *
1801:.\Generated_Source\PSoC5/CapSense_CSHL.c ****     * Parameters:
1802:.\Generated_Source\PSoC5/CapSense_CSHL.c ****     *  x1:  Current value.
1803:.\Generated_Source\PSoC5/CapSense_CSHL.c ****     *  x2:  Previous value.
1804:.\Generated_Source\PSoC5/CapSense_CSHL.c ****     *  x3:  Before previous value.
1805:.\Generated_Source\PSoC5/CapSense_CSHL.c ****     *
1806:.\Generated_Source\PSoC5/CapSense_CSHL.c ****     * Return:
1807:.\Generated_Source\PSoC5/CapSense_CSHL.c ****     *  Returns filtered value.
1808:.\Generated_Source\PSoC5/CapSense_CSHL.c ****     *
1809:.\Generated_Source\PSoC5/CapSense_CSHL.c ****     *******************************************************************************/
1810:.\Generated_Source\PSoC5/CapSense_CSHL.c ****     uint16 CapSense_AveragingFilter(uint16 x1, uint16 x2, uint16 x3) \
1811:.\Generated_Source\PSoC5/CapSense_CSHL.c ****                                             
1812:.\Generated_Source\PSoC5/CapSense_CSHL.c ****     {
1813:.\Generated_Source\PSoC5/CapSense_CSHL.c ****         uint32 tmp = ((uint32)x1 + (uint32)x2 + (uint32)x3) / 3u;
1814:.\Generated_Source\PSoC5/CapSense_CSHL.c ****         
1815:.\Generated_Source\PSoC5/CapSense_CSHL.c ****         return ((uint16) tmp);
1816:.\Generated_Source\PSoC5/CapSense_CSHL.c ****     }
1817:.\Generated_Source\PSoC5/CapSense_CSHL.c **** #endif /* End CapSense_RAW_FILTER_MASK && CapSense_POS_FILTERS_MASK */
1818:.\Generated_Source\PSoC5/CapSense_CSHL.c **** 
1819:.\Generated_Source\PSoC5/CapSense_CSHL.c **** 
1820:.\Generated_Source\PSoC5/CapSense_CSHL.c **** #if ( (CapSense_RAW_FILTER_MASK & CapSense_IIR2_FILTER) || \
1821:.\Generated_Source\PSoC5/CapSense_CSHL.c ****       (CapSense_POS_FILTERS_MASK & CapSense_IIR2_FILTER) )
1822:.\Generated_Source\PSoC5/CapSense_CSHL.c ****     /*******************************************************************************
1823:.\Generated_Source\PSoC5/CapSense_CSHL.c ****     * Function Name: CapSense_IIR2Filter
1824:.\Generated_Source\PSoC5/CapSense_CSHL.c ****     ********************************************************************************
1825:.\Generated_Source\PSoC5/CapSense_CSHL.c ****     *
1826:.\Generated_Source\PSoC5/CapSense_CSHL.c ****     * Summary:
1827:.\Generated_Source\PSoC5/CapSense_CSHL.c ****     *  IIR1/2 filter function. IIR1/2 = 1/2current + 1/2previous.
1828:.\Generated_Source\PSoC5/CapSense_CSHL.c ****     *
1829:.\Generated_Source\PSoC5/CapSense_CSHL.c ****     * Parameters:
1830:.\Generated_Source\PSoC5/CapSense_CSHL.c ****     *  x1:  Current value.
1831:.\Generated_Source\PSoC5/CapSense_CSHL.c ****     *  x2:  Previous value.
1832:.\Generated_Source\PSoC5/CapSense_CSHL.c ****     *
1833:.\Generated_Source\PSoC5/CapSense_CSHL.c ****     * Return:
1834:.\Generated_Source\PSoC5/CapSense_CSHL.c ****     *  Returns filtered value.
1835:.\Generated_Source\PSoC5/CapSense_CSHL.c ****     *
1836:.\Generated_Source\PSoC5/CapSense_CSHL.c ****     *******************************************************************************/
1837:.\Generated_Source\PSoC5/CapSense_CSHL.c ****     uint16 CapSense_IIR2Filter(uint16 x1, uint16 x2) \
1838:.\Generated_Source\PSoC5/CapSense_CSHL.c ****                                        
1839:.\Generated_Source\PSoC5/CapSense_CSHL.c ****     {
1840:.\Generated_Source\PSoC5/CapSense_CSHL.c ****         uint32 tmp;
1841:.\Generated_Source\PSoC5/CapSense_CSHL.c ****         
1842:.\Generated_Source\PSoC5/CapSense_CSHL.c ****         /* IIR = 1/2 Current Value+ 1/2 Previous Value */
1843:.\Generated_Source\PSoC5/CapSense_CSHL.c ****         tmp = (uint32)x1 + (uint32)x2;
1844:.\Generated_Source\PSoC5/CapSense_CSHL.c ****         tmp >>= 1u;
1845:.\Generated_Source\PSoC5/CapSense_CSHL.c ****     
1846:.\Generated_Source\PSoC5/CapSense_CSHL.c ****         return ((uint16) tmp);
1847:.\Generated_Source\PSoC5/CapSense_CSHL.c ****     }
1848:.\Generated_Source\PSoC5/CapSense_CSHL.c **** #endif /* End CapSense_RAW_FILTER_MASK && CapSense_POS_FILTERS_MASK */
1849:.\Generated_Source\PSoC5/CapSense_CSHL.c **** 
1850:.\Generated_Source\PSoC5/CapSense_CSHL.c **** 
ARM GAS  C:\Users\Geo\AppData\Local\Temp\cc0UCTwq.s 			page 54


1851:.\Generated_Source\PSoC5/CapSense_CSHL.c **** #if ( (CapSense_RAW_FILTER_MASK & CapSense_IIR4_FILTER) || \
1852:.\Generated_Source\PSoC5/CapSense_CSHL.c ****       (CapSense_POS_FILTERS_MASK & CapSense_IIR4_FILTER) )
1853:.\Generated_Source\PSoC5/CapSense_CSHL.c ****     /*******************************************************************************
1854:.\Generated_Source\PSoC5/CapSense_CSHL.c ****     * Function Name: CapSense_IIR4Filter
1855:.\Generated_Source\PSoC5/CapSense_CSHL.c ****     ********************************************************************************
1856:.\Generated_Source\PSoC5/CapSense_CSHL.c ****     *
1857:.\Generated_Source\PSoC5/CapSense_CSHL.c ****     * Summary:
1858:.\Generated_Source\PSoC5/CapSense_CSHL.c ****     *  IIR1/4 filter function. IIR1/4 = 1/4current + 3/4previous.
1859:.\Generated_Source\PSoC5/CapSense_CSHL.c ****     *
1860:.\Generated_Source\PSoC5/CapSense_CSHL.c ****     * Parameters:
1861:.\Generated_Source\PSoC5/CapSense_CSHL.c ****     *  x1:  Current value.
1862:.\Generated_Source\PSoC5/CapSense_CSHL.c ****     *  x2:  Previous value.
1863:.\Generated_Source\PSoC5/CapSense_CSHL.c ****     *
1864:.\Generated_Source\PSoC5/CapSense_CSHL.c ****     * Return:
1865:.\Generated_Source\PSoC5/CapSense_CSHL.c ****     *  Returns filtered value.
1866:.\Generated_Source\PSoC5/CapSense_CSHL.c ****     *
1867:.\Generated_Source\PSoC5/CapSense_CSHL.c ****     *******************************************************************************/
1868:.\Generated_Source\PSoC5/CapSense_CSHL.c ****     uint16 CapSense_IIR4Filter(uint16 x1, uint16 x2) \
1869:.\Generated_Source\PSoC5/CapSense_CSHL.c ****                                        
1870:.\Generated_Source\PSoC5/CapSense_CSHL.c ****     {
 1166              		.loc 1 1870 0
 1167              		.cfi_startproc
 1168              		@ args = 0, pretend = 0, frame = 16
 1169              		@ frame_needed = 1, uses_anonymous_args = 0
 1170              		@ link register save eliminated.
 1171 0000 80B4     		push	{r7}
 1172              	.LCFI33:
 1173              		.cfi_def_cfa_offset 4
 1174 0002 85B0     		sub	sp, sp, #20
 1175              	.LCFI34:
 1176              		.cfi_def_cfa_offset 24
 1177 0004 00AF     		add	r7, sp, #0
 1178              		.cfi_offset 7, -4
 1179              	.LCFI35:
 1180              		.cfi_def_cfa_register 7
 1181 0006 0246     		mov	r2, r0
 1182 0008 0B46     		mov	r3, r1
 1183 000a FA80     		strh	r2, [r7, #6]	@ movhi
 1184 000c BB80     		strh	r3, [r7, #4]	@ movhi
1871:.\Generated_Source\PSoC5/CapSense_CSHL.c ****         uint32 tmp;
1872:.\Generated_Source\PSoC5/CapSense_CSHL.c ****         
1873:.\Generated_Source\PSoC5/CapSense_CSHL.c ****         /* IIR = 1/4 Current Value + 3/4 Previous Value */
1874:.\Generated_Source\PSoC5/CapSense_CSHL.c ****         tmp = (uint32)x1 + (uint32)x2;
 1185              		.loc 1 1874 0
 1186 000e FA88     		ldrh	r2, [r7, #6]
 1187 0010 BB88     		ldrh	r3, [r7, #4]
 1188 0012 1344     		add	r3, r2, r3
 1189 0014 FB60     		str	r3, [r7, #12]
1875:.\Generated_Source\PSoC5/CapSense_CSHL.c ****         tmp += ((uint32)x2 << 1u);
 1190              		.loc 1 1875 0
 1191 0016 BB88     		ldrh	r3, [r7, #4]
 1192 0018 4FEA4303 		lsl	r3, r3, #1
 1193 001c FA68     		ldr	r2, [r7, #12]
 1194 001e 1344     		add	r3, r2, r3
 1195 0020 FB60     		str	r3, [r7, #12]
1876:.\Generated_Source\PSoC5/CapSense_CSHL.c ****         tmp >>= 2u;
 1196              		.loc 1 1876 0
ARM GAS  C:\Users\Geo\AppData\Local\Temp\cc0UCTwq.s 			page 55


 1197 0022 FB68     		ldr	r3, [r7, #12]
 1198 0024 4FEA9303 		lsr	r3, r3, #2
 1199 0028 FB60     		str	r3, [r7, #12]
1877:.\Generated_Source\PSoC5/CapSense_CSHL.c ****         
1878:.\Generated_Source\PSoC5/CapSense_CSHL.c ****         return ((uint16) tmp);
 1200              		.loc 1 1878 0
 1201 002a FB68     		ldr	r3, [r7, #12]
 1202 002c 9BB2     		uxth	r3, r3
1879:.\Generated_Source\PSoC5/CapSense_CSHL.c ****     }
 1203              		.loc 1 1879 0
 1204 002e 1846     		mov	r0, r3
 1205 0030 07F11407 		add	r7, r7, #20
 1206 0034 BD46     		mov	sp, r7
 1207 0036 80BC     		pop	{r7}
 1208 0038 7047     		bx	lr
 1209              		.cfi_endproc
 1210              	.LFE11:
 1211              		.size	CapSense_IIR4Filter, .-CapSense_IIR4Filter
 1212 003a 00BF     		.text
 1213              	.Letext0: