ARM GAS  C:\Users\Geo\AppData\Local\Temp\ccGkulu5.s 			page 1


   1              		.syntax unified
   2              		.cpu cortex-m3
   3              		.fpu softvfp
   4              		.eabi_attribute 20, 1
   5              		.eabi_attribute 21, 1
   6              		.eabi_attribute 23, 3
   7              		.eabi_attribute 24, 1
   8              		.eabi_attribute 25, 1
   9              		.eabi_attribute 26, 1
  10              		.eabi_attribute 30, 6
  11              		.eabi_attribute 18, 4
  12              		.thumb
  13              		.file	"CapSense_TunerHelper.c"
  20 0000 71000000 		.text
  20      02004600 
  20      00000201 
  20      FB0E0D00 
  20      01010101 
  21              	.Ltext0:
  22              		.cfi_sections	.debug_frame
  23              		.section	.text.CapSense_TunerStart,"ax",%progbits
  24              		.align	2
  25              		.global	CapSense_TunerStart
  26              		.thumb
  27              		.thumb_func
  28              		.type	CapSense_TunerStart, %function
  29              	CapSense_TunerStart:
  30              	.LFB0:
  31              		.file 1 ".\\Generated_Source\\PSoC5\\CapSense_TunerHelper.c"
   1:.\Generated_Source\PSoC5/CapSense_TunerHelper.c **** /*******************************************************************************
   2:.\Generated_Source\PSoC5/CapSense_TunerHelper.c **** * File Name: CapSense_TunerHelper.c
   3:.\Generated_Source\PSoC5/CapSense_TunerHelper.c **** * Version 3.10
   4:.\Generated_Source\PSoC5/CapSense_TunerHelper.c **** *
   5:.\Generated_Source\PSoC5/CapSense_TunerHelper.c **** * Description:
   6:.\Generated_Source\PSoC5/CapSense_TunerHelper.c **** *  This file provides the source code of Tuner helper APIs for the CapSense CSD 
   7:.\Generated_Source\PSoC5/CapSense_TunerHelper.c **** *  component.
   8:.\Generated_Source\PSoC5/CapSense_TunerHelper.c **** *
   9:.\Generated_Source\PSoC5/CapSense_TunerHelper.c **** * Note:
  10:.\Generated_Source\PSoC5/CapSense_TunerHelper.c **** *
  11:.\Generated_Source\PSoC5/CapSense_TunerHelper.c **** ********************************************************************************
  12:.\Generated_Source\PSoC5/CapSense_TunerHelper.c **** * Copyright 2008-2011, Cypress Semiconductor Corporation.  All rights reserved.
  13:.\Generated_Source\PSoC5/CapSense_TunerHelper.c **** * You may use this file only in accordance with the license, terms, conditions,
  14:.\Generated_Source\PSoC5/CapSense_TunerHelper.c **** * disclaimers, and limitations in the end user license agreement accompanying
  15:.\Generated_Source\PSoC5/CapSense_TunerHelper.c **** * the software package with which this file was provided.
  16:.\Generated_Source\PSoC5/CapSense_TunerHelper.c **** *******************************************************************************/
  17:.\Generated_Source\PSoC5/CapSense_TunerHelper.c **** 
  18:.\Generated_Source\PSoC5/CapSense_TunerHelper.c **** #include "CapSense_TunerHelper.h"
  19:.\Generated_Source\PSoC5/CapSense_TunerHelper.c **** 
  20:.\Generated_Source\PSoC5/CapSense_TunerHelper.c **** #if (CapSense_TUNER_API_GENERATE)
  21:.\Generated_Source\PSoC5/CapSense_TunerHelper.c ****     void CapSense_ProcessAllWidgets(volatile CapSense_OUTBOX *outbox);
  22:.\Generated_Source\PSoC5/CapSense_TunerHelper.c ****     
ARM GAS  C:\Users\Geo\AppData\Local\Temp\ccGkulu5.s 			page 2


  23:.\Generated_Source\PSoC5/CapSense_TunerHelper.c ****     volatile CapSense_MAILBOXES CapSense_mailboxesComm;
  24:.\Generated_Source\PSoC5/CapSense_TunerHelper.c **** 
  25:.\Generated_Source\PSoC5/CapSense_TunerHelper.c ****     extern uint8 CapSense_SensorOnMask[(((CapSense_TOTAL_SENSOR_COUNT - 1u) / 8u) + 1u)];
  26:.\Generated_Source\PSoC5/CapSense_TunerHelper.c **** #endif  /* End (CapSense_TUNER_API_GENERATE) */
  27:.\Generated_Source\PSoC5/CapSense_TunerHelper.c **** 
  28:.\Generated_Source\PSoC5/CapSense_TunerHelper.c **** 
  29:.\Generated_Source\PSoC5/CapSense_TunerHelper.c **** /*******************************************************************************
  30:.\Generated_Source\PSoC5/CapSense_TunerHelper.c **** * Function Name: CapSense_TunerStart
  31:.\Generated_Source\PSoC5/CapSense_TunerHelper.c **** ********************************************************************************
  32:.\Generated_Source\PSoC5/CapSense_TunerHelper.c **** *
  33:.\Generated_Source\PSoC5/CapSense_TunerHelper.c **** * Summary:
  34:.\Generated_Source\PSoC5/CapSense_TunerHelper.c **** *  Initializes CapSense CSD component and EzI2C communication componenet to use
  35:.\Generated_Source\PSoC5/CapSense_TunerHelper.c **** *  mailbox data structure for communication with Tuner GUI.
  36:.\Generated_Source\PSoC5/CapSense_TunerHelper.c **** *  Start the scanning, after initialization complete.
  37:.\Generated_Source\PSoC5/CapSense_TunerHelper.c **** *
  38:.\Generated_Source\PSoC5/CapSense_TunerHelper.c **** * Parameters:
  39:.\Generated_Source\PSoC5/CapSense_TunerHelper.c **** *  None
  40:.\Generated_Source\PSoC5/CapSense_TunerHelper.c **** *
  41:.\Generated_Source\PSoC5/CapSense_TunerHelper.c **** * Return:
  42:.\Generated_Source\PSoC5/CapSense_TunerHelper.c **** *  None
  43:.\Generated_Source\PSoC5/CapSense_TunerHelper.c **** *
  44:.\Generated_Source\PSoC5/CapSense_TunerHelper.c **** * Reentrant:
  45:.\Generated_Source\PSoC5/CapSense_TunerHelper.c **** *  No
  46:.\Generated_Source\PSoC5/CapSense_TunerHelper.c **** *
  47:.\Generated_Source\PSoC5/CapSense_TunerHelper.c **** *******************************************************************************/
  48:.\Generated_Source\PSoC5/CapSense_TunerHelper.c **** void CapSense_TunerStart(void)
  49:.\Generated_Source\PSoC5/CapSense_TunerHelper.c **** {
  32              		.loc 1 49 0
  33              		.cfi_startproc
  34              		@ args = 0, pretend = 0, frame = 0
  35              		@ frame_needed = 1, uses_anonymous_args = 0
  36              		@ link register save eliminated.
  37 0000 80B4     		push	{r7}
  38              	.LCFI0:
  39              		.cfi_def_cfa_offset 4
  40 0002 00AF     		add	r7, sp, #0
  41              		.cfi_offset 7, -4
  42              	.LCFI1:
  43              		.cfi_def_cfa_register 7
  50:.\Generated_Source\PSoC5/CapSense_TunerHelper.c ****     #if (CapSense_TUNER_API_GENERATE)
  51:.\Generated_Source\PSoC5/CapSense_TunerHelper.c ****         
  52:.\Generated_Source\PSoC5/CapSense_TunerHelper.c ****         /* Init mbx and quick check */
  53:.\Generated_Source\PSoC5/CapSense_TunerHelper.c ****         CapSense_InitMailbox(&CapSense_mailboxesComm.csdMailbox);
  54:.\Generated_Source\PSoC5/CapSense_TunerHelper.c ****         CapSense_mailboxesComm.numMailBoxes = CapSense_DEFAULT_MAILBOXES_NUMBER;
  55:.\Generated_Source\PSoC5/CapSense_TunerHelper.c ****         
  56:.\Generated_Source\PSoC5/CapSense_TunerHelper.c ****         /* Start CapSense and baselines */
  57:.\Generated_Source\PSoC5/CapSense_TunerHelper.c ****         CapSense_Start();
  58:.\Generated_Source\PSoC5/CapSense_TunerHelper.c ****         
  59:.\Generated_Source\PSoC5/CapSense_TunerHelper.c ****         /* Initialize baselines */ 
  60:.\Generated_Source\PSoC5/CapSense_TunerHelper.c ****         CapSense_InitializeAllBaselines();
  61:.\Generated_Source\PSoC5/CapSense_TunerHelper.c ****         CapSense_InitializeAllBaselines();
  62:.\Generated_Source\PSoC5/CapSense_TunerHelper.c ****         
  63:.\Generated_Source\PSoC5/CapSense_TunerHelper.c ****         /* Start EzI2C, clears buf pointers */
  64:.\Generated_Source\PSoC5/CapSense_TunerHelper.c ****         EZI2C_Start();
  65:.\Generated_Source\PSoC5/CapSense_TunerHelper.c ****         
  66:.\Generated_Source\PSoC5/CapSense_TunerHelper.c ****         /* Setup EzI2C buffers */
  67:.\Generated_Source\PSoC5/CapSense_TunerHelper.c ****         EZI2C_SetBuffer1(sizeof(CapSense_mailboxesComm), sizeof(CapSense_mailboxesComm),
ARM GAS  C:\Users\Geo\AppData\Local\Temp\ccGkulu5.s 			page 3


  68:.\Generated_Source\PSoC5/CapSense_TunerHelper.c ****                                         (void *) &CapSense_mailboxesComm);
  69:.\Generated_Source\PSoC5/CapSense_TunerHelper.c ****         
  70:.\Generated_Source\PSoC5/CapSense_TunerHelper.c ****         /* Starts scan all enabled sensors */
  71:.\Generated_Source\PSoC5/CapSense_TunerHelper.c ****         CapSense_ScanEnabledWidgets();
  72:.\Generated_Source\PSoC5/CapSense_TunerHelper.c ****     
  73:.\Generated_Source\PSoC5/CapSense_TunerHelper.c ****     #endif  /* End (CapSense_TUNER_API_GENERATE) */
  74:.\Generated_Source\PSoC5/CapSense_TunerHelper.c **** }
  44              		.loc 1 74 0
  45 0004 BD46     		mov	sp, r7
  46 0006 80BC     		pop	{r7}
  47 0008 7047     		bx	lr
  48              		.cfi_endproc
  49              	.LFE0:
  50              		.size	CapSense_TunerStart, .-CapSense_TunerStart
  51 000a 00BF     		.section	.text.CapSense_TunerComm,"ax",%progbits
  52              		.align	2
  53              		.global	CapSense_TunerComm
  54              		.thumb
  55              		.thumb_func
  56              		.type	CapSense_TunerComm, %function
  57              	CapSense_TunerComm:
  58              	.LFB1:
  75:.\Generated_Source\PSoC5/CapSense_TunerHelper.c **** 
  76:.\Generated_Source\PSoC5/CapSense_TunerHelper.c **** 
  77:.\Generated_Source\PSoC5/CapSense_TunerHelper.c **** /*******************************************************************************
  78:.\Generated_Source\PSoC5/CapSense_TunerHelper.c **** * Function Name: CapSense_TunerComm
  79:.\Generated_Source\PSoC5/CapSense_TunerHelper.c **** ********************************************************************************
  80:.\Generated_Source\PSoC5/CapSense_TunerHelper.c **** *
  81:.\Generated_Source\PSoC5/CapSense_TunerHelper.c **** * Summary:
  82:.\Generated_Source\PSoC5/CapSense_TunerHelper.c **** *  This function is blocking. It waits till scaning loop is completed and apply
  83:.\Generated_Source\PSoC5/CapSense_TunerHelper.c **** *  new parameters from Tuner GUI if available (manual tuning mode only). Updates
  84:.\Generated_Source\PSoC5/CapSense_TunerHelper.c **** *  enabled baselines and state of widgets. Waits while Tuner GUI reports that 
  85:.\Generated_Source\PSoC5/CapSense_TunerHelper.c **** *  content of mailbox could be modified. Then loads the report data into outbox 
  86:.\Generated_Source\PSoC5/CapSense_TunerHelper.c **** *  and sets the busy flag. Starts new scanning loop.
  87:.\Generated_Source\PSoC5/CapSense_TunerHelper.c **** *  
  88:.\Generated_Source\PSoC5/CapSense_TunerHelper.c **** * Parameters:
  89:.\Generated_Source\PSoC5/CapSense_TunerHelper.c **** *  None
  90:.\Generated_Source\PSoC5/CapSense_TunerHelper.c **** *
  91:.\Generated_Source\PSoC5/CapSense_TunerHelper.c **** * Return:
  92:.\Generated_Source\PSoC5/CapSense_TunerHelper.c **** *  None
  93:.\Generated_Source\PSoC5/CapSense_TunerHelper.c **** *
  94:.\Generated_Source\PSoC5/CapSense_TunerHelper.c **** * Reentrant:
  95:.\Generated_Source\PSoC5/CapSense_TunerHelper.c **** *  No
  96:.\Generated_Source\PSoC5/CapSense_TunerHelper.c **** *
  97:.\Generated_Source\PSoC5/CapSense_TunerHelper.c **** *******************************************************************************/
  98:.\Generated_Source\PSoC5/CapSense_TunerHelper.c **** void CapSense_TunerComm(void)
  99:.\Generated_Source\PSoC5/CapSense_TunerHelper.c **** {
  59              		.loc 1 99 0
  60              		.cfi_startproc
  61              		@ args = 0, pretend = 0, frame = 0
  62              		@ frame_needed = 1, uses_anonymous_args = 0
  63              		@ link register save eliminated.
  64 0000 80B4     		push	{r7}
  65              	.LCFI2:
  66              		.cfi_def_cfa_offset 4
  67 0002 00AF     		add	r7, sp, #0
  68              		.cfi_offset 7, -4
ARM GAS  C:\Users\Geo\AppData\Local\Temp\ccGkulu5.s 			page 4


  69              	.LCFI3:
  70              		.cfi_def_cfa_register 7
 100:.\Generated_Source\PSoC5/CapSense_TunerHelper.c ****     #if (CapSense_TUNER_API_GENERATE)
 101:.\Generated_Source\PSoC5/CapSense_TunerHelper.c ****         if (0u == CapSense_IsBusy())
 102:.\Generated_Source\PSoC5/CapSense_TunerHelper.c ****         {   
 103:.\Generated_Source\PSoC5/CapSense_TunerHelper.c ****             /* Apply new settings */
 104:.\Generated_Source\PSoC5/CapSense_TunerHelper.c ****             #if (CapSense_TUNING_METHOD == CapSense_MANUAL_TUNING)
 105:.\Generated_Source\PSoC5/CapSense_TunerHelper.c ****                 CapSense_ReadMessage(&CapSense_mailboxesComm.csdMailbox);
 106:.\Generated_Source\PSoC5/CapSense_TunerHelper.c ****             #endif  /* End (CapSense_TUNING_METHOD == CapSense_MANUAL_TUNING) */
 107:.\Generated_Source\PSoC5/CapSense_TunerHelper.c **** 
 108:.\Generated_Source\PSoC5/CapSense_TunerHelper.c ****             /* Update all baselines and process all widgets */
 109:.\Generated_Source\PSoC5/CapSense_TunerHelper.c ****             CapSense_UpdateEnabledBaselines();
 110:.\Generated_Source\PSoC5/CapSense_TunerHelper.c ****             CapSense_ProcessAllWidgets(&CapSense_mailboxesComm.csdMailbox.outbox);
 111:.\Generated_Source\PSoC5/CapSense_TunerHelper.c ****             CapSense_PostMessage(&CapSense_mailboxesComm.csdMailbox);
 112:.\Generated_Source\PSoC5/CapSense_TunerHelper.c **** 
 113:.\Generated_Source\PSoC5/CapSense_TunerHelper.c ****             /* Enable EZI2C interrupts, after scan complete */
 114:.\Generated_Source\PSoC5/CapSense_TunerHelper.c ****             EZI2C_EnableInt();
 115:.\Generated_Source\PSoC5/CapSense_TunerHelper.c **** 
 116:.\Generated_Source\PSoC5/CapSense_TunerHelper.c ****             while((CapSense_mailboxesComm.csdMailbox.type != CapSense_TYPE_ID) || \
 117:.\Generated_Source\PSoC5/CapSense_TunerHelper.c ****                   (EZI2C_GetActivity() & EZI2C_STATUS_BUSY)){}
 118:.\Generated_Source\PSoC5/CapSense_TunerHelper.c ****             
 119:.\Generated_Source\PSoC5/CapSense_TunerHelper.c ****             /* Disable EZI2C interrupts, while scanning */
 120:.\Generated_Source\PSoC5/CapSense_TunerHelper.c ****             EZI2C_DisableInt();
 121:.\Generated_Source\PSoC5/CapSense_TunerHelper.c ****             
 122:.\Generated_Source\PSoC5/CapSense_TunerHelper.c ****             /* Start scan all sensors */
 123:.\Generated_Source\PSoC5/CapSense_TunerHelper.c ****             CapSense_ScanEnabledWidgets();
 124:.\Generated_Source\PSoC5/CapSense_TunerHelper.c ****         }
 125:.\Generated_Source\PSoC5/CapSense_TunerHelper.c ****     #endif  /* End (CapSense_TUNER_API_GENERATE) */
 126:.\Generated_Source\PSoC5/CapSense_TunerHelper.c **** }
  71              		.loc 1 126 0
  72 0004 BD46     		mov	sp, r7
  73 0006 80BC     		pop	{r7}
  74 0008 7047     		bx	lr
  75              		.cfi_endproc
  76              	.LFE1:
  77              		.size	CapSense_TunerComm, .-CapSense_TunerComm
  78 000a 00BF     		.text
  79              	.Letext0: