ARM GAS  C:\Users\Geo\AppData\Local\Temp\ccUsAN4A.s 			page 1


   1              		.syntax unified
   2              		.cpu cortex-m3
   3              		.fpu softvfp
   4              		.eabi_attribute 20, 1
   5              		.eabi_attribute 21, 1
   6              		.eabi_attribute 23, 3
   7              		.eabi_attribute 24, 1
   8              		.eabi_attribute 25, 1
   9              		.eabi_attribute 26, 1
  10              		.eabi_attribute 30, 6
  11              		.eabi_attribute 18, 4
  12              		.thumb
  13              		.file	"Comms.c"
  20 0000 40020000 		.text
  20      02000D01 
  20      00000201 
  20      FB0E0D00 
  20      01010101 
  21              	.Ltext0:
  22              		.cfi_sections	.debug_frame
  23              		.bss
  24              	_newPacketFlag:
  25 0000 00       		.space	1
  26              	_unreadDataFlag:
  27 0001 00       		.space	1
  28              	_commsPacketBufferOverrunFlag:
  29 0002 00       		.space	1
  30              	_commsInitCompleteFlag:
  31 0003 00       		.space	1
  32              	_commsTimeoutFlag:
  33 0004 00       		.space	1
  34 0005 000000   		.align	2
  35              	_idenChars:
  36 0008 00000000 		.space	4
  37              		.align	2
  38              	_txDataBuffer:
  39 000c 00000000 		.space	8
  39      00000000 
  40              		.align	2
  41              	_rxDataBuffer:
  42 0014 00000000 		.space	50
  42      00000000 
  42      00000000 
  42      00000000 
  42      00000000 
  43              	_turnOffXbeeFlag:
  44 0046 00       		.space	1
  45              	_turnOnXbeeFlag:
  46 0047 00       		.space	1
  47              	_toSendFlag:
  48 0048 00       		.space	1
ARM GAS  C:\Users\Geo\AppData\Local\Temp\ccUsAN4A.s 			page 2


  49              		.section	.text.Comms_Init,"ax",%progbits
  50              		.align	2
  51              		.global	Comms_Init
  52              		.thumb
  53              		.thumb_func
  54              		.type	Comms_Init, %function
  55              	Comms_Init:
  56              	.LFB29:
  57              		.file 1 ".\\Comms.c"
   1:.\Comms.c     **** //!
   2:.\Comms.c     **** //! @file 		Comms.c
   3:.\Comms.c     **** //! @author 	Geoffrey Hunter (gbmhunter@gmail.com)
   4:.\Comms.c     **** //! @date 		22/12/2010
   5:.\Comms.c     **** //! @brief 		Controls the comms between board and remote. Common to both platforms.
   6:.\Comms.c     **** //! @details
   7:.\Comms.c     **** //!		<b>Last Modified:			</b> 24/05/2011								\n
   8:.\Comms.c     **** //!		<b>Version:					</b> v1.0									\n
   9:.\Comms.c     **** //!		<b>Company:					</b> CladLabs								\n
  10:.\Comms.c     **** //!		<b>Project:					</b> Electric Skateboard - Skateboard Remote\n
  11:.\Comms.c     **** //!		<b>Computer Architecture:	</b> ARM									\n
  12:.\Comms.c     **** //!		<b>Compiler:				</b> GCC									\n
  13:.\Comms.c     **** //! 	<b>uC Model:				</b> PSoC5									\n
  14:.\Comms.c     **** //!		<b>Documentation Format:	</b> Doxygen								\n
  15:.\Comms.c     **** //!		
  16:.\Comms.c     **** //!		
  17:.\Comms.c     **** //!
  18:.\Comms.c     **** 
  19:.\Comms.c     **** //===============================================================================================//
  20:.\Comms.c     **** //======================================= FILE INCLUSIONS =======================================//
  21:.\Comms.c     **** //===============================================================================================//
  22:.\Comms.c     **** 
  23:.\Comms.c     **** #include <device.h>
  24:.\Comms.c     **** #include <stdio.h>
  25:.\Comms.c     **** 
  26:.\Comms.c     **** #include "../common/PublicObjects.h"
  27:.\Comms.c     **** #include "Config.h"
  28:.\Comms.c     **** #include "Comms.h"
  29:.\Comms.c     **** #include "Lights.h"
  30:.\Comms.c     **** 
  31:.\Comms.c     **** 
  32:.\Comms.c     **** 
  33:.\Comms.c     **** 
  34:.\Comms.c     **** // Bit positions of data in rx packet
  35:.\Comms.c     **** 
  36:.\Comms.c     **** #define MS1_BP 5	// Higher byte of motor speed
  37:.\Comms.c     **** #define MS0_BP 6	// Lower byte of motor speed
  38:.\Comms.c     **** 
  39:.\Comms.c     **** typedef enum {
  40:.\Comms.c     **** 	idle,
  41:.\Comms.c     **** 	secondIdenChar,
  42:.\Comms.c     **** 	thirdIdenChar,
  43:.\Comms.c     **** 	packetDataCount,
  44:.\Comms.c     **** 	packetData,
  45:.\Comms.c     **** 	receivingChecksum,
  46:.\Comms.c     **** 	packetComplete
  47:.\Comms.c     **** } commsStates_t;
  48:.\Comms.c     **** 
ARM GAS  C:\Users\Geo\AppData\Local\Temp\ccUsAN4A.s 			page 3


  49:.\Comms.c     **** typedef enum {
  50:.\Comms.c     **** 	xbeeInit,
  51:.\Comms.c     **** 	xbeeOff,
  52:.\Comms.c     **** 	xbeeTurningOn,
  53:.\Comms.c     **** 	xbeeOnStable,
  54:.\Comms.c     **** 	xbeeSending,
  55:.\Comms.c     **** 	xbeeWaitingForResponse
  56:.\Comms.c     **** } xbeeStates_t;
  57:.\Comms.c     **** 
  58:.\Comms.c     **** //===============================================================================================//
  59:.\Comms.c     **** //=============================== PRIVATE FUNCTION PROTOTYPES ===================================//
  60:.\Comms.c     **** //===============================================================================================//
  61:.\Comms.c     **** 
  62:.\Comms.c     **** void Comms_RetrieveData();
  63:.\Comms.c     **** uint8 Comms_DecodePacket();
  64:.\Comms.c     **** 
  65:.\Comms.c     **** //===============================================================================================//
  66:.\Comms.c     **** //==================================== PRIVATE VARIABLES ========================================//
  67:.\Comms.c     **** //===============================================================================================//
  68:.\Comms.c     **** 
  69:.\Comms.c     **** //flags
  70:.\Comms.c     **** static bool_t _newPacketFlag = FALSE;
  71:.\Comms.c     **** // Set when a byte has not been read from a new data packet
  72:.\Comms.c     **** static bool_t _unreadDataFlag = FALSE;
  73:.\Comms.c     **** static bool_t _commsPacketBufferOverrunFlag = FALSE;
  74:.\Comms.c     **** static bool_t _commsInitCompleteFlag = FALSE;
  75:.\Comms.c     **** static bool_t _commsTimeoutFlag = FALSE;
  76:.\Comms.c     **** 
  77:.\Comms.c     **** 
  78:.\Comms.c     **** static uint8_t* _idenChars;
  79:.\Comms.c     **** 
  80:.\Comms.c     **** static uint8_t _txDataBuffer[configCOMMS_MSG_SIZE];
  81:.\Comms.c     **** static uint8_t _rxDataBuffer[configCOMM_RX_BUFFER_SIZE];
  82:.\Comms.c     **** 
  83:.\Comms.c     **** static bool_t _turnOffXbeeFlag = FALSE;
  84:.\Comms.c     **** static bool_t _turnOnXbeeFlag = FALSE;
  85:.\Comms.c     **** static bool_t _toSendFlag = FALSE;
  86:.\Comms.c     **** 
  87:.\Comms.c     **** /***Function Definitions***/
  88:.\Comms.c     **** 
  89:.\Comms.c     **** void Comms_Init(uint8_t* idenCharsIn)
  90:.\Comms.c     **** {
  58              		.loc 1 90 0
  59              		.cfi_startproc
  60              		@ args = 0, pretend = 0, frame = 8
  61              		@ frame_needed = 1, uses_anonymous_args = 0
  62              		@ link register save eliminated.
  63 0000 80B4     		push	{r7}
  64              	.LCFI0:
  65              		.cfi_def_cfa_offset 4
  66 0002 83B0     		sub	sp, sp, #12
  67              	.LCFI1:
  68              		.cfi_def_cfa_offset 16
  69 0004 00AF     		add	r7, sp, #0
  70              		.cfi_offset 7, -4
  71              	.LCFI2:
  72              		.cfi_def_cfa_register 7
ARM GAS  C:\Users\Geo\AppData\Local\Temp\ccUsAN4A.s 			page 4


  73 0006 7860     		str	r0, [r7, #4]
  91:.\Comms.c     **** 	//led_on(0);
  92:.\Comms.c     **** 	_idenChars = idenCharsIn;
  74              		.loc 1 92 0
  75 0008 40F20003 		movw	r3, #:lower16:_idenChars
  76 000c C0F20003 		movt	r3, #:upper16:_idenChars
  77 0010 7A68     		ldr	r2, [r7, #4]
  78 0012 1A60     		str	r2, [r3, #0]
  93:.\Comms.c     **** 	
  94:.\Comms.c     **** 	//Signal that intialisation is complete
  95:.\Comms.c     **** 	_commsInitCompleteFlag = TRUE;
  79              		.loc 1 95 0
  80 0014 40F20003 		movw	r3, #:lower16:_commsInitCompleteFlag
  81 0018 C0F20003 		movt	r3, #:upper16:_commsInitCompleteFlag
  82 001c 4FF00102 		mov	r2, #1
  83 0020 1A70     		strb	r2, [r3, #0]
  96:.\Comms.c     **** }
  84              		.loc 1 96 0
  85 0022 07F10C07 		add	r7, r7, #12
  86 0026 BD46     		mov	sp, r7
  87 0028 80BC     		pop	{r7}
  88 002a 7047     		bx	lr
  89              		.cfi_endproc
  90              	.LFE29:
  91              		.size	Comms_Init, .-Comms_Init
  92              		.global	__aeabi_ui2d
  93              		.global	__aeabi_dadd
  94              		.global	__aeabi_dcmpge
  95              		.global	__aeabi_dmul
  96              		.section	.rodata
  97              		.align	2
  98              	.LC0:
  99 0000 434F4D4D 		.ascii	"COMMS: Xbee timeout. Time since send: %fms\015\012\000"
  99      533A2058 
  99      62656520 
  99      74696D65 
  99      6F75742E 
 100              		.section	.text.Comms_Run,"ax",%progbits
 101              		.align	2
 102              		.global	Comms_Run
 103              		.thumb
 104              		.thumb_func
 105              		.type	Comms_Run, %function
 106              	Comms_Run:
 107              	.LFB30:
  97:.\Comms.c     **** 
  98:.\Comms.c     **** //! @brief		Call once per main loop tick
  99:.\Comms.c     **** void Comms_Run(void)
 100:.\Comms.c     **** {
 108              		.loc 1 100 0
 109              		.cfi_startproc
 110              		@ args = 0, pretend = 0, frame = 104
 111              		@ frame_needed = 1, uses_anonymous_args = 0
 112 0000 F0B5     		push	{r4, r5, r6, r7, lr}
 113              	.LCFI3:
 114              		.cfi_def_cfa_offset 20
 115 0002 9DB0     		sub	sp, sp, #116
ARM GAS  C:\Users\Geo\AppData\Local\Temp\ccUsAN4A.s 			page 5


 116              	.LCFI4:
 117              		.cfi_def_cfa_offset 136
 118 0004 02AF     		add	r7, sp, #8
 119              		.cfi_offset 14, -4
 120              		.cfi_offset 7, -8
 121              		.cfi_offset 6, -12
 122              		.cfi_offset 5, -16
 123              		.cfi_offset 4, -20
 124              	.LCFI5:
 125              		.cfi_def_cfa 7, 128
 101:.\Comms.c     **** 	static uint32_t counter = 0;
 102:.\Comms.c     **** 	
 103:.\Comms.c     **** 	static xbeeStates_t xbeeState = xbeeInit;
 104:.\Comms.c     **** 	static xbeeStates_t prevxbeeState = xbeeInit;
 105:.\Comms.c     **** 	static uint32_t	xbeeTurnOnTime = 0;
 106:.\Comms.c     **** 	static uint32_t waitingForResponseCount = 0;
 107:.\Comms.c     **** 	
 108:.\Comms.c     **** 	
 109:.\Comms.c     **** 	switch(xbeeState)
 126              		.loc 1 109 0
 127 0006 40F20003 		movw	r3, #:lower16:xbeeState.3798
 128 000a C0F20003 		movt	r3, #:upper16:xbeeState.3798
 129 000e 1B78     		ldrb	r3, [r3, #0]	@ zero_extendqisi2
 130 0010 052B     		cmp	r3, #5
 131 0012 00F2B981 		bhi	.L4
 132 0016 01A2     		adr	r2, .L11
 133 0018 52F823F0 		ldr	pc, [r2, r3, lsl #2]
 134              		.align	2
 135              	.L11:
 136 001c 35000000 		.word	.L5+1
 137 0020 51000000 		.word	.L6+1
 138 0024 BF000000 		.word	.L7+1
 139 0028 69010000 		.word	.L8+1
 140 002c DD010000 		.word	.L9+1
 141 0030 33020000 		.word	.L10+1
 142              	.L5:
 110:.\Comms.c     **** 	{
 111:.\Comms.c     **** 		case xbeeInit:
 112:.\Comms.c     **** 			// Intialise uart used to communicate with comms
 113:.\Comms.c     **** 			UartXbee_Start();
 143              		.loc 1 113 0
 144 0034 FFF7FEFF 		bl	UartXbee_Start
 114:.\Comms.c     **** 			// Sleep Xbee
 115:.\Comms.c     **** 			PinXbeeSleep_Write(1);
 145              		.loc 1 115 0
 146 0038 4FF00100 		mov	r0, #1
 147 003c FFF7FEFF 		bl	PinXbeeSleep_Write
 116:.\Comms.c     **** 			xbeeState = xbeeOff;
 148              		.loc 1 116 0
 149 0040 40F20003 		movw	r3, #:lower16:xbeeState.3798
 150 0044 C0F20003 		movt	r3, #:upper16:xbeeState.3798
 151 0048 4FF00102 		mov	r2, #1
 152 004c 1A70     		strb	r2, [r3, #0]
 117:.\Comms.c     **** 			break;
 153              		.loc 1 117 0
 154 004e 9BE1     		b	.L4
 155              	.L6:
ARM GAS  C:\Users\Geo\AppData\Local\Temp\ccUsAN4A.s 			page 6


 118:.\Comms.c     **** 		case xbeeOff:
 119:.\Comms.c     **** 			if(prevxbeeState != xbeeOff)
 156              		.loc 1 119 0
 157 0050 40F20003 		movw	r3, #:lower16:prevxbeeState.3799
 158 0054 C0F20003 		movt	r3, #:upper16:prevxbeeState.3799
 159 0058 1B78     		ldrb	r3, [r3, #0]	@ zero_extendqisi2
 160 005a 012B     		cmp	r3, #1
 161 005c 0AD0     		beq	.L12
 120:.\Comms.c     **** 			{
 121:.\Comms.c     **** 				#if(config_DEBUG_COMMS == 1) 
 122:.\Comms.c     **** 					UartDebug_PutString("COMMS: Entering xbeeOff state.\r\n");
 123:.\Comms.c     **** 				#endif
 124:.\Comms.c     **** 				// Put xbee to sleep
 125:.\Comms.c     **** 				PinXbeeSleep_Write(1);
 162              		.loc 1 125 0
 163 005e 4FF00100 		mov	r0, #1
 164 0062 FFF7FEFF 		bl	PinXbeeSleep_Write
 126:.\Comms.c     **** 				prevxbeeState = xbeeOff;
 165              		.loc 1 126 0
 166 0066 40F20003 		movw	r3, #:lower16:prevxbeeState.3799
 167 006a C0F20003 		movt	r3, #:upper16:prevxbeeState.3799
 168 006e 4FF00102 		mov	r2, #1
 169 0072 1A70     		strb	r2, [r3, #0]
 170              	.L12:
 127:.\Comms.c     **** 			}
 128:.\Comms.c     **** 			
 129:.\Comms.c     **** 			if(_turnOffXbeeFlag == TRUE)
 171              		.loc 1 129 0
 172 0074 40F20003 		movw	r3, #:lower16:_turnOffXbeeFlag
 173 0078 C0F20003 		movt	r3, #:upper16:_turnOffXbeeFlag
 174 007c 1B78     		ldrb	r3, [r3, #0]	@ zero_extendqisi2
 175 007e 012B     		cmp	r3, #1
 176 0080 06D1     		bne	.L13
 130:.\Comms.c     **** 				_turnOffXbeeFlag = FALSE;
 177              		.loc 1 130 0
 178 0082 40F20003 		movw	r3, #:lower16:_turnOffXbeeFlag
 179 0086 C0F20003 		movt	r3, #:upper16:_turnOffXbeeFlag
 180 008a 4FF00002 		mov	r2, #0
 181 008e 1A70     		strb	r2, [r3, #0]
 182              	.L13:
 131:.\Comms.c     **** 			
 132:.\Comms.c     **** 			// Check if xbee needs to be turned on
 133:.\Comms.c     **** 			if(_turnOnXbeeFlag == TRUE)
 183              		.loc 1 133 0
 184 0090 40F20003 		movw	r3, #:lower16:_turnOnXbeeFlag
 185 0094 C0F20003 		movt	r3, #:upper16:_turnOnXbeeFlag
 186 0098 1B78     		ldrb	r3, [r3, #0]	@ zero_extendqisi2
 187 009a 012B     		cmp	r3, #1
 188 009c 40F06D81 		bne	.L30
 134:.\Comms.c     **** 			{
 135:.\Comms.c     **** 				xbeeState = xbeeTurningOn;
 189              		.loc 1 135 0
 190 00a0 40F20003 		movw	r3, #:lower16:xbeeState.3798
 191 00a4 C0F20003 		movt	r3, #:upper16:xbeeState.3798
 192 00a8 4FF00202 		mov	r2, #2
 193 00ac 1A70     		strb	r2, [r3, #0]
 136:.\Comms.c     **** 				// Reset flag
ARM GAS  C:\Users\Geo\AppData\Local\Temp\ccUsAN4A.s 			page 7


 137:.\Comms.c     **** 				_turnOnXbeeFlag = FALSE;
 194              		.loc 1 137 0
 195 00ae 40F20003 		movw	r3, #:lower16:_turnOnXbeeFlag
 196 00b2 C0F20003 		movt	r3, #:upper16:_turnOnXbeeFlag
 197 00b6 4FF00002 		mov	r2, #0
 198 00ba 1A70     		strb	r2, [r3, #0]
 138:.\Comms.c     **** 			}
 139:.\Comms.c     **** 
 140:.\Comms.c     **** 			break;
 199              		.loc 1 140 0
 200 00bc 64E1     		b	.L4
 201              	.L7:
 141:.\Comms.c     **** 		case xbeeTurningOn:
 142:.\Comms.c     **** 			if(prevxbeeState != xbeeTurningOn)
 202              		.loc 1 142 0
 203 00be 40F20003 		movw	r3, #:lower16:prevxbeeState.3799
 204 00c2 C0F20003 		movt	r3, #:upper16:prevxbeeState.3799
 205 00c6 1B78     		ldrb	r3, [r3, #0]	@ zero_extendqisi2
 206 00c8 022B     		cmp	r3, #2
 207 00ca 14D0     		beq	.L15
 143:.\Comms.c     **** 			{
 144:.\Comms.c     **** 				#if(config_DEBUG_COMMS == 1) 
 145:.\Comms.c     **** 					UartDebug_PutString("COMMS: Entering xbeeTurningOn state.\r\n");
 146:.\Comms.c     **** 				#endif
 147:.\Comms.c     **** 				// Turn on xbee
 148:.\Comms.c     **** 				PinXbeeSleep_Write(0);
 208              		.loc 1 148 0
 209 00cc 4FF00000 		mov	r0, #0
 210 00d0 FFF7FEFF 		bl	PinXbeeSleep_Write
 149:.\Comms.c     **** 				// Assign turn on time
 150:.\Comms.c     **** 				xbeeTurnOnTime = counter;
 211              		.loc 1 150 0
 212 00d4 40F20003 		movw	r3, #:lower16:counter.3797
 213 00d8 C0F20003 		movt	r3, #:upper16:counter.3797
 214 00dc 1A68     		ldr	r2, [r3, #0]
 215 00de 40F20003 		movw	r3, #:lower16:xbeeTurnOnTime.3800
 216 00e2 C0F20003 		movt	r3, #:upper16:xbeeTurnOnTime.3800
 217 00e6 1A60     		str	r2, [r3, #0]
 151:.\Comms.c     **** 				prevxbeeState = xbeeTurningOn;
 218              		.loc 1 151 0
 219 00e8 40F20003 		movw	r3, #:lower16:prevxbeeState.3799
 220 00ec C0F20003 		movt	r3, #:upper16:prevxbeeState.3799
 221 00f0 4FF00202 		mov	r2, #2
 222 00f4 1A70     		strb	r2, [r3, #0]
 223              	.L15:
 152:.\Comms.c     **** 			}
 153:.\Comms.c     **** 			// Increment counter to wait for xbee to start up
 154:.\Comms.c     **** 			if(counter >= xbeeTurnOnTime + configXBEE_START_UP_TIME_MS/configMAIN_TICK_PERIOD_MS)
 224              		.loc 1 154 0
 225 00f6 40F20003 		movw	r3, #:lower16:counter.3797
 226 00fa C0F20003 		movt	r3, #:upper16:counter.3797
 227 00fe 1B68     		ldr	r3, [r3, #0]
 228 0100 1846     		mov	r0, r3
 229 0102 FFF7FEFF 		bl	__aeabi_ui2d
 230 0106 0446     		mov	r4, r0
 231 0108 0D46     		mov	r5, r1
 232 010a 40F20003 		movw	r3, #:lower16:xbeeTurnOnTime.3800
ARM GAS  C:\Users\Geo\AppData\Local\Temp\ccUsAN4A.s 			page 8


 233 010e C0F20003 		movt	r3, #:upper16:xbeeTurnOnTime.3800
 234 0112 1B68     		ldr	r3, [r3, #0]
 235 0114 1846     		mov	r0, r3
 236 0116 FFF7FEFF 		bl	__aeabi_ui2d
 237 011a 0246     		mov	r2, r0
 238 011c 0B46     		mov	r3, r1
 239 011e 1046     		mov	r0, r2
 240 0120 1946     		mov	r1, r3
 241 0122 4FF00002 		mov	r2, #0
 242 0126 4FF07E53 		mov	r3, #1065353216
 243 012a 03F5E003 		add	r3, r3, #7340032
 244 012e FFF7FEFF 		bl	__aeabi_dadd
 245 0132 0246     		mov	r2, r0
 246 0134 0B46     		mov	r3, r1
 247 0136 4FF00001 		mov	r1, #0
 248 013a 0E46     		mov	r6, r1
 249 013c 2046     		mov	r0, r4
 250 013e 2946     		mov	r1, r5
 251 0140 FFF7FEFF 		bl	__aeabi_dcmpge
 252 0144 0346     		mov	r3, r0
 253 0146 002B     		cmp	r3, #0
 254 0148 02D0     		beq	.L16
 255              	.L17:
 256 014a 4FF00103 		mov	r3, #1
 257 014e 1E46     		mov	r6, r3
 258              	.L16:
 259 0150 F3B2     		uxtb	r3, r6
 260 0152 002B     		cmp	r3, #0
 261 0154 00F01381 		beq	.L31
 155:.\Comms.c     **** 				xbeeState = xbeeOnStable;
 262              		.loc 1 155 0
 263 0158 40F20003 		movw	r3, #:lower16:xbeeState.3798
 264 015c C0F20003 		movt	r3, #:upper16:xbeeState.3798
 265 0160 4FF00302 		mov	r2, #3
 266 0164 1A70     		strb	r2, [r3, #0]
 156:.\Comms.c     **** 			break;
 267              		.loc 1 156 0
 268 0166 0FE1     		b	.L4
 269              	.L8:
 157:.\Comms.c     **** 		case xbeeOnStable:
 158:.\Comms.c     **** 			if(prevxbeeState != xbeeOnStable)
 270              		.loc 1 158 0
 271 0168 40F20003 		movw	r3, #:lower16:prevxbeeState.3799
 272 016c C0F20003 		movt	r3, #:upper16:prevxbeeState.3799
 273 0170 1B78     		ldrb	r3, [r3, #0]	@ zero_extendqisi2
 274 0172 032B     		cmp	r3, #3
 275 0174 06D0     		beq	.L19
 159:.\Comms.c     **** 			{
 160:.\Comms.c     **** 				#if(config_DEBUG_COMMS == 1) 
 161:.\Comms.c     **** 					UartDebug_PutString("COMMS: Entering xbeeOnStable state.\r\n");
 162:.\Comms.c     **** 				#endif
 163:.\Comms.c     **** 				prevxbeeState = xbeeOnStable;
 276              		.loc 1 163 0
 277 0176 40F20003 		movw	r3, #:lower16:prevxbeeState.3799
 278 017a C0F20003 		movt	r3, #:upper16:prevxbeeState.3799
 279 017e 4FF00302 		mov	r2, #3
 280 0182 1A70     		strb	r2, [r3, #0]
ARM GAS  C:\Users\Geo\AppData\Local\Temp\ccUsAN4A.s 			page 9


 281              	.L19:
 164:.\Comms.c     **** 			}
 165:.\Comms.c     **** 			
 166:.\Comms.c     **** 			// Clear flag as we don't need to do anything
 167:.\Comms.c     **** 			if(_turnOnXbeeFlag == TRUE)
 282              		.loc 1 167 0
 283 0184 40F20003 		movw	r3, #:lower16:_turnOnXbeeFlag
 284 0188 C0F20003 		movt	r3, #:upper16:_turnOnXbeeFlag
 285 018c 1B78     		ldrb	r3, [r3, #0]	@ zero_extendqisi2
 286 018e 012B     		cmp	r3, #1
 287 0190 06D1     		bne	.L20
 168:.\Comms.c     **** 				_turnOnXbeeFlag = FALSE;
 288              		.loc 1 168 0
 289 0192 40F20003 		movw	r3, #:lower16:_turnOnXbeeFlag
 290 0196 C0F20003 		movt	r3, #:upper16:_turnOnXbeeFlag
 291 019a 4FF00002 		mov	r2, #0
 292 019e 1A70     		strb	r2, [r3, #0]
 293              	.L20:
 169:.\Comms.c     **** 			
 170:.\Comms.c     **** 			if(_toSendFlag == TRUE)
 294              		.loc 1 170 0
 295 01a0 40F20003 		movw	r3, #:lower16:_toSendFlag
 296 01a4 C0F20003 		movt	r3, #:upper16:_toSendFlag
 297 01a8 1B78     		ldrb	r3, [r3, #0]	@ zero_extendqisi2
 298 01aa 012B     		cmp	r3, #1
 299 01ac 06D1     		bne	.L21
 171:.\Comms.c     **** 			{
 172:.\Comms.c     **** 				xbeeState = xbeeSending;
 300              		.loc 1 172 0
 301 01ae 40F20003 		movw	r3, #:lower16:xbeeState.3798
 302 01b2 C0F20003 		movt	r3, #:upper16:xbeeState.3798
 303 01b6 4FF00402 		mov	r2, #4
 304 01ba 1A70     		strb	r2, [r3, #0]
 305              	.L21:
 173:.\Comms.c     **** 			}
 174:.\Comms.c     **** 			
 175:.\Comms.c     **** 			// Check if xbee needs to be turned off
 176:.\Comms.c     **** 			if(_turnOffXbeeFlag == TRUE)
 306              		.loc 1 176 0
 307 01bc 40F20003 		movw	r3, #:lower16:_turnOffXbeeFlag
 308 01c0 C0F20003 		movt	r3, #:upper16:_turnOffXbeeFlag
 309 01c4 1B78     		ldrb	r3, [r3, #0]	@ zero_extendqisi2
 310 01c6 012B     		cmp	r3, #1
 311 01c8 40F0DB80 		bne	.L32
 177:.\Comms.c     **** 			{
 178:.\Comms.c     **** 				#if(configCOMMS_ALLOW_XBEE_SLEEP == 1)
 179:.\Comms.c     **** 					xbeeState = xbeeOff;
 180:.\Comms.c     **** 				#endif
 181:.\Comms.c     **** 				// Reset flag
 182:.\Comms.c     **** 				_turnOffXbeeFlag = FALSE;
 312              		.loc 1 182 0
 313 01cc 40F20003 		movw	r3, #:lower16:_turnOffXbeeFlag
 314 01d0 C0F20003 		movt	r3, #:upper16:_turnOffXbeeFlag
 315 01d4 4FF00002 		mov	r2, #0
 316 01d8 1A70     		strb	r2, [r3, #0]
 183:.\Comms.c     **** 			}
 184:.\Comms.c     **** 			break;
ARM GAS  C:\Users\Geo\AppData\Local\Temp\ccUsAN4A.s 			page 10


 317              		.loc 1 184 0
 318 01da D5E0     		b	.L4
 319              	.L9:
 185:.\Comms.c     **** 		case xbeeSending:
 186:.\Comms.c     **** 			if(prevxbeeState != xbeeSending)
 320              		.loc 1 186 0
 321 01dc 40F20003 		movw	r3, #:lower16:prevxbeeState.3799
 322 01e0 C0F20003 		movt	r3, #:upper16:prevxbeeState.3799
 323 01e4 1B78     		ldrb	r3, [r3, #0]	@ zero_extendqisi2
 324 01e6 042B     		cmp	r3, #4
 325 01e8 0ED0     		beq	.L23
 187:.\Comms.c     **** 			{
 188:.\Comms.c     **** 				#if(config_DEBUG_COMMS == 1) 
 189:.\Comms.c     **** 					UartDebug_PutString("COMMS: Entering xbeeSending state.\r\n");
 190:.\Comms.c     **** 				#endif
 191:.\Comms.c     **** 				// Send data to the uart
 192:.\Comms.c     **** 				UartXbee_PutArray(_txDataBuffer, configCOMMS_MSG_SIZE);
 326              		.loc 1 192 0
 327 01ea 40F20000 		movw	r0, #:lower16:_txDataBuffer
 328 01ee C0F20000 		movt	r0, #:upper16:_txDataBuffer
 329 01f2 4FF00801 		mov	r1, #8
 330 01f6 FFF7FEFF 		bl	UartXbee_PutArray
 193:.\Comms.c     **** 				prevxbeeState = xbeeSending;
 331              		.loc 1 193 0
 332 01fa 40F20003 		movw	r3, #:lower16:prevxbeeState.3799
 333 01fe C0F20003 		movt	r3, #:upper16:prevxbeeState.3799
 334 0202 4FF00402 		mov	r2, #4
 335 0206 1A70     		strb	r2, [r3, #0]
 336              	.L23:
 194:.\Comms.c     **** 			}
 195:.\Comms.c     **** 			
 196:.\Comms.c     **** 			// Check is message has been sent
 197:.\Comms.c     **** 			if(UartDebug_ReadTxStatus() && UartXbee_TX_STS_FIFO_EMPTY)
 337              		.loc 1 197 0
 338 0208 FFF7FEFF 		bl	UartDebug_ReadTxStatus
 339 020c 0346     		mov	r3, r0
 340 020e 002B     		cmp	r3, #0
 341 0210 00F0B980 		beq	.L33
 198:.\Comms.c     **** 			{
 199:.\Comms.c     **** 				_toSendFlag = FALSE;
 342              		.loc 1 199 0
 343 0214 40F20003 		movw	r3, #:lower16:_toSendFlag
 344 0218 C0F20003 		movt	r3, #:upper16:_toSendFlag
 345 021c 4FF00002 		mov	r2, #0
 346 0220 1A70     		strb	r2, [r3, #0]
 200:.\Comms.c     **** 				xbeeState = xbeeWaitingForResponse;
 347              		.loc 1 200 0
 348 0222 40F20003 		movw	r3, #:lower16:xbeeState.3798
 349 0226 C0F20003 		movt	r3, #:upper16:xbeeState.3798
 350 022a 4FF00502 		mov	r2, #5
 351 022e 1A70     		strb	r2, [r3, #0]
 201:.\Comms.c     **** 			}
 202:.\Comms.c     **** 
 203:.\Comms.c     **** 			break;
 352              		.loc 1 203 0
 353 0230 AAE0     		b	.L4
 354              	.L10:
ARM GAS  C:\Users\Geo\AppData\Local\Temp\ccUsAN4A.s 			page 11


 204:.\Comms.c     **** 			
 205:.\Comms.c     **** 		case xbeeWaitingForResponse:
 206:.\Comms.c     **** 			if(prevxbeeState != xbeeWaitingForResponse)
 355              		.loc 1 206 0
 356 0232 40F20003 		movw	r3, #:lower16:prevxbeeState.3799
 357 0236 C0F20003 		movt	r3, #:upper16:prevxbeeState.3799
 358 023a 1B78     		ldrb	r3, [r3, #0]	@ zero_extendqisi2
 359 023c 052B     		cmp	r3, #5
 360 023e 10D0     		beq	.L25
 207:.\Comms.c     **** 			{
 208:.\Comms.c     **** 				#if(config_DEBUG_COMMS == 1) 
 209:.\Comms.c     **** 					UartDebug_PutString("COMMS: Entering xbeeWaitingForResponse state.\r\n");
 210:.\Comms.c     **** 				#endif
 211:.\Comms.c     **** 				waitingForResponseCount = counter;
 361              		.loc 1 211 0
 362 0240 40F20003 		movw	r3, #:lower16:counter.3797
 363 0244 C0F20003 		movt	r3, #:upper16:counter.3797
 364 0248 1A68     		ldr	r2, [r3, #0]
 365 024a 40F20003 		movw	r3, #:lower16:waitingForResponseCount.3801
 366 024e C0F20003 		movt	r3, #:upper16:waitingForResponseCount.3801
 367 0252 1A60     		str	r2, [r3, #0]
 212:.\Comms.c     **** 				prevxbeeState = xbeeWaitingForResponse;
 368              		.loc 1 212 0
 369 0254 40F20003 		movw	r3, #:lower16:prevxbeeState.3799
 370 0258 C0F20003 		movt	r3, #:upper16:prevxbeeState.3799
 371 025c 4FF00502 		mov	r2, #5
 372 0260 1A70     		strb	r2, [r3, #0]
 373              	.L25:
 213:.\Comms.c     **** 			}
 214:.\Comms.c     **** 			
 215:.\Comms.c     **** 			Comms_RetrieveData();
 374              		.loc 1 215 0
 375 0262 FFF7FEFF 		bl	Comms_RetrieveData
 216:.\Comms.c     **** 			
 217:.\Comms.c     **** 			//Decode if their are new packets present
 218:.\Comms.c     **** 			if(_newPacketFlag)
 376              		.loc 1 218 0
 377 0266 40F20003 		movw	r3, #:lower16:_newPacketFlag
 378 026a C0F20003 		movt	r3, #:upper16:_newPacketFlag
 379 026e 1B78     		ldrb	r3, [r3, #0]	@ zero_extendqisi2
 380 0270 002B     		cmp	r3, #0
 381 0272 14D0     		beq	.L26
 219:.\Comms.c     **** 			{
 220:.\Comms.c     **** 				#if(config_DEBUG_COMMS == 1)
 221:.\Comms.c     **** 					char tempBuff[50];
 222:.\Comms.c     **** 					snprintf(tempBuff, sizeof(tempBuff), "COMMS: Board reponsed. Reponse time: %fms\r\n", (double)
 223:.\Comms.c     **** 					UartDebug_PutString(tempBuff);
 224:.\Comms.c     **** 				#endif
 225:.\Comms.c     **** 				_newPacketFlag = FALSE;
 382              		.loc 1 225 0
 383 0274 40F20003 		movw	r3, #:lower16:_newPacketFlag
 384 0278 C0F20003 		movt	r3, #:upper16:_newPacketFlag
 385 027c 4FF00002 		mov	r2, #0
 386 0280 1A70     		strb	r2, [r3, #0]
 226:.\Comms.c     **** 				// Set unread data flag (cleared when comms_get_byte is called)
 227:.\Comms.c     **** 				_unreadDataFlag = TRUE;
 387              		.loc 1 227 0
ARM GAS  C:\Users\Geo\AppData\Local\Temp\ccUsAN4A.s 			page 12


 388 0282 40F20003 		movw	r3, #:lower16:_unreadDataFlag
 389 0286 C0F20003 		movt	r3, #:upper16:_unreadDataFlag
 390 028a 4FF00102 		mov	r2, #1
 391 028e 1A70     		strb	r2, [r3, #0]
 228:.\Comms.c     **** 				xbeeState = xbeeOnStable;
 392              		.loc 1 228 0
 393 0290 40F20003 		movw	r3, #:lower16:xbeeState.3798
 394 0294 C0F20003 		movt	r3, #:upper16:xbeeState.3798
 395 0298 4FF00302 		mov	r2, #3
 396 029c 1A70     		strb	r2, [r3, #0]
 397              	.L26:
 229:.\Comms.c     **** 			}
 230:.\Comms.c     **** 			
 231:.\Comms.c     **** 			// Check for timeout
 232:.\Comms.c     **** 			if(counter >= waitingForResponseCount + configCOMMS_TIMEOUT_PERIOD_MS/configMAIN_TICK_PERIOD_MS)
 398              		.loc 1 232 0
 399 029e 40F20003 		movw	r3, #:lower16:counter.3797
 400 02a2 C0F20003 		movt	r3, #:upper16:counter.3797
 401 02a6 1B68     		ldr	r3, [r3, #0]
 402 02a8 1846     		mov	r0, r3
 403 02aa FFF7FEFF 		bl	__aeabi_ui2d
 404 02ae 0446     		mov	r4, r0
 405 02b0 0D46     		mov	r5, r1
 406 02b2 40F20003 		movw	r3, #:lower16:waitingForResponseCount.3801
 407 02b6 C0F20003 		movt	r3, #:upper16:waitingForResponseCount.3801
 408 02ba 1B68     		ldr	r3, [r3, #0]
 409 02bc 1846     		mov	r0, r3
 410 02be FFF7FEFF 		bl	__aeabi_ui2d
 411 02c2 0246     		mov	r2, r0
 412 02c4 0B46     		mov	r3, r1
 413 02c6 1046     		mov	r0, r2
 414 02c8 1946     		mov	r1, r3
 415 02ca 4FF00002 		mov	r2, #0
 416 02ce 4FF08043 		mov	r3, #1073741824
 417 02d2 03F51013 		add	r3, r3, #2359296
 418 02d6 FFF7FEFF 		bl	__aeabi_dadd
 419 02da 0246     		mov	r2, r0
 420 02dc 0B46     		mov	r3, r1
 421 02de 4FF00001 		mov	r1, #0
 422 02e2 0E46     		mov	r6, r1
 423 02e4 2046     		mov	r0, r4
 424 02e6 2946     		mov	r1, r5
 425 02e8 FFF7FEFF 		bl	__aeabi_dcmpge
 426 02ec 0346     		mov	r3, r0
 427 02ee 002B     		cmp	r3, #0
 428 02f0 02D0     		beq	.L27
 429              	.L28:
 430 02f2 4FF00103 		mov	r3, #1
 431 02f6 1E46     		mov	r6, r3
 432              	.L27:
 433 02f8 F3B2     		uxtb	r3, r6
 434 02fa 002B     		cmp	r3, #0
 435 02fc 44D0     		beq	.L4
 436              	.LBB2:
 233:.\Comms.c     **** 			{
 234:.\Comms.c     **** 				#if(config_DEBUG_COMMS_ERROR == 1) 
 235:.\Comms.c     **** 					char tempBuff[100];
ARM GAS  C:\Users\Geo\AppData\Local\Temp\ccUsAN4A.s 			page 13


 236:.\Comms.c     **** 					snprintf(tempBuff, sizeof(tempBuff), "COMMS: Xbee timeout. Time since send: %fms\r\n", (double
 437              		.loc 1 236 0
 438 02fe 40F20003 		movw	r3, #:lower16:counter.3797
 439 0302 C0F20003 		movt	r3, #:upper16:counter.3797
 440 0306 1A68     		ldr	r2, [r3, #0]
 441 0308 40F20003 		movw	r3, #:lower16:waitingForResponseCount.3801
 442 030c C0F20003 		movt	r3, #:upper16:waitingForResponseCount.3801
 443 0310 1B68     		ldr	r3, [r3, #0]
 444 0312 C3EB0203 		rsb	r3, r3, r2
 445 0316 1846     		mov	r0, r3
 446 0318 FFF7FEFF 		bl	__aeabi_ui2d
 447 031c 0246     		mov	r2, r0
 448 031e 0B46     		mov	r3, r1
 449 0320 1046     		mov	r0, r2
 450 0322 1946     		mov	r1, r3
 451 0324 4FF00002 		mov	r2, #0
 452 0328 4FF08043 		mov	r3, #1073741824
 453 032c 03F51013 		add	r3, r3, #2359296
 454 0330 FFF7FEFF 		bl	__aeabi_dmul
 455 0334 0246     		mov	r2, r0
 456 0336 0B46     		mov	r3, r1
 457 0338 07F10401 		add	r1, r7, #4
 458 033c CDE90023 		strd	r2, [sp]
 459 0340 0846     		mov	r0, r1
 460 0342 4FF06401 		mov	r1, #100
 461 0346 40F20002 		movw	r2, #:lower16:.LC0
 462 034a C0F20002 		movt	r2, #:upper16:.LC0
 463 034e FFF7FEFF 		bl	snprintf
 237:.\Comms.c     **** 					UartDebug_PutString(tempBuff);
 464              		.loc 1 237 0
 465 0352 07F10403 		add	r3, r7, #4
 466 0356 1846     		mov	r0, r3
 467 0358 FFF7FEFF 		bl	UartDebug_PutString
 238:.\Comms.c     **** 				#endif
 239:.\Comms.c     **** 				_commsTimeoutFlag = TRUE;
 468              		.loc 1 239 0
 469 035c 40F20003 		movw	r3, #:lower16:_commsTimeoutFlag
 470 0360 C0F20003 		movt	r3, #:upper16:_commsTimeoutFlag
 471 0364 4FF00102 		mov	r2, #1
 472 0368 1A70     		strb	r2, [r3, #0]
 240:.\Comms.c     **** 				xbeeState = xbeeOnStable;
 473              		.loc 1 240 0
 474 036a 40F20003 		movw	r3, #:lower16:xbeeState.3798
 475 036e C0F20003 		movt	r3, #:upper16:xbeeState.3798
 476 0372 4FF00302 		mov	r2, #3
 477 0376 1A70     		strb	r2, [r3, #0]
 478 0378 06E0     		b	.L4
 479              	.L30:
 480              	.LBE2:
 481              		.loc 1 140 0
 482 037a 00BF     		nop
 483 037c 04E0     		b	.L4
 484              	.L31:
 485              		.loc 1 156 0
 486 037e 00BF     		nop
 487 0380 02E0     		b	.L4
 488              	.L32:
ARM GAS  C:\Users\Geo\AppData\Local\Temp\ccUsAN4A.s 			page 14


 489              		.loc 1 184 0
 490 0382 00BF     		nop
 491 0384 00E0     		b	.L4
 492              	.L33:
 493              		.loc 1 203 0
 494 0386 00BF     		nop
 495              	.L4:
 241:.\Comms.c     **** 			}
 242:.\Comms.c     **** 			break;
 243:.\Comms.c     **** 	}
 244:.\Comms.c     **** 	
 245:.\Comms.c     **** 	// Increment state counter
 246:.\Comms.c     **** 	counter++;
 496              		.loc 1 246 0
 497 0388 40F20003 		movw	r3, #:lower16:counter.3797
 498 038c C0F20003 		movt	r3, #:upper16:counter.3797
 499 0390 1B68     		ldr	r3, [r3, #0]
 500 0392 03F10102 		add	r2, r3, #1
 501 0396 40F20003 		movw	r3, #:lower16:counter.3797
 502 039a C0F20003 		movt	r3, #:upper16:counter.3797
 503 039e 1A60     		str	r2, [r3, #0]
 247:.\Comms.c     **** }
 504              		.loc 1 247 0
 505 03a0 07F16C07 		add	r7, r7, #108
 506 03a4 BD46     		mov	sp, r7
 507 03a6 F0BD     		pop	{r4, r5, r6, r7, pc}
 508              		.cfi_endproc
 509              	.LFE30:
 510              		.size	Comms_Run, .-Comms_Run
 511              		.section	.rodata
 512 002d 000000   		.align	2
 513              	.LC1:
 514 0030 434F4D4D 		.ascii	"COMMS: ***Error***. Buffer overrun.\015\012\000"
 514      533A202A 
 514      2A2A4572 
 514      726F722A 
 514      2A2A2E20 
 515 0056 0000     		.section	.text.Comms_RetrieveData,"ax",%progbits
 516              		.align	2
 517              		.global	Comms_RetrieveData
 518              		.thumb
 519              		.thumb_func
 520              		.type	Comms_RetrieveData, %function
 521              	Comms_RetrieveData:
 522              	.LFB31:
 248:.\Comms.c     **** 
 249:.\Comms.c     **** void Comms_RetrieveData()
 250:.\Comms.c     **** {
 523              		.loc 1 250 0
 524              		.cfi_startproc
 525              		@ args = 0, pretend = 0, frame = 0
 526              		@ frame_needed = 1, uses_anonymous_args = 0
 527 0000 80B5     		push	{r7, lr}
 528              	.LCFI6:
 529              		.cfi_def_cfa_offset 8
 530 0002 00AF     		add	r7, sp, #0
 531              		.cfi_offset 14, -4
ARM GAS  C:\Users\Geo\AppData\Local\Temp\ccUsAN4A.s 			page 15


 532              		.cfi_offset 7, -8
 533              	.LCFI7:
 534              		.cfi_def_cfa_register 7
 251:.\Comms.c     **** 	static commsStates_t commsState = idle;
 252:.\Comms.c     **** 	static uint8_t packetBufferPos = 0;
 253:.\Comms.c     **** 	static uint8_t numOfDataBytes = 0;
 254:.\Comms.c     **** 	static uint8_t rxDataByte;
 255:.\Comms.c     **** 
 256:.\Comms.c     **** 	while(UartXbee_GetRxBufferSize() != 0)
 535              		.loc 1 256 0
 536 0004 73E1     		b	.L35
 537              	.L52:
 257:.\Comms.c     **** 	{
 258:.\Comms.c     **** 		rxDataByte = UartXbee_GetChar();
 538              		.loc 1 258 0
 539 0006 FFF7FEFF 		bl	UartXbee_GetChar
 540 000a 0346     		mov	r3, r0
 541 000c 1A46     		mov	r2, r3
 542 000e 40F20003 		movw	r3, #:lower16:rxDataByte.3881
 543 0012 C0F20003 		movt	r3, #:upper16:rxDataByte.3881
 544 0016 1A70     		strb	r2, [r3, #0]
 259:.\Comms.c     **** 		
 260:.\Comms.c     **** 		switch(commsState){
 545              		.loc 1 260 0
 546 0018 40F20003 		movw	r3, #:lower16:commsState.3878
 547 001c C0F20003 		movt	r3, #:upper16:commsState.3878
 548 0020 1B78     		ldrb	r3, [r3, #0]	@ zero_extendqisi2
 549 0022 062B     		cmp	r3, #6
 550 0024 00F23D81 		bhi	.L36
 551 0028 01A2     		adr	r2, .L44
 552 002a 52F823F0 		ldr	pc, [r2, r3, lsl #2]
 553 002e 00BF     		.align	2
 554              	.L44:
 555 0030 4D000000 		.word	.L37+1
 556 0034 CF000000 		.word	.L38+1
 557 0038 47010000 		.word	.L39+1
 558 003c BF010000 		.word	.L40+1
 559 0040 1D020000 		.word	.L41+1
 560 0044 75020000 		.word	.L42+1
 561 0048 85020000 		.word	.L43+1
 562              	.L37:
 261:.\Comms.c     **** 			case idle:
 262:.\Comms.c     **** 				
 263:.\Comms.c     **** 				packetBufferPos = 0;
 563              		.loc 1 263 0
 564 004c 40F20003 		movw	r3, #:lower16:packetBufferPos.3879
 565 0050 C0F20003 		movt	r3, #:upper16:packetBufferPos.3879
 566 0054 4FF00002 		mov	r2, #0
 567 0058 1A70     		strb	r2, [r3, #0]
 264:.\Comms.c     **** 				numOfDataBytes = 0;
 568              		.loc 1 264 0
 569 005a 40F20003 		movw	r3, #:lower16:numOfDataBytes.3880
 570 005e C0F20003 		movt	r3, #:upper16:numOfDataBytes.3880
 571 0062 4FF00002 		mov	r2, #0
 572 0066 1A70     		strb	r2, [r3, #0]
 265:.\Comms.c     **** 				if(rxDataByte == _idenChars[0])
 573              		.loc 1 265 0
ARM GAS  C:\Users\Geo\AppData\Local\Temp\ccUsAN4A.s 			page 16


 574 0068 40F20003 		movw	r3, #:lower16:_idenChars
 575 006c C0F20003 		movt	r3, #:upper16:_idenChars
 576 0070 1B68     		ldr	r3, [r3, #0]
 577 0072 1A78     		ldrb	r2, [r3, #0]	@ zero_extendqisi2
 578 0074 40F20003 		movw	r3, #:lower16:rxDataByte.3881
 579 0078 C0F20003 		movt	r3, #:upper16:rxDataByte.3881
 580 007c 1B78     		ldrb	r3, [r3, #0]	@ zero_extendqisi2
 581 007e 9A42     		cmp	r2, r3
 582 0080 40F01781 		bne	.L54
 266:.\Comms.c     **** 				{
 267:.\Comms.c     **** 					_rxDataBuffer[packetBufferPos] = rxDataByte;
 583              		.loc 1 267 0
 584 0084 40F20003 		movw	r3, #:lower16:packetBufferPos.3879
 585 0088 C0F20003 		movt	r3, #:upper16:packetBufferPos.3879
 586 008c 1B78     		ldrb	r3, [r3, #0]	@ zero_extendqisi2
 587 008e 1A46     		mov	r2, r3
 588 0090 40F20003 		movw	r3, #:lower16:rxDataByte.3881
 589 0094 C0F20003 		movt	r3, #:upper16:rxDataByte.3881
 590 0098 1978     		ldrb	r1, [r3, #0]	@ zero_extendqisi2
 591 009a 40F20003 		movw	r3, #:lower16:_rxDataBuffer
 592 009e C0F20003 		movt	r3, #:upper16:_rxDataBuffer
 593 00a2 9954     		strb	r1, [r3, r2]
 268:.\Comms.c     **** 					packetBufferPos++;
 594              		.loc 1 268 0
 595 00a4 40F20003 		movw	r3, #:lower16:packetBufferPos.3879
 596 00a8 C0F20003 		movt	r3, #:upper16:packetBufferPos.3879
 597 00ac 1B78     		ldrb	r3, [r3, #0]	@ zero_extendqisi2
 598 00ae 03F10103 		add	r3, r3, #1
 599 00b2 DAB2     		uxtb	r2, r3
 600 00b4 40F20003 		movw	r3, #:lower16:packetBufferPos.3879
 601 00b8 C0F20003 		movt	r3, #:upper16:packetBufferPos.3879
 602 00bc 1A70     		strb	r2, [r3, #0]
 269:.\Comms.c     **** 					commsState = secondIdenChar;
 603              		.loc 1 269 0
 604 00be 40F20003 		movw	r3, #:lower16:commsState.3878
 605 00c2 C0F20003 		movt	r3, #:upper16:commsState.3878
 606 00c6 4FF00102 		mov	r2, #1
 607 00ca 1A70     		strb	r2, [r3, #0]
 270:.\Comms.c     **** 				}
 271:.\Comms.c     **** 				break;
 608              		.loc 1 271 0
 609 00cc F4E0     		b	.L46
 610              	.L38:
 272:.\Comms.c     **** 			case secondIdenChar:
 273:.\Comms.c     **** 				if(rxDataByte == _idenChars[1])
 611              		.loc 1 273 0
 612 00ce 40F20003 		movw	r3, #:lower16:_idenChars
 613 00d2 C0F20003 		movt	r3, #:upper16:_idenChars
 614 00d6 1B68     		ldr	r3, [r3, #0]
 615 00d8 03F10103 		add	r3, r3, #1
 616 00dc 1A78     		ldrb	r2, [r3, #0]	@ zero_extendqisi2
 617 00de 40F20003 		movw	r3, #:lower16:rxDataByte.3881
 618 00e2 C0F20003 		movt	r3, #:upper16:rxDataByte.3881
 619 00e6 1B78     		ldrb	r3, [r3, #0]	@ zero_extendqisi2
 620 00e8 9A42     		cmp	r2, r3
 621 00ea 24D1     		bne	.L47
 274:.\Comms.c     **** 				{
ARM GAS  C:\Users\Geo\AppData\Local\Temp\ccUsAN4A.s 			page 17


 275:.\Comms.c     **** 					_rxDataBuffer[packetBufferPos] = rxDataByte;
 622              		.loc 1 275 0
 623 00ec 40F20003 		movw	r3, #:lower16:packetBufferPos.3879
 624 00f0 C0F20003 		movt	r3, #:upper16:packetBufferPos.3879
 625 00f4 1B78     		ldrb	r3, [r3, #0]	@ zero_extendqisi2
 626 00f6 1A46     		mov	r2, r3
 627 00f8 40F20003 		movw	r3, #:lower16:rxDataByte.3881
 628 00fc C0F20003 		movt	r3, #:upper16:rxDataByte.3881
 629 0100 1978     		ldrb	r1, [r3, #0]	@ zero_extendqisi2
 630 0102 40F20003 		movw	r3, #:lower16:_rxDataBuffer
 631 0106 C0F20003 		movt	r3, #:upper16:_rxDataBuffer
 632 010a 9954     		strb	r1, [r3, r2]
 276:.\Comms.c     **** 					packetBufferPos++;
 633              		.loc 1 276 0
 634 010c 40F20003 		movw	r3, #:lower16:packetBufferPos.3879
 635 0110 C0F20003 		movt	r3, #:upper16:packetBufferPos.3879
 636 0114 1B78     		ldrb	r3, [r3, #0]	@ zero_extendqisi2
 637 0116 03F10103 		add	r3, r3, #1
 638 011a DAB2     		uxtb	r2, r3
 639 011c 40F20003 		movw	r3, #:lower16:packetBufferPos.3879
 640 0120 C0F20003 		movt	r3, #:upper16:packetBufferPos.3879
 641 0124 1A70     		strb	r2, [r3, #0]
 277:.\Comms.c     **** 					commsState = thirdIdenChar;
 642              		.loc 1 277 0
 643 0126 40F20003 		movw	r3, #:lower16:commsState.3878
 644 012a C0F20003 		movt	r3, #:upper16:commsState.3878
 645 012e 4FF00202 		mov	r2, #2
 646 0132 1A70     		strb	r2, [r3, #0]
 278:.\Comms.c     **** 				}
 279:.\Comms.c     **** 				else
 280:.\Comms.c     **** 				{
 281:.\Comms.c     **** 					// Go back to idle state if header not valid
 282:.\Comms.c     **** 					commsState = idle;
 283:.\Comms.c     **** 				}
 284:.\Comms.c     **** 				break;
 647              		.loc 1 284 0
 648 0134 C0E0     		b	.L46
 649              	.L47:
 650              		.loc 1 282 0
 651 0136 40F20003 		movw	r3, #:lower16:commsState.3878
 652 013a C0F20003 		movt	r3, #:upper16:commsState.3878
 653 013e 4FF00002 		mov	r2, #0
 654 0142 1A70     		strb	r2, [r3, #0]
 655              		.loc 1 284 0
 656 0144 B8E0     		b	.L46
 657              	.L39:
 285:.\Comms.c     **** 			case thirdIdenChar:
 286:.\Comms.c     **** 				if(rxDataByte == _idenChars[2])
 658              		.loc 1 286 0
 659 0146 40F20003 		movw	r3, #:lower16:_idenChars
 660 014a C0F20003 		movt	r3, #:upper16:_idenChars
 661 014e 1B68     		ldr	r3, [r3, #0]
 662 0150 03F10203 		add	r3, r3, #2
 663 0154 1A78     		ldrb	r2, [r3, #0]	@ zero_extendqisi2
 664 0156 40F20003 		movw	r3, #:lower16:rxDataByte.3881
 665 015a C0F20003 		movt	r3, #:upper16:rxDataByte.3881
 666 015e 1B78     		ldrb	r3, [r3, #0]	@ zero_extendqisi2
ARM GAS  C:\Users\Geo\AppData\Local\Temp\ccUsAN4A.s 			page 18


 667 0160 9A42     		cmp	r2, r3
 668 0162 24D1     		bne	.L49
 287:.\Comms.c     **** 				{
 288:.\Comms.c     **** 					_rxDataBuffer[packetBufferPos] = rxDataByte;
 669              		.loc 1 288 0
 670 0164 40F20003 		movw	r3, #:lower16:packetBufferPos.3879
 671 0168 C0F20003 		movt	r3, #:upper16:packetBufferPos.3879
 672 016c 1B78     		ldrb	r3, [r3, #0]	@ zero_extendqisi2
 673 016e 1A46     		mov	r2, r3
 674 0170 40F20003 		movw	r3, #:lower16:rxDataByte.3881
 675 0174 C0F20003 		movt	r3, #:upper16:rxDataByte.3881
 676 0178 1978     		ldrb	r1, [r3, #0]	@ zero_extendqisi2
 677 017a 40F20003 		movw	r3, #:lower16:_rxDataBuffer
 678 017e C0F20003 		movt	r3, #:upper16:_rxDataBuffer
 679 0182 9954     		strb	r1, [r3, r2]
 289:.\Comms.c     **** 					packetBufferPos++;
 680              		.loc 1 289 0
 681 0184 40F20003 		movw	r3, #:lower16:packetBufferPos.3879
 682 0188 C0F20003 		movt	r3, #:upper16:packetBufferPos.3879
 683 018c 1B78     		ldrb	r3, [r3, #0]	@ zero_extendqisi2
 684 018e 03F10103 		add	r3, r3, #1
 685 0192 DAB2     		uxtb	r2, r3
 686 0194 40F20003 		movw	r3, #:lower16:packetBufferPos.3879
 687 0198 C0F20003 		movt	r3, #:upper16:packetBufferPos.3879
 688 019c 1A70     		strb	r2, [r3, #0]
 290:.\Comms.c     **** 					commsState = packetDataCount;
 689              		.loc 1 290 0
 690 019e 40F20003 		movw	r3, #:lower16:commsState.3878
 691 01a2 C0F20003 		movt	r3, #:upper16:commsState.3878
 692 01a6 4FF00302 		mov	r2, #3
 693 01aa 1A70     		strb	r2, [r3, #0]
 291:.\Comms.c     **** 				}
 292:.\Comms.c     **** 				else
 293:.\Comms.c     **** 				{
 294:.\Comms.c     **** 					// Go back to idle state if header not valid
 295:.\Comms.c     **** 					commsState = idle;
 296:.\Comms.c     **** 				}
 297:.\Comms.c     **** 				break;
 694              		.loc 1 297 0
 695 01ac 84E0     		b	.L46
 696              	.L49:
 697              		.loc 1 295 0
 698 01ae 40F20003 		movw	r3, #:lower16:commsState.3878
 699 01b2 C0F20003 		movt	r3, #:upper16:commsState.3878
 700 01b6 4FF00002 		mov	r2, #0
 701 01ba 1A70     		strb	r2, [r3, #0]
 702              		.loc 1 297 0
 703 01bc 7CE0     		b	.L46
 704              	.L40:
 298:.\Comms.c     **** 			case packetDataCount:
 299:.\Comms.c     **** 				commsState = packetData;
 705              		.loc 1 299 0
 706 01be 40F20003 		movw	r3, #:lower16:commsState.3878
 707 01c2 C0F20003 		movt	r3, #:upper16:commsState.3878
 708 01c6 4FF00402 		mov	r2, #4
 709 01ca 1A70     		strb	r2, [r3, #0]
 300:.\Comms.c     **** 				_rxDataBuffer[packetBufferPos] = rxDataByte;
ARM GAS  C:\Users\Geo\AppData\Local\Temp\ccUsAN4A.s 			page 19


 710              		.loc 1 300 0
 711 01cc 40F20003 		movw	r3, #:lower16:packetBufferPos.3879
 712 01d0 C0F20003 		movt	r3, #:upper16:packetBufferPos.3879
 713 01d4 1B78     		ldrb	r3, [r3, #0]	@ zero_extendqisi2
 714 01d6 1A46     		mov	r2, r3
 715 01d8 40F20003 		movw	r3, #:lower16:rxDataByte.3881
 716 01dc C0F20003 		movt	r3, #:upper16:rxDataByte.3881
 717 01e0 1978     		ldrb	r1, [r3, #0]	@ zero_extendqisi2
 718 01e2 40F20003 		movw	r3, #:lower16:_rxDataBuffer
 719 01e6 C0F20003 		movt	r3, #:upper16:_rxDataBuffer
 720 01ea 9954     		strb	r1, [r3, r2]
 301:.\Comms.c     **** 				numOfDataBytes = rxDataByte;
 721              		.loc 1 301 0
 722 01ec 40F20003 		movw	r3, #:lower16:rxDataByte.3881
 723 01f0 C0F20003 		movt	r3, #:upper16:rxDataByte.3881
 724 01f4 1A78     		ldrb	r2, [r3, #0]	@ zero_extendqisi2
 725 01f6 40F20003 		movw	r3, #:lower16:numOfDataBytes.3880
 726 01fa C0F20003 		movt	r3, #:upper16:numOfDataBytes.3880
 727 01fe 1A70     		strb	r2, [r3, #0]
 302:.\Comms.c     **** 				packetBufferPos++;
 728              		.loc 1 302 0
 729 0200 40F20003 		movw	r3, #:lower16:packetBufferPos.3879
 730 0204 C0F20003 		movt	r3, #:upper16:packetBufferPos.3879
 731 0208 1B78     		ldrb	r3, [r3, #0]	@ zero_extendqisi2
 732 020a 03F10103 		add	r3, r3, #1
 733 020e DAB2     		uxtb	r2, r3
 734 0210 40F20003 		movw	r3, #:lower16:packetBufferPos.3879
 735 0214 C0F20003 		movt	r3, #:upper16:packetBufferPos.3879
 736 0218 1A70     		strb	r2, [r3, #0]
 303:.\Comms.c     **** 				break;
 737              		.loc 1 303 0
 738 021a 4DE0     		b	.L46
 739              	.L41:
 304:.\Comms.c     **** 
 305:.\Comms.c     **** 			case packetData:
 306:.\Comms.c     **** 				
 307:.\Comms.c     **** 				_rxDataBuffer[packetBufferPos] = rxDataByte;
 740              		.loc 1 307 0
 741 021c 40F20003 		movw	r3, #:lower16:packetBufferPos.3879
 742 0220 C0F20003 		movt	r3, #:upper16:packetBufferPos.3879
 743 0224 1B78     		ldrb	r3, [r3, #0]	@ zero_extendqisi2
 744 0226 1A46     		mov	r2, r3
 745 0228 40F20003 		movw	r3, #:lower16:rxDataByte.3881
 746 022c C0F20003 		movt	r3, #:upper16:rxDataByte.3881
 747 0230 1978     		ldrb	r1, [r3, #0]	@ zero_extendqisi2
 748 0232 40F20003 		movw	r3, #:lower16:_rxDataBuffer
 749 0236 C0F20003 		movt	r3, #:upper16:_rxDataBuffer
 750 023a 9954     		strb	r1, [r3, r2]
 308:.\Comms.c     **** 				packetBufferPos++;
 751              		.loc 1 308 0
 752 023c 40F20003 		movw	r3, #:lower16:packetBufferPos.3879
 753 0240 C0F20003 		movt	r3, #:upper16:packetBufferPos.3879
 754 0244 1B78     		ldrb	r3, [r3, #0]	@ zero_extendqisi2
 755 0246 03F10103 		add	r3, r3, #1
 756 024a DAB2     		uxtb	r2, r3
 757 024c 40F20003 		movw	r3, #:lower16:packetBufferPos.3879
 758 0250 C0F20003 		movt	r3, #:upper16:packetBufferPos.3879
ARM GAS  C:\Users\Geo\AppData\Local\Temp\ccUsAN4A.s 			page 20


 759 0254 1A70     		strb	r2, [r3, #0]
 309:.\Comms.c     **** 				if(packetBufferPos >= 4+5) //! @todo Fix
 760              		.loc 1 309 0
 761 0256 40F20003 		movw	r3, #:lower16:packetBufferPos.3879
 762 025a C0F20003 		movt	r3, #:upper16:packetBufferPos.3879
 763 025e 1B78     		ldrb	r3, [r3, #0]	@ zero_extendqisi2
 764 0260 082B     		cmp	r3, #8
 765 0262 28D9     		bls	.L55
 310:.\Comms.c     **** 				{
 311:.\Comms.c     **** 					commsState = packetComplete;
 766              		.loc 1 311 0
 767 0264 40F20003 		movw	r3, #:lower16:commsState.3878
 768 0268 C0F20003 		movt	r3, #:upper16:commsState.3878
 769 026c 4FF00602 		mov	r2, #6
 770 0270 1A70     		strb	r2, [r3, #0]
 312:.\Comms.c     **** 				}
 313:.\Comms.c     **** 				
 314:.\Comms.c     **** 				break;
 771              		.loc 1 314 0
 772 0272 21E0     		b	.L46
 773              	.L42:
 315:.\Comms.c     **** 			case receivingChecksum:
 316:.\Comms.c     **** 				commsState = packetComplete;
 774              		.loc 1 316 0
 775 0274 40F20003 		movw	r3, #:lower16:commsState.3878
 776 0278 C0F20003 		movt	r3, #:upper16:commsState.3878
 777 027c 4FF00602 		mov	r2, #6
 778 0280 1A70     		strb	r2, [r3, #0]
 317:.\Comms.c     **** 				break;
 779              		.loc 1 317 0
 780 0282 19E0     		b	.L46
 781              	.L43:
 318:.\Comms.c     **** 			case packetComplete:
 319:.\Comms.c     **** 				// Set new packet flag true so comms decode can be called
 320:.\Comms.c     **** 				_newPacketFlag = TRUE;
 782              		.loc 1 320 0
 783 0284 40F20003 		movw	r3, #:lower16:_newPacketFlag
 784 0288 C0F20003 		movt	r3, #:upper16:_newPacketFlag
 785 028c 4FF00102 		mov	r2, #1
 786 0290 1A70     		strb	r2, [r3, #0]
 321:.\Comms.c     **** 				commsState = idle;
 787              		.loc 1 321 0
 788 0292 40F20003 		movw	r3, #:lower16:commsState.3878
 789 0296 C0F20003 		movt	r3, #:upper16:commsState.3878
 790 029a 4FF00002 		mov	r2, #0
 791 029e 1A70     		strb	r2, [r3, #0]
 322:.\Comms.c     **** 				break;
 792              		.loc 1 322 0
 793 02a0 0AE0     		b	.L46
 794              	.L36:
 323:.\Comms.c     **** 			default:
 324:.\Comms.c     **** 				commsState = idle;
 795              		.loc 1 324 0
 796 02a2 40F20003 		movw	r3, #:lower16:commsState.3878
 797 02a6 C0F20003 		movt	r3, #:upper16:commsState.3878
 798 02aa 4FF00002 		mov	r2, #0
 799 02ae 1A70     		strb	r2, [r3, #0]
ARM GAS  C:\Users\Geo\AppData\Local\Temp\ccUsAN4A.s 			page 21


 800 02b0 02E0     		b	.L46
 801              	.L54:
 802              		.loc 1 271 0
 803 02b2 00BF     		nop
 804 02b4 00E0     		b	.L46
 805              	.L55:
 806              		.loc 1 314 0
 807 02b6 00BF     		nop
 808              	.L46:
 325:.\Comms.c     **** 				break;
 326:.\Comms.c     **** 		}
 327:.\Comms.c     **** 		
 328:.\Comms.c     **** 		//packetBufferPos++;
 329:.\Comms.c     **** 		if(packetBufferPos > configCOMM_RX_BUFFER_SIZE )					//Resets packet buffer index (shouldn't happ
 809              		.loc 1 329 0
 810 02b8 40F20003 		movw	r3, #:lower16:packetBufferPos.3879
 811 02bc C0F20003 		movt	r3, #:upper16:packetBufferPos.3879
 812 02c0 1B78     		ldrb	r3, [r3, #0]	@ zero_extendqisi2
 813 02c2 322B     		cmp	r3, #50
 814 02c4 13D9     		bls	.L35
 330:.\Comms.c     **** 		{
 331:.\Comms.c     **** 			#if(config_DEBUG_COMMS_ERROR == 1) 
 332:.\Comms.c     **** 					UartDebug_PutString("COMMS: ***Error***. Buffer overrun.\r\n");
 815              		.loc 1 332 0
 816 02c6 40F20000 		movw	r0, #:lower16:.LC1
 817 02ca C0F20000 		movt	r0, #:upper16:.LC1
 818 02ce FFF7FEFF 		bl	UartDebug_PutString
 333:.\Comms.c     **** 			#endif
 334:.\Comms.c     **** 			packetBufferPos = 0;
 819              		.loc 1 334 0
 820 02d2 40F20003 		movw	r3, #:lower16:packetBufferPos.3879
 821 02d6 C0F20003 		movt	r3, #:upper16:packetBufferPos.3879
 822 02da 4FF00002 		mov	r2, #0
 823 02de 1A70     		strb	r2, [r3, #0]
 335:.\Comms.c     **** 			_commsPacketBufferOverrunFlag = TRUE;
 824              		.loc 1 335 0
 825 02e0 40F20003 		movw	r3, #:lower16:_commsPacketBufferOverrunFlag
 826 02e4 C0F20003 		movt	r3, #:upper16:_commsPacketBufferOverrunFlag
 827 02e8 4FF00102 		mov	r2, #1
 828 02ec 1A70     		strb	r2, [r3, #0]
 829              	.L35:
 830              		.loc 1 256 0
 831 02ee FFF7FEFF 		bl	UartXbee_GetRxBufferSize
 832 02f2 0346     		mov	r3, r0
 833 02f4 002B     		cmp	r3, #0
 834 02f6 7FF486AE 		bne	.L52
 336:.\Comms.c     **** 		}
 337:.\Comms.c     **** 	}
 338:.\Comms.c     **** }
 835              		.loc 1 338 0
 836 02fa 80BD     		pop	{r7, pc}
 837              		.cfi_endproc
 838              	.LFE31:
 839              		.size	Comms_RetrieveData, .-Comms_RetrieveData
 840              		.section	.text.Comms_TurnOn,"ax",%progbits
 841              		.align	2
 842              		.global	Comms_TurnOn
ARM GAS  C:\Users\Geo\AppData\Local\Temp\ccUsAN4A.s 			page 22


 843              		.thumb
 844              		.thumb_func
 845              		.type	Comms_TurnOn, %function
 846              	Comms_TurnOn:
 847              	.LFB32:
 339:.\Comms.c     **** 
 340:.\Comms.c     **** void Comms_TurnOn(void)
 341:.\Comms.c     **** {
 848              		.loc 1 341 0
 849              		.cfi_startproc
 850              		@ args = 0, pretend = 0, frame = 0
 851              		@ frame_needed = 1, uses_anonymous_args = 0
 852              		@ link register save eliminated.
 853 0000 80B4     		push	{r7}
 854              	.LCFI8:
 855              		.cfi_def_cfa_offset 4
 856 0002 00AF     		add	r7, sp, #0
 857              		.cfi_offset 7, -4
 858              	.LCFI9:
 859              		.cfi_def_cfa_register 7
 342:.\Comms.c     **** 	_turnOnXbeeFlag = TRUE;
 860              		.loc 1 342 0
 861 0004 40F20003 		movw	r3, #:lower16:_turnOnXbeeFlag
 862 0008 C0F20003 		movt	r3, #:upper16:_turnOnXbeeFlag
 863 000c 4FF00102 		mov	r2, #1
 864 0010 1A70     		strb	r2, [r3, #0]
 343:.\Comms.c     **** }
 865              		.loc 1 343 0
 866 0012 BD46     		mov	sp, r7
 867 0014 80BC     		pop	{r7}
 868 0016 7047     		bx	lr
 869              		.cfi_endproc
 870              	.LFE32:
 871              		.size	Comms_TurnOn, .-Comms_TurnOn
 872              		.section	.text.Comms_TurnOff,"ax",%progbits
 873              		.align	2
 874              		.global	Comms_TurnOff
 875              		.thumb
 876              		.thumb_func
 877              		.type	Comms_TurnOff, %function
 878              	Comms_TurnOff:
 879              	.LFB33:
 344:.\Comms.c     **** 
 345:.\Comms.c     **** void Comms_TurnOff(void)
 346:.\Comms.c     **** {
 880              		.loc 1 346 0
 881              		.cfi_startproc
 882              		@ args = 0, pretend = 0, frame = 0
 883              		@ frame_needed = 1, uses_anonymous_args = 0
 884              		@ link register save eliminated.
 885 0000 80B4     		push	{r7}
 886              	.LCFI10:
 887              		.cfi_def_cfa_offset 4
 888 0002 00AF     		add	r7, sp, #0
 889              		.cfi_offset 7, -4
 890              	.LCFI11:
 891              		.cfi_def_cfa_register 7
ARM GAS  C:\Users\Geo\AppData\Local\Temp\ccUsAN4A.s 			page 23


 347:.\Comms.c     **** 	_turnOffXbeeFlag = TRUE;
 892              		.loc 1 347 0
 893 0004 40F20003 		movw	r3, #:lower16:_turnOffXbeeFlag
 894 0008 C0F20003 		movt	r3, #:upper16:_turnOffXbeeFlag
 895 000c 4FF00102 		mov	r2, #1
 896 0010 1A70     		strb	r2, [r3, #0]
 348:.\Comms.c     **** }
 897              		.loc 1 348 0
 898 0012 BD46     		mov	sp, r7
 899 0014 80BC     		pop	{r7}
 900 0016 7047     		bx	lr
 901              		.cfi_endproc
 902              	.LFE33:
 903              		.size	Comms_TurnOff, .-Comms_TurnOff
 904              		.section	.text.Comms_GetByte,"ax",%progbits
 905              		.align	2
 906              		.global	Comms_GetByte
 907              		.thumb
 908              		.thumb_func
 909              		.type	Comms_GetByte, %function
 910              	Comms_GetByte:
 911              	.LFB34:
 349:.\Comms.c     **** 
 350:.\Comms.c     **** uint8_t Comms_GetByte(uint8_t byteNum)
 351:.\Comms.c     **** {
 912              		.loc 1 351 0
 913              		.cfi_startproc
 914              		@ args = 0, pretend = 0, frame = 8
 915              		@ frame_needed = 1, uses_anonymous_args = 0
 916              		@ link register save eliminated.
 917 0000 80B4     		push	{r7}
 918              	.LCFI12:
 919              		.cfi_def_cfa_offset 4
 920 0002 83B0     		sub	sp, sp, #12
 921              	.LCFI13:
 922              		.cfi_def_cfa_offset 16
 923 0004 00AF     		add	r7, sp, #0
 924              		.cfi_offset 7, -4
 925              	.LCFI14:
 926              		.cfi_def_cfa_register 7
 927 0006 0346     		mov	r3, r0
 928 0008 FB71     		strb	r3, [r7, #7]
 352:.\Comms.c     **** 	// Clear unread data flag once at east one byte from the new packet has been read
 353:.\Comms.c     **** 	return _rxDataBuffer[byteNum];
 929              		.loc 1 353 0
 930 000a FA79     		ldrb	r2, [r7, #7]	@ zero_extendqisi2
 931 000c 40F20003 		movw	r3, #:lower16:_rxDataBuffer
 932 0010 C0F20003 		movt	r3, #:upper16:_rxDataBuffer
 933 0014 9B5C     		ldrb	r3, [r3, r2]	@ zero_extendqisi2
 354:.\Comms.c     **** }
 934              		.loc 1 354 0
 935 0016 1846     		mov	r0, r3
 936 0018 07F10C07 		add	r7, r7, #12
 937 001c BD46     		mov	sp, r7
 938 001e 80BC     		pop	{r7}
 939 0020 7047     		bx	lr
 940              		.cfi_endproc
ARM GAS  C:\Users\Geo\AppData\Local\Temp\ccUsAN4A.s 			page 24


 941              	.LFE34:
 942              		.size	Comms_GetByte, .-Comms_GetByte
 943 0022 00BF     		.section	.text.Comms_Send,"ax",%progbits
 944              		.align	2
 945              		.global	Comms_Send
 946              		.thumb
 947              		.thumb_func
 948              		.type	Comms_Send, %function
 949              	Comms_Send:
 950              	.LFB35:
 355:.\Comms.c     **** 
 356:.\Comms.c     **** //! @brief 		Call to send data to the comms
 357:.\Comms.c     **** void Comms_Send(uint8_t* dataArray)
 358:.\Comms.c     **** {
 951              		.loc 1 358 0
 952              		.cfi_startproc
 953              		@ args = 0, pretend = 0, frame = 8
 954              		@ frame_needed = 1, uses_anonymous_args = 0
 955 0000 80B5     		push	{r7, lr}
 956              	.LCFI15:
 957              		.cfi_def_cfa_offset 8
 958 0002 82B0     		sub	sp, sp, #8
 959              	.LCFI16:
 960              		.cfi_def_cfa_offset 16
 961 0004 00AF     		add	r7, sp, #0
 962              		.cfi_offset 14, -4
 963              		.cfi_offset 7, -8
 964              	.LCFI17:
 965              		.cfi_def_cfa_register 7
 966 0006 7860     		str	r0, [r7, #4]
 359:.\Comms.c     **** 	memcpy(_txDataBuffer, dataArray, configCOMMS_MSG_SIZE);
 967              		.loc 1 359 0
 968 0008 40F20000 		movw	r0, #:lower16:_txDataBuffer
 969 000c C0F20000 		movt	r0, #:upper16:_txDataBuffer
 970 0010 7968     		ldr	r1, [r7, #4]
 971 0012 4FF00802 		mov	r2, #8
 972 0016 FFF7FEFF 		bl	memcpy
 360:.\Comms.c     **** 	_toSendFlag = TRUE;
 973              		.loc 1 360 0
 974 001a 40F20003 		movw	r3, #:lower16:_toSendFlag
 975 001e C0F20003 		movt	r3, #:upper16:_toSendFlag
 976 0022 4FF00102 		mov	r2, #1
 977 0026 1A70     		strb	r2, [r3, #0]
 361:.\Comms.c     **** }
 978              		.loc 1 361 0
 979 0028 07F10807 		add	r7, r7, #8
 980 002c BD46     		mov	sp, r7
 981 002e 80BD     		pop	{r7, pc}
 982              		.cfi_endproc
 983              	.LFE35:
 984              		.size	Comms_Send, .-Comms_Send
 985              		.section	.text.Comms_IsTimeout,"ax",%progbits
 986              		.align	2
 987              		.global	Comms_IsTimeout
 988              		.thumb
 989              		.thumb_func
 990              		.type	Comms_IsTimeout, %function
ARM GAS  C:\Users\Geo\AppData\Local\Temp\ccUsAN4A.s 			page 25


 991              	Comms_IsTimeout:
 992              	.LFB36:
 362:.\Comms.c     **** 
 363:.\Comms.c     **** //! @brief 		Returns true if comms has timeout because it has received a packet in COMMS_TIMEOUT_PE
 364:.\Comms.c     **** bool_t Comms_IsTimeout(void)
 365:.\Comms.c     **** {
 993              		.loc 1 365 0
 994              		.cfi_startproc
 995              		@ args = 0, pretend = 0, frame = 8
 996              		@ frame_needed = 1, uses_anonymous_args = 0
 997              		@ link register save eliminated.
 998 0000 80B4     		push	{r7}
 999              	.LCFI18:
 1000              		.cfi_def_cfa_offset 4
 1001 0002 83B0     		sub	sp, sp, #12
 1002              	.LCFI19:
 1003              		.cfi_def_cfa_offset 16
 1004 0004 00AF     		add	r7, sp, #0
 1005              		.cfi_offset 7, -4
 1006              	.LCFI20:
 1007              		.cfi_def_cfa_register 7
 366:.\Comms.c     **** 	// Reset flag
 367:.\Comms.c     **** 	bool_t tempVar = _commsTimeoutFlag;
 1008              		.loc 1 367 0
 1009 0006 40F20003 		movw	r3, #:lower16:_commsTimeoutFlag
 1010 000a C0F20003 		movt	r3, #:upper16:_commsTimeoutFlag
 1011 000e 1B78     		ldrb	r3, [r3, #0]
 1012 0010 FB71     		strb	r3, [r7, #7]
 368:.\Comms.c     **** 	_commsTimeoutFlag = FALSE;
 1013              		.loc 1 368 0
 1014 0012 40F20003 		movw	r3, #:lower16:_commsTimeoutFlag
 1015 0016 C0F20003 		movt	r3, #:upper16:_commsTimeoutFlag
 1016 001a 4FF00002 		mov	r2, #0
 1017 001e 1A70     		strb	r2, [r3, #0]
 369:.\Comms.c     **** 	return tempVar;
 1018              		.loc 1 369 0
 1019 0020 FB79     		ldrb	r3, [r7, #7]	@ zero_extendqisi2
 370:.\Comms.c     **** }
 1020              		.loc 1 370 0
 1021 0022 1846     		mov	r0, r3
 1022 0024 07F10C07 		add	r7, r7, #12
 1023 0028 BD46     		mov	sp, r7
 1024 002a 80BC     		pop	{r7}
 1025 002c 7047     		bx	lr
 1026              		.cfi_endproc
 1027              	.LFE36:
 1028              		.size	Comms_IsTimeout, .-Comms_IsTimeout
 1029 002e 00BF     		.section	.text.Comms_IsNewPacket,"ax",%progbits
 1030              		.align	2
 1031              		.global	Comms_IsNewPacket
 1032              		.thumb
 1033              		.thumb_func
 1034              		.type	Comms_IsNewPacket, %function
 1035              	Comms_IsNewPacket:
 1036              	.LFB37:
 371:.\Comms.c     **** 
 372:.\Comms.c     **** // Returns true if their is a new packet that hasn't been read
ARM GAS  C:\Users\Geo\AppData\Local\Temp\ccUsAN4A.s 			page 26


 373:.\Comms.c     **** uint8_t Comms_IsNewPacket(void)
 374:.\Comms.c     **** {
 1037              		.loc 1 374 0
 1038              		.cfi_startproc
 1039              		@ args = 0, pretend = 0, frame = 8
 1040              		@ frame_needed = 1, uses_anonymous_args = 0
 1041              		@ link register save eliminated.
 1042 0000 80B4     		push	{r7}
 1043              	.LCFI21:
 1044              		.cfi_def_cfa_offset 4
 1045 0002 83B0     		sub	sp, sp, #12
 1046              	.LCFI22:
 1047              		.cfi_def_cfa_offset 16
 1048 0004 00AF     		add	r7, sp, #0
 1049              		.cfi_offset 7, -4
 1050              	.LCFI23:
 1051              		.cfi_def_cfa_register 7
 375:.\Comms.c     **** 	bool_t tempVar = _unreadDataFlag;
 1052              		.loc 1 375 0
 1053 0006 40F20003 		movw	r3, #:lower16:_unreadDataFlag
 1054 000a C0F20003 		movt	r3, #:upper16:_unreadDataFlag
 1055 000e 1B78     		ldrb	r3, [r3, #0]
 1056 0010 FB71     		strb	r3, [r7, #7]
 376:.\Comms.c     **** 	_unreadDataFlag = FALSE;
 1057              		.loc 1 376 0
 1058 0012 40F20003 		movw	r3, #:lower16:_unreadDataFlag
 1059 0016 C0F20003 		movt	r3, #:upper16:_unreadDataFlag
 1060 001a 4FF00002 		mov	r2, #0
 1061 001e 1A70     		strb	r2, [r3, #0]
 377:.\Comms.c     **** 	return tempVar;
 1062              		.loc 1 377 0
 1063 0020 FB79     		ldrb	r3, [r7, #7]	@ zero_extendqisi2
 378:.\Comms.c     **** }
 1064              		.loc 1 378 0
 1065 0022 1846     		mov	r0, r3
 1066 0024 07F10C07 		add	r7, r7, #12
 1067 0028 BD46     		mov	sp, r7
 1068 002a 80BC     		pop	{r7}
 1069 002c 7047     		bx	lr
 1070              		.cfi_endproc
 1071              	.LFE37:
 1072              		.size	Comms_IsNewPacket, .-Comms_IsNewPacket
 1073 002e 00BF     		.bss
 1074              	rxDataByte.3881:
 1075 0049 00       		.space	1
 1076              	commsState.3878:
 1077 004a 00       		.space	1
 1078              	packetBufferPos.3879:
 1079 004b 00       		.space	1
 1080              	numOfDataBytes.3880:
 1081 004c 00       		.space	1
 1082              	xbeeState.3798:
 1083 004d 00       		.space	1
 1084              	prevxbeeState.3799:
 1085 004e 00       		.space	1
 1086 004f 00       		.align	2
 1087              	counter.3797:
ARM GAS  C:\Users\Geo\AppData\Local\Temp\ccUsAN4A.s 			page 27


 1088 0050 00000000 		.space	4
 1089              		.align	2
 1090              	xbeeTurnOnTime.3800:
 1091 0054 00000000 		.space	4
 1092              		.align	2
 1093              	waitingForResponseCount.3801:
 1094 0058 00000000 		.space	4
 1095              		.text
 1096              	.Letext0: