ARM GAS  C:\Users\Geo\AppData\Local\Temp\ccVeTRuu.s 			page 1


   1              		.syntax unified
   2              		.cpu cortex-m3
   3              		.fpu softvfp
   4              		.eabi_attribute 20, 1
   5              		.eabi_attribute 21, 1
   6              		.eabi_attribute 23, 3
   7              		.eabi_attribute 24, 1
   8              		.eabi_attribute 25, 1
   9              		.eabi_attribute 26, 1
  10              		.eabi_attribute 30, 6
  11              		.eabi_attribute 18, 4
  12              		.thumb
  13              		.file	"cyfitter_cfg.c"
  14              		.section	.debug_abbrev,"",%progbits
  15              	.Ldebug_abbrev0:
  16              		.section	.debug_info,"",%progbits
  17              	.Ldebug_info0:
  18              		.section	.debug_line,"",%progbits
  19              	.Ldebug_line0:
  20 0000 C6010000 		.text
  20      02007000 
  20      00000201 
  20      FB0E0D00 
  20      01010101 
  21              	.Ltext0:
  22              		.cfi_sections	.debug_frame
  23              		.section	.text.CyClockStartupError,"ax",%progbits
  24              		.align	2
  25              		.thumb
  26              		.thumb_func
  27              		.type	CyClockStartupError, %function
  28              	CyClockStartupError:
  29              	.LFB0:
  30              		.file 1 ".\\Generated_Source\\PSoC5\\cyfitter_cfg.c"
   1:.\Generated_Source\PSoC5/cyfitter_cfg.c **** /*******************************************************************************
   2:.\Generated_Source\PSoC5/cyfitter_cfg.c **** * FILENAME: cyfitter_cfg.c
   3:.\Generated_Source\PSoC5/cyfitter_cfg.c **** * PSoC Creator 2.0 Component Pack 2
   4:.\Generated_Source\PSoC5/cyfitter_cfg.c **** *
   5:.\Generated_Source\PSoC5/cyfitter_cfg.c **** * Description:
   6:.\Generated_Source\PSoC5/cyfitter_cfg.c **** * This file is automatically generated by PSoC Creator with device 
   7:.\Generated_Source\PSoC5/cyfitter_cfg.c **** * initialization code.
   8:.\Generated_Source\PSoC5/cyfitter_cfg.c **** *
   9:.\Generated_Source\PSoC5/cyfitter_cfg.c **** * THIS FILE SHOULD NOT BE MODIFIED.
  10:.\Generated_Source\PSoC5/cyfitter_cfg.c **** *
  11:.\Generated_Source\PSoC5/cyfitter_cfg.c **** ********************************************************************************
  12:.\Generated_Source\PSoC5/cyfitter_cfg.c **** * Copyright 2011, Cypress Semiconductor Corporation.  All rights reserved.
  13:.\Generated_Source\PSoC5/cyfitter_cfg.c **** * You may use this file only in accordance with the license, terms, conditions, 
  14:.\Generated_Source\PSoC5/cyfitter_cfg.c **** * disclaimers, and limitations in the end user license agreement accompanying 
  15:.\Generated_Source\PSoC5/cyfitter_cfg.c **** * the software package with which this file was provided.
  16:.\Generated_Source\PSoC5/cyfitter_cfg.c **** ********************************************************************************/
  17:.\Generated_Source\PSoC5/cyfitter_cfg.c **** 
  18:.\Generated_Source\PSoC5/cyfitter_cfg.c **** #include <string.h>
  19:.\Generated_Source\PSoC5/cyfitter_cfg.c **** #include <cytypes.h>
  20:.\Generated_Source\PSoC5/cyfitter_cfg.c **** #include <cydevice_trm.h>
  21:.\Generated_Source\PSoC5/cyfitter_cfg.c **** #include <cyfitter.h>
  22:.\Generated_Source\PSoC5/cyfitter_cfg.c **** #include <CyLib.h>
  23:.\Generated_Source\PSoC5/cyfitter_cfg.c **** #include <CyDmac.h>
ARM GAS  C:\Users\Geo\AppData\Local\Temp\ccVeTRuu.s 			page 2


  24:.\Generated_Source\PSoC5/cyfitter_cfg.c **** #include <cyfitter_cfg.h>
  25:.\Generated_Source\PSoC5/cyfitter_cfg.c **** 
  26:.\Generated_Source\PSoC5/cyfitter_cfg.c **** /* Clock startup error codes                                                   */
  27:.\Generated_Source\PSoC5/cyfitter_cfg.c **** #define CYCLOCKSTART_NO_ERROR    0
  28:.\Generated_Source\PSoC5/cyfitter_cfg.c **** #define CYCLOCKSTART_XTAL_ERROR  1
  29:.\Generated_Source\PSoC5/cyfitter_cfg.c **** #define CYCLOCKSTART_32KHZ_ERROR 2
  30:.\Generated_Source\PSoC5/cyfitter_cfg.c **** #define CYCLOCKSTART_PLL_ERROR   3
  31:.\Generated_Source\PSoC5/cyfitter_cfg.c **** 
  32:.\Generated_Source\PSoC5/cyfitter_cfg.c **** /*******************************************************************************
  33:.\Generated_Source\PSoC5/cyfitter_cfg.c **** * Function Name: CyClockStartupError
  34:.\Generated_Source\PSoC5/cyfitter_cfg.c **** ********************************************************************************
  35:.\Generated_Source\PSoC5/cyfitter_cfg.c **** * Summary:
  36:.\Generated_Source\PSoC5/cyfitter_cfg.c **** *  If an error is encountered during clock configuration (crystal startup error,
  37:.\Generated_Source\PSoC5/cyfitter_cfg.c **** *  PLL lock error, etc) the system will end up here.  Unless reimplemented by 
  38:.\Generated_Source\PSoC5/cyfitter_cfg.c **** *  the customer, an infinite loop will be encountered.
  39:.\Generated_Source\PSoC5/cyfitter_cfg.c **** *
  40:.\Generated_Source\PSoC5/cyfitter_cfg.c **** * Parameters:  
  41:.\Generated_Source\PSoC5/cyfitter_cfg.c **** *   void
  42:.\Generated_Source\PSoC5/cyfitter_cfg.c **** *
  43:.\Generated_Source\PSoC5/cyfitter_cfg.c **** * Return:
  44:.\Generated_Source\PSoC5/cyfitter_cfg.c **** *   void
  45:.\Generated_Source\PSoC5/cyfitter_cfg.c **** *
  46:.\Generated_Source\PSoC5/cyfitter_cfg.c **** *******************************************************************************/
  47:.\Generated_Source\PSoC5/cyfitter_cfg.c **** #if defined(__GNUC__) || defined(__ARMCC_VERSION)
  48:.\Generated_Source\PSoC5/cyfitter_cfg.c **** __attribute__ ((unused))
  49:.\Generated_Source\PSoC5/cyfitter_cfg.c **** #endif
  50:.\Generated_Source\PSoC5/cyfitter_cfg.c **** static void CyClockStartupError(uint8 errorCode)
  51:.\Generated_Source\PSoC5/cyfitter_cfg.c **** {
  31              		.loc 1 51 0
  32              		.cfi_startproc
  33              		@ args = 0, pretend = 0, frame = 8
  34              		@ frame_needed = 1, uses_anonymous_args = 0
  35              		@ link register save eliminated.
  36 0000 80B4     		push	{r7}
  37              	.LCFI0:
  38              		.cfi_def_cfa_offset 4
  39 0002 83B0     		sub	sp, sp, #12
  40              	.LCFI1:
  41              		.cfi_def_cfa_offset 16
  42 0004 00AF     		add	r7, sp, #0
  43              		.cfi_offset 7, -4
  44              	.LCFI2:
  45              		.cfi_def_cfa_register 7
  46 0006 0346     		mov	r3, r0
  47 0008 FB71     		strb	r3, [r7, #7]
  48              	.L2:
  52:.\Generated_Source\PSoC5/cyfitter_cfg.c ****     /* To remove the compiler warning if errorCode not used.                */
  53:.\Generated_Source\PSoC5/cyfitter_cfg.c ****     errorCode = errorCode;
  54:.\Generated_Source\PSoC5/cyfitter_cfg.c **** 
  55:.\Generated_Source\PSoC5/cyfitter_cfg.c ****     /* `#START CyClockStartupError` */
  56:.\Generated_Source\PSoC5/cyfitter_cfg.c **** 
  57:.\Generated_Source\PSoC5/cyfitter_cfg.c ****     /* If we have a clock startup error (bad MHz crystal, PLL lock, etc)    */
  58:.\Generated_Source\PSoC5/cyfitter_cfg.c ****     /* we will end up here to allow the customer to implement something to  */
  59:.\Generated_Source\PSoC5/cyfitter_cfg.c ****     /* deal with the clock condition.                                       */
  60:.\Generated_Source\PSoC5/cyfitter_cfg.c **** 
  61:.\Generated_Source\PSoC5/cyfitter_cfg.c ****     /* `#END` */
  62:.\Generated_Source\PSoC5/cyfitter_cfg.c **** 
ARM GAS  C:\Users\Geo\AppData\Local\Temp\ccVeTRuu.s 			page 3


  63:.\Generated_Source\PSoC5/cyfitter_cfg.c ****     /* If nothing else, stop here since the clocks have not started         */
  64:.\Generated_Source\PSoC5/cyfitter_cfg.c ****     /* correctly.                                                           */
  65:.\Generated_Source\PSoC5/cyfitter_cfg.c ****     while(1) {}
  49              		.loc 1 65 0
  50 000a FEE7     		b	.L2
  51              		.cfi_endproc
  52              	.LFE0:
  53              		.size	CyClockStartupError, .-CyClockStartupError
  54              		.section	.text.cymemzero8,"ax",%progbits
  55              		.align	2
  56              		.thumb
  57              		.thumb_func
  58              		.type	cymemzero8, %function
  59              	cymemzero8:
  60              	.LFB1:
  66:.\Generated_Source\PSoC5/cyfitter_cfg.c **** }
  67:.\Generated_Source\PSoC5/cyfitter_cfg.c **** 
  68:.\Generated_Source\PSoC5/cyfitter_cfg.c **** 
  69:.\Generated_Source\PSoC5/cyfitter_cfg.c **** #undef CYCODE
  70:.\Generated_Source\PSoC5/cyfitter_cfg.c **** #undef CYDATA
  71:.\Generated_Source\PSoC5/cyfitter_cfg.c **** #undef CYXDATA
  72:.\Generated_Source\PSoC5/cyfitter_cfg.c **** #undef CYFAR
  73:.\Generated_Source\PSoC5/cyfitter_cfg.c **** #if defined(__GNUC__) || defined(__ARMCC_VERSION)
  74:.\Generated_Source\PSoC5/cyfitter_cfg.c **** 	#define CYCODE
  75:.\Generated_Source\PSoC5/cyfitter_cfg.c **** 	#define CYDATA
  76:.\Generated_Source\PSoC5/cyfitter_cfg.c **** 	#define CYXDATA
  77:.\Generated_Source\PSoC5/cyfitter_cfg.c **** 	#define CYFAR
  78:.\Generated_Source\PSoC5/cyfitter_cfg.c **** 
  79:.\Generated_Source\PSoC5/cyfitter_cfg.c **** 	#define CYPACKED __attribute__ ((packed))
  80:.\Generated_Source\PSoC5/cyfitter_cfg.c **** 	#define CYALIGNED __attribute__ ((aligned))
  81:.\Generated_Source\PSoC5/cyfitter_cfg.c **** 	
  82:.\Generated_Source\PSoC5/cyfitter_cfg.c ****     #if CYDEV_CONFIGURATION_DMA
  83:.\Generated_Source\PSoC5/cyfitter_cfg.c ****         #define DMAINITSEC __attribute__ ((section (".dma_init")))
  84:.\Generated_Source\PSoC5/cyfitter_cfg.c ****     #else
  85:.\Generated_Source\PSoC5/cyfitter_cfg.c ****         #define DMAINITSEC
  86:.\Generated_Source\PSoC5/cyfitter_cfg.c ****     #endif
  87:.\Generated_Source\PSoC5/cyfitter_cfg.c **** 
  88:.\Generated_Source\PSoC5/cyfitter_cfg.c **** 	#if defined(__ARMCC_VERSION)
  89:.\Generated_Source\PSoC5/cyfitter_cfg.c **** 		#define CY_CFG_MEMORY_BARRIER() __memory_changed()
  90:.\Generated_Source\PSoC5/cyfitter_cfg.c **** 	#else
  91:.\Generated_Source\PSoC5/cyfitter_cfg.c **** 		#define CY_CFG_MEMORY_BARRIER() __sync_synchronize()
  92:.\Generated_Source\PSoC5/cyfitter_cfg.c **** 	#endif
  93:.\Generated_Source\PSoC5/cyfitter_cfg.c **** 	
  94:.\Generated_Source\PSoC5/cyfitter_cfg.c ****     /*******************************************************************************
  95:.\Generated_Source\PSoC5/cyfitter_cfg.c ****     * Function Name: cymemzero8
  96:.\Generated_Source\PSoC5/cyfitter_cfg.c ****     ********************************************************************************
  97:.\Generated_Source\PSoC5/cyfitter_cfg.c ****     * Summary:
  98:.\Generated_Source\PSoC5/cyfitter_cfg.c ****     *  This function is provided as a way to initialize a block of memory to zero
  99:.\Generated_Source\PSoC5/cyfitter_cfg.c ****     *  one byte at a time.  While this is a 32bit processor, some of the 
 100:.\Generated_Source\PSoC5/cyfitter_cfg.c ****     *  configuration registers are only 8bits wide.  This allows us to initialize
 101:.\Generated_Source\PSoC5/cyfitter_cfg.c ****     *  just the registers we care about.
 102:.\Generated_Source\PSoC5/cyfitter_cfg.c ****     *
 103:.\Generated_Source\PSoC5/cyfitter_cfg.c ****     * Parameters:  
 104:.\Generated_Source\PSoC5/cyfitter_cfg.c ****     *   addr  - The first address to start writing zero to.
 105:.\Generated_Source\PSoC5/cyfitter_cfg.c ****     *   count - The number of bytes to write 0 to.
 106:.\Generated_Source\PSoC5/cyfitter_cfg.c ****     *
 107:.\Generated_Source\PSoC5/cyfitter_cfg.c ****     * Return:
ARM GAS  C:\Users\Geo\AppData\Local\Temp\ccVeTRuu.s 			page 4


 108:.\Generated_Source\PSoC5/cyfitter_cfg.c ****     *   void
 109:.\Generated_Source\PSoC5/cyfitter_cfg.c ****     *
 110:.\Generated_Source\PSoC5/cyfitter_cfg.c ****     *******************************************************************************/
 111:.\Generated_Source\PSoC5/cyfitter_cfg.c ****     __attribute__ ((unused))
 112:.\Generated_Source\PSoC5/cyfitter_cfg.c ****     static void cymemzero8(void *addr, unsigned int count)
 113:.\Generated_Source\PSoC5/cyfitter_cfg.c ****     {
  61              		.loc 1 113 0
  62              		.cfi_startproc
  63              		@ args = 0, pretend = 0, frame = 16
  64              		@ frame_needed = 1, uses_anonymous_args = 0
  65              		@ link register save eliminated.
  66 0000 80B4     		push	{r7}
  67              	.LCFI3:
  68              		.cfi_def_cfa_offset 4
  69 0002 85B0     		sub	sp, sp, #20
  70              	.LCFI4:
  71              		.cfi_def_cfa_offset 24
  72 0004 00AF     		add	r7, sp, #0
  73              		.cfi_offset 7, -4
  74              	.LCFI5:
  75              		.cfi_def_cfa_register 7
  76 0006 7860     		str	r0, [r7, #4]
  77 0008 3960     		str	r1, [r7, #0]
 114:.\Generated_Source\PSoC5/cyfitter_cfg.c **** 	    volatile uint8 *addr8 = (uint8 *)addr;
  78              		.loc 1 114 0
  79 000a 7B68     		ldr	r3, [r7, #4]
  80 000c FB60     		str	r3, [r7, #12]
 115:.\Generated_Source\PSoC5/cyfitter_cfg.c **** 	    while (count--)
  81              		.loc 1 115 0
  82 000e 07E0     		b	.L5
  83              	.L6:
 116:.\Generated_Source\PSoC5/cyfitter_cfg.c **** 	    {
 117:.\Generated_Source\PSoC5/cyfitter_cfg.c **** 		    *addr8 = 0;
  84              		.loc 1 117 0
  85 0010 FB68     		ldr	r3, [r7, #12]
  86 0012 4FF00002 		mov	r2, #0
  87 0016 1A70     		strb	r2, [r3, #0]
 118:.\Generated_Source\PSoC5/cyfitter_cfg.c **** 		    addr8++;
  88              		.loc 1 118 0
  89 0018 FB68     		ldr	r3, [r7, #12]
  90 001a 03F10103 		add	r3, r3, #1
  91 001e FB60     		str	r3, [r7, #12]
  92              	.L5:
  93              		.loc 1 115 0
  94 0020 3B68     		ldr	r3, [r7, #0]
  95 0022 002B     		cmp	r3, #0
  96 0024 0CBF     		ite	eq
  97 0026 0023     		moveq	r3, #0
  98 0028 0123     		movne	r3, #1
  99 002a DBB2     		uxtb	r3, r3
 100 002c 3A68     		ldr	r2, [r7, #0]
 101 002e 02F1FF32 		add	r2, r2, #-1
 102 0032 3A60     		str	r2, [r7, #0]
 103 0034 002B     		cmp	r3, #0
 104 0036 EBD1     		bne	.L6
 119:.\Generated_Source\PSoC5/cyfitter_cfg.c **** 	    }
 120:.\Generated_Source\PSoC5/cyfitter_cfg.c ****     }
ARM GAS  C:\Users\Geo\AppData\Local\Temp\ccVeTRuu.s 			page 5


 105              		.loc 1 120 0
 106 0038 07F11407 		add	r7, r7, #20
 107 003c BD46     		mov	sp, r7
 108 003e 80BC     		pop	{r7}
 109 0040 7047     		bx	lr
 110              		.cfi_endproc
 111              	.LFE1:
 112              		.size	cymemzero8, .-cymemzero8
 113 0042 00BF     		.section	.text.cymemcpy8,"ax",%progbits
 114              		.align	2
 115              		.thumb
 116              		.thumb_func
 117              		.type	cymemcpy8, %function
 118              	cymemcpy8:
 119              	.LFB2:
 121:.\Generated_Source\PSoC5/cyfitter_cfg.c **** 
 122:.\Generated_Source\PSoC5/cyfitter_cfg.c ****     /*******************************************************************************
 123:.\Generated_Source\PSoC5/cyfitter_cfg.c ****     * Function Name: cymemcpy8
 124:.\Generated_Source\PSoC5/cyfitter_cfg.c ****     ********************************************************************************
 125:.\Generated_Source\PSoC5/cyfitter_cfg.c ****     * Summary:
 126:.\Generated_Source\PSoC5/cyfitter_cfg.c ****     *  This function is provided as a way to copy data from one location to another
 127:.\Generated_Source\PSoC5/cyfitter_cfg.c ****     *  one byte at a time.  While this is a 32bit processor, some of the 
 128:.\Generated_Source\PSoC5/cyfitter_cfg.c ****     *  configuration registers are only 8bits wide.  This allows us to initialize
 129:.\Generated_Source\PSoC5/cyfitter_cfg.c ****     *  just the registers we care about.
 130:.\Generated_Source\PSoC5/cyfitter_cfg.c ****     *
 131:.\Generated_Source\PSoC5/cyfitter_cfg.c ****     * Parameters:  
 132:.\Generated_Source\PSoC5/cyfitter_cfg.c ****     *   dest  - The destination address to copy data to.
 133:.\Generated_Source\PSoC5/cyfitter_cfg.c ****     *   src   - The source address to copy data from.
 134:.\Generated_Source\PSoC5/cyfitter_cfg.c ****     *   count - The number of bytes to copy from 'src' to 'dest'.
 135:.\Generated_Source\PSoC5/cyfitter_cfg.c ****     *
 136:.\Generated_Source\PSoC5/cyfitter_cfg.c ****     * Return:
 137:.\Generated_Source\PSoC5/cyfitter_cfg.c ****     *   void
 138:.\Generated_Source\PSoC5/cyfitter_cfg.c ****     *
 139:.\Generated_Source\PSoC5/cyfitter_cfg.c ****     *******************************************************************************/
 140:.\Generated_Source\PSoC5/cyfitter_cfg.c ****     __attribute__ ((unused))
 141:.\Generated_Source\PSoC5/cyfitter_cfg.c ****     static void cymemcpy8(void *dest, const void *src, unsigned int count)
 142:.\Generated_Source\PSoC5/cyfitter_cfg.c ****     {
 120              		.loc 1 142 0
 121              		.cfi_startproc
 122              		@ args = 0, pretend = 0, frame = 24
 123              		@ frame_needed = 1, uses_anonymous_args = 0
 124              		@ link register save eliminated.
 125 0000 80B4     		push	{r7}
 126              	.LCFI6:
 127              		.cfi_def_cfa_offset 4
 128 0002 87B0     		sub	sp, sp, #28
 129              	.LCFI7:
 130              		.cfi_def_cfa_offset 32
 131 0004 00AF     		add	r7, sp, #0
 132              		.cfi_offset 7, -4
 133              	.LCFI8:
 134              		.cfi_def_cfa_register 7
 135 0006 F860     		str	r0, [r7, #12]
 136 0008 B960     		str	r1, [r7, #8]
 137 000a 7A60     		str	r2, [r7, #4]
 143:.\Generated_Source\PSoC5/cyfitter_cfg.c **** 	    volatile uint8 *dest8 = (uint8 *)dest;
 138              		.loc 1 143 0
ARM GAS  C:\Users\Geo\AppData\Local\Temp\ccVeTRuu.s 			page 6


 139 000c FB68     		ldr	r3, [r7, #12]
 140 000e 3B61     		str	r3, [r7, #16]
 144:.\Generated_Source\PSoC5/cyfitter_cfg.c **** 	    const uint8 *src8 = (const uint8 *)src;
 141              		.loc 1 144 0
 142 0010 BB68     		ldr	r3, [r7, #8]
 143 0012 7B61     		str	r3, [r7, #20]
 145:.\Generated_Source\PSoC5/cyfitter_cfg.c **** 
 146:.\Generated_Source\PSoC5/cyfitter_cfg.c **** 	    while (count--)
 144              		.loc 1 146 0
 145 0014 0BE0     		b	.L9
 146              	.L10:
 147:.\Generated_Source\PSoC5/cyfitter_cfg.c **** 	    {
 148:.\Generated_Source\PSoC5/cyfitter_cfg.c **** 		    *dest8 = *src8;
 147              		.loc 1 148 0
 148 0016 7B69     		ldr	r3, [r7, #20]
 149 0018 1A78     		ldrb	r2, [r3, #0]	@ zero_extendqisi2
 150 001a 3B69     		ldr	r3, [r7, #16]
 151 001c 1A70     		strb	r2, [r3, #0]
 149:.\Generated_Source\PSoC5/cyfitter_cfg.c **** 		    dest8++;
 152              		.loc 1 149 0
 153 001e 3B69     		ldr	r3, [r7, #16]
 154 0020 03F10103 		add	r3, r3, #1
 155 0024 3B61     		str	r3, [r7, #16]
 150:.\Generated_Source\PSoC5/cyfitter_cfg.c **** 		    src8++;
 156              		.loc 1 150 0
 157 0026 7B69     		ldr	r3, [r7, #20]
 158 0028 03F10103 		add	r3, r3, #1
 159 002c 7B61     		str	r3, [r7, #20]
 160              	.L9:
 161              		.loc 1 146 0
 162 002e 7B68     		ldr	r3, [r7, #4]
 163 0030 002B     		cmp	r3, #0
 164 0032 0CBF     		ite	eq
 165 0034 0023     		moveq	r3, #0
 166 0036 0123     		movne	r3, #1
 167 0038 DBB2     		uxtb	r3, r3
 168 003a 7A68     		ldr	r2, [r7, #4]
 169 003c 02F1FF32 		add	r2, r2, #-1
 170 0040 7A60     		str	r2, [r7, #4]
 171 0042 002B     		cmp	r3, #0
 172 0044 E7D1     		bne	.L10
 151:.\Generated_Source\PSoC5/cyfitter_cfg.c **** 	    }
 152:.\Generated_Source\PSoC5/cyfitter_cfg.c ****     }
 173              		.loc 1 152 0
 174 0046 07F11C07 		add	r7, r7, #28
 175 004a BD46     		mov	sp, r7
 176 004c 80BC     		pop	{r7}
 177 004e 7047     		bx	lr
 178              		.cfi_endproc
 179              	.LFE2:
 180              		.size	cymemcpy8, .-cymemcpy8
 181              		.section	.dma_init,"a",%progbits
 182              		.align	2
 183              		.type	CH1_ADDR_DATA0, %object
 184              		.size	CH1_ADDR_DATA0, 8
 185              	CH1_ADDR_DATA0:
 186 0000 01       		.byte	1
ARM GAS  C:\Users\Geo\AppData\Local\Temp\ccVeTRuu.s 			page 7


 187 0001 00       		.byte	0
 188 0002 00       		.byte	0
 189 0003 00       		.byte	0
 190 0004 00       		.byte	0
 191 0005 20       		.byte	32
 192 0006 00       		.byte	0
 193 0007 40       		.byte	64
 194              		.align	2
 195              		.type	CH2_ADDR_DATA0, %object
 196              		.size	CH2_ADDR_DATA0, 8
 197              	CH2_ADDR_DATA0:
 198 0008 01       		.byte	1
 199 0009 00       		.byte	0
 200 000a 00       		.byte	0
 201 000b 00       		.byte	0
 202 000c 00       		.byte	0
 203 000d 20       		.byte	32
 204 000e 01       		.byte	1
 205 000f 40       		.byte	64
 206              		.align	2
 207              		.type	CH5_ADDR_DATA0, %object
 208              		.size	CH5_ADDR_DATA0, 8
 209              	CH5_ADDR_DATA0:
 210 0010 01       		.byte	1
 211 0011 00       		.byte	0
 212 0012 00       		.byte	0
 213 0013 00       		.byte	0
 214 0014 00       		.byte	0
 215 0015 48       		.byte	72
 216 0016 00       		.byte	0
 217 0017 40       		.byte	64
 218              		.align	2
 219              		.type	CH6_ADDR_DATA0, %object
 220              		.size	CH6_ADDR_DATA0, 8
 221              	CH6_ADDR_DATA0:
 222 0018 01       		.byte	1
 223 0019 00       		.byte	0
 224 001a 00       		.byte	0
 225 001b 00       		.byte	0
 226 001c 00       		.byte	0
 227 001d 48       		.byte	72
 228 001e 01       		.byte	1
 229 001f 40       		.byte	64
 230              		.align	2
 231              		.type	DMA_TD_START_CMD, %object
 232              		.size	DMA_TD_START_CMD, 5
 233              	DMA_TD_START_CMD:
 234 0020 01       		.byte	1
 235 0021 00       		.byte	0
 236 0022 00       		.byte	0
 237 0023 00       		.byte	0
 238 0024 01       		.byte	1
 239              		.bss
 240              		.align	3
 241              	DMA_ZERO_VAL:
 242 0000 00000000 		.space	4
 243 0004 00000000 		.section	.dma_init
ARM GAS  C:\Users\Geo\AppData\Local\Temp\ccVeTRuu.s 			page 8


 244 0025 000000   		.align	2
 245              		.type	CFG_TD_LIST0, %object
 246              		.size	CFG_TD_LIST0, 600
 247              	CFG_TD_LIST0:
 248 0028 0800     		.short	8
 249 002a 02       		.byte	2
 250 002b 23       		.byte	35
 251 002c 0000     		.short	0
 252 002e 0876     		.short	30216
 253 0030 0800     		.short	8
 254 0032 03       		.byte	3
 255 0033 23       		.byte	35
 256 0034 0000     		.short	0
 257 0036 1076     		.short	30224
 258 0038 0800     		.short	8
 259 003a 04       		.byte	4
 260 003b 23       		.byte	35
 261 003c 0000     		.short	0
 262 003e 2876     		.short	30248
 263 0040 0800     		.short	8
 264 0042 05       		.byte	5
 265 0043 23       		.byte	35
 266 0044 0000     		.short	0
 267 0046 3076     		.short	30256
 268 0048 0500     		.short	5
 269 004a 06       		.byte	6
 270 004b 23       		.byte	35
 271 004c 0000     		.short	0
 272 004e 2070     		.short	28704
 273 0050 0500     		.short	5
 274 0052 07       		.byte	7
 275 0053 23       		.byte	35
 276 0054 0000     		.short	0
 277 0056 3070     		.short	28720
 278 0058 0500     		.short	5
 279 005a 08       		.byte	8
 280 005b 23       		.byte	35
 281 005c 0000     		.short	0
 282 005e 6070     		.short	28768
 283 0060 0500     		.short	5
 284 0062 FF       		.byte	-1
 285 0063 23       		.byte	35
 286 0064 0000     		.short	0
 287 0066 7070     		.short	28784
 288 0068 1000     		.short	16
 289 006a 0A       		.byte	10
 290 006b 22       		.byte	34
 291 006c 0000     		.short	0
 292 006e 6051     		.short	20832
 293 0070 1000     		.short	16
 294 0072 FF       		.byte	-1
 295 0073 22       		.byte	34
 296 0074 0000     		.short	0
 297 0076 F051     		.short	20976
 298 0078 8001     		.short	384
 299 007a 0C       		.byte	12
 300 007b 22       		.byte	34
ARM GAS  C:\Users\Geo\AppData\Local\Temp\ccVeTRuu.s 			page 9


 301 007c 0000     		.short	0
 302 007e 0008     		.short	2048
 303 0080 8000     		.short	128
 304 0082 0D       		.byte	13
 305 0083 22       		.byte	34
 306 0084 0000     		.short	0
 307 0086 800C     		.short	3200
 308 0088 8000     		.short	128
 309 008a 0E       		.byte	14
 310 008b 22       		.byte	34
 311 008c 0000     		.short	0
 312 008e 000E     		.short	3584
 313 0090 8002     		.short	640
 314 0092 0F       		.byte	15
 315 0093 22       		.byte	34
 316 0094 0000     		.short	0
 317 0096 0014     		.short	5120
 318 0098 8001     		.short	384
 319 009a 10       		.byte	16
 320 009b 22       		.byte	34
 321 009c 0000     		.short	0
 322 009e 0018     		.short	6144
 323 00a0 0002     		.short	512
 324 00a2 11       		.byte	17
 325 00a3 22       		.byte	34
 326 00a4 0000     		.short	0
 327 00a6 001A     		.short	6656
 328 00a8 8000     		.short	128
 329 00aa 12       		.byte	18
 330 00ab 22       		.byte	34
 331 00ac 0000     		.short	0
 332 00ae 0047     		.short	18176
 333 00b0 8000     		.short	128
 334 00b2 13       		.byte	19
 335 00b3 22       		.byte	34
 336 00b4 0000     		.short	0
 337 00b6 0048     		.short	18432
 338 00b8 0001     		.short	256
 339 00ba 14       		.byte	20
 340 00bb 22       		.byte	34
 341 00bc 0000     		.short	0
 342 00be 0049     		.short	18688
 343 00c0 0001     		.short	256
 344 00c2 FF       		.byte	-1
 345 00c3 22       		.byte	34
 346 00c4 0000     		.short	0
 347 00c6 004D     		.short	19712
 348 00c8 4000     		.short	64
 349 00ca 16       		.byte	22
 350 00cb 23       		.byte	35
 351 00cc 0000     		.short	0
 352 00ce 0064     		.short	25600
 353 00d0 2000     		.short	32
 354 00d2 17       		.byte	23
 355 00d3 23       		.byte	35
 356 00d4 0000     		.short	0
 357 00d6 7064     		.short	25712
ARM GAS  C:\Users\Geo\AppData\Local\Temp\ccVeTRuu.s 			page 10


 358 00d8 2000     		.short	32
 359 00da FF       		.byte	-1
 360 00db 23       		.byte	35
 361 00dc 0000     		.short	0
 362 00de 7065     		.short	25968
 363 00e0 0800     		.short	8
 364 00e2 19       		.byte	25
 365 00e3 23       		.byte	35
 366 00e4 0000     		.short	0
 367 00e6 0051     		.short	20736
 368 00e8 8000     		.short	128
 369 00ea 1A       		.byte	26
 370 00eb 23       		.byte	35
 371 00ec 0000     		.short	0
 372 00ee 0000     		.short	0
 373 00f0 8000     		.short	128
 374 00f2 1B       		.byte	27
 375 00f3 23       		.byte	35
 376 00f4 0000     		.short	0
 377 00f6 8000     		.short	128
 378 00f8 8000     		.short	128
 379 00fa 1C       		.byte	28
 380 00fb 23       		.byte	35
 381 00fc 0000     		.short	0
 382 00fe 0002     		.short	512
 383 0100 8000     		.short	128
 384 0102 1D       		.byte	29
 385 0103 23       		.byte	35
 386 0104 0000     		.short	0
 387 0106 8002     		.short	640
 388 0108 8000     		.short	128
 389 010a 1E       		.byte	30
 390 010b 23       		.byte	35
 391 010c 0000     		.short	0
 392 010e 0004     		.short	1024
 393 0110 8000     		.short	128
 394 0112 1F       		.byte	31
 395 0113 23       		.byte	35
 396 0114 0000     		.short	0
 397 0116 8004     		.short	1152
 398 0118 8000     		.short	128
 399 011a 20       		.byte	32
 400 011b 23       		.byte	35
 401 011c 0000     		.short	0
 402 011e 0006     		.short	1536
 403 0120 8000     		.short	128
 404 0122 21       		.byte	33
 405 0123 23       		.byte	35
 406 0124 0000     		.short	0
 407 0126 8006     		.short	1664
 408 0128 8000     		.short	128
 409 012a 22       		.byte	34
 410 012b 23       		.byte	35
 411 012c 0000     		.short	0
 412 012e 000A     		.short	2560
 413 0130 8000     		.short	128
 414 0132 23       		.byte	35
ARM GAS  C:\Users\Geo\AppData\Local\Temp\ccVeTRuu.s 			page 11


 415 0133 23       		.byte	35
 416 0134 0000     		.short	0
 417 0136 800A     		.short	2688
 418 0138 8000     		.short	128
 419 013a 24       		.byte	36
 420 013b 23       		.byte	35
 421 013c 0000     		.short	0
 422 013e 000C     		.short	3072
 423 0140 8000     		.short	128
 424 0142 25       		.byte	37
 425 0143 23       		.byte	35
 426 0144 0000     		.short	0
 427 0146 800E     		.short	3712
 428 0148 8000     		.short	128
 429 014a 26       		.byte	38
 430 014b 23       		.byte	35
 431 014c 0000     		.short	0
 432 014e 8016     		.short	5760
 433 0150 8000     		.short	128
 434 0152 27       		.byte	39
 435 0153 23       		.byte	35
 436 0154 0000     		.short	0
 437 0156 004C     		.short	19456
 438 0158 8000     		.short	128
 439 015a 28       		.byte	40
 440 015b 23       		.byte	35
 441 015c 0000     		.short	0
 442 015e 804C     		.short	19584
 443 0160 8000     		.short	128
 444 0162 29       		.byte	41
 445 0163 23       		.byte	35
 446 0164 0000     		.short	0
 447 0166 8047     		.short	18304
 448 0168 8000     		.short	128
 449 016a 2A       		.byte	42
 450 016b 23       		.byte	35
 451 016c 0000     		.short	0
 452 016e 0046     		.short	17920
 453 0170 8000     		.short	128
 454 0172 2B       		.byte	43
 455 0173 23       		.byte	35
 456 0174 0000     		.short	0
 457 0176 8046     		.short	18048
 458 0178 8000     		.short	128
 459 017a 2C       		.byte	44
 460 017b 23       		.byte	35
 461 017c 0000     		.short	0
 462 017e 0045     		.short	17664
 463 0180 8000     		.short	128
 464 0182 2D       		.byte	45
 465 0183 23       		.byte	35
 466 0184 0000     		.short	0
 467 0186 8045     		.short	17792
 468 0188 8000     		.short	128
 469 018a 2E       		.byte	46
 470 018b 23       		.byte	35
 471 018c 0000     		.short	0
ARM GAS  C:\Users\Geo\AppData\Local\Temp\ccVeTRuu.s 			page 12


 472 018e 0044     		.short	17408
 473 0190 8000     		.short	128
 474 0192 2F       		.byte	47
 475 0193 23       		.byte	35
 476 0194 0000     		.short	0
 477 0196 8044     		.short	17536
 478 0198 8000     		.short	128
 479 019a 30       		.byte	48
 480 019b 23       		.byte	35
 481 019c 0000     		.short	0
 482 019e 8019     		.short	6528
 483 01a0 8000     		.short	128
 484 01a2 31       		.byte	49
 485 01a3 23       		.byte	35
 486 01a4 0000     		.short	0
 487 01a6 0017     		.short	5888
 488 01a8 8000     		.short	128
 489 01aa 32       		.byte	50
 490 01ab 23       		.byte	35
 491 01ac 0000     		.short	0
 492 01ae 8017     		.short	6016
 493 01b0 8000     		.short	128
 494 01b2 33       		.byte	51
 495 01b3 23       		.byte	35
 496 01b4 0000     		.short	0
 497 01b6 8009     		.short	2432
 498 01b8 8000     		.short	128
 499 01ba 34       		.byte	52
 500 01bb 23       		.byte	35
 501 01bc 0000     		.short	0
 502 01be 0007     		.short	1792
 503 01c0 8000     		.short	128
 504 01c2 35       		.byte	53
 505 01c3 23       		.byte	35
 506 01c4 0000     		.short	0
 507 01c6 8007     		.short	1920
 508 01c8 8000     		.short	128
 509 01ca 36       		.byte	54
 510 01cb 23       		.byte	35
 511 01cc 0000     		.short	0
 512 01ce 000B     		.short	2816
 513 01d0 8000     		.short	128
 514 01d2 37       		.byte	55
 515 01d3 23       		.byte	35
 516 01d4 0000     		.short	0
 517 01d6 800B     		.short	2944
 518 01d8 8000     		.short	128
 519 01da 38       		.byte	56
 520 01db 23       		.byte	35
 521 01dc 0000     		.short	0
 522 01de 0005     		.short	1280
 523 01e0 8000     		.short	128
 524 01e2 39       		.byte	57
 525 01e3 23       		.byte	35
 526 01e4 0000     		.short	0
 527 01e6 8005     		.short	1408
 528 01e8 8000     		.short	128
ARM GAS  C:\Users\Geo\AppData\Local\Temp\ccVeTRuu.s 			page 13


 529 01ea 3A       		.byte	58
 530 01eb 23       		.byte	35
 531 01ec 0000     		.short	0
 532 01ee 000D     		.short	3328
 533 01f0 8000     		.short	128
 534 01f2 3B       		.byte	59
 535 01f3 23       		.byte	35
 536 01f4 0000     		.short	0
 537 01f6 800D     		.short	3456
 538 01f8 8000     		.short	128
 539 01fa 3C       		.byte	60
 540 01fb 23       		.byte	35
 541 01fc 0000     		.short	0
 542 01fe 0003     		.short	768
 543 0200 8000     		.short	128
 544 0202 3D       		.byte	61
 545 0203 23       		.byte	35
 546 0204 0000     		.short	0
 547 0206 8003     		.short	896
 548 0208 8000     		.short	128
 549 020a 3E       		.byte	62
 550 020b 23       		.byte	35
 551 020c 0000     		.short	0
 552 020e 000F     		.short	3840
 553 0210 8000     		.short	128
 554 0212 3F       		.byte	63
 555 0213 23       		.byte	35
 556 0214 0000     		.short	0
 557 0216 800F     		.short	3968
 558 0218 8000     		.short	128
 559 021a 40       		.byte	64
 560 021b 23       		.byte	35
 561 021c 0000     		.short	0
 562 021e 0001     		.short	256
 563 0220 8000     		.short	128
 564 0222 41       		.byte	65
 565 0223 23       		.byte	35
 566 0224 0000     		.short	0
 567 0226 8001     		.short	384
 568 0228 8000     		.short	128
 569 022a 42       		.byte	66
 570 022b 23       		.byte	35
 571 022c 0000     		.short	0
 572 022e 8048     		.short	18560
 573 0230 8000     		.short	128
 574 0232 43       		.byte	67
 575 0233 23       		.byte	35
 576 0234 0000     		.short	0
 577 0236 0043     		.short	17152
 578 0238 8000     		.short	128
 579 023a 44       		.byte	68
 580 023b 23       		.byte	35
 581 023c 0000     		.short	0
 582 023e 8043     		.short	17280
 583 0240 8000     		.short	128
 584 0242 45       		.byte	69
 585 0243 23       		.byte	35
ARM GAS  C:\Users\Geo\AppData\Local\Temp\ccVeTRuu.s 			page 14


 586 0244 0000     		.short	0
 587 0246 0042     		.short	16896
 588 0248 8000     		.short	128
 589 024a 46       		.byte	70
 590 024b 23       		.byte	35
 591 024c 0000     		.short	0
 592 024e 8042     		.short	17024
 593 0250 8000     		.short	128
 594 0252 47       		.byte	71
 595 0253 23       		.byte	35
 596 0254 0000     		.short	0
 597 0256 0041     		.short	16640
 598 0258 8000     		.short	128
 599 025a 48       		.byte	72
 600 025b 23       		.byte	35
 601 025c 0000     		.short	0
 602 025e 8041     		.short	16768
 603 0260 8000     		.short	128
 604 0262 49       		.byte	73
 605 0263 23       		.byte	35
 606 0264 0000     		.short	0
 607 0266 0040     		.short	16384
 608 0268 8000     		.short	128
 609 026a 4A       		.byte	74
 610 026b 23       		.byte	35
 611 026c 0000     		.short	0
 612 026e 8040     		.short	16512
 613 0270 1000     		.short	16
 614 0272 4B       		.byte	75
 615 0273 23       		.byte	35
 616 0274 0000     		.short	0
 617 0276 1050     		.short	20496
 618 0278 1000     		.short	16
 619 027a FF       		.byte	-1
 620 027b 23       		.byte	35
 621 027c 0000     		.short	0
 622 027e 0050     		.short	20480
 623              		.section	.rodata
 624              		.align	2
 625              		.type	CFG_TD_ADDR0, %object
 626              		.size	CFG_TD_ADDR0, 300
 627              	CFG_TD_ADDR0:
 628 0000 00000000 		.word	CH1_ADDR_DATA0
 629 0004 08000000 		.word	CH2_ADDR_DATA0
 630 0008 10000000 		.word	CH5_ADDR_DATA0
 631 000c 18000000 		.word	CH6_ADDR_DATA0
 632 0010 20000000 		.word	DMA_TD_START_CMD
 633 0014 20000000 		.word	DMA_TD_START_CMD
 634 0018 20000000 		.word	DMA_TD_START_CMD
 635 001c 20000000 		.word	DMA_TD_START_CMD
 636 0020 00000000 		.word	DMA_ZERO_VAL
 637 0024 00000000 		.word	DMA_ZERO_VAL
 638 0028 00000000 		.word	DMA_ZERO_VAL
 639 002c 00000000 		.word	DMA_ZERO_VAL
 640 0030 00000000 		.word	DMA_ZERO_VAL
 641 0034 00000000 		.word	DMA_ZERO_VAL
 642 0038 00000000 		.word	DMA_ZERO_VAL
ARM GAS  C:\Users\Geo\AppData\Local\Temp\ccVeTRuu.s 			page 15


 643 003c 00000000 		.word	DMA_ZERO_VAL
 644 0040 00000000 		.word	DMA_ZERO_VAL
 645 0044 00000000 		.word	DMA_ZERO_VAL
 646 0048 00000000 		.word	DMA_ZERO_VAL
 647 004c 00000000 		.word	DMA_ZERO_VAL
 648 0050 88060048 		.word	1207961224
 649 0054 C8060048 		.word	1207961288
 650 0058 E8060048 		.word	1207961320
 651 005c 00000048 		.word	1207959552
 652 0060 08000048 		.word	1207959560
 653 0064 88000048 		.word	1207959688
 654 0068 08010048 		.word	1207959816
 655 006c 88010048 		.word	1207959944
 656 0070 08020048 		.word	1207960072
 657 0074 88020048 		.word	1207960200
 658 0078 08030048 		.word	1207960328
 659 007c 88030048 		.word	1207960456
 660 0080 08040048 		.word	1207960584
 661 0084 88040048 		.word	1207960712
 662 0088 08050048 		.word	1207960840
 663 008c 88050048 		.word	1207960968
 664 0090 08060048 		.word	1207961096
 665 0094 08070048 		.word	1207961352
 666 0098 88070048 		.word	1207961480
 667 009c 08080048 		.word	1207961608
 668 00a0 88080048 		.word	1207961736
 669 00a4 08090048 		.word	1207961864
 670 00a8 88090048 		.word	1207961992
 671 00ac 080A0048 		.word	1207962120
 672 00b0 880A0048 		.word	1207962248
 673 00b4 080B0048 		.word	1207962376
 674 00b8 880B0048 		.word	1207962504
 675 00bc 080C0048 		.word	1207962632
 676 00c0 880C0048 		.word	1207962760
 677 00c4 080D0048 		.word	1207962888
 678 00c8 880D0048 		.word	1207963016
 679 00cc 080E0048 		.word	1207963144
 680 00d0 880E0048 		.word	1207963272
 681 00d4 080F0048 		.word	1207963400
 682 00d8 880F0048 		.word	1207963528
 683 00dc 08100048 		.word	1207963656
 684 00e0 88100048 		.word	1207963784
 685 00e4 08110048 		.word	1207963912
 686 00e8 88110048 		.word	1207964040
 687 00ec 08120048 		.word	1207964168
 688 00f0 88120048 		.word	1207964296
 689 00f4 08130048 		.word	1207964424
 690 00f8 88130048 		.word	1207964552
 691 00fc 08140048 		.word	1207964680
 692 0100 88140048 		.word	1207964808
 693 0104 08150048 		.word	1207964936
 694 0108 88150048 		.word	1207965064
 695 010c 08160048 		.word	1207965192
 696 0110 88160048 		.word	1207965320
 697 0114 08170048 		.word	1207965448
 698 0118 88170048 		.word	1207965576
 699 011c 08180048 		.word	1207965704
ARM GAS  C:\Users\Geo\AppData\Local\Temp\ccVeTRuu.s 			page 16


 700 0120 88180048 		.word	1207965832
 701 0124 08190048 		.word	1207965960
 702 0128 18190048 		.word	1207965976
 703              		.section	.text.cfg_dma_init,"ax",%progbits
 704              		.align	2
 705              		.thumb
 706              		.thumb_func
 707              		.type	cfg_dma_init, %function
 708              	cfg_dma_init:
 709              	.LFB3:
 153:.\Generated_Source\PSoC5/cyfitter_cfg.c **** 
 154:.\Generated_Source\PSoC5/cyfitter_cfg.c ****     #define CYMEMZERO8(a,c) cymemzero8((a),(c))
 155:.\Generated_Source\PSoC5/cyfitter_cfg.c ****     #define CYCONFIGCPY8(d,s,c) cymemcpy8((d),(s),(c))
 156:.\Generated_Source\PSoC5/cyfitter_cfg.c ****     #define CYCONFIGCPYCODE8(d,s,c) cymemcpy8((d),(s),(c))
 157:.\Generated_Source\PSoC5/cyfitter_cfg.c **** 	
 158:.\Generated_Source\PSoC5/cyfitter_cfg.c **** 	#define CYMEMZERO(a,c) memset((a),0,(c))
 159:.\Generated_Source\PSoC5/cyfitter_cfg.c **** 	#define CYCONFIGCPY(d,s,c) memcpy((d),(s),(c))
 160:.\Generated_Source\PSoC5/cyfitter_cfg.c **** 	#define CYCONFIGCPYCODE(d,s,c) memcpy((d),(s),(c))
 161:.\Generated_Source\PSoC5/cyfitter_cfg.c **** #else
 162:.\Generated_Source\PSoC5/cyfitter_cfg.c **** 	#error Unsupported toolchain
 163:.\Generated_Source\PSoC5/cyfitter_cfg.c **** #endif
 164:.\Generated_Source\PSoC5/cyfitter_cfg.c **** 
 165:.\Generated_Source\PSoC5/cyfitter_cfg.c **** /* Defines the layout and meaning of each entry in the cfg_memset_list used for clearing registers 
 166:.\Generated_Source\PSoC5/cyfitter_cfg.c **** typedef struct {
 167:.\Generated_Source\PSoC5/cyfitter_cfg.c **** 	void CYFAR *address;
 168:.\Generated_Source\PSoC5/cyfitter_cfg.c **** 	uint16 size;
 169:.\Generated_Source\PSoC5/cyfitter_cfg.c **** } CYPACKED cfg_memset_t;
 170:.\Generated_Source\PSoC5/cyfitter_cfg.c **** 
 171:.\Generated_Source\PSoC5/cyfitter_cfg.c **** /* Defines the layout and meaning of each entry in the cfg_memcpy_list used for initializing regist
 172:.\Generated_Source\PSoC5/cyfitter_cfg.c **** typedef struct {
 173:.\Generated_Source\PSoC5/cyfitter_cfg.c **** 	void CYFAR *dest;
 174:.\Generated_Source\PSoC5/cyfitter_cfg.c **** 	const void CYFAR *src;
 175:.\Generated_Source\PSoC5/cyfitter_cfg.c **** 	uint16 size;
 176:.\Generated_Source\PSoC5/cyfitter_cfg.c **** } CYPACKED cfg_memcpy_t;
 177:.\Generated_Source\PSoC5/cyfitter_cfg.c **** 
 178:.\Generated_Source\PSoC5/cyfitter_cfg.c **** /* TD structure for little-endian systems. Does not require endian swap */
 179:.\Generated_Source\PSoC5/cyfitter_cfg.c **** struct td_t {
 180:.\Generated_Source\PSoC5/cyfitter_cfg.c **** 	uint16 size;
 181:.\Generated_Source\PSoC5/cyfitter_cfg.c **** 	uint8 next_td_ptr;
 182:.\Generated_Source\PSoC5/cyfitter_cfg.c **** 	uint8 flags;
 183:.\Generated_Source\PSoC5/cyfitter_cfg.c **** 	uint16 src;
 184:.\Generated_Source\PSoC5/cyfitter_cfg.c **** 	uint16 dest;
 185:.\Generated_Source\PSoC5/cyfitter_cfg.c **** } CYPACKED;
 186:.\Generated_Source\PSoC5/cyfitter_cfg.c **** 
 187:.\Generated_Source\PSoC5/cyfitter_cfg.c **** /* IDMUX_IRQ Address: CYREG_IDMUX_IRQ_CTL0 Size (bytes): 8 */
 188:.\Generated_Source\PSoC5/cyfitter_cfg.c **** #define BS_IDMUX_IRQ_VAL ((const uint8 CYFAR *)0x48000000)
 189:.\Generated_Source\PSoC5/cyfitter_cfg.c **** 
 190:.\Generated_Source\PSoC5/cyfitter_cfg.c **** /* UDB_1_5_0_CONFIG Address: CYDEV_UCFG_B0_P0_U0_BASE Size (bytes): 128 */
 191:.\Generated_Source\PSoC5/cyfitter_cfg.c **** #define BS_UDB_1_5_0_CONFIG_VAL ((const uint8 CYFAR *)0x48000008)
 192:.\Generated_Source\PSoC5/cyfitter_cfg.c **** 
 193:.\Generated_Source\PSoC5/cyfitter_cfg.c **** /* UDB_1_5_1_CONFIG Address: CYDEV_UCFG_B0_P0_U1_BASE Size (bytes): 128 */
 194:.\Generated_Source\PSoC5/cyfitter_cfg.c **** #define BS_UDB_1_5_1_CONFIG_VAL ((const uint8 CYFAR *)0x48000088)
 195:.\Generated_Source\PSoC5/cyfitter_cfg.c **** 
 196:.\Generated_Source\PSoC5/cyfitter_cfg.c **** /* UDB_1_4_1_CONFIG Address: CYDEV_UCFG_B0_P1_U0_BASE Size (bytes): 128 */
 197:.\Generated_Source\PSoC5/cyfitter_cfg.c **** #define BS_UDB_1_4_1_CONFIG_VAL ((const uint8 CYFAR *)0x48000108)
 198:.\Generated_Source\PSoC5/cyfitter_cfg.c **** 
 199:.\Generated_Source\PSoC5/cyfitter_cfg.c **** /* UDB_1_4_0_CONFIG Address: CYDEV_UCFG_B0_P1_U1_BASE Size (bytes): 128 */
ARM GAS  C:\Users\Geo\AppData\Local\Temp\ccVeTRuu.s 			page 17


 200:.\Generated_Source\PSoC5/cyfitter_cfg.c **** #define BS_UDB_1_4_0_CONFIG_VAL ((const uint8 CYFAR *)0x48000188)
 201:.\Generated_Source\PSoC5/cyfitter_cfg.c **** 
 202:.\Generated_Source\PSoC5/cyfitter_cfg.c **** /* UDB_1_3_0_CONFIG Address: CYDEV_UCFG_B0_P2_U0_BASE Size (bytes): 128 */
 203:.\Generated_Source\PSoC5/cyfitter_cfg.c **** #define BS_UDB_1_3_0_CONFIG_VAL ((const uint8 CYFAR *)0x48000208)
 204:.\Generated_Source\PSoC5/cyfitter_cfg.c **** 
 205:.\Generated_Source\PSoC5/cyfitter_cfg.c **** /* UDB_1_3_1_CONFIG Address: CYDEV_UCFG_B0_P2_U1_BASE Size (bytes): 128 */
 206:.\Generated_Source\PSoC5/cyfitter_cfg.c **** #define BS_UDB_1_3_1_CONFIG_VAL ((const uint8 CYFAR *)0x48000288)
 207:.\Generated_Source\PSoC5/cyfitter_cfg.c **** 
 208:.\Generated_Source\PSoC5/cyfitter_cfg.c **** /* UDB_1_2_1_CONFIG Address: CYDEV_UCFG_B0_P3_U0_BASE Size (bytes): 128 */
 209:.\Generated_Source\PSoC5/cyfitter_cfg.c **** #define BS_UDB_1_2_1_CONFIG_VAL ((const uint8 CYFAR *)0x48000308)
 210:.\Generated_Source\PSoC5/cyfitter_cfg.c **** 
 211:.\Generated_Source\PSoC5/cyfitter_cfg.c **** /* UDB_1_2_0_CONFIG Address: CYDEV_UCFG_B0_P3_U1_BASE Size (bytes): 128 */
 212:.\Generated_Source\PSoC5/cyfitter_cfg.c **** #define BS_UDB_1_2_0_CONFIG_VAL ((const uint8 CYFAR *)0x48000388)
 213:.\Generated_Source\PSoC5/cyfitter_cfg.c **** 
 214:.\Generated_Source\PSoC5/cyfitter_cfg.c **** /* UDB_0_3_0_CONFIG Address: CYDEV_UCFG_B0_P5_U0_BASE Size (bytes): 128 */
 215:.\Generated_Source\PSoC5/cyfitter_cfg.c **** #define BS_UDB_0_3_0_CONFIG_VAL ((const uint8 CYFAR *)0x48000408)
 216:.\Generated_Source\PSoC5/cyfitter_cfg.c **** 
 217:.\Generated_Source\PSoC5/cyfitter_cfg.c **** /* UDB_0_3_1_CONFIG Address: CYDEV_UCFG_B0_P5_U1_BASE Size (bytes): 128 */
 218:.\Generated_Source\PSoC5/cyfitter_cfg.c **** #define BS_UDB_0_3_1_CONFIG_VAL ((const uint8 CYFAR *)0x48000488)
 219:.\Generated_Source\PSoC5/cyfitter_cfg.c **** 
 220:.\Generated_Source\PSoC5/cyfitter_cfg.c **** /* UDB_0_4_1_CONFIG Address: CYDEV_UCFG_B0_P6_U0_BASE Size (bytes): 128 */
 221:.\Generated_Source\PSoC5/cyfitter_cfg.c **** #define BS_UDB_0_4_1_CONFIG_VAL ((const uint8 CYFAR *)0x48000508)
 222:.\Generated_Source\PSoC5/cyfitter_cfg.c **** 
 223:.\Generated_Source\PSoC5/cyfitter_cfg.c **** /* UDB_0_5_1_CONFIG Address: CYDEV_UCFG_B0_P7_U1_BASE Size (bytes): 128 */
 224:.\Generated_Source\PSoC5/cyfitter_cfg.c **** #define BS_UDB_0_5_1_CONFIG_VAL ((const uint8 CYFAR *)0x48000588)
 225:.\Generated_Source\PSoC5/cyfitter_cfg.c **** 
 226:.\Generated_Source\PSoC5/cyfitter_cfg.c **** /* UDB_1_1_0_CONFIG Address: CYDEV_UCFG_B1_P3_U1_BASE Size (bytes): 128 */
 227:.\Generated_Source\PSoC5/cyfitter_cfg.c **** #define BS_UDB_1_1_0_CONFIG_VAL ((const uint8 CYFAR *)0x48000608)
 228:.\Generated_Source\PSoC5/cyfitter_cfg.c **** 
 229:.\Generated_Source\PSoC5/cyfitter_cfg.c **** /* UWRK_B0_WRK_DP_BITS Address: CYDEV_UWRK_UWRK8_B0_BASE Size (bytes): 64 */
 230:.\Generated_Source\PSoC5/cyfitter_cfg.c **** #define BS_UWRK_B0_WRK_DP_BITS_VAL ((const uint8 CYFAR *)0x48000688)
 231:.\Generated_Source\PSoC5/cyfitter_cfg.c **** 
 232:.\Generated_Source\PSoC5/cyfitter_cfg.c **** /* UWRK_B0_WRK_STATCTL_BITS Address: CYDEV_UWRK_UWRK8_B0_BASE + 0x00000070 Size (bytes): 32 */
 233:.\Generated_Source\PSoC5/cyfitter_cfg.c **** #define BS_UWRK_B0_WRK_STATCTL_BITS_VAL ((const uint8 CYFAR *)0x480006C8)
 234:.\Generated_Source\PSoC5/cyfitter_cfg.c **** 
 235:.\Generated_Source\PSoC5/cyfitter_cfg.c **** /* UWRK_B1_WRK_STATCTL_BITS Address: CYDEV_UWRK_UWRK8_B1_BASE + 0x00000070 Size (bytes): 32 */
 236:.\Generated_Source\PSoC5/cyfitter_cfg.c **** #define BS_UWRK_B1_WRK_STATCTL_BITS_VAL ((const uint8 CYFAR *)0x480006E8)
 237:.\Generated_Source\PSoC5/cyfitter_cfg.c **** 
 238:.\Generated_Source\PSoC5/cyfitter_cfg.c **** /* DSISWITCH_0_1 Address: CYDEV_UCFG_DSI12_BASE Size (bytes): 128 */
 239:.\Generated_Source\PSoC5/cyfitter_cfg.c **** #define BS_DSISWITCH_0_1_VAL ((const uint8 CYFAR *)0x48000708)
 240:.\Generated_Source\PSoC5/cyfitter_cfg.c **** 
 241:.\Generated_Source\PSoC5/cyfitter_cfg.c **** /* DSI0_1_HV_ROUTING Address: CYDEV_UCFG_DSI12_BASE + 0x00000080 Size (bytes): 128 */
 242:.\Generated_Source\PSoC5/cyfitter_cfg.c **** #define BS_DSI0_1_HV_ROUTING_VAL ((const uint8 CYFAR *)0x48000788)
 243:.\Generated_Source\PSoC5/cyfitter_cfg.c **** 
 244:.\Generated_Source\PSoC5/cyfitter_cfg.c **** /* DSI0_2_HV_ROUTING Address: CYDEV_UCFG_DSI7_BASE + 0x00000080 Size (bytes): 128 */
 245:.\Generated_Source\PSoC5/cyfitter_cfg.c **** #define BS_DSI0_2_HV_ROUTING_VAL ((const uint8 CYFAR *)0x48000808)
 246:.\Generated_Source\PSoC5/cyfitter_cfg.c **** 
 247:.\Generated_Source\PSoC5/cyfitter_cfg.c **** /* DSISWITCH_0_3 Address: CYDEV_UCFG_DSI6_BASE Size (bytes): 128 */
 248:.\Generated_Source\PSoC5/cyfitter_cfg.c **** #define BS_DSISWITCH_0_3_VAL ((const uint8 CYFAR *)0x48000888)
 249:.\Generated_Source\PSoC5/cyfitter_cfg.c **** 
 250:.\Generated_Source\PSoC5/cyfitter_cfg.c **** /* DSI0_3_HV_ROUTING Address: CYDEV_UCFG_DSI6_BASE + 0x00000080 Size (bytes): 128 */
 251:.\Generated_Source\PSoC5/cyfitter_cfg.c **** #define BS_DSI0_3_HV_ROUTING_VAL ((const uint8 CYFAR *)0x48000908)
 252:.\Generated_Source\PSoC5/cyfitter_cfg.c **** 
 253:.\Generated_Source\PSoC5/cyfitter_cfg.c **** /* DSISWITCH_0_4 Address: CYDEV_UCFG_DSI5_BASE Size (bytes): 128 */
 254:.\Generated_Source\PSoC5/cyfitter_cfg.c **** #define BS_DSISWITCH_0_4_VAL ((const uint8 CYFAR *)0x48000988)
 255:.\Generated_Source\PSoC5/cyfitter_cfg.c **** 
 256:.\Generated_Source\PSoC5/cyfitter_cfg.c **** /* DSI0_4_HV_ROUTING Address: CYDEV_UCFG_DSI5_BASE + 0x00000080 Size (bytes): 128 */
ARM GAS  C:\Users\Geo\AppData\Local\Temp\ccVeTRuu.s 			page 18


 257:.\Generated_Source\PSoC5/cyfitter_cfg.c **** #define BS_DSI0_4_HV_ROUTING_VAL ((const uint8 CYFAR *)0x48000A08)
 258:.\Generated_Source\PSoC5/cyfitter_cfg.c **** 
 259:.\Generated_Source\PSoC5/cyfitter_cfg.c **** /* DSISWITCH_0_5 Address: CYDEV_UCFG_DSI4_BASE Size (bytes): 128 */
 260:.\Generated_Source\PSoC5/cyfitter_cfg.c **** #define BS_DSISWITCH_0_5_VAL ((const uint8 CYFAR *)0x48000A88)
 261:.\Generated_Source\PSoC5/cyfitter_cfg.c **** 
 262:.\Generated_Source\PSoC5/cyfitter_cfg.c **** /* DSI0_5_HV_ROUTING Address: CYDEV_UCFG_DSI4_BASE + 0x00000080 Size (bytes): 128 */
 263:.\Generated_Source\PSoC5/cyfitter_cfg.c **** #define BS_DSI0_5_HV_ROUTING_VAL ((const uint8 CYFAR *)0x48000B08)
 264:.\Generated_Source\PSoC5/cyfitter_cfg.c **** 
 265:.\Generated_Source\PSoC5/cyfitter_cfg.c **** /* UDB_1_1_HV_ROUTING Address: CYDEV_UCFG_B1_P4_ROUTE_BASE + 0x00000080 Size (bytes): 128 */
 266:.\Generated_Source\PSoC5/cyfitter_cfg.c **** #define BS_UDB_1_1_HV_ROUTING_VAL ((const uint8 CYFAR *)0x48000B88)
 267:.\Generated_Source\PSoC5/cyfitter_cfg.c **** 
 268:.\Generated_Source\PSoC5/cyfitter_cfg.c **** /* UDBSWITCH_1_1 Address: CYDEV_UCFG_B1_P3_ROUTE_BASE Size (bytes): 128 */
 269:.\Generated_Source\PSoC5/cyfitter_cfg.c **** #define BS_UDBSWITCH_1_1_VAL ((const uint8 CYFAR *)0x48000C08)
 270:.\Generated_Source\PSoC5/cyfitter_cfg.c **** 
 271:.\Generated_Source\PSoC5/cyfitter_cfg.c **** /* UDB_2_1_HV_ROUTING Address: CYDEV_UCFG_B1_P3_ROUTE_BASE + 0x00000080 Size (bytes): 128 */
 272:.\Generated_Source\PSoC5/cyfitter_cfg.c **** #define BS_UDB_2_1_HV_ROUTING_VAL ((const uint8 CYFAR *)0x48000C88)
 273:.\Generated_Source\PSoC5/cyfitter_cfg.c **** 
 274:.\Generated_Source\PSoC5/cyfitter_cfg.c **** /* UDB_1_2_HV_ROUTING Address: CYDEV_UCFG_B0_P4_ROUTE_BASE + 0x00000080 Size (bytes): 128 */
 275:.\Generated_Source\PSoC5/cyfitter_cfg.c **** #define BS_UDB_1_2_HV_ROUTING_VAL ((const uint8 CYFAR *)0x48000D08)
 276:.\Generated_Source\PSoC5/cyfitter_cfg.c **** 
 277:.\Generated_Source\PSoC5/cyfitter_cfg.c **** /* UDBSWITCH_1_2 Address: CYDEV_UCFG_B0_P3_ROUTE_BASE Size (bytes): 128 */
 278:.\Generated_Source\PSoC5/cyfitter_cfg.c **** #define BS_UDBSWITCH_1_2_VAL ((const uint8 CYFAR *)0x48000D88)
 279:.\Generated_Source\PSoC5/cyfitter_cfg.c **** 
 280:.\Generated_Source\PSoC5/cyfitter_cfg.c **** /* UDB_2_2_HV_ROUTING Address: CYDEV_UCFG_B0_P3_ROUTE_BASE + 0x00000080 Size (bytes): 128 */
 281:.\Generated_Source\PSoC5/cyfitter_cfg.c **** #define BS_UDB_2_2_HV_ROUTING_VAL ((const uint8 CYFAR *)0x48000E08)
 282:.\Generated_Source\PSoC5/cyfitter_cfg.c **** 
 283:.\Generated_Source\PSoC5/cyfitter_cfg.c **** /* UDBSWITCH_0_3 Address: CYDEV_UCFG_B0_P5_ROUTE_BASE Size (bytes): 128 */
 284:.\Generated_Source\PSoC5/cyfitter_cfg.c **** #define BS_UDBSWITCH_0_3_VAL ((const uint8 CYFAR *)0x48000E88)
 285:.\Generated_Source\PSoC5/cyfitter_cfg.c **** 
 286:.\Generated_Source\PSoC5/cyfitter_cfg.c **** /* UDB_1_3_HV_ROUTING Address: CYDEV_UCFG_B0_P5_ROUTE_BASE + 0x00000080 Size (bytes): 128 */
 287:.\Generated_Source\PSoC5/cyfitter_cfg.c **** #define BS_UDB_1_3_HV_ROUTING_VAL ((const uint8 CYFAR *)0x48000F08)
 288:.\Generated_Source\PSoC5/cyfitter_cfg.c **** 
 289:.\Generated_Source\PSoC5/cyfitter_cfg.c **** /* UDBSWITCH_1_3 Address: CYDEV_UCFG_B0_P2_ROUTE_BASE Size (bytes): 128 */
 290:.\Generated_Source\PSoC5/cyfitter_cfg.c **** #define BS_UDBSWITCH_1_3_VAL ((const uint8 CYFAR *)0x48000F88)
 291:.\Generated_Source\PSoC5/cyfitter_cfg.c **** 
 292:.\Generated_Source\PSoC5/cyfitter_cfg.c **** /* UDB_2_3_HV_ROUTING Address: CYDEV_UCFG_B0_P2_ROUTE_BASE + 0x00000080 Size (bytes): 128 */
 293:.\Generated_Source\PSoC5/cyfitter_cfg.c **** #define BS_UDB_2_3_HV_ROUTING_VAL ((const uint8 CYFAR *)0x48001008)
 294:.\Generated_Source\PSoC5/cyfitter_cfg.c **** 
 295:.\Generated_Source\PSoC5/cyfitter_cfg.c **** /* UDBSWITCH_0_4 Address: CYDEV_UCFG_B0_P6_ROUTE_BASE Size (bytes): 128 */
 296:.\Generated_Source\PSoC5/cyfitter_cfg.c **** #define BS_UDBSWITCH_0_4_VAL ((const uint8 CYFAR *)0x48001088)
 297:.\Generated_Source\PSoC5/cyfitter_cfg.c **** 
 298:.\Generated_Source\PSoC5/cyfitter_cfg.c **** /* UDB_1_4_HV_ROUTING Address: CYDEV_UCFG_B0_P6_ROUTE_BASE + 0x00000080 Size (bytes): 128 */
 299:.\Generated_Source\PSoC5/cyfitter_cfg.c **** #define BS_UDB_1_4_HV_ROUTING_VAL ((const uint8 CYFAR *)0x48001108)
 300:.\Generated_Source\PSoC5/cyfitter_cfg.c **** 
 301:.\Generated_Source\PSoC5/cyfitter_cfg.c **** /* UDBSWITCH_1_4 Address: CYDEV_UCFG_B0_P1_ROUTE_BASE Size (bytes): 128 */
 302:.\Generated_Source\PSoC5/cyfitter_cfg.c **** #define BS_UDBSWITCH_1_4_VAL ((const uint8 CYFAR *)0x48001188)
 303:.\Generated_Source\PSoC5/cyfitter_cfg.c **** 
 304:.\Generated_Source\PSoC5/cyfitter_cfg.c **** /* UDB_2_4_HV_ROUTING Address: CYDEV_UCFG_B0_P1_ROUTE_BASE + 0x00000080 Size (bytes): 128 */
 305:.\Generated_Source\PSoC5/cyfitter_cfg.c **** #define BS_UDB_2_4_HV_ROUTING_VAL ((const uint8 CYFAR *)0x48001208)
 306:.\Generated_Source\PSoC5/cyfitter_cfg.c **** 
 307:.\Generated_Source\PSoC5/cyfitter_cfg.c **** /* UDBSWITCH_0_5 Address: CYDEV_UCFG_B0_P7_ROUTE_BASE Size (bytes): 128 */
 308:.\Generated_Source\PSoC5/cyfitter_cfg.c **** #define BS_UDBSWITCH_0_5_VAL ((const uint8 CYFAR *)0x48001288)
 309:.\Generated_Source\PSoC5/cyfitter_cfg.c **** 
 310:.\Generated_Source\PSoC5/cyfitter_cfg.c **** /* UDB_1_5_HV_ROUTING Address: CYDEV_UCFG_B0_P7_ROUTE_BASE + 0x00000080 Size (bytes): 128 */
 311:.\Generated_Source\PSoC5/cyfitter_cfg.c **** #define BS_UDB_1_5_HV_ROUTING_VAL ((const uint8 CYFAR *)0x48001308)
 312:.\Generated_Source\PSoC5/cyfitter_cfg.c **** 
 313:.\Generated_Source\PSoC5/cyfitter_cfg.c **** /* UDBSWITCH_1_5 Address: CYDEV_UCFG_B0_P0_ROUTE_BASE Size (bytes): 128 */
ARM GAS  C:\Users\Geo\AppData\Local\Temp\ccVeTRuu.s 			page 19


 314:.\Generated_Source\PSoC5/cyfitter_cfg.c **** #define BS_UDBSWITCH_1_5_VAL ((const uint8 CYFAR *)0x48001388)
 315:.\Generated_Source\PSoC5/cyfitter_cfg.c **** 
 316:.\Generated_Source\PSoC5/cyfitter_cfg.c **** /* UDB_2_5_HV_ROUTING Address: CYDEV_UCFG_B0_P0_ROUTE_BASE + 0x00000080 Size (bytes): 128 */
 317:.\Generated_Source\PSoC5/cyfitter_cfg.c **** #define BS_UDB_2_5_HV_ROUTING_VAL ((const uint8 CYFAR *)0x48001408)
 318:.\Generated_Source\PSoC5/cyfitter_cfg.c **** 
 319:.\Generated_Source\PSoC5/cyfitter_cfg.c **** /* DSI3_1_HV_ROUTING Address: CYDEV_UCFG_DSI8_BASE + 0x00000080 Size (bytes): 128 */
 320:.\Generated_Source\PSoC5/cyfitter_cfg.c **** #define BS_DSI3_1_HV_ROUTING_VAL ((const uint8 CYFAR *)0x48001488)
 321:.\Generated_Source\PSoC5/cyfitter_cfg.c **** 
 322:.\Generated_Source\PSoC5/cyfitter_cfg.c **** /* DSISWITCH_1_2 Address: CYDEV_UCFG_DSI3_BASE Size (bytes): 128 */
 323:.\Generated_Source\PSoC5/cyfitter_cfg.c **** #define BS_DSISWITCH_1_2_VAL ((const uint8 CYFAR *)0x48001508)
 324:.\Generated_Source\PSoC5/cyfitter_cfg.c **** 
 325:.\Generated_Source\PSoC5/cyfitter_cfg.c **** /* DSI3_2_HV_ROUTING Address: CYDEV_UCFG_DSI3_BASE + 0x00000080 Size (bytes): 128 */
 326:.\Generated_Source\PSoC5/cyfitter_cfg.c **** #define BS_DSI3_2_HV_ROUTING_VAL ((const uint8 CYFAR *)0x48001588)
 327:.\Generated_Source\PSoC5/cyfitter_cfg.c **** 
 328:.\Generated_Source\PSoC5/cyfitter_cfg.c **** /* DSISWITCH_1_3 Address: CYDEV_UCFG_DSI2_BASE Size (bytes): 128 */
 329:.\Generated_Source\PSoC5/cyfitter_cfg.c **** #define BS_DSISWITCH_1_3_VAL ((const uint8 CYFAR *)0x48001608)
 330:.\Generated_Source\PSoC5/cyfitter_cfg.c **** 
 331:.\Generated_Source\PSoC5/cyfitter_cfg.c **** /* DSI3_3_HV_ROUTING Address: CYDEV_UCFG_DSI2_BASE + 0x00000080 Size (bytes): 128 */
 332:.\Generated_Source\PSoC5/cyfitter_cfg.c **** #define BS_DSI3_3_HV_ROUTING_VAL ((const uint8 CYFAR *)0x48001688)
 333:.\Generated_Source\PSoC5/cyfitter_cfg.c **** 
 334:.\Generated_Source\PSoC5/cyfitter_cfg.c **** /* DSISWITCH_1_4 Address: CYDEV_UCFG_DSI1_BASE Size (bytes): 128 */
 335:.\Generated_Source\PSoC5/cyfitter_cfg.c **** #define BS_DSISWITCH_1_4_VAL ((const uint8 CYFAR *)0x48001708)
 336:.\Generated_Source\PSoC5/cyfitter_cfg.c **** 
 337:.\Generated_Source\PSoC5/cyfitter_cfg.c **** /* DSI3_4_HV_ROUTING Address: CYDEV_UCFG_DSI1_BASE + 0x00000080 Size (bytes): 128 */
 338:.\Generated_Source\PSoC5/cyfitter_cfg.c **** #define BS_DSI3_4_HV_ROUTING_VAL ((const uint8 CYFAR *)0x48001788)
 339:.\Generated_Source\PSoC5/cyfitter_cfg.c **** 
 340:.\Generated_Source\PSoC5/cyfitter_cfg.c **** /* DSISWITCH_1_5 Address: CYDEV_UCFG_DSI0_BASE Size (bytes): 128 */
 341:.\Generated_Source\PSoC5/cyfitter_cfg.c **** #define BS_DSISWITCH_1_5_VAL ((const uint8 CYFAR *)0x48001808)
 342:.\Generated_Source\PSoC5/cyfitter_cfg.c **** 
 343:.\Generated_Source\PSoC5/cyfitter_cfg.c **** /* DSI3_5_HV_ROUTING Address: CYDEV_UCFG_DSI0_BASE + 0x00000080 Size (bytes): 128 */
 344:.\Generated_Source\PSoC5/cyfitter_cfg.c **** #define BS_DSI3_5_HV_ROUTING_VAL ((const uint8 CYFAR *)0x48001888)
 345:.\Generated_Source\PSoC5/cyfitter_cfg.c **** 
 346:.\Generated_Source\PSoC5/cyfitter_cfg.c **** /* UCFG_BCTL1 Address: CYREG_BCTL1_MDCLK_EN Size (bytes): 16 */
 347:.\Generated_Source\PSoC5/cyfitter_cfg.c **** #define BS_UCFG_BCTL1_VAL ((const uint8 CYFAR *)0x48001908)
 348:.\Generated_Source\PSoC5/cyfitter_cfg.c **** 
 349:.\Generated_Source\PSoC5/cyfitter_cfg.c **** /* UCFG_BCTL0 Address: CYREG_BCTL0_MDCLK_EN Size (bytes): 16 */
 350:.\Generated_Source\PSoC5/cyfitter_cfg.c **** #define BS_UCFG_BCTL0_VAL ((const uint8 CYFAR *)0x48001918)
 351:.\Generated_Source\PSoC5/cyfitter_cfg.c **** 
 352:.\Generated_Source\PSoC5/cyfitter_cfg.c **** /* IOPINS0_0 Address: CYREG_PRT0_DM0 Size (bytes): 8 */
 353:.\Generated_Source\PSoC5/cyfitter_cfg.c **** #define BS_IOPINS0_0_VAL ((const uint8 CYFAR *)0x48001928)
 354:.\Generated_Source\PSoC5/cyfitter_cfg.c **** 
 355:.\Generated_Source\PSoC5/cyfitter_cfg.c **** /* IOPINS0_1 Address: CYREG_PRT1_DM0 Size (bytes): 8 */
 356:.\Generated_Source\PSoC5/cyfitter_cfg.c **** #define BS_IOPINS0_1_VAL ((const uint8 CYFAR *)0x48001930)
 357:.\Generated_Source\PSoC5/cyfitter_cfg.c **** 
 358:.\Generated_Source\PSoC5/cyfitter_cfg.c **** /* IOPINS0_7 Address: CYREG_PRT12_DM0 Size (bytes): 8 */
 359:.\Generated_Source\PSoC5/cyfitter_cfg.c **** #define BS_IOPINS0_7_VAL ((const uint8 CYFAR *)0x48001938)
 360:.\Generated_Source\PSoC5/cyfitter_cfg.c **** 
 361:.\Generated_Source\PSoC5/cyfitter_cfg.c **** /* IOPINS0_2 Address: CYREG_PRT2_DM0 Size (bytes): 8 */
 362:.\Generated_Source\PSoC5/cyfitter_cfg.c **** #define BS_IOPINS0_2_VAL ((const uint8 CYFAR *)0x48001940)
 363:.\Generated_Source\PSoC5/cyfitter_cfg.c **** 
 364:.\Generated_Source\PSoC5/cyfitter_cfg.c **** /* IOPINS0_3 Address: CYREG_PRT3_DR Size (bytes): 10 */
 365:.\Generated_Source\PSoC5/cyfitter_cfg.c **** #define BS_IOPINS0_3_VAL ((const uint8 CYFAR *)0x48001948)
 366:.\Generated_Source\PSoC5/cyfitter_cfg.c **** 
 367:.\Generated_Source\PSoC5/cyfitter_cfg.c **** /* IOPINS0_4 Address: CYREG_PRT4_DR Size (bytes): 10 */
 368:.\Generated_Source\PSoC5/cyfitter_cfg.c **** #define BS_IOPINS0_4_VAL ((const uint8 CYFAR *)0x48001954)
 369:.\Generated_Source\PSoC5/cyfitter_cfg.c **** 
 370:.\Generated_Source\PSoC5/cyfitter_cfg.c **** /* IOPINS0_5 Address: CYREG_PRT5_DM0 Size (bytes): 8 */
ARM GAS  C:\Users\Geo\AppData\Local\Temp\ccVeTRuu.s 			page 20


 371:.\Generated_Source\PSoC5/cyfitter_cfg.c **** #define BS_IOPINS0_5_VAL ((const uint8 CYFAR *)0x48001960)
 372:.\Generated_Source\PSoC5/cyfitter_cfg.c **** 
 373:.\Generated_Source\PSoC5/cyfitter_cfg.c **** /* IOPORT_0 Address: CYDEV_PRTDSI_PRT0_BASE Size (bytes): 7 */
 374:.\Generated_Source\PSoC5/cyfitter_cfg.c **** #define BS_IOPORT_0_VAL ((const uint8 CYFAR *)0x48001968)
 375:.\Generated_Source\PSoC5/cyfitter_cfg.c **** 
 376:.\Generated_Source\PSoC5/cyfitter_cfg.c **** /* IOPORT_2 Address: CYDEV_PRTDSI_PRT2_BASE Size (bytes): 7 */
 377:.\Generated_Source\PSoC5/cyfitter_cfg.c **** #define BS_IOPORT_2_VAL ((const uint8 CYFAR *)0x48001970)
 378:.\Generated_Source\PSoC5/cyfitter_cfg.c **** 
 379:.\Generated_Source\PSoC5/cyfitter_cfg.c **** /* IOPORT_3 Address: CYDEV_PRTDSI_PRT3_BASE Size (bytes): 7 */
 380:.\Generated_Source\PSoC5/cyfitter_cfg.c **** #define BS_IOPORT_3_VAL ((const uint8 CYFAR *)0x48001978)
 381:.\Generated_Source\PSoC5/cyfitter_cfg.c **** 
 382:.\Generated_Source\PSoC5/cyfitter_cfg.c **** /* IOPORT_4 Address: CYDEV_PRTDSI_PRT4_BASE Size (bytes): 7 */
 383:.\Generated_Source\PSoC5/cyfitter_cfg.c **** #define BS_IOPORT_4_VAL ((const uint8 CYFAR *)0x48001980)
 384:.\Generated_Source\PSoC5/cyfitter_cfg.c **** 
 385:.\Generated_Source\PSoC5/cyfitter_cfg.c **** /* IOPORT_5 Address: CYDEV_PRTDSI_PRT5_BASE Size (bytes): 7 */
 386:.\Generated_Source\PSoC5/cyfitter_cfg.c **** #define BS_IOPORT_5_VAL ((const uint8 CYFAR *)0x48001988)
 387:.\Generated_Source\PSoC5/cyfitter_cfg.c **** 
 388:.\Generated_Source\PSoC5/cyfitter_cfg.c **** /* CYDEV_CLKDIST_ACFG0_CFG0 Address: CYREG_CLKDIST_ACFG0_CFG0 Size (bytes): 4 */
 389:.\Generated_Source\PSoC5/cyfitter_cfg.c **** #define BS_CYDEV_CLKDIST_ACFG0_CFG0_VAL ((const uint8 CYFAR *)0x48001990)
 390:.\Generated_Source\PSoC5/cyfitter_cfg.c **** 
 391:.\Generated_Source\PSoC5/cyfitter_cfg.c **** 
 392:.\Generated_Source\PSoC5/cyfitter_cfg.c **** /* PHUB_CH1_CFGMEM_CFG0/1 initialization data */
 393:.\Generated_Source\PSoC5/cyfitter_cfg.c **** static const uint8 CYCODE CH1_ADDR_DATA0[] DMAINITSEC = { 0x01, 0x00, 0x00, 0x00, 0x00, 0x20, 0x00,
 394:.\Generated_Source\PSoC5/cyfitter_cfg.c **** 
 395:.\Generated_Source\PSoC5/cyfitter_cfg.c **** /* PHUB_CH2_CFGMEM_CFG0/1 initialization data */
 396:.\Generated_Source\PSoC5/cyfitter_cfg.c **** static const uint8 CYCODE CH2_ADDR_DATA0[] DMAINITSEC = { 0x01, 0x00, 0x00, 0x00, 0x00, 0x20, 0x01,
 397:.\Generated_Source\PSoC5/cyfitter_cfg.c **** 
 398:.\Generated_Source\PSoC5/cyfitter_cfg.c **** /* PHUB_CH5_CFGMEM_CFG0/1 initialization data */
 399:.\Generated_Source\PSoC5/cyfitter_cfg.c **** static const uint8 CYCODE CH5_ADDR_DATA0[] DMAINITSEC = { 0x01, 0x00, 0x00, 0x00, 0x00, 0x48, 0x00,
 400:.\Generated_Source\PSoC5/cyfitter_cfg.c **** 
 401:.\Generated_Source\PSoC5/cyfitter_cfg.c **** /* PHUB_CH6_CFGMEM_CFG0/1 initialization data */
 402:.\Generated_Source\PSoC5/cyfitter_cfg.c **** static const uint8 CYCODE CH6_ADDR_DATA0[] DMAINITSEC = { 0x01, 0x00, 0x00, 0x00, 0x00, 0x48, 0x01,
 403:.\Generated_Source\PSoC5/cyfitter_cfg.c **** 
 404:.\Generated_Source\PSoC5/cyfitter_cfg.c **** /* Initialization data for each DMA channel's TD registers */
 405:.\Generated_Source\PSoC5/cyfitter_cfg.c **** static const uint8 CYCODE DMA_TD_START_CMD[] DMAINITSEC = { 0x01, 0x00, 0x00, 0x00, 0x01 };
 406:.\Generated_Source\PSoC5/cyfitter_cfg.c **** 
 407:.\Generated_Source\PSoC5/cyfitter_cfg.c **** static uint32 CYXDATA DMA_ZERO_VAL CYALIGNED;
 408:.\Generated_Source\PSoC5/cyfitter_cfg.c **** 
 409:.\Generated_Source\PSoC5/cyfitter_cfg.c **** /* This table holds all of the initialization data necessary for the DMA
 410:.\Generated_Source\PSoC5/cyfitter_cfg.c ****    process to transfer data from the source location to the destination. */
 411:.\Generated_Source\PSoC5/cyfitter_cfg.c **** /* Source addresses can be relocated, but only when in 32bit addresses.
 412:.\Generated_Source\PSoC5/cyfitter_cfg.c ****    Because the standard TD table only has 16bit addresses, we generate a
 413:.\Generated_Source\PSoC5/cyfitter_cfg.c ****    seperate CFG_TD_ADDR table for the source addresses that supports 32bit
 414:.\Generated_Source\PSoC5/cyfitter_cfg.c ****    addresses. */
 415:.\Generated_Source\PSoC5/cyfitter_cfg.c **** static const struct td_t CYCODE CFG_TD_LIST0[] DMAINITSEC = {
 416:.\Generated_Source\PSoC5/cyfitter_cfg.c **** /* Size, Next, Flags, Source, Destination */
 417:.\Generated_Source\PSoC5/cyfitter_cfg.c **** 	{ 8, 0x02, 0x23, (uint16)(0), (uint16)(CYREG_PHUB_CFGMEM1_CFG0) },	/* TD 1 */
 418:.\Generated_Source\PSoC5/cyfitter_cfg.c **** 	{ 8, 0x03, 0x23, (uint16)(0), (uint16)(CYREG_PHUB_CFGMEM2_CFG0) },	/* TD 2 */
 419:.\Generated_Source\PSoC5/cyfitter_cfg.c **** 	{ 8, 0x04, 0x23, (uint16)(0), (uint16)(CYREG_PHUB_CFGMEM5_CFG0) },	/* TD 3 */
 420:.\Generated_Source\PSoC5/cyfitter_cfg.c **** 	{ 8, 0x05, 0x23, (uint16)(0), (uint16)(CYREG_PHUB_CFGMEM6_CFG0) },	/* TD 4 */
 421:.\Generated_Source\PSoC5/cyfitter_cfg.c **** 	{ 5, 0x06, 0x23, (uint16)(0), (uint16)(CYREG_PHUB_CH1_BASIC_CFG) },	/* TD 5 */
 422:.\Generated_Source\PSoC5/cyfitter_cfg.c **** 	{ 5, 0x07, 0x23, (uint16)(0), (uint16)(CYREG_PHUB_CH2_BASIC_CFG) },	/* TD 6 */
 423:.\Generated_Source\PSoC5/cyfitter_cfg.c **** 	{ 5, 0x08, 0x23, (uint16)(0), (uint16)(CYREG_PHUB_CH5_BASIC_CFG) },	/* TD 7 */
 424:.\Generated_Source\PSoC5/cyfitter_cfg.c **** 	{ 5, 0xFF, 0x23, (uint16)(0), (uint16)(CYREG_PHUB_CH6_BASIC_CFG) },	/* TD 8 */
 425:.\Generated_Source\PSoC5/cyfitter_cfg.c **** 	{ 16, 0x0A, 0x22, (uint16)(0), (uint16)(CYREG_PRT6_DR) },	/* TD 9 */
 426:.\Generated_Source\PSoC5/cyfitter_cfg.c **** 	{ 16, 0xFF, 0x22, (uint16)(0), (uint16)(CYREG_PRT15_DR) },	/* TD 10 */
 427:.\Generated_Source\PSoC5/cyfitter_cfg.c **** 	{ 384, 0x0C, 0x22, (uint16)(0), (uint16)(CYDEV_UCFG_B0_P4_U0_BASE) },	/* TD 11 */
ARM GAS  C:\Users\Geo\AppData\Local\Temp\ccVeTRuu.s 			page 21


 428:.\Generated_Source\PSoC5/cyfitter_cfg.c **** 	{ 128, 0x0D, 0x22, (uint16)(0), (uint16)(CYDEV_UCFG_B0_P6_U1_BASE) },	/* TD 12 */
 429:.\Generated_Source\PSoC5/cyfitter_cfg.c **** 	{ 128, 0x0E, 0x22, (uint16)(0), (uint16)(CYDEV_UCFG_B0_P7_U0_BASE) },	/* TD 13 */
 430:.\Generated_Source\PSoC5/cyfitter_cfg.c **** 	{ 640, 0x0F, 0x22, (uint16)(0), (uint16)(CYDEV_UCFG_B1_P2_U0_BASE) },	/* TD 14 */
 431:.\Generated_Source\PSoC5/cyfitter_cfg.c **** 	{ 384, 0x10, 0x22, (uint16)(0), (uint16)(CYDEV_UCFG_B1_P4_U0_BASE) },	/* TD 15 */
 432:.\Generated_Source\PSoC5/cyfitter_cfg.c **** 	{ 512, 0x11, 0x22, (uint16)(0), (uint16)(CYDEV_UCFG_B1_P5_U0_BASE) },	/* TD 16 */
 433:.\Generated_Source\PSoC5/cyfitter_cfg.c **** 	{ 128, 0x12, 0x22, (uint16)(0), (uint16)(CYDEV_UCFG_DSI7_BASE) },	/* TD 17 */
 434:.\Generated_Source\PSoC5/cyfitter_cfg.c **** 	{ 128, 0x13, 0x22, (uint16)(0), (uint16)(CYDEV_UCFG_DSI8_BASE) },	/* TD 18 */
 435:.\Generated_Source\PSoC5/cyfitter_cfg.c **** 	{ 256, 0x14, 0x22, (uint16)(0), (uint16)(CYDEV_UCFG_DSI9_BASE) },	/* TD 19 */
 436:.\Generated_Source\PSoC5/cyfitter_cfg.c **** 	{ 256, 0xFF, 0x22, (uint16)(0), (uint16)(CYDEV_UCFG_DSI13_BASE) },	/* TD 20 */
 437:.\Generated_Source\PSoC5/cyfitter_cfg.c **** 	{ 64, 0x16, 0x23, (uint16)(0), (uint16)(CYDEV_UWRK_UWRK8_B0_BASE) },	/* TD 21 */
 438:.\Generated_Source\PSoC5/cyfitter_cfg.c **** 	{ 32, 0x17, 0x23, (uint16)(0), (uint16)(CYDEV_UWRK_UWRK8_B0_BASE + 0x00000070) },	/* TD 22 */
 439:.\Generated_Source\PSoC5/cyfitter_cfg.c **** 	{ 32, 0xFF, 0x23, (uint16)(0), (uint16)(CYDEV_UWRK_UWRK8_B1_BASE + 0x00000070) },	/* TD 23 */
 440:.\Generated_Source\PSoC5/cyfitter_cfg.c **** 	{ 8, 0x19, 0x23, (uint16)(0), (uint16)(CYREG_IDMUX_IRQ_CTL0) },	/* TD 24 */
 441:.\Generated_Source\PSoC5/cyfitter_cfg.c **** 	{ 128, 0x1A, 0x23, (uint16)(0), (uint16)(CYDEV_UCFG_B0_P0_U0_BASE) },	/* TD 25 */
 442:.\Generated_Source\PSoC5/cyfitter_cfg.c **** 	{ 128, 0x1B, 0x23, (uint16)(0), (uint16)(CYDEV_UCFG_B0_P0_U1_BASE) },	/* TD 26 */
 443:.\Generated_Source\PSoC5/cyfitter_cfg.c **** 	{ 128, 0x1C, 0x23, (uint16)(0), (uint16)(CYDEV_UCFG_B0_P1_U0_BASE) },	/* TD 27 */
 444:.\Generated_Source\PSoC5/cyfitter_cfg.c **** 	{ 128, 0x1D, 0x23, (uint16)(0), (uint16)(CYDEV_UCFG_B0_P1_U1_BASE) },	/* TD 28 */
 445:.\Generated_Source\PSoC5/cyfitter_cfg.c **** 	{ 128, 0x1E, 0x23, (uint16)(0), (uint16)(CYDEV_UCFG_B0_P2_U0_BASE) },	/* TD 29 */
 446:.\Generated_Source\PSoC5/cyfitter_cfg.c **** 	{ 128, 0x1F, 0x23, (uint16)(0), (uint16)(CYDEV_UCFG_B0_P2_U1_BASE) },	/* TD 30 */
 447:.\Generated_Source\PSoC5/cyfitter_cfg.c **** 	{ 128, 0x20, 0x23, (uint16)(0), (uint16)(CYDEV_UCFG_B0_P3_U0_BASE) },	/* TD 31 */
 448:.\Generated_Source\PSoC5/cyfitter_cfg.c **** 	{ 128, 0x21, 0x23, (uint16)(0), (uint16)(CYDEV_UCFG_B0_P3_U1_BASE) },	/* TD 32 */
 449:.\Generated_Source\PSoC5/cyfitter_cfg.c **** 	{ 128, 0x22, 0x23, (uint16)(0), (uint16)(CYDEV_UCFG_B0_P5_U0_BASE) },	/* TD 33 */
 450:.\Generated_Source\PSoC5/cyfitter_cfg.c **** 	{ 128, 0x23, 0x23, (uint16)(0), (uint16)(CYDEV_UCFG_B0_P5_U1_BASE) },	/* TD 34 */
 451:.\Generated_Source\PSoC5/cyfitter_cfg.c **** 	{ 128, 0x24, 0x23, (uint16)(0), (uint16)(CYDEV_UCFG_B0_P6_U0_BASE) },	/* TD 35 */
 452:.\Generated_Source\PSoC5/cyfitter_cfg.c **** 	{ 128, 0x25, 0x23, (uint16)(0), (uint16)(CYDEV_UCFG_B0_P7_U1_BASE) },	/* TD 36 */
 453:.\Generated_Source\PSoC5/cyfitter_cfg.c **** 	{ 128, 0x26, 0x23, (uint16)(0), (uint16)(CYDEV_UCFG_B1_P3_U1_BASE) },	/* TD 37 */
 454:.\Generated_Source\PSoC5/cyfitter_cfg.c **** 	{ 128, 0x27, 0x23, (uint16)(0), (uint16)(CYDEV_UCFG_DSI12_BASE) },	/* TD 38 */
 455:.\Generated_Source\PSoC5/cyfitter_cfg.c **** 	{ 128, 0x28, 0x23, (uint16)(0), (uint16)(CYDEV_UCFG_DSI12_BASE + 0x00000080) },	/* TD 39 */
 456:.\Generated_Source\PSoC5/cyfitter_cfg.c **** 	{ 128, 0x29, 0x23, (uint16)(0), (uint16)(CYDEV_UCFG_DSI7_BASE + 0x00000080) },	/* TD 40 */
 457:.\Generated_Source\PSoC5/cyfitter_cfg.c **** 	{ 128, 0x2A, 0x23, (uint16)(0), (uint16)(CYDEV_UCFG_DSI6_BASE) },	/* TD 41 */
 458:.\Generated_Source\PSoC5/cyfitter_cfg.c **** 	{ 128, 0x2B, 0x23, (uint16)(0), (uint16)(CYDEV_UCFG_DSI6_BASE + 0x00000080) },	/* TD 42 */
 459:.\Generated_Source\PSoC5/cyfitter_cfg.c **** 	{ 128, 0x2C, 0x23, (uint16)(0), (uint16)(CYDEV_UCFG_DSI5_BASE) },	/* TD 43 */
 460:.\Generated_Source\PSoC5/cyfitter_cfg.c **** 	{ 128, 0x2D, 0x23, (uint16)(0), (uint16)(CYDEV_UCFG_DSI5_BASE + 0x00000080) },	/* TD 44 */
 461:.\Generated_Source\PSoC5/cyfitter_cfg.c **** 	{ 128, 0x2E, 0x23, (uint16)(0), (uint16)(CYDEV_UCFG_DSI4_BASE) },	/* TD 45 */
 462:.\Generated_Source\PSoC5/cyfitter_cfg.c **** 	{ 128, 0x2F, 0x23, (uint16)(0), (uint16)(CYDEV_UCFG_DSI4_BASE + 0x00000080) },	/* TD 46 */
 463:.\Generated_Source\PSoC5/cyfitter_cfg.c **** 	{ 128, 0x30, 0x23, (uint16)(0), (uint16)(CYDEV_UCFG_B1_P4_ROUTE_BASE + 0x00000080) },	/* TD 47 */
 464:.\Generated_Source\PSoC5/cyfitter_cfg.c **** 	{ 128, 0x31, 0x23, (uint16)(0), (uint16)(CYDEV_UCFG_B1_P3_ROUTE_BASE) },	/* TD 48 */
 465:.\Generated_Source\PSoC5/cyfitter_cfg.c **** 	{ 128, 0x32, 0x23, (uint16)(0), (uint16)(CYDEV_UCFG_B1_P3_ROUTE_BASE + 0x00000080) },	/* TD 49 */
 466:.\Generated_Source\PSoC5/cyfitter_cfg.c **** 	{ 128, 0x33, 0x23, (uint16)(0), (uint16)(CYDEV_UCFG_B0_P4_ROUTE_BASE + 0x00000080) },	/* TD 50 */
 467:.\Generated_Source\PSoC5/cyfitter_cfg.c **** 	{ 128, 0x34, 0x23, (uint16)(0), (uint16)(CYDEV_UCFG_B0_P3_ROUTE_BASE) },	/* TD 51 */
 468:.\Generated_Source\PSoC5/cyfitter_cfg.c **** 	{ 128, 0x35, 0x23, (uint16)(0), (uint16)(CYDEV_UCFG_B0_P3_ROUTE_BASE + 0x00000080) },	/* TD 52 */
 469:.\Generated_Source\PSoC5/cyfitter_cfg.c **** 	{ 128, 0x36, 0x23, (uint16)(0), (uint16)(CYDEV_UCFG_B0_P5_ROUTE_BASE) },	/* TD 53 */
 470:.\Generated_Source\PSoC5/cyfitter_cfg.c **** 	{ 128, 0x37, 0x23, (uint16)(0), (uint16)(CYDEV_UCFG_B0_P5_ROUTE_BASE + 0x00000080) },	/* TD 54 */
 471:.\Generated_Source\PSoC5/cyfitter_cfg.c **** 	{ 128, 0x38, 0x23, (uint16)(0), (uint16)(CYDEV_UCFG_B0_P2_ROUTE_BASE) },	/* TD 55 */
 472:.\Generated_Source\PSoC5/cyfitter_cfg.c **** 	{ 128, 0x39, 0x23, (uint16)(0), (uint16)(CYDEV_UCFG_B0_P2_ROUTE_BASE + 0x00000080) },	/* TD 56 */
 473:.\Generated_Source\PSoC5/cyfitter_cfg.c **** 	{ 128, 0x3A, 0x23, (uint16)(0), (uint16)(CYDEV_UCFG_B0_P6_ROUTE_BASE) },	/* TD 57 */
 474:.\Generated_Source\PSoC5/cyfitter_cfg.c **** 	{ 128, 0x3B, 0x23, (uint16)(0), (uint16)(CYDEV_UCFG_B0_P6_ROUTE_BASE + 0x00000080) },	/* TD 58 */
 475:.\Generated_Source\PSoC5/cyfitter_cfg.c **** 	{ 128, 0x3C, 0x23, (uint16)(0), (uint16)(CYDEV_UCFG_B0_P1_ROUTE_BASE) },	/* TD 59 */
 476:.\Generated_Source\PSoC5/cyfitter_cfg.c **** 	{ 128, 0x3D, 0x23, (uint16)(0), (uint16)(CYDEV_UCFG_B0_P1_ROUTE_BASE + 0x00000080) },	/* TD 60 */
 477:.\Generated_Source\PSoC5/cyfitter_cfg.c **** 	{ 128, 0x3E, 0x23, (uint16)(0), (uint16)(CYDEV_UCFG_B0_P7_ROUTE_BASE) },	/* TD 61 */
 478:.\Generated_Source\PSoC5/cyfitter_cfg.c **** 	{ 128, 0x3F, 0x23, (uint16)(0), (uint16)(CYDEV_UCFG_B0_P7_ROUTE_BASE + 0x00000080) },	/* TD 62 */
 479:.\Generated_Source\PSoC5/cyfitter_cfg.c **** 	{ 128, 0x40, 0x23, (uint16)(0), (uint16)(CYDEV_UCFG_B0_P0_ROUTE_BASE) },	/* TD 63 */
 480:.\Generated_Source\PSoC5/cyfitter_cfg.c **** 	{ 128, 0x41, 0x23, (uint16)(0), (uint16)(CYDEV_UCFG_B0_P0_ROUTE_BASE + 0x00000080) },	/* TD 64 */
 481:.\Generated_Source\PSoC5/cyfitter_cfg.c **** 	{ 128, 0x42, 0x23, (uint16)(0), (uint16)(CYDEV_UCFG_DSI8_BASE + 0x00000080) },	/* TD 65 */
 482:.\Generated_Source\PSoC5/cyfitter_cfg.c **** 	{ 128, 0x43, 0x23, (uint16)(0), (uint16)(CYDEV_UCFG_DSI3_BASE) },	/* TD 66 */
 483:.\Generated_Source\PSoC5/cyfitter_cfg.c **** 	{ 128, 0x44, 0x23, (uint16)(0), (uint16)(CYDEV_UCFG_DSI3_BASE + 0x00000080) },	/* TD 67 */
 484:.\Generated_Source\PSoC5/cyfitter_cfg.c **** 	{ 128, 0x45, 0x23, (uint16)(0), (uint16)(CYDEV_UCFG_DSI2_BASE) },	/* TD 68 */
ARM GAS  C:\Users\Geo\AppData\Local\Temp\ccVeTRuu.s 			page 22


 485:.\Generated_Source\PSoC5/cyfitter_cfg.c **** 	{ 128, 0x46, 0x23, (uint16)(0), (uint16)(CYDEV_UCFG_DSI2_BASE + 0x00000080) },	/* TD 69 */
 486:.\Generated_Source\PSoC5/cyfitter_cfg.c **** 	{ 128, 0x47, 0x23, (uint16)(0), (uint16)(CYDEV_UCFG_DSI1_BASE) },	/* TD 70 */
 487:.\Generated_Source\PSoC5/cyfitter_cfg.c **** 	{ 128, 0x48, 0x23, (uint16)(0), (uint16)(CYDEV_UCFG_DSI1_BASE + 0x00000080) },	/* TD 71 */
 488:.\Generated_Source\PSoC5/cyfitter_cfg.c **** 	{ 128, 0x49, 0x23, (uint16)(0), (uint16)(CYDEV_UCFG_DSI0_BASE) },	/* TD 72 */
 489:.\Generated_Source\PSoC5/cyfitter_cfg.c **** 	{ 128, 0x4A, 0x23, (uint16)(0), (uint16)(CYDEV_UCFG_DSI0_BASE + 0x00000080) },	/* TD 73 */
 490:.\Generated_Source\PSoC5/cyfitter_cfg.c **** 	{ 16, 0x4B, 0x23, (uint16)(0), (uint16)(CYREG_BCTL1_MDCLK_EN) },	/* TD 74 */
 491:.\Generated_Source\PSoC5/cyfitter_cfg.c **** 	{ 16, 0xFF, 0x23, (uint16)(0), (uint16)(CYREG_BCTL0_MDCLK_EN) },	/* TD 75 */
 492:.\Generated_Source\PSoC5/cyfitter_cfg.c **** };
 493:.\Generated_Source\PSoC5/cyfitter_cfg.c **** /* Source addresses can be relocated, but only when in 32bit addresses.
 494:.\Generated_Source\PSoC5/cyfitter_cfg.c ****    Because the standard TD table only has 16bit addresses, we generate a
 495:.\Generated_Source\PSoC5/cyfitter_cfg.c ****    seperate table for the source addresses that does use 32bit addresses. This
 496:.\Generated_Source\PSoC5/cyfitter_cfg.c ****    table will be remerged with the corresponding CFG_TD_LIST table during
 497:.\Generated_Source\PSoC5/cyfitter_cfg.c ****    initialization. */
 498:.\Generated_Source\PSoC5/cyfitter_cfg.c **** static const void * const CFG_TD_ADDR0[] = {
 499:.\Generated_Source\PSoC5/cyfitter_cfg.c **** 	(const void *)(&CH1_ADDR_DATA0),	/* TD 1 */
 500:.\Generated_Source\PSoC5/cyfitter_cfg.c **** 	(const void *)(&CH2_ADDR_DATA0),	/* TD 2 */
 501:.\Generated_Source\PSoC5/cyfitter_cfg.c **** 	(const void *)(&CH5_ADDR_DATA0),	/* TD 3 */
 502:.\Generated_Source\PSoC5/cyfitter_cfg.c **** 	(const void *)(&CH6_ADDR_DATA0),	/* TD 4 */
 503:.\Generated_Source\PSoC5/cyfitter_cfg.c **** 	(const void *)(&DMA_TD_START_CMD),	/* TD 5 */
 504:.\Generated_Source\PSoC5/cyfitter_cfg.c **** 	(const void *)(&DMA_TD_START_CMD),	/* TD 6 */
 505:.\Generated_Source\PSoC5/cyfitter_cfg.c **** 	(const void *)(&DMA_TD_START_CMD),	/* TD 7 */
 506:.\Generated_Source\PSoC5/cyfitter_cfg.c **** 	(const void *)(&DMA_TD_START_CMD),	/* TD 8 */
 507:.\Generated_Source\PSoC5/cyfitter_cfg.c **** 	(const void *)(&DMA_ZERO_VAL),	/* TD 9 */
 508:.\Generated_Source\PSoC5/cyfitter_cfg.c **** 	(const void *)(&DMA_ZERO_VAL),	/* TD 10 */
 509:.\Generated_Source\PSoC5/cyfitter_cfg.c **** 	(const void *)(&DMA_ZERO_VAL),	/* TD 11 */
 510:.\Generated_Source\PSoC5/cyfitter_cfg.c **** 	(const void *)(&DMA_ZERO_VAL),	/* TD 12 */
 511:.\Generated_Source\PSoC5/cyfitter_cfg.c **** 	(const void *)(&DMA_ZERO_VAL),	/* TD 13 */
 512:.\Generated_Source\PSoC5/cyfitter_cfg.c **** 	(const void *)(&DMA_ZERO_VAL),	/* TD 14 */
 513:.\Generated_Source\PSoC5/cyfitter_cfg.c **** 	(const void *)(&DMA_ZERO_VAL),	/* TD 15 */
 514:.\Generated_Source\PSoC5/cyfitter_cfg.c **** 	(const void *)(&DMA_ZERO_VAL),	/* TD 16 */
 515:.\Generated_Source\PSoC5/cyfitter_cfg.c **** 	(const void *)(&DMA_ZERO_VAL),	/* TD 17 */
 516:.\Generated_Source\PSoC5/cyfitter_cfg.c **** 	(const void *)(&DMA_ZERO_VAL),	/* TD 18 */
 517:.\Generated_Source\PSoC5/cyfitter_cfg.c **** 	(const void *)(&DMA_ZERO_VAL),	/* TD 19 */
 518:.\Generated_Source\PSoC5/cyfitter_cfg.c **** 	(const void *)(&DMA_ZERO_VAL),	/* TD 20 */
 519:.\Generated_Source\PSoC5/cyfitter_cfg.c **** 	(const void *)(BS_UWRK_B0_WRK_DP_BITS_VAL),	/* TD 21 */
 520:.\Generated_Source\PSoC5/cyfitter_cfg.c **** 	(const void *)(BS_UWRK_B0_WRK_STATCTL_BITS_VAL),	/* TD 22 */
 521:.\Generated_Source\PSoC5/cyfitter_cfg.c **** 	(const void *)(BS_UWRK_B1_WRK_STATCTL_BITS_VAL),	/* TD 23 */
 522:.\Generated_Source\PSoC5/cyfitter_cfg.c **** 	(const void *)(BS_IDMUX_IRQ_VAL),	/* TD 24 */
 523:.\Generated_Source\PSoC5/cyfitter_cfg.c **** 	(const void *)(BS_UDB_1_5_0_CONFIG_VAL),	/* TD 25 */
 524:.\Generated_Source\PSoC5/cyfitter_cfg.c **** 	(const void *)(BS_UDB_1_5_1_CONFIG_VAL),	/* TD 26 */
 525:.\Generated_Source\PSoC5/cyfitter_cfg.c **** 	(const void *)(BS_UDB_1_4_1_CONFIG_VAL),	/* TD 27 */
 526:.\Generated_Source\PSoC5/cyfitter_cfg.c **** 	(const void *)(BS_UDB_1_4_0_CONFIG_VAL),	/* TD 28 */
 527:.\Generated_Source\PSoC5/cyfitter_cfg.c **** 	(const void *)(BS_UDB_1_3_0_CONFIG_VAL),	/* TD 29 */
 528:.\Generated_Source\PSoC5/cyfitter_cfg.c **** 	(const void *)(BS_UDB_1_3_1_CONFIG_VAL),	/* TD 30 */
 529:.\Generated_Source\PSoC5/cyfitter_cfg.c **** 	(const void *)(BS_UDB_1_2_1_CONFIG_VAL),	/* TD 31 */
 530:.\Generated_Source\PSoC5/cyfitter_cfg.c **** 	(const void *)(BS_UDB_1_2_0_CONFIG_VAL),	/* TD 32 */
 531:.\Generated_Source\PSoC5/cyfitter_cfg.c **** 	(const void *)(BS_UDB_0_3_0_CONFIG_VAL),	/* TD 33 */
 532:.\Generated_Source\PSoC5/cyfitter_cfg.c **** 	(const void *)(BS_UDB_0_3_1_CONFIG_VAL),	/* TD 34 */
 533:.\Generated_Source\PSoC5/cyfitter_cfg.c **** 	(const void *)(BS_UDB_0_4_1_CONFIG_VAL),	/* TD 35 */
 534:.\Generated_Source\PSoC5/cyfitter_cfg.c **** 	(const void *)(BS_UDB_0_5_1_CONFIG_VAL),	/* TD 36 */
 535:.\Generated_Source\PSoC5/cyfitter_cfg.c **** 	(const void *)(BS_UDB_1_1_0_CONFIG_VAL),	/* TD 37 */
 536:.\Generated_Source\PSoC5/cyfitter_cfg.c **** 	(const void *)(BS_DSISWITCH_0_1_VAL),	/* TD 38 */
 537:.\Generated_Source\PSoC5/cyfitter_cfg.c **** 	(const void *)(BS_DSI0_1_HV_ROUTING_VAL),	/* TD 39 */
 538:.\Generated_Source\PSoC5/cyfitter_cfg.c **** 	(const void *)(BS_DSI0_2_HV_ROUTING_VAL),	/* TD 40 */
 539:.\Generated_Source\PSoC5/cyfitter_cfg.c **** 	(const void *)(BS_DSISWITCH_0_3_VAL),	/* TD 41 */
 540:.\Generated_Source\PSoC5/cyfitter_cfg.c **** 	(const void *)(BS_DSI0_3_HV_ROUTING_VAL),	/* TD 42 */
 541:.\Generated_Source\PSoC5/cyfitter_cfg.c **** 	(const void *)(BS_DSISWITCH_0_4_VAL),	/* TD 43 */
ARM GAS  C:\Users\Geo\AppData\Local\Temp\ccVeTRuu.s 			page 23


 542:.\Generated_Source\PSoC5/cyfitter_cfg.c **** 	(const void *)(BS_DSI0_4_HV_ROUTING_VAL),	/* TD 44 */
 543:.\Generated_Source\PSoC5/cyfitter_cfg.c **** 	(const void *)(BS_DSISWITCH_0_5_VAL),	/* TD 45 */
 544:.\Generated_Source\PSoC5/cyfitter_cfg.c **** 	(const void *)(BS_DSI0_5_HV_ROUTING_VAL),	/* TD 46 */
 545:.\Generated_Source\PSoC5/cyfitter_cfg.c **** 	(const void *)(BS_UDB_1_1_HV_ROUTING_VAL),	/* TD 47 */
 546:.\Generated_Source\PSoC5/cyfitter_cfg.c **** 	(const void *)(BS_UDBSWITCH_1_1_VAL),	/* TD 48 */
 547:.\Generated_Source\PSoC5/cyfitter_cfg.c **** 	(const void *)(BS_UDB_2_1_HV_ROUTING_VAL),	/* TD 49 */
 548:.\Generated_Source\PSoC5/cyfitter_cfg.c **** 	(const void *)(BS_UDB_1_2_HV_ROUTING_VAL),	/* TD 50 */
 549:.\Generated_Source\PSoC5/cyfitter_cfg.c **** 	(const void *)(BS_UDBSWITCH_1_2_VAL),	/* TD 51 */
 550:.\Generated_Source\PSoC5/cyfitter_cfg.c **** 	(const void *)(BS_UDB_2_2_HV_ROUTING_VAL),	/* TD 52 */
 551:.\Generated_Source\PSoC5/cyfitter_cfg.c **** 	(const void *)(BS_UDBSWITCH_0_3_VAL),	/* TD 53 */
 552:.\Generated_Source\PSoC5/cyfitter_cfg.c **** 	(const void *)(BS_UDB_1_3_HV_ROUTING_VAL),	/* TD 54 */
 553:.\Generated_Source\PSoC5/cyfitter_cfg.c **** 	(const void *)(BS_UDBSWITCH_1_3_VAL),	/* TD 55 */
 554:.\Generated_Source\PSoC5/cyfitter_cfg.c **** 	(const void *)(BS_UDB_2_3_HV_ROUTING_VAL),	/* TD 56 */
 555:.\Generated_Source\PSoC5/cyfitter_cfg.c **** 	(const void *)(BS_UDBSWITCH_0_4_VAL),	/* TD 57 */
 556:.\Generated_Source\PSoC5/cyfitter_cfg.c **** 	(const void *)(BS_UDB_1_4_HV_ROUTING_VAL),	/* TD 58 */
 557:.\Generated_Source\PSoC5/cyfitter_cfg.c **** 	(const void *)(BS_UDBSWITCH_1_4_VAL),	/* TD 59 */
 558:.\Generated_Source\PSoC5/cyfitter_cfg.c **** 	(const void *)(BS_UDB_2_4_HV_ROUTING_VAL),	/* TD 60 */
 559:.\Generated_Source\PSoC5/cyfitter_cfg.c **** 	(const void *)(BS_UDBSWITCH_0_5_VAL),	/* TD 61 */
 560:.\Generated_Source\PSoC5/cyfitter_cfg.c **** 	(const void *)(BS_UDB_1_5_HV_ROUTING_VAL),	/* TD 62 */
 561:.\Generated_Source\PSoC5/cyfitter_cfg.c **** 	(const void *)(BS_UDBSWITCH_1_5_VAL),	/* TD 63 */
 562:.\Generated_Source\PSoC5/cyfitter_cfg.c **** 	(const void *)(BS_UDB_2_5_HV_ROUTING_VAL),	/* TD 64 */
 563:.\Generated_Source\PSoC5/cyfitter_cfg.c **** 	(const void *)(BS_DSI3_1_HV_ROUTING_VAL),	/* TD 65 */
 564:.\Generated_Source\PSoC5/cyfitter_cfg.c **** 	(const void *)(BS_DSISWITCH_1_2_VAL),	/* TD 66 */
 565:.\Generated_Source\PSoC5/cyfitter_cfg.c **** 	(const void *)(BS_DSI3_2_HV_ROUTING_VAL),	/* TD 67 */
 566:.\Generated_Source\PSoC5/cyfitter_cfg.c **** 	(const void *)(BS_DSISWITCH_1_3_VAL),	/* TD 68 */
 567:.\Generated_Source\PSoC5/cyfitter_cfg.c **** 	(const void *)(BS_DSI3_3_HV_ROUTING_VAL),	/* TD 69 */
 568:.\Generated_Source\PSoC5/cyfitter_cfg.c **** 	(const void *)(BS_DSISWITCH_1_4_VAL),	/* TD 70 */
 569:.\Generated_Source\PSoC5/cyfitter_cfg.c **** 	(const void *)(BS_DSI3_4_HV_ROUTING_VAL),	/* TD 71 */
 570:.\Generated_Source\PSoC5/cyfitter_cfg.c **** 	(const void *)(BS_DSISWITCH_1_5_VAL),	/* TD 72 */
 571:.\Generated_Source\PSoC5/cyfitter_cfg.c **** 	(const void *)(BS_DSI3_5_HV_ROUTING_VAL),	/* TD 73 */
 572:.\Generated_Source\PSoC5/cyfitter_cfg.c **** 	(const void *)(BS_UCFG_BCTL1_VAL),	/* TD 74 */
 573:.\Generated_Source\PSoC5/cyfitter_cfg.c **** 	(const void *)(BS_UCFG_BCTL0_VAL),	/* TD 75 */
 574:.\Generated_Source\PSoC5/cyfitter_cfg.c **** };
 575:.\Generated_Source\PSoC5/cyfitter_cfg.c **** /*******************************************************************************
 576:.\Generated_Source\PSoC5/cyfitter_cfg.c **** * Function Name: cfg_dma_init
 577:.\Generated_Source\PSoC5/cyfitter_cfg.c **** ********************************************************************************
 578:.\Generated_Source\PSoC5/cyfitter_cfg.c **** * Summary:
 579:.\Generated_Source\PSoC5/cyfitter_cfg.c **** *  This function is used to copy device configuration data from constant values
 580:.\Generated_Source\PSoC5/cyfitter_cfg.c **** *  stored in memory into the proper chip configuration registers using DMA.  It
 581:.\Generated_Source\PSoC5/cyfitter_cfg.c **** *  pulls data out of the CFG_TD_LISTs to know exactly how/what to configure.
 582:.\Generated_Source\PSoC5/cyfitter_cfg.c **** *
 583:.\Generated_Source\PSoC5/cyfitter_cfg.c **** * Parameters:  
 584:.\Generated_Source\PSoC5/cyfitter_cfg.c **** *   void
 585:.\Generated_Source\PSoC5/cyfitter_cfg.c **** *
 586:.\Generated_Source\PSoC5/cyfitter_cfg.c **** * Return:
 587:.\Generated_Source\PSoC5/cyfitter_cfg.c **** *   void
 588:.\Generated_Source\PSoC5/cyfitter_cfg.c **** *
 589:.\Generated_Source\PSoC5/cyfitter_cfg.c **** *******************************************************************************/
 590:.\Generated_Source\PSoC5/cyfitter_cfg.c **** static void cfg_dma_init(void)
 591:.\Generated_Source\PSoC5/cyfitter_cfg.c **** {
 710              		.loc 1 591 0
 711              		.cfi_startproc
 712              		@ args = 0, pretend = 0, frame = 8
 713              		@ frame_needed = 1, uses_anonymous_args = 0
 714              		@ link register save eliminated.
 715 0000 80B4     		push	{r7}
 716              	.LCFI9:
ARM GAS  C:\Users\Geo\AppData\Local\Temp\ccVeTRuu.s 			page 24


 717              		.cfi_def_cfa_offset 4
 718 0002 83B0     		sub	sp, sp, #12
 719              	.LCFI10:
 720              		.cfi_def_cfa_offset 16
 721 0004 00AF     		add	r7, sp, #0
 722              		.cfi_offset 7, -4
 723              	.LCFI11:
 724              		.cfi_def_cfa_register 7
 592:.\Generated_Source\PSoC5/cyfitter_cfg.c **** 	int i;
 593:.\Generated_Source\PSoC5/cyfitter_cfg.c **** 
 594:.\Generated_Source\PSoC5/cyfitter_cfg.c **** 	DMA_ZERO_VAL = 0u;
 725              		.loc 1 594 0
 726 0006 40F20003 		movw	r3, #:lower16:DMA_ZERO_VAL
 727 000a C0F20003 		movt	r3, #:upper16:DMA_ZERO_VAL
 728 000e 4FF00002 		mov	r2, #0
 729 0012 1A60     		str	r2, [r3, #0]
 595:.\Generated_Source\PSoC5/cyfitter_cfg.c **** 	DMAC_CFGMEM[0].CFG0[0] = 0x10;		/* set burstcount */
 730              		.loc 1 595 0
 731 0014 47F20063 		movw	r3, #:lower16:1073772032
 732 0018 C4F20003 		movt	r3, #:upper16:1073772032
 733 001c 4FF01002 		mov	r2, #16
 734 0020 1A70     		strb	r2, [r3, #0]
 596:.\Generated_Source\PSoC5/cyfitter_cfg.c **** 	DMAC_CH[0].basic_cfg[0] = 0x01u;	/* enable channel0 */
 735              		.loc 1 596 0
 736 0022 47F21003 		movw	r3, #:lower16:1073770512
 737 0026 C4F20003 		movt	r3, #:upper16:1073770512
 738 002a 4FF00102 		mov	r2, #1
 739 002e 1A70     		strb	r2, [r3, #0]
 597:.\Generated_Source\PSoC5/cyfitter_cfg.c **** 	DMAC_CH[0].basic_status[1] = 0;		/* set channel0's first td to 0 */
 740              		.loc 1 597 0
 741 0030 47F21003 		movw	r3, #:lower16:1073770512
 742 0034 C4F20003 		movt	r3, #:upper16:1073770512
 743 0038 4FF00002 		mov	r2, #0
 744 003c 5A72     		strb	r2, [r3, #9]
 598:.\Generated_Source\PSoC5/cyfitter_cfg.c **** 	
 599:.\Generated_Source\PSoC5/cyfitter_cfg.c **** 	DMAC_TDMEM[0].TD0[2] = 0x01;		/* set td0's next td to 1 */
 745              		.loc 1 599 0
 746 003e 47F60003 		movw	r3, #:lower16:1073772544
 747 0042 C4F20003 		movt	r3, #:upper16:1073772544
 748 0046 4FF00102 		mov	r2, #1
 749 004a 9A70     		strb	r2, [r3, #2]
 600:.\Generated_Source\PSoC5/cyfitter_cfg.c **** 	DMAC_TDMEM[0].TD0[3] = 0x03;		/* set td0's flags */
 750              		.loc 1 600 0
 751 004c 47F60003 		movw	r3, #:lower16:1073772544
 752 0050 C4F20003 		movt	r3, #:upper16:1073772544
 753 0054 4FF00302 		mov	r2, #3
 754 0058 DA70     		strb	r2, [r3, #3]
 601:.\Generated_Source\PSoC5/cyfitter_cfg.c **** 	CY_SET_REG16((reg16 *) &DMAC_TDMEM[0].TD0[0], 75*8);					/* set td0's size */
 755              		.loc 1 601 0
 756 005a 47F60003 		movw	r3, #:lower16:1073772544
 757 005e C4F20003 		movt	r3, #:upper16:1073772544
 758 0062 4FF41672 		mov	r2, #600
 759 0066 1A80     		strh	r2, [r3, #0]	@ movhi
 602:.\Generated_Source\PSoC5/cyfitter_cfg.c **** 	CY_SET_REG16((reg16 *) &DMAC_TDMEM[0].TD1[0], (uint16)(uint32)CFG_TD_LIST0);	/* set td0's src addr
 760              		.loc 1 602 0
 761 0068 47F60403 		movw	r3, #:lower16:1073772548
 762 006c C4F20003 		movt	r3, #:upper16:1073772548
ARM GAS  C:\Users\Geo\AppData\Local\Temp\ccVeTRuu.s 			page 25


 763 0070 40F20002 		movw	r2, #:lower16:CFG_TD_LIST0
 764 0074 C0F20002 		movt	r2, #:upper16:CFG_TD_LIST0
 765 0078 92B2     		uxth	r2, r2
 766 007a 1A80     		strh	r2, [r3, #0]	@ movhi
 603:.\Generated_Source\PSoC5/cyfitter_cfg.c **** 	CY_SET_REG16((reg16 *) &DMAC_TDMEM[0].TD1[2], CYDEV_PHUB_TDMEM1_BASE);	/* set td0's dst addr */
 767              		.loc 1 603 0
 768 007c 47F60603 		movw	r3, #:lower16:1073772550
 769 0080 C4F20003 		movt	r3, #:upper16:1073772550
 770 0084 47F60802 		movw	r2, #30728
 771 0088 1A80     		strh	r2, [r3, #0]	@ movhi
 604:.\Generated_Source\PSoC5/cyfitter_cfg.c **** 	CY_SET_REG16((reg16 *) &DMAC_CFGMEM[0].CFG1[0], (uint16)(CYDEV_FLASH_BASE >> 16));				/* set ch0's
 772              		.loc 1 604 0
 773 008a 47F20463 		movw	r3, #:lower16:1073772036
 774 008e C4F20003 		movt	r3, #:upper16:1073772036
 775 0092 4FF00002 		mov	r2, #0
 776 0096 1A80     		strh	r2, [r3, #0]	@ movhi
 605:.\Generated_Source\PSoC5/cyfitter_cfg.c **** 	CY_SET_REG16((reg16 *) &DMAC_CFGMEM[0].CFG1[2], (uint16)(CYDEV_PHUB_TDMEM1_BASE >> 16));				/* set
 777              		.loc 1 605 0
 778 0098 47F20663 		movw	r3, #:lower16:1073772038
 779 009c C4F20003 		movt	r3, #:upper16:1073772038
 780 00a0 4FF48042 		mov	r2, #16384
 781 00a4 1A80     		strh	r2, [r3, #0]	@ movhi
 606:.\Generated_Source\PSoC5/cyfitter_cfg.c **** 	DMAC_CH[1].basic_status[1] = 0x09; /* First TD = 9 */
 782              		.loc 1 606 0
 783 00a6 47F22003 		movw	r3, #:lower16:1073770528
 784 00aa C4F20003 		movt	r3, #:upper16:1073770528
 785 00ae 4FF00902 		mov	r2, #9
 786 00b2 5A72     		strb	r2, [r3, #9]
 607:.\Generated_Source\PSoC5/cyfitter_cfg.c **** 	DMAC_CH[2].basic_status[1] = 0x0B; /* First TD = 11 */
 787              		.loc 1 607 0
 788 00b4 47F23003 		movw	r3, #:lower16:1073770544
 789 00b8 C4F20003 		movt	r3, #:upper16:1073770544
 790 00bc 4FF00B02 		mov	r2, #11
 791 00c0 5A72     		strb	r2, [r3, #9]
 608:.\Generated_Source\PSoC5/cyfitter_cfg.c **** 	DMAC_CH[5].basic_status[1] = 0x15; /* First TD = 21 */
 792              		.loc 1 608 0
 793 00c2 47F26003 		movw	r3, #:lower16:1073770592
 794 00c6 C4F20003 		movt	r3, #:upper16:1073770592
 795 00ca 4FF01502 		mov	r2, #21
 796 00ce 5A72     		strb	r2, [r3, #9]
 609:.\Generated_Source\PSoC5/cyfitter_cfg.c **** 	DMAC_CH[6].basic_status[1] = 0x18; /* First TD = 24 */
 797              		.loc 1 609 0
 798 00d0 47F27003 		movw	r3, #:lower16:1073770608
 799 00d4 C4F20003 		movt	r3, #:upper16:1073770608
 800 00d8 4FF01802 		mov	r2, #24
 801 00dc 5A72     		strb	r2, [r3, #9]
 610:.\Generated_Source\PSoC5/cyfitter_cfg.c **** 
 611:.\Generated_Source\PSoC5/cyfitter_cfg.c **** 	CY_CFG_MEMORY_BARRIER();
 802              		.loc 1 611 0
 612:.\Generated_Source\PSoC5/cyfitter_cfg.c **** 	DMAC_CH[0].action[0] = CPU_REQ;    /* initiate the DMA transfer */
 803              		.loc 1 612 0
 804 00de 47F21003 		movw	r3, #:lower16:1073770512
 805 00e2 C4F20003 		movt	r3, #:upper16:1073770512
 806 00e6 4FF00102 		mov	r2, #1
 807 00ea 1A71     		strb	r2, [r3, #4]
 613:.\Generated_Source\PSoC5/cyfitter_cfg.c **** 	CY_CFG_MEMORY_BARRIER();
 808              		.loc 1 613 0
ARM GAS  C:\Users\Geo\AppData\Local\Temp\ccVeTRuu.s 			page 26


 809              	.L13:
 614:.\Generated_Source\PSoC5/cyfitter_cfg.c **** 
 615:.\Generated_Source\PSoC5/cyfitter_cfg.c **** 	/* Wait for TDs to be copied into TDMEM */
 616:.\Generated_Source\PSoC5/cyfitter_cfg.c **** 	while ((*(volatile uint16 *)(DMAC_TDMEM[0].TD0))) {}
 810              		.loc 1 616 0
 811 00ec 47F60003 		movw	r3, #:lower16:1073772544
 812 00f0 C4F20003 		movt	r3, #:upper16:1073772544
 813 00f4 1B88     		ldrh	r3, [r3, #0]	@ movhi
 814 00f6 9BB2     		uxth	r3, r3
 815 00f8 002B     		cmp	r3, #0
 816 00fa F7D1     		bne	.L13
 617:.\Generated_Source\PSoC5/cyfitter_cfg.c **** 
 618:.\Generated_Source\PSoC5/cyfitter_cfg.c **** 	/* Recombine TD source table (CFG_TD_ADDR) with full TD table (CFG_TD_LIST) */
 619:.\Generated_Source\PSoC5/cyfitter_cfg.c **** 	for (i = 0; i < 75; i++)
 817              		.loc 1 619 0
 818 00fc 4FF00003 		mov	r3, #0
 819 0100 3B60     		str	r3, [r7, #0]
 820 0102 18E0     		b	.L14
 821              	.L15:
 822              	.LBB2:
 620:.\Generated_Source\PSoC5/cyfitter_cfg.c **** 	{
 621:.\Generated_Source\PSoC5/cyfitter_cfg.c **** 		volatile uint8 *srcAddrPtr = &DMAC_TDMEM[i+1].TD1[0];
 823              		.loc 1 621 0
 824 0104 3B68     		ldr	r3, [r7, #0]
 825 0106 4FEAC302 		lsl	r2, r3, #3
 826 010a 47F60803 		movw	r3, #:lower16:1073772552
 827 010e C4F20003 		movt	r3, #:upper16:1073772552
 828 0112 1344     		add	r3, r2, r3
 829 0114 03F10403 		add	r3, r3, #4
 830 0118 7B60     		str	r3, [r7, #4]
 622:.\Generated_Source\PSoC5/cyfitter_cfg.c **** 		CY_SET_REG16(srcAddrPtr, (uint16)(uint32)CFG_TD_ADDR0[i]);
 831              		.loc 1 622 0
 832 011a 7A68     		ldr	r2, [r7, #4]
 833 011c 3968     		ldr	r1, [r7, #0]
 834 011e 40F20003 		movw	r3, #:lower16:CFG_TD_ADDR0
 835 0122 C0F20003 		movt	r3, #:upper16:CFG_TD_ADDR0
 836 0126 53F82130 		ldr	r3, [r3, r1, lsl #2]
 837 012a 9BB2     		uxth	r3, r3
 838 012c 1380     		strh	r3, [r2, #0]	@ movhi
 839              	.LBE2:
 840              		.loc 1 619 0
 841 012e 3B68     		ldr	r3, [r7, #0]
 842 0130 03F10103 		add	r3, r3, #1
 843 0134 3B60     		str	r3, [r7, #0]
 844              	.L14:
 845 0136 3B68     		ldr	r3, [r7, #0]
 846 0138 4A2B     		cmp	r3, #74
 847 013a E3DD     		ble	.L15
 623:.\Generated_Source\PSoC5/cyfitter_cfg.c **** 	}
 624:.\Generated_Source\PSoC5/cyfitter_cfg.c **** 
 625:.\Generated_Source\PSoC5/cyfitter_cfg.c **** 	CY_CFG_MEMORY_BARRIER();
 848              		.loc 1 625 0
 626:.\Generated_Source\PSoC5/cyfitter_cfg.c **** 	DMAC_CH[0].action[0] = CPU_REQ;    /* initiate the DMA transfer */
 849              		.loc 1 626 0
 850 013c 47F21003 		movw	r3, #:lower16:1073770512
 851 0140 C4F20003 		movt	r3, #:upper16:1073770512
 852 0144 4FF00102 		mov	r2, #1
ARM GAS  C:\Users\Geo\AppData\Local\Temp\ccVeTRuu.s 			page 27


 853 0148 1A71     		strb	r2, [r3, #4]
 627:.\Generated_Source\PSoC5/cyfitter_cfg.c **** 	CY_CFG_MEMORY_BARRIER();
 854              		.loc 1 627 0
 855              	.L16:
 628:.\Generated_Source\PSoC5/cyfitter_cfg.c **** 
 629:.\Generated_Source\PSoC5/cyfitter_cfg.c **** 	/* Wait for all DMA transfers to complete */
 630:.\Generated_Source\PSoC5/cyfitter_cfg.c **** 	while((CY_GET_REG8(CYREG_PHUB_CH0_BASIC_STATUS) & 0x01u)){}
 856              		.loc 1 630 0
 857 014a 47F21803 		movw	r3, #:lower16:1073770520
 858 014e C4F20003 		movt	r3, #:upper16:1073770520
 859 0152 1B78     		ldrb	r3, [r3, #0]
 860 0154 DBB2     		uxtb	r3, r3
 861 0156 03F00103 		and	r3, r3, #1
 862 015a DBB2     		uxtb	r3, r3
 863 015c 002B     		cmp	r3, #0
 864 015e F4D1     		bne	.L16
 865              	.L17:
 631:.\Generated_Source\PSoC5/cyfitter_cfg.c **** 	while((CY_GET_REG8(CYREG_PHUB_CH1_BASIC_STATUS) & 0x01u)){}
 866              		.loc 1 631 0
 867 0160 47F22803 		movw	r3, #:lower16:1073770536
 868 0164 C4F20003 		movt	r3, #:upper16:1073770536
 869 0168 1B78     		ldrb	r3, [r3, #0]
 870 016a DBB2     		uxtb	r3, r3
 871 016c 03F00103 		and	r3, r3, #1
 872 0170 DBB2     		uxtb	r3, r3
 873 0172 002B     		cmp	r3, #0
 874 0174 F4D1     		bne	.L17
 875              	.L18:
 632:.\Generated_Source\PSoC5/cyfitter_cfg.c **** 	while((CY_GET_REG8(CYREG_PHUB_CH2_BASIC_STATUS) & 0x01u)){}
 876              		.loc 1 632 0
 877 0176 47F23803 		movw	r3, #:lower16:1073770552
 878 017a C4F20003 		movt	r3, #:upper16:1073770552
 879 017e 1B78     		ldrb	r3, [r3, #0]
 880 0180 DBB2     		uxtb	r3, r3
 881 0182 03F00103 		and	r3, r3, #1
 882 0186 DBB2     		uxtb	r3, r3
 883 0188 002B     		cmp	r3, #0
 884 018a F4D1     		bne	.L18
 885              	.L19:
 633:.\Generated_Source\PSoC5/cyfitter_cfg.c **** 	while((CY_GET_REG8(CYREG_PHUB_CH5_BASIC_STATUS) & 0x01u)){}
 886              		.loc 1 633 0
 887 018c 47F26803 		movw	r3, #:lower16:1073770600
 888 0190 C4F20003 		movt	r3, #:upper16:1073770600
 889 0194 1B78     		ldrb	r3, [r3, #0]
 890 0196 DBB2     		uxtb	r3, r3
 891 0198 03F00103 		and	r3, r3, #1
 892 019c DBB2     		uxtb	r3, r3
 893 019e 002B     		cmp	r3, #0
 894 01a0 F4D1     		bne	.L19
 895              	.L20:
 634:.\Generated_Source\PSoC5/cyfitter_cfg.c **** 	while((CY_GET_REG8(CYREG_PHUB_CH6_BASIC_STATUS) & 0x01u)){}
 896              		.loc 1 634 0
 897 01a2 47F27803 		movw	r3, #:lower16:1073770616
 898 01a6 C4F20003 		movt	r3, #:upper16:1073770616
 899 01aa 1B78     		ldrb	r3, [r3, #0]
 900 01ac DBB2     		uxtb	r3, r3
 901 01ae 03F00103 		and	r3, r3, #1
ARM GAS  C:\Users\Geo\AppData\Local\Temp\ccVeTRuu.s 			page 28


 902 01b2 DBB2     		uxtb	r3, r3
 903 01b4 002B     		cmp	r3, #0
 904 01b6 F4D1     		bne	.L20
 635:.\Generated_Source\PSoC5/cyfitter_cfg.c **** 
 636:.\Generated_Source\PSoC5/cyfitter_cfg.c **** 	/* DMA initialization is complete, disable all channels */
 637:.\Generated_Source\PSoC5/cyfitter_cfg.c **** 	CY_SET_REG8(CYREG_PHUB_CH0_BASIC_CFG, 0x00);
 905              		.loc 1 637 0
 906 01b8 47F21003 		movw	r3, #:lower16:1073770512
 907 01bc C4F20003 		movt	r3, #:upper16:1073770512
 908 01c0 4FF00002 		mov	r2, #0
 909 01c4 1A70     		strb	r2, [r3, #0]
 638:.\Generated_Source\PSoC5/cyfitter_cfg.c **** 	CY_SET_REG8(CYREG_PHUB_CH1_BASIC_CFG, 0x00);
 910              		.loc 1 638 0
 911 01c6 47F22003 		movw	r3, #:lower16:1073770528
 912 01ca C4F20003 		movt	r3, #:upper16:1073770528
 913 01ce 4FF00002 		mov	r2, #0
 914 01d2 1A70     		strb	r2, [r3, #0]
 639:.\Generated_Source\PSoC5/cyfitter_cfg.c **** 	CY_SET_REG8(CYREG_PHUB_CH2_BASIC_CFG, 0x00);
 915              		.loc 1 639 0
 916 01d4 47F23003 		movw	r3, #:lower16:1073770544
 917 01d8 C4F20003 		movt	r3, #:upper16:1073770544
 918 01dc 4FF00002 		mov	r2, #0
 919 01e0 1A70     		strb	r2, [r3, #0]
 640:.\Generated_Source\PSoC5/cyfitter_cfg.c **** 	CY_SET_REG8(CYREG_PHUB_CH5_BASIC_CFG, 0x00);
 920              		.loc 1 640 0
 921 01e2 47F26003 		movw	r3, #:lower16:1073770592
 922 01e6 C4F20003 		movt	r3, #:upper16:1073770592
 923 01ea 4FF00002 		mov	r2, #0
 924 01ee 1A70     		strb	r2, [r3, #0]
 641:.\Generated_Source\PSoC5/cyfitter_cfg.c **** 	CY_SET_REG8(CYREG_PHUB_CH6_BASIC_CFG, 0x00);
 925              		.loc 1 641 0
 926 01f0 47F27003 		movw	r3, #:lower16:1073770608
 927 01f4 C4F20003 		movt	r3, #:upper16:1073770608
 928 01f8 4FF00002 		mov	r2, #0
 929 01fc 1A70     		strb	r2, [r3, #0]
 642:.\Generated_Source\PSoC5/cyfitter_cfg.c **** 
 643:.\Generated_Source\PSoC5/cyfitter_cfg.c **** }
 930              		.loc 1 643 0
 931 01fe 07F10C07 		add	r7, r7, #12
 932 0202 BD46     		mov	sp, r7
 933 0204 80BC     		pop	{r7}
 934 0206 7047     		bx	lr
 935              		.cfi_endproc
 936              	.LFE3:
 937              		.size	cfg_dma_init, .-cfg_dma_init
 938              		.section	.text.ClockSetup,"ax",%progbits
 939              		.align	2
 940              		.thumb
 941              		.thumb_func
 942              		.type	ClockSetup, %function
 943              	ClockSetup:
 944              	.LFB4:
 644:.\Generated_Source\PSoC5/cyfitter_cfg.c **** /*******************************************************************************
 645:.\Generated_Source\PSoC5/cyfitter_cfg.c **** * Function Name: ClockSetup
 646:.\Generated_Source\PSoC5/cyfitter_cfg.c **** ********************************************************************************
 647:.\Generated_Source\PSoC5/cyfitter_cfg.c **** *
 648:.\Generated_Source\PSoC5/cyfitter_cfg.c **** * Summary:
ARM GAS  C:\Users\Geo\AppData\Local\Temp\ccVeTRuu.s 			page 29


 649:.\Generated_Source\PSoC5/cyfitter_cfg.c **** *  Performs the initialization of all of the clocks in the device based on the
 650:.\Generated_Source\PSoC5/cyfitter_cfg.c **** *  settings in the Clock tab of the DWR.  This includes enabling the requested
 651:.\Generated_Source\PSoC5/cyfitter_cfg.c **** *  clocks and setting the necessary dividers to produce the desired frequency. 
 652:.\Generated_Source\PSoC5/cyfitter_cfg.c **** *
 653:.\Generated_Source\PSoC5/cyfitter_cfg.c **** * Parameters:
 654:.\Generated_Source\PSoC5/cyfitter_cfg.c **** *  void
 655:.\Generated_Source\PSoC5/cyfitter_cfg.c **** *
 656:.\Generated_Source\PSoC5/cyfitter_cfg.c **** * Return:
 657:.\Generated_Source\PSoC5/cyfitter_cfg.c **** *  void
 658:.\Generated_Source\PSoC5/cyfitter_cfg.c **** *
 659:.\Generated_Source\PSoC5/cyfitter_cfg.c **** *******************************************************************************/
 660:.\Generated_Source\PSoC5/cyfitter_cfg.c **** static void ClockSetup(void)
 661:.\Generated_Source\PSoC5/cyfitter_cfg.c **** {
 945              		.loc 1 661 0
 946              		.cfi_startproc
 947              		@ args = 0, pretend = 0, frame = 8
 948              		@ frame_needed = 1, uses_anonymous_args = 0
 949 0000 80B5     		push	{r7, lr}
 950              	.LCFI12:
 951              		.cfi_def_cfa_offset 8
 952 0002 82B0     		sub	sp, sp, #8
 953              	.LCFI13:
 954              		.cfi_def_cfa_offset 16
 955 0004 00AF     		add	r7, sp, #0
 956              		.cfi_offset 14, -4
 957              		.cfi_offset 7, -8
 958              	.LCFI14:
 959              		.cfi_def_cfa_register 7
 662:.\Generated_Source\PSoC5/cyfitter_cfg.c **** 	reg32  timeout;
 663:.\Generated_Source\PSoC5/cyfitter_cfg.c **** 	reg32* timeout_p = &timeout;
 960              		.loc 1 663 0
 961 0006 3B46     		mov	r3, r7
 962 0008 7B60     		str	r3, [r7, #4]
 664:.\Generated_Source\PSoC5/cyfitter_cfg.c **** 
 665:.\Generated_Source\PSoC5/cyfitter_cfg.c **** 
 666:.\Generated_Source\PSoC5/cyfitter_cfg.c **** 	/* Configure Digital Clocks based on settings from Clock DWR */
 667:.\Generated_Source\PSoC5/cyfitter_cfg.c **** 	CY_SET_XTND_REG24((void CYFAR *)(CYREG_CLKDIST_DCFG0_CFG0), 0x190001);
 963              		.loc 1 667 0
 964 000a 44F28000 		movw	r0, #:lower16:1073758336
 965 000e C4F20000 		movt	r0, #:upper16:1073758336
 966 0012 40F20101 		movw	r1, #:lower16:1638401
 967 0016 C0F21901 		movt	r1, #:upper16:1638401
 968 001a FFF7FEFF 		bl	CySetReg24
 668:.\Generated_Source\PSoC5/cyfitter_cfg.c **** 	CY_SET_XTND_REG24((void CYFAR *)(CYREG_CLKDIST_DCFG1_CFG0), 0x190033);
 969              		.loc 1 668 0
 970 001e 44F28400 		movw	r0, #:lower16:1073758340
 971 0022 C4F20000 		movt	r0, #:upper16:1073758340
 972 0026 40F23301 		movw	r1, #:lower16:1638451
 973 002a C0F21901 		movt	r1, #:upper16:1638451
 974 002e FFF7FEFF 		bl	CySetReg24
 669:.\Generated_Source\PSoC5/cyfitter_cfg.c **** 	CY_SET_XTND_REG24((void CYFAR *)(CYREG_CLKDIST_DCFG2_CFG0), 0x190138);
 975              		.loc 1 669 0
 976 0032 44F28800 		movw	r0, #:lower16:1073758344
 977 0036 C4F20000 		movt	r0, #:upper16:1073758344
 978 003a 40F23811 		movw	r1, #:lower16:1638712
 979 003e C0F21901 		movt	r1, #:upper16:1638712
 980 0042 FFF7FEFF 		bl	CySetReg24
ARM GAS  C:\Users\Geo\AppData\Local\Temp\ccVeTRuu.s 			page 30


 670:.\Generated_Source\PSoC5/cyfitter_cfg.c **** 
 671:.\Generated_Source\PSoC5/cyfitter_cfg.c **** 	/* Configure Analog Clocks based on settings from Clock DWR */
 672:.\Generated_Source\PSoC5/cyfitter_cfg.c **** 	CYCONFIGCPY((void CYFAR *)(CYREG_CLKDIST_ACFG0_CFG0), (void CYFAR *)(BS_CYDEV_CLKDIST_ACFG0_CFG0_V
 981              		.loc 1 672 0
 982 0046 44F20010 		movw	r0, #:lower16:1073758464
 983 004a C4F20000 		movt	r0, #:upper16:1073758464
 984 004e 41F69011 		movw	r1, #:lower16:1207966096
 985 0052 C4F60001 		movt	r1, #:upper16:1207966096
 986 0056 4FF00402 		mov	r2, #4
 987 005a FFF7FEFF 		bl	memcpy
 673:.\Generated_Source\PSoC5/cyfitter_cfg.c **** 
 674:.\Generated_Source\PSoC5/cyfitter_cfg.c **** 	/* Configure ILO based on settings from Clock DWR */
 675:.\Generated_Source\PSoC5/cyfitter_cfg.c **** 	CY_SET_XTND_REG8((void CYFAR *)(CYREG_SLOWCLK_ILO_CR0), 0x02);
 988              		.loc 1 675 0
 989 005e 44F20033 		movw	r3, #:lower16:1073758976
 990 0062 C4F20003 		movt	r3, #:upper16:1073758976
 991 0066 4FF00202 		mov	r2, #2
 992 006a 1A70     		strb	r2, [r3, #0]
 676:.\Generated_Source\PSoC5/cyfitter_cfg.c **** 	CY_SET_XTND_REG8((void CYFAR *)(CYREG_CLKDIST_CR), 0x08);
 993              		.loc 1 676 0
 994 006c 44F20003 		movw	r3, #:lower16:1073758208
 995 0070 C4F20003 		movt	r3, #:upper16:1073758208
 996 0074 4FF00802 		mov	r2, #8
 997 0078 1A70     		strb	r2, [r3, #0]
 677:.\Generated_Source\PSoC5/cyfitter_cfg.c **** 
 678:.\Generated_Source\PSoC5/cyfitter_cfg.c **** 	/* Configure XTAL based on settings from Clock DWR */
 679:.\Generated_Source\PSoC5/cyfitter_cfg.c **** 	CY_SET_XTND_REG8((void CYFAR *)(CYREG_FASTCLK_XMHZ_CFG0), 0x19);
 998              		.loc 1 679 0
 999 007a 44F21223 		movw	r3, #:lower16:1073758738
 1000 007e C4F20003 		movt	r3, #:upper16:1073758738
 1001 0082 4FF01902 		mov	r2, #25
 1002 0086 1A70     		strb	r2, [r3, #0]
 680:.\Generated_Source\PSoC5/cyfitter_cfg.c **** 	CY_SET_XTND_REG8((void CYFAR *)(CYREG_FASTCLK_XMHZ_CSR), 0x07);
 1003              		.loc 1 680 0
 1004 0088 44F21023 		movw	r3, #:lower16:1073758736
 1005 008c C4F20003 		movt	r3, #:upper16:1073758736
 1006 0090 4FF00702 		mov	r2, #7
 1007 0094 1A70     		strb	r2, [r3, #0]
 681:.\Generated_Source\PSoC5/cyfitter_cfg.c **** 	/* Wait 130000us for the XTAL to lock */
 682:.\Generated_Source\PSoC5/cyfitter_cfg.c **** 	CyDelayCycles(130000 * 12); /* Delay 130000us based on 12MHz clock */
 1008              		.loc 1 682 0
 1009 0096 4CF6C050 		movw	r0, #:lower16:1560000
 1010 009a C0F21700 		movt	r0, #:upper16:1560000
 1011 009e FFF7FEFF 		bl	CyDelayCycles
 683:.\Generated_Source\PSoC5/cyfitter_cfg.c **** 
 684:.\Generated_Source\PSoC5/cyfitter_cfg.c **** 	/* Configure Bus/Master Clock based on settings from Clock DWR */
 685:.\Generated_Source\PSoC5/cyfitter_cfg.c **** 	CY_SET_XTND_REG16((void CYFAR *)(CYREG_CLKDIST_MSTR0), 0x0203);
 1012              		.loc 1 685 0
 1013 00a2 44F20403 		movw	r3, #:lower16:1073758212
 1014 00a6 C4F20003 		movt	r3, #:upper16:1073758212
 1015 00aa 40F20322 		movw	r2, #515
 1016 00ae 1A80     		strh	r2, [r3, #0]	@ movhi
 686:.\Generated_Source\PSoC5/cyfitter_cfg.c **** 	CY_SET_XTND_REG8((void CYFAR *)(CYREG_CLKDIST_MSTR0), 0x00);
 1017              		.loc 1 686 0
 1018 00b0 44F20403 		movw	r3, #:lower16:1073758212
 1019 00b4 C4F20003 		movt	r3, #:upper16:1073758212
 1020 00b8 4FF00002 		mov	r2, #0
ARM GAS  C:\Users\Geo\AppData\Local\Temp\ccVeTRuu.s 			page 31


 1021 00bc 1A70     		strb	r2, [r3, #0]
 687:.\Generated_Source\PSoC5/cyfitter_cfg.c **** 	CY_SET_XTND_REG8((void CYFAR *)(CYREG_CLKDIST_CR), 0x48);
 1022              		.loc 1 687 0
 1023 00be 44F20003 		movw	r3, #:lower16:1073758208
 1024 00c2 C4F20003 		movt	r3, #:upper16:1073758208
 1025 00c6 4FF04802 		mov	r2, #72
 1026 00ca 1A70     		strb	r2, [r3, #0]
 688:.\Generated_Source\PSoC5/cyfitter_cfg.c **** 
 689:.\Generated_Source\PSoC5/cyfitter_cfg.c **** 	/* Configure IMO based on settings from Clock DWR */
 690:.\Generated_Source\PSoC5/cyfitter_cfg.c **** 	CY_SET_XTND_REG8((void CYFAR *)(CYREG_FASTCLK_IMO_CR), 0x20);
 1027              		.loc 1 690 0
 1028 00cc 44F20023 		movw	r3, #:lower16:1073758720
 1029 00d0 C4F20003 		movt	r3, #:upper16:1073758720
 1030 00d4 4FF02002 		mov	r2, #32
 1031 00d8 1A70     		strb	r2, [r3, #0]
 691:.\Generated_Source\PSoC5/cyfitter_cfg.c **** 	CY_SET_XTND_REG8((void CYFAR *)(CYREG_CLKDIST_MSTR0), 0x07);
 1032              		.loc 1 691 0
 1033 00da 44F20403 		movw	r3, #:lower16:1073758212
 1034 00de C4F20003 		movt	r3, #:upper16:1073758212
 1035 00e2 4FF00702 		mov	r2, #7
 1036 00e6 1A70     		strb	r2, [r3, #0]
 692:.\Generated_Source\PSoC5/cyfitter_cfg.c **** 	CY_SET_XTND_REG8((void CYFAR *)(CYREG_CLKDIST_BCFG0), 0x00);
 1037              		.loc 1 692 0
 1038 00e8 44F20603 		movw	r3, #:lower16:1073758214
 1039 00ec C4F20003 		movt	r3, #:upper16:1073758214
 1040 00f0 4FF00002 		mov	r2, #0
 1041 00f4 1A70     		strb	r2, [r3, #0]
 693:.\Generated_Source\PSoC5/cyfitter_cfg.c **** 	CY_SET_XTND_REG8((void CYFAR *)(CYREG_CLKDIST_BCFG2), 0x48);
 1042              		.loc 1 693 0
 1043 00f6 44F20803 		movw	r3, #:lower16:1073758216
 1044 00fa C4F20003 		movt	r3, #:upper16:1073758216
 1045 00fe 4FF04802 		mov	r2, #72
 1046 0102 1A70     		strb	r2, [r3, #0]
 694:.\Generated_Source\PSoC5/cyfitter_cfg.c **** 	CY_SET_XTND_REG8((void CYFAR *)(CYREG_CLKDIST_MSTR0), 0x00);
 1047              		.loc 1 694 0
 1048 0104 44F20403 		movw	r3, #:lower16:1073758212
 1049 0108 C4F20003 		movt	r3, #:upper16:1073758212
 1050 010c 4FF00002 		mov	r2, #0
 1051 0110 1A70     		strb	r2, [r3, #0]
 695:.\Generated_Source\PSoC5/cyfitter_cfg.c **** 	CY_SET_XTND_REG8((void CYFAR *)(CYREG_CLKDIST_LD), 0x02);
 1052              		.loc 1 695 0
 1053 0112 44F20103 		movw	r3, #:lower16:1073758209
 1054 0116 C4F20003 		movt	r3, #:upper16:1073758209
 1055 011a 4FF00202 		mov	r2, #2
 1056 011e 1A70     		strb	r2, [r3, #0]
 696:.\Generated_Source\PSoC5/cyfitter_cfg.c **** 	CY_SET_XTND_REG8((void CYFAR *)(CYREG_CLKDIST_DLY1), 0x04);
 1057              		.loc 1 696 0
 1058 0120 44F20B03 		movw	r3, #:lower16:1073758219
 1059 0124 C4F20003 		movt	r3, #:upper16:1073758219
 1060 0128 4FF00402 		mov	r2, #4
 1061 012c 1A70     		strb	r2, [r3, #0]
 697:.\Generated_Source\PSoC5/cyfitter_cfg.c **** 
 698:.\Generated_Source\PSoC5/cyfitter_cfg.c **** 	CY_SET_XTND_REG8((void CYFAR *)(CYREG_PM_ACT_CFG2), ((CY_GET_XTND_REG8(CYREG_PM_ACT_CFG2) | 0x07))
 1062              		.loc 1 698 0
 1063 012e 44F2A233 		movw	r3, #:lower16:1073759138
 1064 0132 C4F20003 		movt	r3, #:upper16:1073759138
 1065 0136 44F2A232 		movw	r2, #:lower16:1073759138
ARM GAS  C:\Users\Geo\AppData\Local\Temp\ccVeTRuu.s 			page 32


 1066 013a C4F20002 		movt	r2, #:upper16:1073759138
 1067 013e 1278     		ldrb	r2, [r2, #0]
 1068 0140 D2B2     		uxtb	r2, r2
 1069 0142 42F00702 		orr	r2, r2, #7
 1070 0146 D2B2     		uxtb	r2, r2
 1071 0148 1A70     		strb	r2, [r3, #0]
 699:.\Generated_Source\PSoC5/cyfitter_cfg.c **** 	CY_SET_XTND_REG8((void CYFAR *)(CYREG_PM_ACT_CFG1), ((CY_GET_XTND_REG8(CYREG_PM_ACT_CFG1) | 0x01))
 1072              		.loc 1 699 0
 1073 014a 44F2A133 		movw	r3, #:lower16:1073759137
 1074 014e C4F20003 		movt	r3, #:upper16:1073759137
 1075 0152 44F2A132 		movw	r2, #:lower16:1073759137
 1076 0156 C4F20002 		movt	r2, #:upper16:1073759137
 1077 015a 1278     		ldrb	r2, [r2, #0]
 1078 015c D2B2     		uxtb	r2, r2
 1079 015e 42F00102 		orr	r2, r2, #1
 1080 0162 D2B2     		uxtb	r2, r2
 1081 0164 1A70     		strb	r2, [r3, #0]
 700:.\Generated_Source\PSoC5/cyfitter_cfg.c **** }
 1082              		.loc 1 700 0
 1083 0166 07F10807 		add	r7, r7, #8
 1084 016a BD46     		mov	sp, r7
 1085 016c 80BD     		pop	{r7, pc}
 1086              		.cfi_endproc
 1087              	.LFE4:
 1088              		.size	ClockSetup, .-ClockSetup
 1089 016e 00BF     		.section	.text.AnalogSetDefault,"ax",%progbits
 1090              		.align	2
 1091              		.global	AnalogSetDefault
 1092              		.thumb
 1093              		.thumb_func
 1094              		.type	AnalogSetDefault, %function
 1095              	AnalogSetDefault:
 1096              	.LFB5:
 701:.\Generated_Source\PSoC5/cyfitter_cfg.c **** 
 702:.\Generated_Source\PSoC5/cyfitter_cfg.c **** 
 703:.\Generated_Source\PSoC5/cyfitter_cfg.c **** /* Analog API Functions */
 704:.\Generated_Source\PSoC5/cyfitter_cfg.c **** 
 705:.\Generated_Source\PSoC5/cyfitter_cfg.c **** /*******************************************************************************
 706:.\Generated_Source\PSoC5/cyfitter_cfg.c **** * Function Name: AnalogSetDefault
 707:.\Generated_Source\PSoC5/cyfitter_cfg.c **** ********************************************************************************
 708:.\Generated_Source\PSoC5/cyfitter_cfg.c **** *
 709:.\Generated_Source\PSoC5/cyfitter_cfg.c **** * Summary:
 710:.\Generated_Source\PSoC5/cyfitter_cfg.c **** *  Sets up the analog portions of the chip to default values based on chip
 711:.\Generated_Source\PSoC5/cyfitter_cfg.c **** *  configuration options from the project.
 712:.\Generated_Source\PSoC5/cyfitter_cfg.c **** *
 713:.\Generated_Source\PSoC5/cyfitter_cfg.c **** * Parameters:
 714:.\Generated_Source\PSoC5/cyfitter_cfg.c **** *  void
 715:.\Generated_Source\PSoC5/cyfitter_cfg.c **** *
 716:.\Generated_Source\PSoC5/cyfitter_cfg.c **** * Return:
 717:.\Generated_Source\PSoC5/cyfitter_cfg.c **** *  void
 718:.\Generated_Source\PSoC5/cyfitter_cfg.c **** *
 719:.\Generated_Source\PSoC5/cyfitter_cfg.c **** *******************************************************************************/
 720:.\Generated_Source\PSoC5/cyfitter_cfg.c **** void AnalogSetDefault(void)
 721:.\Generated_Source\PSoC5/cyfitter_cfg.c **** {
 1097              		.loc 1 721 0
 1098              		.cfi_startproc
 1099              		@ args = 0, pretend = 0, frame = 0
ARM GAS  C:\Users\Geo\AppData\Local\Temp\ccVeTRuu.s 			page 33


 1100              		@ frame_needed = 1, uses_anonymous_args = 0
 1101              		@ link register save eliminated.
 1102 0000 80B4     		push	{r7}
 1103              	.LCFI15:
 1104              		.cfi_def_cfa_offset 4
 1105 0002 00AF     		add	r7, sp, #0
 1106              		.cfi_offset 7, -4
 1107              	.LCFI16:
 1108              		.cfi_def_cfa_register 7
 722:.\Generated_Source\PSoC5/cyfitter_cfg.c **** 	CY_SET_XTND_REG16(CYREG_PM_ACT_CFG10, 0x0310);
 1109              		.loc 1 722 0
 1110 0004 44F2AA33 		movw	r3, #:lower16:1073759146
 1111 0008 C4F20003 		movt	r3, #:upper16:1073759146
 1112 000c 4FF44472 		mov	r2, #784
 1113 0010 1A80     		strh	r2, [r3, #0]	@ movhi
 723:.\Generated_Source\PSoC5/cyfitter_cfg.c **** 	CY_SET_XTND_REG8(CYREG_PRT4_AG, 0x20);
 1114              		.loc 1 723 0
 1115 0012 45F24D13 		movw	r3, #:lower16:1073762637
 1116 0016 C4F20003 		movt	r3, #:upper16:1073762637
 1117 001a 4FF02002 		mov	r2, #32
 1118 001e 1A70     		strb	r2, [r3, #0]
 724:.\Generated_Source\PSoC5/cyfitter_cfg.c **** 	CY_SET_XTND_REG8(CYREG_DAC0_CR0, 0x1E);
 1119              		.loc 1 724 0
 1120 0020 45F62003 		movw	r3, #:lower16:1073764384
 1121 0024 C4F20003 		movt	r3, #:upper16:1073764384
 1122 0028 4FF01E02 		mov	r2, #30
 1123 002c 1A70     		strb	r2, [r3, #0]
 725:.\Generated_Source\PSoC5/cyfitter_cfg.c **** 	CY_SET_XTND_REG8(CYREG_DAC1_CR0, 0x1E);
 1124              		.loc 1 725 0
 1125 002e 45F62403 		movw	r3, #:lower16:1073764388
 1126 0032 C4F20003 		movt	r3, #:upper16:1073764388
 1127 0036 4FF01E02 		mov	r2, #30
 1128 003a 1A70     		strb	r2, [r3, #0]
 726:.\Generated_Source\PSoC5/cyfitter_cfg.c **** 	CY_SET_XTND_REG8(CYREG_DAC2_CR0, 0x1E);
 1129              		.loc 1 726 0
 1130 003c 45F62803 		movw	r3, #:lower16:1073764392
 1131 0040 C4F20003 		movt	r3, #:upper16:1073764392
 1132 0044 4FF01E02 		mov	r2, #30
 1133 0048 1A70     		strb	r2, [r3, #0]
 727:.\Generated_Source\PSoC5/cyfitter_cfg.c **** 	CY_SET_XTND_REG8(CYREG_DAC3_CR0, 0x1E);
 1134              		.loc 1 727 0
 1135 004a 45F62C03 		movw	r3, #:lower16:1073764396
 1136 004e C4F20003 		movt	r3, #:upper16:1073764396
 1137 0052 4FF01E02 		mov	r2, #30
 1138 0056 1A70     		strb	r2, [r3, #0]
 728:.\Generated_Source\PSoC5/cyfitter_cfg.c **** 	CY_SET_XTND_REG8(CYREG_BG_CR0, 0x08);
 1139              		.loc 1 728 0
 1140 0058 45F66C03 		movw	r3, #:lower16:1073764460
 1141 005c C4F20003 		movt	r3, #:upper16:1073764460
 1142 0060 4FF00802 		mov	r2, #8
 1143 0064 1A70     		strb	r2, [r3, #0]
 729:.\Generated_Source\PSoC5/cyfitter_cfg.c **** 	CY_SET_XTND_REG8(CYREG_CAPSL_CFG0, 0x00);
 1144              		.loc 1 729 0
 1145 0066 45F67003 		movw	r3, #:lower16:1073764464
 1146 006a C4F20003 		movt	r3, #:upper16:1073764464
 1147 006e 4FF00002 		mov	r2, #0
 1148 0072 1A70     		strb	r2, [r3, #0]
ARM GAS  C:\Users\Geo\AppData\Local\Temp\ccVeTRuu.s 			page 34


 730:.\Generated_Source\PSoC5/cyfitter_cfg.c **** 	CY_SET_XTND_REG16(CYREG_SAR0_CSR0, 0x40C0);
 1149              		.loc 1 730 0
 1150 0074 45F60013 		movw	r3, #:lower16:1073764608
 1151 0078 C4F20003 		movt	r3, #:upper16:1073764608
 1152 007c 44F2C002 		movw	r2, #16576
 1153 0080 1A80     		strh	r2, [r3, #0]	@ movhi
 731:.\Generated_Source\PSoC5/cyfitter_cfg.c **** 	CY_SET_XTND_REG8(CYREG_SAR0_CSR3, 0x0C);
 1154              		.loc 1 731 0
 1155 0082 45F60313 		movw	r3, #:lower16:1073764611
 1156 0086 C4F20003 		movt	r3, #:upper16:1073764611
 1157 008a 4FF00C02 		mov	r2, #12
 1158 008e 1A70     		strb	r2, [r3, #0]
 732:.\Generated_Source\PSoC5/cyfitter_cfg.c **** 	CY_SET_XTND_REG8(CYREG_SAR1_CSR0, 0xC0);
 1159              		.loc 1 732 0
 1160 0090 45F60813 		movw	r3, #:lower16:1073764616
 1161 0094 C4F20003 		movt	r3, #:upper16:1073764616
 1162 0098 6FF03F02 		mvn	r2, #63
 1163 009c 1A70     		strb	r2, [r3, #0]
 733:.\Generated_Source\PSoC5/cyfitter_cfg.c **** 	CY_SET_XTND_REG8(CYREG_SAR1_CSR3, 0x0C);
 1164              		.loc 1 733 0
 1165 009e 45F60B13 		movw	r3, #:lower16:1073764619
 1166 00a2 C4F20003 		movt	r3, #:upper16:1073764619
 1167 00a6 4FF00C02 		mov	r2, #12
 1168 00aa 1A70     		strb	r2, [r3, #0]
 734:.\Generated_Source\PSoC5/cyfitter_cfg.c **** 	CY_SET_XTND_REG8(CYREG_CMP0_SW3, 0x20);
 1169              		.loc 1 734 0
 1170 00ac 45F6C323 		movw	r3, #:lower16:1073765059
 1171 00b0 C4F20003 		movt	r3, #:upper16:1073765059
 1172 00b4 4FF02002 		mov	r2, #32
 1173 00b8 1A70     		strb	r2, [r3, #0]
 735:.\Generated_Source\PSoC5/cyfitter_cfg.c **** 	CY_SET_XTND_REG8(CYREG_DSM0_SW0, 0x21);
 1174              		.loc 1 735 0
 1175 00ba 45F60033 		movw	r3, #:lower16:1073765120
 1176 00be C4F20003 		movt	r3, #:upper16:1073765120
 1177 00c2 4FF02102 		mov	r2, #33
 1178 00c6 1A70     		strb	r2, [r3, #0]
 736:.\Generated_Source\PSoC5/cyfitter_cfg.c **** 	CY_SET_XTND_REG8(CYREG_SAR0_SW3, 0x20);
 1179              		.loc 1 736 0
 1180 00c8 45F62333 		movw	r3, #:lower16:1073765155
 1181 00cc C4F20003 		movt	r3, #:upper16:1073765155
 1182 00d0 4FF02002 		mov	r2, #32
 1183 00d4 1A70     		strb	r2, [r3, #0]
 737:.\Generated_Source\PSoC5/cyfitter_cfg.c **** 	CY_SET_XTND_REG8(CYREG_ABUF2_MX, 0x20);
 1184              		.loc 1 737 0
 1185 00d6 45F64433 		movw	r3, #:lower16:1073765188
 1186 00da C4F20003 		movt	r3, #:upper16:1073765188
 1187 00de 4FF02002 		mov	r2, #32
 1188 00e2 1A70     		strb	r2, [r3, #0]
 738:.\Generated_Source\PSoC5/cyfitter_cfg.c **** 	CY_SET_XTND_REG8(CYREG_BUS_SW3, 0x01);
 1189              		.loc 1 738 0
 1190 00e4 45F65B33 		movw	r3, #:lower16:1073765211
 1191 00e8 C4F20003 		movt	r3, #:upper16:1073765211
 1192 00ec 4FF00102 		mov	r2, #1
 1193 00f0 1A70     		strb	r2, [r3, #0]
 739:.\Generated_Source\PSoC5/cyfitter_cfg.c **** 	CY_SET_XTND_REG8(CYREG_PUMP_CR0, 0x66);
 1194              		.loc 1 739 0
 1195 00f2 45F67603 		movw	r3, #:lower16:1073764470
ARM GAS  C:\Users\Geo\AppData\Local\Temp\ccVeTRuu.s 			page 35


 1196 00f6 C4F20003 		movt	r3, #:upper16:1073764470
 1197 00fa 4FF06602 		mov	r2, #102
 1198 00fe 1A70     		strb	r2, [r3, #0]
 740:.\Generated_Source\PSoC5/cyfitter_cfg.c **** }
 1199              		.loc 1 740 0
 1200 0100 BD46     		mov	sp, r7
 1201 0102 80BC     		pop	{r7}
 1202 0104 7047     		bx	lr
 1203              		.cfi_endproc
 1204              	.LFE5:
 1205              		.size	AnalogSetDefault, .-AnalogSetDefault
 1206              		.global	AMuxAdc__addrTable
 1207 0106 00BF     		.section	.rodata
 1208              		.align	2
 1209              		.type	AMuxAdc__addrTable, %object
 1210              		.size	AMuxAdc__addrTable, 16
 1211              	AMuxAdc__addrTable:
 1212 012c 455B0040 		.word	1073765189
 1213 0130 205B0040 		.word	1073765152
 1214 0134 2D510040 		.word	1073762605
 1215 0138 205B0040 		.word	1073765152
 1216              		.global	AMuxAdc__maskTable
 1217              		.align	2
 1218              		.type	AMuxAdc__maskTable, %object
 1219              		.size	AMuxAdc__maskTable, 4
 1220              	AMuxAdc__maskTable:
 1221 013c 02       		.byte	2
 1222 013d 80       		.byte	-128
 1223 013e 08       		.byte	8
 1224 013f 08       		.byte	8
 1225              		.section	.text.AMuxAdc_Set,"ax",%progbits
 1226              		.align	2
 1227              		.global	AMuxAdc_Set
 1228              		.thumb
 1229              		.thumb_func
 1230              		.type	AMuxAdc_Set, %function
 1231              	AMuxAdc_Set:
 1232              	.LFB6:
 741:.\Generated_Source\PSoC5/cyfitter_cfg.c **** 
 742:.\Generated_Source\PSoC5/cyfitter_cfg.c **** #define CY_AMUX_UNUSED CYREG_BOOST_SR
 743:.\Generated_Source\PSoC5/cyfitter_cfg.c **** /* Table used to specify registers used to implement AMuxAdc */
 744:.\Generated_Source\PSoC5/cyfitter_cfg.c **** uint8 CYXDATA * const CYCODE AMuxAdc__addrTable[] = {
 745:.\Generated_Source\PSoC5/cyfitter_cfg.c **** 	(uint8 CYXDATA *)CYREG_ABUF2_SW, (uint8 CYXDATA *)CYREG_SAR0_SW0, 
 746:.\Generated_Source\PSoC5/cyfitter_cfg.c **** 	(uint8 CYXDATA *)CYREG_PRT2_AG, (uint8 CYXDATA *)CYREG_SAR0_SW0, 
 747:.\Generated_Source\PSoC5/cyfitter_cfg.c **** };
 748:.\Generated_Source\PSoC5/cyfitter_cfg.c **** 
 749:.\Generated_Source\PSoC5/cyfitter_cfg.c **** /* Table used to define bit masks used to enable inputs for AMuxAdc */
 750:.\Generated_Source\PSoC5/cyfitter_cfg.c **** const uint8 CYCODE AMuxAdc__maskTable[] = {
 751:.\Generated_Source\PSoC5/cyfitter_cfg.c **** 	0x02, 0x80, 
 752:.\Generated_Source\PSoC5/cyfitter_cfg.c **** 	0x08, 0x08, 
 753:.\Generated_Source\PSoC5/cyfitter_cfg.c **** };
 754:.\Generated_Source\PSoC5/cyfitter_cfg.c **** 
 755:.\Generated_Source\PSoC5/cyfitter_cfg.c **** /*******************************************************************************
 756:.\Generated_Source\PSoC5/cyfitter_cfg.c **** * Function Name: AMuxAdc_Set
 757:.\Generated_Source\PSoC5/cyfitter_cfg.c **** ********************************************************************************
 758:.\Generated_Source\PSoC5/cyfitter_cfg.c **** * Summary:
 759:.\Generated_Source\PSoC5/cyfitter_cfg.c **** *  This function is used to set a particular channel as active on the AMux.
ARM GAS  C:\Users\Geo\AppData\Local\Temp\ccVeTRuu.s 			page 36


 760:.\Generated_Source\PSoC5/cyfitter_cfg.c **** *
 761:.\Generated_Source\PSoC5/cyfitter_cfg.c **** * Parameters:  
 762:.\Generated_Source\PSoC5/cyfitter_cfg.c **** *   channel - The mux channel input to set as active
 763:.\Generated_Source\PSoC5/cyfitter_cfg.c **** *
 764:.\Generated_Source\PSoC5/cyfitter_cfg.c **** * Return:
 765:.\Generated_Source\PSoC5/cyfitter_cfg.c **** *   void
 766:.\Generated_Source\PSoC5/cyfitter_cfg.c **** *
 767:.\Generated_Source\PSoC5/cyfitter_cfg.c **** *******************************************************************************/
 768:.\Generated_Source\PSoC5/cyfitter_cfg.c **** void AMuxAdc_Set(uint8 channel)
 769:.\Generated_Source\PSoC5/cyfitter_cfg.c **** {
 1233              		.loc 1 769 0
 1234              		.cfi_startproc
 1235              		@ args = 0, pretend = 0, frame = 8
 1236              		@ frame_needed = 1, uses_anonymous_args = 0
 1237              		@ link register save eliminated.
 1238 0000 80B4     		push	{r7}
 1239              	.LCFI17:
 1240              		.cfi_def_cfa_offset 4
 1241 0002 83B0     		sub	sp, sp, #12
 1242              	.LCFI18:
 1243              		.cfi_def_cfa_offset 16
 1244 0004 00AF     		add	r7, sp, #0
 1245              		.cfi_offset 7, -4
 1246              	.LCFI19:
 1247              		.cfi_def_cfa_register 7
 1248 0006 0346     		mov	r3, r0
 1249 0008 FB71     		strb	r3, [r7, #7]
 770:.\Generated_Source\PSoC5/cyfitter_cfg.c **** 	if (channel >= 2)
 1250              		.loc 1 770 0
 1251 000a FB79     		ldrb	r3, [r7, #7]	@ zero_extendqisi2
 1252 000c 012B     		cmp	r3, #1
 1253 000e 3AD8     		bhi	.L30
 1254              	.L27:
 771:.\Generated_Source\PSoC5/cyfitter_cfg.c **** 		return;
 772:.\Generated_Source\PSoC5/cyfitter_cfg.c **** 	channel += channel;
 1255              		.loc 1 772 0
 1256 0010 FA79     		ldrb	r2, [r7, #7]
 1257 0012 FB79     		ldrb	r3, [r7, #7]
 1258 0014 1344     		add	r3, r2, r3
 1259 0016 FB71     		strb	r3, [r7, #7]
 773:.\Generated_Source\PSoC5/cyfitter_cfg.c **** 	*AMuxAdc__addrTable[channel] |= AMuxAdc__maskTable[channel];
 1260              		.loc 1 773 0
 1261 0018 FA79     		ldrb	r2, [r7, #7]	@ zero_extendqisi2
 1262 001a 40F20003 		movw	r3, #:lower16:AMuxAdc__addrTable
 1263 001e C0F20003 		movt	r3, #:upper16:AMuxAdc__addrTable
 1264 0022 53F82220 		ldr	r2, [r3, r2, lsl #2]
 1265 0026 F979     		ldrb	r1, [r7, #7]	@ zero_extendqisi2
 1266 0028 40F20003 		movw	r3, #:lower16:AMuxAdc__addrTable
 1267 002c C0F20003 		movt	r3, #:upper16:AMuxAdc__addrTable
 1268 0030 53F82130 		ldr	r3, [r3, r1, lsl #2]
 1269 0034 1978     		ldrb	r1, [r3, #0]	@ zero_extendqisi2
 1270 0036 F879     		ldrb	r0, [r7, #7]	@ zero_extendqisi2
 1271 0038 40F20003 		movw	r3, #:lower16:AMuxAdc__maskTable
 1272 003c C0F20003 		movt	r3, #:upper16:AMuxAdc__maskTable
 1273 0040 1B5C     		ldrb	r3, [r3, r0]	@ zero_extendqisi2
 1274 0042 41EA0303 		orr	r3, r1, r3
 1275 0046 DBB2     		uxtb	r3, r3
ARM GAS  C:\Users\Geo\AppData\Local\Temp\ccVeTRuu.s 			page 37


 1276 0048 1370     		strb	r3, [r2, #0]
 774:.\Generated_Source\PSoC5/cyfitter_cfg.c **** 	channel++;
 1277              		.loc 1 774 0
 1278 004a FB79     		ldrb	r3, [r7, #7]
 1279 004c 03F10103 		add	r3, r3, #1
 1280 0050 FB71     		strb	r3, [r7, #7]
 775:.\Generated_Source\PSoC5/cyfitter_cfg.c **** 	*AMuxAdc__addrTable[channel] |= AMuxAdc__maskTable[channel];
 1281              		.loc 1 775 0
 1282 0052 FA79     		ldrb	r2, [r7, #7]	@ zero_extendqisi2
 1283 0054 40F20003 		movw	r3, #:lower16:AMuxAdc__addrTable
 1284 0058 C0F20003 		movt	r3, #:upper16:AMuxAdc__addrTable
 1285 005c 53F82220 		ldr	r2, [r3, r2, lsl #2]
 1286 0060 F979     		ldrb	r1, [r7, #7]	@ zero_extendqisi2
 1287 0062 40F20003 		movw	r3, #:lower16:AMuxAdc__addrTable
 1288 0066 C0F20003 		movt	r3, #:upper16:AMuxAdc__addrTable
 1289 006a 53F82130 		ldr	r3, [r3, r1, lsl #2]
 1290 006e 1978     		ldrb	r1, [r3, #0]	@ zero_extendqisi2
 1291 0070 F879     		ldrb	r0, [r7, #7]	@ zero_extendqisi2
 1292 0072 40F20003 		movw	r3, #:lower16:AMuxAdc__maskTable
 1293 0076 C0F20003 		movt	r3, #:upper16:AMuxAdc__maskTable
 1294 007a 1B5C     		ldrb	r3, [r3, r0]	@ zero_extendqisi2
 1295 007c 41EA0303 		orr	r3, r1, r3
 1296 0080 DBB2     		uxtb	r3, r3
 1297 0082 1370     		strb	r3, [r2, #0]
 1298 0084 00E0     		b	.L29
 1299              	.L30:
 1300              		.loc 1 771 0
 1301 0086 00BF     		nop
 1302              	.L29:
 776:.\Generated_Source\PSoC5/cyfitter_cfg.c **** }
 1303              		.loc 1 776 0
 1304 0088 07F10C07 		add	r7, r7, #12
 1305 008c BD46     		mov	sp, r7
 1306 008e 80BC     		pop	{r7}
 1307 0090 7047     		bx	lr
 1308              		.cfi_endproc
 1309              	.LFE6:
 1310              		.size	AMuxAdc_Set, .-AMuxAdc_Set
 1311 0092 00BF     		.section	.text.AMuxAdc_Unset,"ax",%progbits
 1312              		.align	2
 1313              		.global	AMuxAdc_Unset
 1314              		.thumb
 1315              		.thumb_func
 1316              		.type	AMuxAdc_Unset, %function
 1317              	AMuxAdc_Unset:
 1318              	.LFB7:
 777:.\Generated_Source\PSoC5/cyfitter_cfg.c **** 
 778:.\Generated_Source\PSoC5/cyfitter_cfg.c **** /*******************************************************************************
 779:.\Generated_Source\PSoC5/cyfitter_cfg.c **** * Function Name: AMuxAdc_Unset
 780:.\Generated_Source\PSoC5/cyfitter_cfg.c **** ********************************************************************************
 781:.\Generated_Source\PSoC5/cyfitter_cfg.c **** * Summary:
 782:.\Generated_Source\PSoC5/cyfitter_cfg.c **** *  This function is used to clear a particular channel from being active on the
 783:.\Generated_Source\PSoC5/cyfitter_cfg.c **** *  AMux.
 784:.\Generated_Source\PSoC5/cyfitter_cfg.c **** *
 785:.\Generated_Source\PSoC5/cyfitter_cfg.c **** * Parameters:  
 786:.\Generated_Source\PSoC5/cyfitter_cfg.c **** *   channel - The mux channel input to mark inactive
 787:.\Generated_Source\PSoC5/cyfitter_cfg.c **** *
ARM GAS  C:\Users\Geo\AppData\Local\Temp\ccVeTRuu.s 			page 38


 788:.\Generated_Source\PSoC5/cyfitter_cfg.c **** * Return:
 789:.\Generated_Source\PSoC5/cyfitter_cfg.c **** *   void
 790:.\Generated_Source\PSoC5/cyfitter_cfg.c **** *
 791:.\Generated_Source\PSoC5/cyfitter_cfg.c **** *******************************************************************************/
 792:.\Generated_Source\PSoC5/cyfitter_cfg.c **** void AMuxAdc_Unset(uint8 channel)
 793:.\Generated_Source\PSoC5/cyfitter_cfg.c **** {
 1319              		.loc 1 793 0
 1320              		.cfi_startproc
 1321              		@ args = 0, pretend = 0, frame = 8
 1322              		@ frame_needed = 1, uses_anonymous_args = 0
 1323              		@ link register save eliminated.
 1324 0000 80B4     		push	{r7}
 1325              	.LCFI20:
 1326              		.cfi_def_cfa_offset 4
 1327 0002 83B0     		sub	sp, sp, #12
 1328              	.LCFI21:
 1329              		.cfi_def_cfa_offset 16
 1330 0004 00AF     		add	r7, sp, #0
 1331              		.cfi_offset 7, -4
 1332              	.LCFI22:
 1333              		.cfi_def_cfa_register 7
 1334 0006 0346     		mov	r3, r0
 1335 0008 FB71     		strb	r3, [r7, #7]
 794:.\Generated_Source\PSoC5/cyfitter_cfg.c **** 	if (channel >= 2)
 1336              		.loc 1 794 0
 1337 000a FB79     		ldrb	r3, [r7, #7]	@ zero_extendqisi2
 1338 000c 012B     		cmp	r3, #1
 1339 000e 44D8     		bhi	.L35
 1340              	.L32:
 795:.\Generated_Source\PSoC5/cyfitter_cfg.c **** 		return;
 796:.\Generated_Source\PSoC5/cyfitter_cfg.c **** 	channel += channel;
 1341              		.loc 1 796 0
 1342 0010 FA79     		ldrb	r2, [r7, #7]
 1343 0012 FB79     		ldrb	r3, [r7, #7]
 1344 0014 1344     		add	r3, r2, r3
 1345 0016 FB71     		strb	r3, [r7, #7]
 797:.\Generated_Source\PSoC5/cyfitter_cfg.c **** 	*AMuxAdc__addrTable[channel] &= ~AMuxAdc__maskTable[channel];
 1346              		.loc 1 797 0
 1347 0018 FA79     		ldrb	r2, [r7, #7]	@ zero_extendqisi2
 1348 001a 40F20003 		movw	r3, #:lower16:AMuxAdc__addrTable
 1349 001e C0F20003 		movt	r3, #:upper16:AMuxAdc__addrTable
 1350 0022 53F82220 		ldr	r2, [r3, r2, lsl #2]
 1351 0026 F979     		ldrb	r1, [r7, #7]	@ zero_extendqisi2
 1352 0028 40F20003 		movw	r3, #:lower16:AMuxAdc__addrTable
 1353 002c C0F20003 		movt	r3, #:upper16:AMuxAdc__addrTable
 1354 0030 53F82130 		ldr	r3, [r3, r1, lsl #2]
 1355 0034 1B78     		ldrb	r3, [r3, #0]	@ zero_extendqisi2
 1356 0036 1946     		mov	r1, r3
 1357 0038 F879     		ldrb	r0, [r7, #7]	@ zero_extendqisi2
 1358 003a 40F20003 		movw	r3, #:lower16:AMuxAdc__maskTable
 1359 003e C0F20003 		movt	r3, #:upper16:AMuxAdc__maskTable
 1360 0042 1B5C     		ldrb	r3, [r3, r0]	@ zero_extendqisi2
 1361 0044 6FEA0303 		mvn	r3, r3
 1362 0048 DBB2     		uxtb	r3, r3
 1363 004a 01EA0303 		and	r3, r1, r3
 1364 004e DBB2     		uxtb	r3, r3
 1365 0050 DBB2     		uxtb	r3, r3
ARM GAS  C:\Users\Geo\AppData\Local\Temp\ccVeTRuu.s 			page 39


 1366 0052 1370     		strb	r3, [r2, #0]
 798:.\Generated_Source\PSoC5/cyfitter_cfg.c **** 	channel++;
 1367              		.loc 1 798 0
 1368 0054 FB79     		ldrb	r3, [r7, #7]
 1369 0056 03F10103 		add	r3, r3, #1
 1370 005a FB71     		strb	r3, [r7, #7]
 799:.\Generated_Source\PSoC5/cyfitter_cfg.c **** 	*AMuxAdc__addrTable[channel] &= ~AMuxAdc__maskTable[channel];
 1371              		.loc 1 799 0
 1372 005c FA79     		ldrb	r2, [r7, #7]	@ zero_extendqisi2
 1373 005e 40F20003 		movw	r3, #:lower16:AMuxAdc__addrTable
 1374 0062 C0F20003 		movt	r3, #:upper16:AMuxAdc__addrTable
 1375 0066 53F82220 		ldr	r2, [r3, r2, lsl #2]
 1376 006a F979     		ldrb	r1, [r7, #7]	@ zero_extendqisi2
 1377 006c 40F20003 		movw	r3, #:lower16:AMuxAdc__addrTable
 1378 0070 C0F20003 		movt	r3, #:upper16:AMuxAdc__addrTable
 1379 0074 53F82130 		ldr	r3, [r3, r1, lsl #2]
 1380 0078 1B78     		ldrb	r3, [r3, #0]	@ zero_extendqisi2
 1381 007a 1946     		mov	r1, r3
 1382 007c F879     		ldrb	r0, [r7, #7]	@ zero_extendqisi2
 1383 007e 40F20003 		movw	r3, #:lower16:AMuxAdc__maskTable
 1384 0082 C0F20003 		movt	r3, #:upper16:AMuxAdc__maskTable
 1385 0086 1B5C     		ldrb	r3, [r3, r0]	@ zero_extendqisi2
 1386 0088 6FEA0303 		mvn	r3, r3
 1387 008c DBB2     		uxtb	r3, r3
 1388 008e 01EA0303 		and	r3, r1, r3
 1389 0092 DBB2     		uxtb	r3, r3
 1390 0094 DBB2     		uxtb	r3, r3
 1391 0096 1370     		strb	r3, [r2, #0]
 1392 0098 00E0     		b	.L34
 1393              	.L35:
 1394              		.loc 1 795 0
 1395 009a 00BF     		nop
 1396              	.L34:
 800:.\Generated_Source\PSoC5/cyfitter_cfg.c **** }
 1397              		.loc 1 800 0
 1398 009c 07F10C07 		add	r7, r7, #12
 1399 00a0 BD46     		mov	sp, r7
 1400 00a2 80BC     		pop	{r7}
 1401 00a4 7047     		bx	lr
 1402              		.cfi_endproc
 1403              	.LFE7:
 1404              		.size	AMuxAdc_Unset, .-AMuxAdc_Unset
 1405              		.global	CapSense_AMuxCH0__addrTable
 1406 00a6 00BF     		.section	.rodata
 1407              		.align	2
 1408              		.type	CapSense_AMuxCH0__addrTable, %object
 1409              		.size	CapSense_AMuxCH0__addrTable, 28
 1410              	CapSense_AMuxCH0__addrTable:
 1411 0140 5C510040 		.word	1073762652
 1412 0144 3C510040 		.word	1073762620
 1413 0148 2C510040 		.word	1073762604
 1414 014c 0C510040 		.word	1073762572
 1415 0150 4C510040 		.word	1073762636
 1416 0154 C35A0040 		.word	1073765059
 1417 0158 835A0040 		.word	1073764995
 1418              		.global	CapSense_AMuxCH0__maskTable
 1419              		.align	2
ARM GAS  C:\Users\Geo\AppData\Local\Temp\ccVeTRuu.s 			page 40


 1420              		.type	CapSense_AMuxCH0__maskTable, %object
 1421              		.size	CapSense_AMuxCH0__maskTable, 7
 1422              	CapSense_AMuxCH0__maskTable:
 1423 015c 04       		.byte	4
 1424 015d 80       		.byte	-128
 1425 015e 20       		.byte	32
 1426 015f 80       		.byte	-128
 1427 0160 20       		.byte	32
 1428 0161 01       		.byte	1
 1429 0162 10       		.byte	16
 1430 0163 00       		.section	.text.CapSense_AMuxCH0_Set,"ax",%progbits
 1431              		.align	2
 1432              		.global	CapSense_AMuxCH0_Set
 1433              		.thumb
 1434              		.thumb_func
 1435              		.type	CapSense_AMuxCH0_Set, %function
 1436              	CapSense_AMuxCH0_Set:
 1437              	.LFB8:
 801:.\Generated_Source\PSoC5/cyfitter_cfg.c **** 
 802:.\Generated_Source\PSoC5/cyfitter_cfg.c **** /* Table used to specify registers used to implement CapSense_AMuxCH0 */
 803:.\Generated_Source\PSoC5/cyfitter_cfg.c **** uint8 CYXDATA * const CYCODE CapSense_AMuxCH0__addrTable[] = {
 804:.\Generated_Source\PSoC5/cyfitter_cfg.c **** 	(uint8 CYXDATA *)CYREG_PRT5_AMUX, 
 805:.\Generated_Source\PSoC5/cyfitter_cfg.c **** 	(uint8 CYXDATA *)CYREG_PRT3_AMUX, 
 806:.\Generated_Source\PSoC5/cyfitter_cfg.c **** 	(uint8 CYXDATA *)CYREG_PRT2_AMUX, 
 807:.\Generated_Source\PSoC5/cyfitter_cfg.c **** 	(uint8 CYXDATA *)CYREG_PRT0_AMUX, 
 808:.\Generated_Source\PSoC5/cyfitter_cfg.c **** 	(uint8 CYXDATA *)CYREG_PRT4_AMUX, 
 809:.\Generated_Source\PSoC5/cyfitter_cfg.c **** 	(uint8 CYXDATA *)CYREG_CMP0_SW3, 
 810:.\Generated_Source\PSoC5/cyfitter_cfg.c **** 	(uint8 CYXDATA *)CYREG_DAC0_SW3, 
 811:.\Generated_Source\PSoC5/cyfitter_cfg.c **** };
 812:.\Generated_Source\PSoC5/cyfitter_cfg.c **** 
 813:.\Generated_Source\PSoC5/cyfitter_cfg.c **** /* Table used to define bit masks used to enable inputs for CapSense_AMuxCH0 */
 814:.\Generated_Source\PSoC5/cyfitter_cfg.c **** const uint8 CYCODE CapSense_AMuxCH0__maskTable[] = {
 815:.\Generated_Source\PSoC5/cyfitter_cfg.c **** 	0x04, 
 816:.\Generated_Source\PSoC5/cyfitter_cfg.c **** 	0x80, 
 817:.\Generated_Source\PSoC5/cyfitter_cfg.c **** 	0x20, 
 818:.\Generated_Source\PSoC5/cyfitter_cfg.c **** 	0x80, 
 819:.\Generated_Source\PSoC5/cyfitter_cfg.c **** 	0x20, 
 820:.\Generated_Source\PSoC5/cyfitter_cfg.c **** 	0x01, 
 821:.\Generated_Source\PSoC5/cyfitter_cfg.c **** 	0x10, 
 822:.\Generated_Source\PSoC5/cyfitter_cfg.c **** };
 823:.\Generated_Source\PSoC5/cyfitter_cfg.c **** 
 824:.\Generated_Source\PSoC5/cyfitter_cfg.c **** /*******************************************************************************
 825:.\Generated_Source\PSoC5/cyfitter_cfg.c **** * Function Name: CapSense_AMuxCH0_Set
 826:.\Generated_Source\PSoC5/cyfitter_cfg.c **** ********************************************************************************
 827:.\Generated_Source\PSoC5/cyfitter_cfg.c **** * Summary:
 828:.\Generated_Source\PSoC5/cyfitter_cfg.c **** *  This function is used to set a particular channel as active on the AMux.
 829:.\Generated_Source\PSoC5/cyfitter_cfg.c **** *
 830:.\Generated_Source\PSoC5/cyfitter_cfg.c **** * Parameters:  
 831:.\Generated_Source\PSoC5/cyfitter_cfg.c **** *   channel - The mux channel input to set as active
 832:.\Generated_Source\PSoC5/cyfitter_cfg.c **** *
 833:.\Generated_Source\PSoC5/cyfitter_cfg.c **** * Return:
 834:.\Generated_Source\PSoC5/cyfitter_cfg.c **** *   void
 835:.\Generated_Source\PSoC5/cyfitter_cfg.c **** *
 836:.\Generated_Source\PSoC5/cyfitter_cfg.c **** *******************************************************************************/
 837:.\Generated_Source\PSoC5/cyfitter_cfg.c **** void CapSense_AMuxCH0_Set(uint8 channel)
 838:.\Generated_Source\PSoC5/cyfitter_cfg.c **** {
 1438              		.loc 1 838 0
ARM GAS  C:\Users\Geo\AppData\Local\Temp\ccVeTRuu.s 			page 41


 1439              		.cfi_startproc
 1440              		@ args = 0, pretend = 0, frame = 8
 1441              		@ frame_needed = 1, uses_anonymous_args = 0
 1442              		@ link register save eliminated.
 1443 0000 80B4     		push	{r7}
 1444              	.LCFI23:
 1445              		.cfi_def_cfa_offset 4
 1446 0002 83B0     		sub	sp, sp, #12
 1447              	.LCFI24:
 1448              		.cfi_def_cfa_offset 16
 1449 0004 00AF     		add	r7, sp, #0
 1450              		.cfi_offset 7, -4
 1451              	.LCFI25:
 1452              		.cfi_def_cfa_register 7
 1453 0006 0346     		mov	r3, r0
 1454 0008 FB71     		strb	r3, [r7, #7]
 839:.\Generated_Source\PSoC5/cyfitter_cfg.c **** 	if (channel >= 7)
 1455              		.loc 1 839 0
 1456 000a FB79     		ldrb	r3, [r7, #7]	@ zero_extendqisi2
 1457 000c 062B     		cmp	r3, #6
 1458 000e 19D8     		bhi	.L40
 1459              	.L37:
 840:.\Generated_Source\PSoC5/cyfitter_cfg.c **** 		return;
 841:.\Generated_Source\PSoC5/cyfitter_cfg.c **** 	*CapSense_AMuxCH0__addrTable[channel] |= CapSense_AMuxCH0__maskTable[channel];
 1460              		.loc 1 841 0
 1461 0010 FA79     		ldrb	r2, [r7, #7]	@ zero_extendqisi2
 1462 0012 40F20003 		movw	r3, #:lower16:CapSense_AMuxCH0__addrTable
 1463 0016 C0F20003 		movt	r3, #:upper16:CapSense_AMuxCH0__addrTable
 1464 001a 53F82220 		ldr	r2, [r3, r2, lsl #2]
 1465 001e F979     		ldrb	r1, [r7, #7]	@ zero_extendqisi2
 1466 0020 40F20003 		movw	r3, #:lower16:CapSense_AMuxCH0__addrTable
 1467 0024 C0F20003 		movt	r3, #:upper16:CapSense_AMuxCH0__addrTable
 1468 0028 53F82130 		ldr	r3, [r3, r1, lsl #2]
 1469 002c 1978     		ldrb	r1, [r3, #0]	@ zero_extendqisi2
 1470 002e F879     		ldrb	r0, [r7, #7]	@ zero_extendqisi2
 1471 0030 40F20003 		movw	r3, #:lower16:CapSense_AMuxCH0__maskTable
 1472 0034 C0F20003 		movt	r3, #:upper16:CapSense_AMuxCH0__maskTable
 1473 0038 1B5C     		ldrb	r3, [r3, r0]	@ zero_extendqisi2
 1474 003a 41EA0303 		orr	r3, r1, r3
 1475 003e DBB2     		uxtb	r3, r3
 1476 0040 1370     		strb	r3, [r2, #0]
 1477 0042 00E0     		b	.L39
 1478              	.L40:
 1479              		.loc 1 840 0
 1480 0044 00BF     		nop
 1481              	.L39:
 842:.\Generated_Source\PSoC5/cyfitter_cfg.c **** }
 1482              		.loc 1 842 0
 1483 0046 07F10C07 		add	r7, r7, #12
 1484 004a BD46     		mov	sp, r7
 1485 004c 80BC     		pop	{r7}
 1486 004e 7047     		bx	lr
 1487              		.cfi_endproc
 1488              	.LFE8:
 1489              		.size	CapSense_AMuxCH0_Set, .-CapSense_AMuxCH0_Set
 1490              		.section	.text.CapSense_AMuxCH0_Unset,"ax",%progbits
 1491              		.align	2
ARM GAS  C:\Users\Geo\AppData\Local\Temp\ccVeTRuu.s 			page 42


 1492              		.global	CapSense_AMuxCH0_Unset
 1493              		.thumb
 1494              		.thumb_func
 1495              		.type	CapSense_AMuxCH0_Unset, %function
 1496              	CapSense_AMuxCH0_Unset:
 1497              	.LFB9:
 843:.\Generated_Source\PSoC5/cyfitter_cfg.c **** 
 844:.\Generated_Source\PSoC5/cyfitter_cfg.c **** /*******************************************************************************
 845:.\Generated_Source\PSoC5/cyfitter_cfg.c **** * Function Name: CapSense_AMuxCH0_Unset
 846:.\Generated_Source\PSoC5/cyfitter_cfg.c **** ********************************************************************************
 847:.\Generated_Source\PSoC5/cyfitter_cfg.c **** * Summary:
 848:.\Generated_Source\PSoC5/cyfitter_cfg.c **** *  This function is used to clear a particular channel from being active on the
 849:.\Generated_Source\PSoC5/cyfitter_cfg.c **** *  AMux.
 850:.\Generated_Source\PSoC5/cyfitter_cfg.c **** *
 851:.\Generated_Source\PSoC5/cyfitter_cfg.c **** * Parameters:  
 852:.\Generated_Source\PSoC5/cyfitter_cfg.c **** *   channel - The mux channel input to mark inactive
 853:.\Generated_Source\PSoC5/cyfitter_cfg.c **** *
 854:.\Generated_Source\PSoC5/cyfitter_cfg.c **** * Return:
 855:.\Generated_Source\PSoC5/cyfitter_cfg.c **** *   void
 856:.\Generated_Source\PSoC5/cyfitter_cfg.c **** *
 857:.\Generated_Source\PSoC5/cyfitter_cfg.c **** *******************************************************************************/
 858:.\Generated_Source\PSoC5/cyfitter_cfg.c **** void CapSense_AMuxCH0_Unset(uint8 channel)
 859:.\Generated_Source\PSoC5/cyfitter_cfg.c **** {
 1498              		.loc 1 859 0
 1499              		.cfi_startproc
 1500              		@ args = 0, pretend = 0, frame = 8
 1501              		@ frame_needed = 1, uses_anonymous_args = 0
 1502              		@ link register save eliminated.
 1503 0000 80B4     		push	{r7}
 1504              	.LCFI26:
 1505              		.cfi_def_cfa_offset 4
 1506 0002 83B0     		sub	sp, sp, #12
 1507              	.LCFI27:
 1508              		.cfi_def_cfa_offset 16
 1509 0004 00AF     		add	r7, sp, #0
 1510              		.cfi_offset 7, -4
 1511              	.LCFI28:
 1512              		.cfi_def_cfa_register 7
 1513 0006 0346     		mov	r3, r0
 1514 0008 FB71     		strb	r3, [r7, #7]
 860:.\Generated_Source\PSoC5/cyfitter_cfg.c **** 	if (channel >= 7)
 1515              		.loc 1 860 0
 1516 000a FB79     		ldrb	r3, [r7, #7]	@ zero_extendqisi2
 1517 000c 062B     		cmp	r3, #6
 1518 000e 1ED8     		bhi	.L45
 1519              	.L42:
 861:.\Generated_Source\PSoC5/cyfitter_cfg.c **** 		return;
 862:.\Generated_Source\PSoC5/cyfitter_cfg.c **** 	*CapSense_AMuxCH0__addrTable[channel] &= ~CapSense_AMuxCH0__maskTable[channel];
 1520              		.loc 1 862 0
 1521 0010 FA79     		ldrb	r2, [r7, #7]	@ zero_extendqisi2
 1522 0012 40F20003 		movw	r3, #:lower16:CapSense_AMuxCH0__addrTable
 1523 0016 C0F20003 		movt	r3, #:upper16:CapSense_AMuxCH0__addrTable
 1524 001a 53F82220 		ldr	r2, [r3, r2, lsl #2]
 1525 001e F979     		ldrb	r1, [r7, #7]	@ zero_extendqisi2
 1526 0020 40F20003 		movw	r3, #:lower16:CapSense_AMuxCH0__addrTable
 1527 0024 C0F20003 		movt	r3, #:upper16:CapSense_AMuxCH0__addrTable
 1528 0028 53F82130 		ldr	r3, [r3, r1, lsl #2]
ARM GAS  C:\Users\Geo\AppData\Local\Temp\ccVeTRuu.s 			page 43


 1529 002c 1B78     		ldrb	r3, [r3, #0]	@ zero_extendqisi2
 1530 002e 1946     		mov	r1, r3
 1531 0030 F879     		ldrb	r0, [r7, #7]	@ zero_extendqisi2
 1532 0032 40F20003 		movw	r3, #:lower16:CapSense_AMuxCH0__maskTable
 1533 0036 C0F20003 		movt	r3, #:upper16:CapSense_AMuxCH0__maskTable
 1534 003a 1B5C     		ldrb	r3, [r3, r0]	@ zero_extendqisi2
 1535 003c 6FEA0303 		mvn	r3, r3
 1536 0040 DBB2     		uxtb	r3, r3
 1537 0042 01EA0303 		and	r3, r1, r3
 1538 0046 DBB2     		uxtb	r3, r3
 1539 0048 DBB2     		uxtb	r3, r3
 1540 004a 1370     		strb	r3, [r2, #0]
 1541 004c 00E0     		b	.L44
 1542              	.L45:
 1543              		.loc 1 861 0
 1544 004e 00BF     		nop
 1545              	.L44:
 863:.\Generated_Source\PSoC5/cyfitter_cfg.c **** }
 1546              		.loc 1 863 0
 1547 0050 07F10C07 		add	r7, r7, #12
 1548 0054 BD46     		mov	sp, r7
 1549 0056 80BC     		pop	{r7}
 1550 0058 7047     		bx	lr
 1551              		.cfi_endproc
 1552              	.LFE9:
 1553              		.size	CapSense_AMuxCH0_Unset, .-CapSense_AMuxCH0_Unset
 1554 005a 00BF     		.section	.text.cyfitter_cfg,"ax",%progbits
 1555              		.align	2
 1556              		.global	cyfitter_cfg
 1557              		.thumb
 1558              		.thumb_func
 1559              		.type	cyfitter_cfg, %function
 1560              	cyfitter_cfg:
 1561              	.LFB10:
 864:.\Generated_Source\PSoC5/cyfitter_cfg.c **** 
 865:.\Generated_Source\PSoC5/cyfitter_cfg.c **** 
 866:.\Generated_Source\PSoC5/cyfitter_cfg.c **** 
 867:.\Generated_Source\PSoC5/cyfitter_cfg.c **** /*******************************************************************************
 868:.\Generated_Source\PSoC5/cyfitter_cfg.c **** * Function Name: cyfitter_cfg
 869:.\Generated_Source\PSoC5/cyfitter_cfg.c **** ********************************************************************************
 870:.\Generated_Source\PSoC5/cyfitter_cfg.c **** * Summary:
 871:.\Generated_Source\PSoC5/cyfitter_cfg.c **** *  This function is called by the start-up code for the selected device. It
 872:.\Generated_Source\PSoC5/cyfitter_cfg.c **** *  performs all of the necessary device configuration based on the design
 873:.\Generated_Source\PSoC5/cyfitter_cfg.c **** *  settings.  This includes settings from the Design Wide Resources (DWR) such
 874:.\Generated_Source\PSoC5/cyfitter_cfg.c **** *  as Clocks and Pins as well as any component configuration that is necessary.
 875:.\Generated_Source\PSoC5/cyfitter_cfg.c **** *
 876:.\Generated_Source\PSoC5/cyfitter_cfg.c **** * Parameters:  
 877:.\Generated_Source\PSoC5/cyfitter_cfg.c **** *   void
 878:.\Generated_Source\PSoC5/cyfitter_cfg.c **** *
 879:.\Generated_Source\PSoC5/cyfitter_cfg.c **** * Return:
 880:.\Generated_Source\PSoC5/cyfitter_cfg.c **** *   void
 881:.\Generated_Source\PSoC5/cyfitter_cfg.c **** *
 882:.\Generated_Source\PSoC5/cyfitter_cfg.c **** *******************************************************************************/
 883:.\Generated_Source\PSoC5/cyfitter_cfg.c **** void cyfitter_cfg(void)
 884:.\Generated_Source\PSoC5/cyfitter_cfg.c **** {
 1562              		.loc 1 884 0
 1563              		.cfi_startproc
ARM GAS  C:\Users\Geo\AppData\Local\Temp\ccVeTRuu.s 			page 44


 1564              		@ args = 0, pretend = 0, frame = 0
 1565              		@ frame_needed = 1, uses_anonymous_args = 0
 1566 0000 80B5     		push	{r7, lr}
 1567              	.LCFI29:
 1568              		.cfi_def_cfa_offset 8
 1569 0002 00AF     		add	r7, sp, #0
 1570              		.cfi_offset 14, -4
 1571              		.cfi_offset 7, -8
 1572              	.LCFI30:
 1573              		.cfi_def_cfa_register 7
 885:.\Generated_Source\PSoC5/cyfitter_cfg.c **** #ifdef CYGlobalIntDisable
 886:.\Generated_Source\PSoC5/cyfitter_cfg.c **** 	/* Disable interrupts by default. Let user enable if/when they want. */
 887:.\Generated_Source\PSoC5/cyfitter_cfg.c **** 	CYGlobalIntDisable;
 1574              		.loc 1 887 0
 1575              	@ 887 ".\Generated_Source\PSoC5\cyfitter_cfg.c" 1
 1576 0004 72B6     		CPSID   i
 1577              	@ 0 "" 2
 888:.\Generated_Source\PSoC5/cyfitter_cfg.c **** #endif
 889:.\Generated_Source\PSoC5/cyfitter_cfg.c **** 
 890:.\Generated_Source\PSoC5/cyfitter_cfg.c **** 	/* Setup Flash Cycles based on 12MHz clock startup frequency. */
 891:.\Generated_Source\PSoC5/cyfitter_cfg.c **** 	CY_SET_XTND_REG8((void CYFAR *)(CYREG_CACHE_CC_CTL), ((CYDEV_INSTRUCT_CACHE_ENABLED) ? 0x40 : 0x41
 1578              		.loc 1 891 0
 1579              		.thumb
 1580 0006 44F60003 		movw	r3, #:lower16:1073760256
 1581 000a C4F20003 		movt	r3, #:upper16:1073760256
 1582 000e 4FF04002 		mov	r2, #64
 1583 0012 1A70     		strb	r2, [r3, #0]
 892:.\Generated_Source\PSoC5/cyfitter_cfg.c **** 
 893:.\Generated_Source\PSoC5/cyfitter_cfg.c **** 	/* Disable DMA channels so they can be configured for chip initialization */
 894:.\Generated_Source\PSoC5/cyfitter_cfg.c **** 	CY_SET_XTND_REG8((void CYFAR *)(CYREG_PHUB_CH0_BASIC_CFG), 0x00);
 1584              		.loc 1 894 0
 1585 0014 47F21003 		movw	r3, #:lower16:1073770512
 1586 0018 C4F20003 		movt	r3, #:upper16:1073770512
 1587 001c 4FF00002 		mov	r2, #0
 1588 0020 1A70     		strb	r2, [r3, #0]
 895:.\Generated_Source\PSoC5/cyfitter_cfg.c **** 	CY_SET_XTND_REG8((void CYFAR *)(CYREG_PHUB_CH1_BASIC_CFG), 0x00);
 1589              		.loc 1 895 0
 1590 0022 47F22003 		movw	r3, #:lower16:1073770528
 1591 0026 C4F20003 		movt	r3, #:upper16:1073770528
 1592 002a 4FF00002 		mov	r2, #0
 1593 002e 1A70     		strb	r2, [r3, #0]
 896:.\Generated_Source\PSoC5/cyfitter_cfg.c **** 
 897:.\Generated_Source\PSoC5/cyfitter_cfg.c **** 	/* Enable analog pulldown switches */
 898:.\Generated_Source\PSoC5/cyfitter_cfg.c **** 	CY_SET_XTND_REG8((void CYFAR *)(CYREG_ANAIF_CFG_MISC_CR0), 0x01);
 1594              		.loc 1 898 0
 1595 0030 45F67C03 		movw	r3, #:lower16:1073764476
 1596 0034 C4F20003 		movt	r3, #:upper16:1073764476
 1597 0038 4FF00102 		mov	r2, #1
 1598 003c 1A70     		strb	r2, [r3, #0]
 899:.\Generated_Source\PSoC5/cyfitter_cfg.c **** 
 900:.\Generated_Source\PSoC5/cyfitter_cfg.c **** 	/* Enable/Disable Debug functionality based on settings from System DWR */
 901:.\Generated_Source\PSoC5/cyfitter_cfg.c **** 	CY_SET_XTND_REG8(CYREG_MLOGIC_DBG_DBE, (CY_GET_XTND_REG8(CYREG_MLOGIC_DBG_DBE) | 0x01));
 1599              		.loc 1 901 0
 1600 003e 44F2E863 		movw	r3, #:lower16:1073759976
 1601 0042 C4F20003 		movt	r3, #:upper16:1073759976
 1602 0046 44F2E862 		movw	r2, #:lower16:1073759976
 1603 004a C4F20002 		movt	r2, #:upper16:1073759976
ARM GAS  C:\Users\Geo\AppData\Local\Temp\ccVeTRuu.s 			page 45


 1604 004e 1278     		ldrb	r2, [r2, #0]
 1605 0050 D2B2     		uxtb	r2, r2
 1606 0052 42F00102 		orr	r2, r2, #1
 1607 0056 D2B2     		uxtb	r2, r2
 1608 0058 1A70     		strb	r2, [r3, #0]
 902:.\Generated_Source\PSoC5/cyfitter_cfg.c **** 
 903:.\Generated_Source\PSoC5/cyfitter_cfg.c **** 	{
 904:.\Generated_Source\PSoC5/cyfitter_cfg.c **** 		cfg_dma_init();
 1609              		.loc 1 904 0
 1610 005a FFF7FEFF 		bl	cfg_dma_init
 905:.\Generated_Source\PSoC5/cyfitter_cfg.c **** 
 906:.\Generated_Source\PSoC5/cyfitter_cfg.c **** 		/* Perform normal device configuration. Order is not critical for these items. */
 907:.\Generated_Source\PSoC5/cyfitter_cfg.c **** 		CYCONFIGCPY8((void CYFAR *)(CYDEV_PRTDSI_PRT0_BASE), (void CYFAR *)(BS_IOPORT_0_VAL), 7);
 1611              		.loc 1 907 0
 1612 005e 45F20020 		movw	r0, #:lower16:1073762816
 1613 0062 C4F20000 		movt	r0, #:upper16:1073762816
 1614 0066 41F66811 		movw	r1, #:lower16:1207966056
 1615 006a C4F60001 		movt	r1, #:upper16:1207966056
 1616 006e 4FF00702 		mov	r2, #7
 1617 0072 FFF7FEFF 		bl	cymemcpy8
 908:.\Generated_Source\PSoC5/cyfitter_cfg.c **** 		CYMEMZERO8((void CYFAR *)(CYDEV_PRTDSI_PRT1_BASE), 7);
 1618              		.loc 1 908 0
 1619 0076 45F20820 		movw	r0, #:lower16:1073762824
 1620 007a C4F20000 		movt	r0, #:upper16:1073762824
 1621 007e 4FF00701 		mov	r1, #7
 1622 0082 FFF7FEFF 		bl	cymemzero8
 909:.\Generated_Source\PSoC5/cyfitter_cfg.c **** 		CYCONFIGCPY8((void CYFAR *)(CYDEV_PRTDSI_PRT2_BASE), (void CYFAR *)(BS_IOPORT_2_VAL), 7);
 1623              		.loc 1 909 0
 1624 0086 45F21020 		movw	r0, #:lower16:1073762832
 1625 008a C4F20000 		movt	r0, #:upper16:1073762832
 1626 008e 41F67011 		movw	r1, #:lower16:1207966064
 1627 0092 C4F60001 		movt	r1, #:upper16:1207966064
 1628 0096 4FF00702 		mov	r2, #7
 1629 009a FFF7FEFF 		bl	cymemcpy8
 910:.\Generated_Source\PSoC5/cyfitter_cfg.c **** 		CYCONFIGCPY8((void CYFAR *)(CYDEV_PRTDSI_PRT3_BASE), (void CYFAR *)(BS_IOPORT_3_VAL), 7);
 1630              		.loc 1 910 0
 1631 009e 45F21820 		movw	r0, #:lower16:1073762840
 1632 00a2 C4F20000 		movt	r0, #:upper16:1073762840
 1633 00a6 41F67811 		movw	r1, #:lower16:1207966072
 1634 00aa C4F60001 		movt	r1, #:upper16:1207966072
 1635 00ae 4FF00702 		mov	r2, #7
 1636 00b2 FFF7FEFF 		bl	cymemcpy8
 911:.\Generated_Source\PSoC5/cyfitter_cfg.c **** 		CYCONFIGCPY8((void CYFAR *)(CYDEV_PRTDSI_PRT4_BASE), (void CYFAR *)(BS_IOPORT_4_VAL), 7);
 1637              		.loc 1 911 0
 1638 00b6 45F22020 		movw	r0, #:lower16:1073762848
 1639 00ba C4F20000 		movt	r0, #:upper16:1073762848
 1640 00be 41F68011 		movw	r1, #:lower16:1207966080
 1641 00c2 C4F60001 		movt	r1, #:upper16:1207966080
 1642 00c6 4FF00702 		mov	r2, #7
 1643 00ca FFF7FEFF 		bl	cymemcpy8
 912:.\Generated_Source\PSoC5/cyfitter_cfg.c **** 		CYCONFIGCPY8((void CYFAR *)(CYDEV_PRTDSI_PRT5_BASE), (void CYFAR *)(BS_IOPORT_5_VAL), 7);
 1644              		.loc 1 912 0
 1645 00ce 45F22820 		movw	r0, #:lower16:1073762856
 1646 00d2 C4F20000 		movt	r0, #:upper16:1073762856
 1647 00d6 41F68811 		movw	r1, #:lower16:1207966088
 1648 00da C4F60001 		movt	r1, #:upper16:1207966088
 1649 00de 4FF00702 		mov	r2, #7
ARM GAS  C:\Users\Geo\AppData\Local\Temp\ccVeTRuu.s 			page 46


 1650 00e2 FFF7FEFF 		bl	cymemcpy8
 913:.\Generated_Source\PSoC5/cyfitter_cfg.c **** 		CYMEMZERO8((void CYFAR *)(CYDEV_PRTDSI_PRT6_BASE), 7);
 1651              		.loc 1 913 0
 1652 00e6 45F23020 		movw	r0, #:lower16:1073762864
 1653 00ea C4F20000 		movt	r0, #:upper16:1073762864
 1654 00ee 4FF00701 		mov	r1, #7
 1655 00f2 FFF7FEFF 		bl	cymemzero8
 914:.\Generated_Source\PSoC5/cyfitter_cfg.c **** 		CYMEMZERO8((void CYFAR *)(CYDEV_PRTDSI_PRT12_BASE), 6);
 1656              		.loc 1 914 0
 1657 00f6 45F26020 		movw	r0, #:lower16:1073762912
 1658 00fa C4F20000 		movt	r0, #:upper16:1073762912
 1659 00fe 4FF00601 		mov	r1, #6
 1660 0102 FFF7FEFF 		bl	cymemzero8
 915:.\Generated_Source\PSoC5/cyfitter_cfg.c **** 		CYMEMZERO8((void CYFAR *)(CYDEV_PRTDSI_PRT15_BASE), 7);
 1661              		.loc 1 915 0
 1662 0106 45F27820 		movw	r0, #:lower16:1073762936
 1663 010a C4F20000 		movt	r0, #:upper16:1073762936
 1664 010e 4FF00701 		mov	r1, #7
 1665 0112 FFF7FEFF 		bl	cymemzero8
 916:.\Generated_Source\PSoC5/cyfitter_cfg.c **** 		CY_SET_XTND_REG16((void CYFAR *)(CYREG_CAPSL_CFG0), 0x0300);
 1666              		.loc 1 916 0
 1667 0116 45F67003 		movw	r3, #:lower16:1073764464
 1668 011a C4F20003 		movt	r3, #:upper16:1073764464
 1669 011e 4FF44072 		mov	r2, #768
 1670 0122 1A80     		strh	r2, [r3, #0]	@ movhi
 917:.\Generated_Source\PSoC5/cyfitter_cfg.c **** 		CY_SET_XTND_REG16((void CYFAR *)(CYREG_CAPSR_CFG0), 0x0300);
 1671              		.loc 1 917 0
 1672 0124 45F67203 		movw	r3, #:lower16:1073764466
 1673 0128 C4F20003 		movt	r3, #:upper16:1073764466
 1674 012c 4FF44072 		mov	r2, #768
 1675 0130 1A80     		strh	r2, [r3, #0]	@ movhi
 918:.\Generated_Source\PSoC5/cyfitter_cfg.c **** 		CY_SET_XTND_REG16((void CYFAR *)(CYREG_LUT0_CR), 0x0003);
 1676              		.loc 1 918 0
 1677 0132 45F64803 		movw	r3, #:lower16:1073764424
 1678 0136 C4F20003 		movt	r3, #:upper16:1073764424
 1679 013a 4FF00302 		mov	r2, #3
 1680 013e 1A80     		strh	r2, [r3, #0]	@ movhi
 919:.\Generated_Source\PSoC5/cyfitter_cfg.c **** 
 920:.\Generated_Source\PSoC5/cyfitter_cfg.c **** 		/* Enable digital routing */
 921:.\Generated_Source\PSoC5/cyfitter_cfg.c **** 		CY_SET_XTND_REG8(CYREG_BCTL0_BANK_CTL, CY_GET_XTND_REG8(CYREG_BCTL0_BANK_CTL) | 0x02u);
 1681              		.loc 1 921 0
 1682 0140 45F20303 		movw	r3, #:lower16:1073827843
 1683 0144 C4F20103 		movt	r3, #:upper16:1073827843
 1684 0148 45F20302 		movw	r2, #:lower16:1073827843
 1685 014c C4F20102 		movt	r2, #:upper16:1073827843
 1686 0150 1278     		ldrb	r2, [r2, #0]
 1687 0152 D2B2     		uxtb	r2, r2
 1688 0154 42F00202 		orr	r2, r2, #2
 1689 0158 D2B2     		uxtb	r2, r2
 1690 015a 1A70     		strb	r2, [r3, #0]
 922:.\Generated_Source\PSoC5/cyfitter_cfg.c **** 		CY_SET_XTND_REG8(CYREG_BCTL1_BANK_CTL, CY_GET_XTND_REG8(CYREG_BCTL1_BANK_CTL) | 0x02u);
 1691              		.loc 1 922 0
 1692 015c 45F21303 		movw	r3, #:lower16:1073827859
 1693 0160 C4F20103 		movt	r3, #:upper16:1073827859
 1694 0164 45F21302 		movw	r2, #:lower16:1073827859
 1695 0168 C4F20102 		movt	r2, #:upper16:1073827859
 1696 016c 1278     		ldrb	r2, [r2, #0]
ARM GAS  C:\Users\Geo\AppData\Local\Temp\ccVeTRuu.s 			page 47


 1697 016e D2B2     		uxtb	r2, r2
 1698 0170 42F00202 		orr	r2, r2, #2
 1699 0174 D2B2     		uxtb	r2, r2
 1700 0176 1A70     		strb	r2, [r3, #0]
 923:.\Generated_Source\PSoC5/cyfitter_cfg.c **** 
 924:.\Generated_Source\PSoC5/cyfitter_cfg.c **** 		/* Enable UDB array */
 925:.\Generated_Source\PSoC5/cyfitter_cfg.c **** 		CY_SET_XTND_REG8(CYREG_PM_ACT_CFG0, CY_GET_XTND_REG8(CYREG_PM_ACT_CFG0) | 0x40u);
 1701              		.loc 1 925 0
 1702 0178 44F2A033 		movw	r3, #:lower16:1073759136
 1703 017c C4F20003 		movt	r3, #:upper16:1073759136
 1704 0180 44F2A032 		movw	r2, #:lower16:1073759136
 1705 0184 C4F20002 		movt	r2, #:upper16:1073759136
 1706 0188 1278     		ldrb	r2, [r2, #0]
 1707 018a D2B2     		uxtb	r2, r2
 1708 018c 42F04002 		orr	r2, r2, #64
 1709 0190 D2B2     		uxtb	r2, r2
 1710 0192 1A70     		strb	r2, [r3, #0]
 926:.\Generated_Source\PSoC5/cyfitter_cfg.c **** 		CY_SET_XTND_REG8(CYREG_PM_AVAIL_CR2, CY_GET_XTND_REG8(CYREG_PM_AVAIL_CR2) | 0x10u);
 1711              		.loc 1 926 0
 1712 0194 44F2C233 		movw	r3, #:lower16:1073759170
 1713 0198 C4F20003 		movt	r3, #:upper16:1073759170
 1714 019c 44F2C232 		movw	r2, #:lower16:1073759170
 1715 01a0 C4F20002 		movt	r2, #:upper16:1073759170
 1716 01a4 1278     		ldrb	r2, [r2, #0]
 1717 01a6 D2B2     		uxtb	r2, r2
 1718 01a8 42F01002 		orr	r2, r2, #16
 1719 01ac D2B2     		uxtb	r2, r2
 1720 01ae 1A70     		strb	r2, [r3, #0]
 927:.\Generated_Source\PSoC5/cyfitter_cfg.c **** 	}
 928:.\Generated_Source\PSoC5/cyfitter_cfg.c **** 
 929:.\Generated_Source\PSoC5/cyfitter_cfg.c **** 	/* Perform second pass device configuration. These items must be configured in specific order afte
 930:.\Generated_Source\PSoC5/cyfitter_cfg.c **** 	CYCONFIGCPY((void CYFAR *)(CYREG_PRT0_DM0), (void CYFAR *)(BS_IOPINS0_0_VAL), 8);
 1721              		.loc 1 930 0
 1722 01b0 45F20210 		movw	r0, #:lower16:1073762562
 1723 01b4 C4F20000 		movt	r0, #:upper16:1073762562
 1724 01b8 41F62811 		movw	r1, #:lower16:1207965992
 1725 01bc C4F60001 		movt	r1, #:upper16:1207965992
 1726 01c0 4FF00802 		mov	r2, #8
 1727 01c4 FFF7FEFF 		bl	memcpy
 931:.\Generated_Source\PSoC5/cyfitter_cfg.c **** 	CYCONFIGCPY((void CYFAR *)(CYREG_PRT1_DM0), (void CYFAR *)(BS_IOPINS0_1_VAL), 8);
 1728              		.loc 1 931 0
 1729 01c8 45F21210 		movw	r0, #:lower16:1073762578
 1730 01cc C4F20000 		movt	r0, #:upper16:1073762578
 1731 01d0 41F63011 		movw	r1, #:lower16:1207966000
 1732 01d4 C4F60001 		movt	r1, #:upper16:1207966000
 1733 01d8 4FF00802 		mov	r2, #8
 1734 01dc FFF7FEFF 		bl	memcpy
 932:.\Generated_Source\PSoC5/cyfitter_cfg.c **** 	CYCONFIGCPY8((void CYFAR *)(CYREG_PRT12_DM0), (void CYFAR *)(BS_IOPINS0_7_VAL), 8);
 1735              		.loc 1 932 0
 1736 01e0 45F2C210 		movw	r0, #:lower16:1073762754
 1737 01e4 C4F20000 		movt	r0, #:upper16:1073762754
 1738 01e8 41F63811 		movw	r1, #:lower16:1207966008
 1739 01ec C4F60001 		movt	r1, #:upper16:1207966008
 1740 01f0 4FF00802 		mov	r2, #8
 1741 01f4 FFF7FEFF 		bl	cymemcpy8
 933:.\Generated_Source\PSoC5/cyfitter_cfg.c **** 	CYCONFIGCPY((void CYFAR *)(CYREG_PRT2_DM0), (void CYFAR *)(BS_IOPINS0_2_VAL), 8);
 1742              		.loc 1 933 0
ARM GAS  C:\Users\Geo\AppData\Local\Temp\ccVeTRuu.s 			page 48


 1743 01f8 45F22210 		movw	r0, #:lower16:1073762594
 1744 01fc C4F20000 		movt	r0, #:upper16:1073762594
 1745 0200 41F64011 		movw	r1, #:lower16:1207966016
 1746 0204 C4F60001 		movt	r1, #:upper16:1207966016
 1747 0208 4FF00802 		mov	r2, #8
 1748 020c FFF7FEFF 		bl	memcpy
 934:.\Generated_Source\PSoC5/cyfitter_cfg.c **** 	CYCONFIGCPY((void CYFAR *)(CYREG_PRT3_DR), (void CYFAR *)(BS_IOPINS0_3_VAL), 10);
 1749              		.loc 1 934 0
 1750 0210 45F23010 		movw	r0, #:lower16:1073762608
 1751 0214 C4F20000 		movt	r0, #:upper16:1073762608
 1752 0218 41F64811 		movw	r1, #:lower16:1207966024
 1753 021c C4F60001 		movt	r1, #:upper16:1207966024
 1754 0220 4FF00A02 		mov	r2, #10
 1755 0224 FFF7FEFF 		bl	memcpy
 935:.\Generated_Source\PSoC5/cyfitter_cfg.c **** 	CYCONFIGCPY((void CYFAR *)(CYREG_PRT4_DR), (void CYFAR *)(BS_IOPINS0_4_VAL), 10);
 1756              		.loc 1 935 0
 1757 0228 45F24010 		movw	r0, #:lower16:1073762624
 1758 022c C4F20000 		movt	r0, #:upper16:1073762624
 1759 0230 41F65411 		movw	r1, #:lower16:1207966036
 1760 0234 C4F60001 		movt	r1, #:upper16:1207966036
 1761 0238 4FF00A02 		mov	r2, #10
 1762 023c FFF7FEFF 		bl	memcpy
 936:.\Generated_Source\PSoC5/cyfitter_cfg.c **** 	CYCONFIGCPY((void CYFAR *)(CYREG_PRT5_DM0), (void CYFAR *)(BS_IOPINS0_5_VAL), 8);
 1763              		.loc 1 936 0
 1764 0240 45F25210 		movw	r0, #:lower16:1073762642
 1765 0244 C4F20000 		movt	r0, #:upper16:1073762642
 1766 0248 41F66011 		movw	r1, #:lower16:1207966048
 1767 024c C4F60001 		movt	r1, #:upper16:1207966048
 1768 0250 4FF00802 		mov	r2, #8
 1769 0254 FFF7FEFF 		bl	memcpy
 937:.\Generated_Source\PSoC5/cyfitter_cfg.c **** 
 938:.\Generated_Source\PSoC5/cyfitter_cfg.c **** 
 939:.\Generated_Source\PSoC5/cyfitter_cfg.c **** 	/* Set Flash Cycles based on max possible frequency in case a glitch occurs during ClockSetup(). *
 940:.\Generated_Source\PSoC5/cyfitter_cfg.c **** 	CY_SET_XTND_REG8((void CYFAR *)(CYREG_CACHE_CC_CTL), ((CYDEV_INSTRUCT_CACHE_ENABLED) ? 0x00 : 0x01
 1770              		.loc 1 940 0
 1771 0258 44F60003 		movw	r3, #:lower16:1073760256
 1772 025c C4F20003 		movt	r3, #:upper16:1073760256
 1773 0260 4FF00002 		mov	r2, #0
 1774 0264 1A70     		strb	r2, [r3, #0]
 941:.\Generated_Source\PSoC5/cyfitter_cfg.c **** 	/* Setup clocks based on selections from Clock DWR */
 942:.\Generated_Source\PSoC5/cyfitter_cfg.c **** 	ClockSetup();
 1775              		.loc 1 942 0
 1776 0266 FFF7FEFF 		bl	ClockSetup
 943:.\Generated_Source\PSoC5/cyfitter_cfg.c **** 	/* Set Flash Cycles based on newly configured 24.00MHz Bus Clock. */
 944:.\Generated_Source\PSoC5/cyfitter_cfg.c **** 	CY_SET_XTND_REG8((void CYFAR *)(CYREG_CACHE_CC_CTL), ((CYDEV_INSTRUCT_CACHE_ENABLED) ? 0x80 : 0x81
 1777              		.loc 1 944 0
 1778 026a 44F60003 		movw	r3, #:lower16:1073760256
 1779 026e C4F20003 		movt	r3, #:upper16:1073760256
 1780 0272 6FF07F02 		mvn	r2, #127
 1781 0276 1A70     		strb	r2, [r3, #0]
 945:.\Generated_Source\PSoC5/cyfitter_cfg.c **** 
 946:.\Generated_Source\PSoC5/cyfitter_cfg.c **** 	/* Perform basic analog initialization to defaults */
 947:.\Generated_Source\PSoC5/cyfitter_cfg.c **** 	AnalogSetDefault();
 1782              		.loc 1 947 0
 1783 0278 FFF7FEFF 		bl	AnalogSetDefault
 948:.\Generated_Source\PSoC5/cyfitter_cfg.c **** 
 949:.\Generated_Source\PSoC5/cyfitter_cfg.c **** 	/* Configure alternate active mode */
ARM GAS  C:\Users\Geo\AppData\Local\Temp\ccVeTRuu.s 			page 49


 950:.\Generated_Source\PSoC5/cyfitter_cfg.c **** 	CYCONFIGCPY((void CYFAR *)CYDEV_PM_STBY_BASE, (void CYFAR *)CYDEV_PM_ACT_BASE, 12);
 1784              		.loc 1 950 0
 1785 027c 44F2B030 		movw	r0, #:lower16:1073759152
 1786 0280 C4F20000 		movt	r0, #:upper16:1073759152
 1787 0284 44F2A031 		movw	r1, #:lower16:1073759136
 1788 0288 C4F20001 		movt	r1, #:upper16:1073759136
 1789 028c 4FF00C02 		mov	r2, #12
 1790 0290 FFF7FEFF 		bl	memcpy
 951:.\Generated_Source\PSoC5/cyfitter_cfg.c **** 	CY_SET_XTND_REG8(CYREG_PM_STBY_CFG0, CY_GET_XTND_REG8(CYREG_PM_STBY_CFG0) & ~0x02u);	/* Disable CP
 1791              		.loc 1 951 0
 1792 0294 44F2B033 		movw	r3, #:lower16:1073759152
 1793 0298 C4F20003 		movt	r3, #:upper16:1073759152
 1794 029c 44F2B032 		movw	r2, #:lower16:1073759152
 1795 02a0 C4F20002 		movt	r2, #:upper16:1073759152
 1796 02a4 1278     		ldrb	r2, [r2, #0]
 1797 02a6 D2B2     		uxtb	r2, r2
 1798 02a8 02F0FD02 		and	r2, r2, #253
 1799 02ac 1A70     		strb	r2, [r3, #0]
 952:.\Generated_Source\PSoC5/cyfitter_cfg.c **** }
 1800              		.loc 1 952 0
 1801 02ae 80BD     		pop	{r7, pc}
 1802              		.cfi_endproc
 1803              	.LFE10:
 1804              		.size	cyfitter_cfg, .-cyfitter_cfg
 1805              		.text
 1806              	.Letext0:
 1807              		.section	.debug_loc,"",%progbits
 1808              	.Ldebug_loc0:
 1809              	.LLST0:
 1810 0000 00000000 		.4byte	.LFB0
 1811 0004 02000000 		.4byte	.LCFI0
 1812 0008 0100     		.2byte	0x1
 1813 000a 5D       		.byte	0x5d
 1814 000b 02000000 		.4byte	.LCFI0
 1815 000f 04000000 		.4byte	.LCFI1
 1816 0013 0200     		.2byte	0x2
 1817 0015 7D       		.byte	0x7d
 1818 0016 04       		.sleb128 4
 1819 0017 04000000 		.4byte	.LCFI1
 1820 001b 06000000 		.4byte	.LCFI2
 1821 001f 0200     		.2byte	0x2
 1822 0021 7D       		.byte	0x7d
 1823 0022 10       		.sleb128 16
 1824 0023 06000000 		.4byte	.LCFI2
 1825 0027 0C000000 		.4byte	.LFE0
 1826 002b 0200     		.2byte	0x2
 1827 002d 77       		.byte	0x77
 1828 002e 10       		.sleb128 16
 1829 002f 00000000 		.4byte	0x0
 1830 0033 00000000 		.4byte	0x0
 1831              	.LLST1:
 1832 0037 00000000 		.4byte	.LFB1
 1833 003b 02000000 		.4byte	.LCFI3
 1834 003f 0100     		.2byte	0x1
 1835 0041 5D       		.byte	0x5d
 1836 0042 02000000 		.4byte	.LCFI3
 1837 0046 04000000 		.4byte	.LCFI4
ARM GAS  C:\Users\Geo\AppData\Local\Temp\ccVeTRuu.s 			page 50


 1838 004a 0200     		.2byte	0x2
 1839 004c 7D       		.byte	0x7d
 1840 004d 04       		.sleb128 4
 1841 004e 04000000 		.4byte	.LCFI4
 1842 0052 06000000 		.4byte	.LCFI5
 1843 0056 0200     		.2byte	0x2
 1844 0058 7D       		.byte	0x7d
 1845 0059 18       		.sleb128 24
 1846 005a 06000000 		.4byte	.LCFI5
 1847 005e 42000000 		.4byte	.LFE1
 1848 0062 0200     		.2byte	0x2
 1849 0064 77       		.byte	0x77
 1850 0065 18       		.sleb128 24
 1851 0066 00000000 		.4byte	0x0
 1852 006a 00000000 		.4byte	0x0
 1853              	.LLST2:
 1854 006e 00000000 		.4byte	.LFB2
 1855 0072 02000000 		.4byte	.LCFI6
 1856 0076 0100     		.2byte	0x1
 1857 0078 5D       		.byte	0x5d
 1858 0079 02000000 		.4byte	.LCFI6
 1859 007d 04000000 		.4byte	.LCFI7
 1860 0081 0200     		.2byte	0x2
 1861 0083 7D       		.byte	0x7d
 1862 0084 04       		.sleb128 4
 1863 0085 04000000 		.4byte	.LCFI7
 1864 0089 06000000 		.4byte	.LCFI8
 1865 008d 0200     		.2byte	0x2
 1866 008f 7D       		.byte	0x7d
 1867 0090 20       		.sleb128 32
 1868 0091 06000000 		.4byte	.LCFI8
 1869 0095 50000000 		.4byte	.LFE2
 1870 0099 0200     		.2byte	0x2
 1871 009b 77       		.byte	0x77
 1872 009c 20       		.sleb128 32
 1873 009d 00000000 		.4byte	0x0
 1874 00a1 00000000 		.4byte	0x0
 1875              	.LLST3:
 1876 00a5 00000000 		.4byte	.LFB3
 1877 00a9 02000000 		.4byte	.LCFI9
 1878 00ad 0100     		.2byte	0x1
 1879 00af 5D       		.byte	0x5d
 1880 00b0 02000000 		.4byte	.LCFI9
 1881 00b4 04000000 		.4byte	.LCFI10
 1882 00b8 0200     		.2byte	0x2
 1883 00ba 7D       		.byte	0x7d
 1884 00bb 04       		.sleb128 4
 1885 00bc 04000000 		.4byte	.LCFI10
 1886 00c0 06000000 		.4byte	.LCFI11
 1887 00c4 0200     		.2byte	0x2
 1888 00c6 7D       		.byte	0x7d
 1889 00c7 10       		.sleb128 16
 1890 00c8 06000000 		.4byte	.LCFI11
 1891 00cc 08020000 		.4byte	.LFE3
 1892 00d0 0200     		.2byte	0x2
 1893 00d2 77       		.byte	0x77
 1894 00d3 10       		.sleb128 16
ARM GAS  C:\Users\Geo\AppData\Local\Temp\ccVeTRuu.s 			page 51


 1895 00d4 00000000 		.4byte	0x0
 1896 00d8 00000000 		.4byte	0x0
 1897              	.LLST4:
 1898 00dc 00000000 		.4byte	.LFB4
 1899 00e0 02000000 		.4byte	.LCFI12
 1900 00e4 0100     		.2byte	0x1
 1901 00e6 5D       		.byte	0x5d
 1902 00e7 02000000 		.4byte	.LCFI12
 1903 00eb 04000000 		.4byte	.LCFI13
 1904 00ef 0200     		.2byte	0x2
 1905 00f1 7D       		.byte	0x7d
 1906 00f2 08       		.sleb128 8
 1907 00f3 04000000 		.4byte	.LCFI13
 1908 00f7 06000000 		.4byte	.LCFI14
 1909 00fb 0200     		.2byte	0x2
 1910 00fd 7D       		.byte	0x7d
 1911 00fe 10       		.sleb128 16
 1912 00ff 06000000 		.4byte	.LCFI14
 1913 0103 6E010000 		.4byte	.LFE4
 1914 0107 0200     		.2byte	0x2
 1915 0109 77       		.byte	0x77
 1916 010a 10       		.sleb128 16
 1917 010b 00000000 		.4byte	0x0
 1918 010f 00000000 		.4byte	0x0
 1919              	.LLST5:
 1920 0113 00000000 		.4byte	.LFB5
 1921 0117 02000000 		.4byte	.LCFI15
 1922 011b 0100     		.2byte	0x1
 1923 011d 5D       		.byte	0x5d
 1924 011e 02000000 		.4byte	.LCFI15
 1925 0122 04000000 		.4byte	.LCFI16
 1926 0126 0200     		.2byte	0x2
 1927 0128 7D       		.byte	0x7d
 1928 0129 04       		.sleb128 4
 1929 012a 04000000 		.4byte	.LCFI16
 1930 012e 06010000 		.4byte	.LFE5
 1931 0132 0200     		.2byte	0x2
 1932 0134 77       		.byte	0x77
 1933 0135 04       		.sleb128 4
 1934 0136 00000000 		.4byte	0x0
 1935 013a 00000000 		.4byte	0x0
 1936              	.LLST6:
 1937 013e 00000000 		.4byte	.LFB6
 1938 0142 02000000 		.4byte	.LCFI17
 1939 0146 0100     		.2byte	0x1
 1940 0148 5D       		.byte	0x5d
 1941 0149 02000000 		.4byte	.LCFI17
 1942 014d 04000000 		.4byte	.LCFI18
 1943 0151 0200     		.2byte	0x2
 1944 0153 7D       		.byte	0x7d
 1945 0154 04       		.sleb128 4
 1946 0155 04000000 		.4byte	.LCFI18
 1947 0159 06000000 		.4byte	.LCFI19
 1948 015d 0200     		.2byte	0x2
 1949 015f 7D       		.byte	0x7d
 1950 0160 10       		.sleb128 16
 1951 0161 06000000 		.4byte	.LCFI19
ARM GAS  C:\Users\Geo\AppData\Local\Temp\ccVeTRuu.s 			page 52


 1952 0165 92000000 		.4byte	.LFE6
 1953 0169 0200     		.2byte	0x2
 1954 016b 77       		.byte	0x77
 1955 016c 10       		.sleb128 16
 1956 016d 00000000 		.4byte	0x0
 1957 0171 00000000 		.4byte	0x0
 1958              	.LLST7:
 1959 0175 00000000 		.4byte	.LFB7
 1960 0179 02000000 		.4byte	.LCFI20
 1961 017d 0100     		.2byte	0x1
 1962 017f 5D       		.byte	0x5d
 1963 0180 02000000 		.4byte	.LCFI20
 1964 0184 04000000 		.4byte	.LCFI21
 1965 0188 0200     		.2byte	0x2
 1966 018a 7D       		.byte	0x7d
 1967 018b 04       		.sleb128 4
 1968 018c 04000000 		.4byte	.LCFI21
 1969 0190 06000000 		.4byte	.LCFI22
 1970 0194 0200     		.2byte	0x2
 1971 0196 7D       		.byte	0x7d
 1972 0197 10       		.sleb128 16
 1973 0198 06000000 		.4byte	.LCFI22
 1974 019c A6000000 		.4byte	.LFE7
 1975 01a0 0200     		.2byte	0x2
 1976 01a2 77       		.byte	0x77
 1977 01a3 10       		.sleb128 16
 1978 01a4 00000000 		.4byte	0x0
 1979 01a8 00000000 		.4byte	0x0
 1980              	.LLST8:
 1981 01ac 00000000 		.4byte	.LFB8
 1982 01b0 02000000 		.4byte	.LCFI23
 1983 01b4 0100     		.2byte	0x1
 1984 01b6 5D       		.byte	0x5d
 1985 01b7 02000000 		.4byte	.LCFI23
 1986 01bb 04000000 		.4byte	.LCFI24
 1987 01bf 0200     		.2byte	0x2
 1988 01c1 7D       		.byte	0x7d
 1989 01c2 04       		.sleb128 4
 1990 01c3 04000000 		.4byte	.LCFI24
 1991 01c7 06000000 		.4byte	.LCFI25
 1992 01cb 0200     		.2byte	0x2
 1993 01cd 7D       		.byte	0x7d
 1994 01ce 10       		.sleb128 16
 1995 01cf 06000000 		.4byte	.LCFI25
 1996 01d3 50000000 		.4byte	.LFE8
 1997 01d7 0200     		.2byte	0x2
 1998 01d9 77       		.byte	0x77
 1999 01da 10       		.sleb128 16
 2000 01db 00000000 		.4byte	0x0
 2001 01df 00000000 		.4byte	0x0
 2002              	.LLST9:
 2003 01e3 00000000 		.4byte	.LFB9
 2004 01e7 02000000 		.4byte	.LCFI26
 2005 01eb 0100     		.2byte	0x1
 2006 01ed 5D       		.byte	0x5d
 2007 01ee 02000000 		.4byte	.LCFI26
 2008 01f2 04000000 		.4byte	.LCFI27
ARM GAS  C:\Users\Geo\AppData\Local\Temp\ccVeTRuu.s 			page 53


 2009 01f6 0200     		.2byte	0x2
 2010 01f8 7D       		.byte	0x7d
 2011 01f9 04       		.sleb128 4
 2012 01fa 04000000 		.4byte	.LCFI27
 2013 01fe 06000000 		.4byte	.LCFI28
 2014 0202 0200     		.2byte	0x2
 2015 0204 7D       		.byte	0x7d
 2016 0205 10       		.sleb128 16
 2017 0206 06000000 		.4byte	.LCFI28
 2018 020a 5A000000 		.4byte	.LFE9
 2019 020e 0200     		.2byte	0x2
 2020 0210 77       		.byte	0x77
 2021 0211 10       		.sleb128 16
 2022 0212 00000000 		.4byte	0x0
 2023 0216 00000000 		.4byte	0x0
 2024              	.LLST10:
 2025 021a 00000000 		.4byte	.LFB10
 2026 021e 02000000 		.4byte	.LCFI29
 2027 0222 0100     		.2byte	0x1
 2028 0224 5D       		.byte	0x5d
 2029 0225 02000000 		.4byte	.LCFI29
 2030 0229 04000000 		.4byte	.LCFI30
 2031 022d 0200     		.2byte	0x2
 2032 022f 7D       		.byte	0x7d
 2033 0230 08       		.sleb128 8
 2034 0231 04000000 		.4byte	.LCFI30
 2035 0235 B0020000 		.4byte	.LFE10
 2036 0239 0200     		.2byte	0x2
 2037 023b 77       		.byte	0x77
 2038 023c 08       		.sleb128 8
 2039 023d 00000000 		.4byte	0x0
 2040 0241 00000000 		.4byte	0x0
 2041              		.file 2 "./Generated_Source/PSoC5/cytypes.h"
 2042              		.file 3 "./Generated_Source/PSoC5/CyDmac.h"
 2043              		.section	.debug_info
 2044 0000 81050000 		.4byte	0x581
 2045 0004 0200     		.2byte	0x2
 2046 0006 00000000 		.4byte	.Ldebug_abbrev0
 2047 000a 04       		.byte	0x4
 2048 000b 01       		.uleb128 0x1
 2049 000c 66000000 		.4byte	.LASF60
 2050 0010 01       		.byte	0x1
 2051 0011 30010000 		.4byte	.LASF61
 2052 0015 E9010000 		.4byte	.LASF62
 2053 0019 00000000 		.4byte	0x0
 2054 001d 00000000 		.4byte	0x0
 2055 0021 00000000 		.4byte	.Ldebug_ranges0+0x0
 2056 0025 00000000 		.4byte	.Ldebug_line0
 2057 0029 02       		.uleb128 0x2
 2058 002a 01       		.byte	0x1
 2059 002b 06       		.byte	0x6
 2060 002c 91000000 		.4byte	.LASF0
 2061 0030 02       		.uleb128 0x2
 2062 0031 01       		.byte	0x1
 2063 0032 08       		.byte	0x8
 2064 0033 51020000 		.4byte	.LASF1
 2065 0037 02       		.uleb128 0x2
ARM GAS  C:\Users\Geo\AppData\Local\Temp\ccVeTRuu.s 			page 54


 2066 0038 02       		.byte	0x2
 2067 0039 05       		.byte	0x5
 2068 003a 77020000 		.4byte	.LASF2
 2069 003e 02       		.uleb128 0x2
 2070 003f 02       		.byte	0x2
 2071 0040 07       		.byte	0x7
 2072 0041 9F010000 		.4byte	.LASF3
 2073 0045 03       		.uleb128 0x3
 2074 0046 04       		.byte	0x4
 2075 0047 05       		.byte	0x5
 2076 0048 696E7400 		.ascii	"int\000"
 2077 004c 02       		.uleb128 0x2
 2078 004d 04       		.byte	0x4
 2079 004e 07       		.byte	0x7
 2080 004f 23010000 		.4byte	.LASF4
 2081 0053 02       		.uleb128 0x2
 2082 0054 08       		.byte	0x8
 2083 0055 05       		.byte	0x5
 2084 0056 83000000 		.4byte	.LASF5
 2085 005a 02       		.uleb128 0x2
 2086 005b 08       		.byte	0x8
 2087 005c 07       		.byte	0x7
 2088 005d 3D000000 		.4byte	.LASF6
 2089 0061 02       		.uleb128 0x2
 2090 0062 04       		.byte	0x4
 2091 0063 05       		.byte	0x5
 2092 0064 BF000000 		.4byte	.LASF7
 2093 0068 04       		.uleb128 0x4
 2094 0069 04       		.byte	0x4
 2095 006a 07       		.byte	0x7
 2096 006b 05       		.uleb128 0x5
 2097 006c 04       		.byte	0x4
 2098 006d 02       		.uleb128 0x2
 2099 006e 04       		.byte	0x4
 2100 006f 07       		.byte	0x7
 2101 0070 58010000 		.4byte	.LASF8
 2102 0074 02       		.uleb128 0x2
 2103 0075 01       		.byte	0x1
 2104 0076 08       		.byte	0x8
 2105 0077 BA020000 		.4byte	.LASF9
 2106 007b 06       		.uleb128 0x6
 2107 007c D7000000 		.4byte	.LASF10
 2108 0080 02       		.byte	0x2
 2109 0081 51       		.byte	0x51
 2110 0082 30000000 		.4byte	0x30
 2111 0086 06       		.uleb128 0x6
 2112 0087 06000000 		.4byte	.LASF11
 2113 008b 02       		.byte	0x2
 2114 008c 52       		.byte	0x52
 2115 008d 3E000000 		.4byte	0x3e
 2116 0091 06       		.uleb128 0x6
 2117 0092 0C010000 		.4byte	.LASF12
 2118 0096 02       		.byte	0x2
 2119 0097 53       		.byte	0x53
 2120 0098 6D000000 		.4byte	0x6d
 2121 009c 07       		.uleb128 0x7
 2122 009d 7B000000 		.4byte	0x7b
ARM GAS  C:\Users\Geo\AppData\Local\Temp\ccVeTRuu.s 			page 55


 2123 00a1 08       		.uleb128 0x8
 2124 00a2 7B000000 		.4byte	0x7b
 2125 00a6 B1000000 		.4byte	0xb1
 2126 00aa 09       		.uleb128 0x9
 2127 00ab 68000000 		.4byte	0x68
 2128 00af 04       		.byte	0x4
 2129 00b0 00       		.byte	0x0
 2130 00b1 0A       		.uleb128 0xa
 2131 00b2 48020000 		.4byte	.LASF17
 2132 00b6 10       		.byte	0x10
 2133 00b7 03       		.byte	0x3
 2134 00b8 2F       		.byte	0x2f
 2135 00b9 F6000000 		.4byte	0xf6
 2136 00bd 0B       		.uleb128 0xb
 2137 00be 90010000 		.4byte	.LASF13
 2138 00c2 03       		.byte	0x3
 2139 00c3 30       		.byte	0x30
 2140 00c4 06010000 		.4byte	0x106
 2141 00c8 02       		.byte	0x2
 2142 00c9 23       		.byte	0x23
 2143 00ca 00       		.uleb128 0x0
 2144 00cb 0B       		.uleb128 0xb
 2145 00cc 13010000 		.4byte	.LASF14
 2146 00d0 03       		.byte	0x3
 2147 00d1 31       		.byte	0x31
 2148 00d2 0B010000 		.4byte	0x10b
 2149 00d6 02       		.byte	0x2
 2150 00d7 23       		.byte	0x23
 2151 00d8 04       		.uleb128 0x4
 2152 00d9 0B       		.uleb128 0xb
 2153 00da D1010000 		.4byte	.LASF15
 2154 00de 03       		.byte	0x3
 2155 00df 32       		.byte	0x32
 2156 00e0 10010000 		.4byte	0x110
 2157 00e4 02       		.byte	0x2
 2158 00e5 23       		.byte	0x23
 2159 00e6 08       		.uleb128 0x8
 2160 00e7 0B       		.uleb128 0xb
 2161 00e8 1A010000 		.4byte	.LASF16
 2162 00ec 03       		.byte	0x3
 2163 00ed 33       		.byte	0x33
 2164 00ee 15010000 		.4byte	0x115
 2165 00f2 02       		.byte	0x2
 2166 00f3 23       		.byte	0x23
 2167 00f4 0C       		.uleb128 0xc
 2168 00f5 00       		.byte	0x0
 2169 00f6 08       		.uleb128 0x8
 2170 00f7 7B000000 		.4byte	0x7b
 2171 00fb 06010000 		.4byte	0x106
 2172 00ff 09       		.uleb128 0x9
 2173 0100 68000000 		.4byte	0x68
 2174 0104 03       		.byte	0x3
 2175 0105 00       		.byte	0x0
 2176 0106 07       		.uleb128 0x7
 2177 0107 F6000000 		.4byte	0xf6
 2178 010b 07       		.uleb128 0x7
 2179 010c F6000000 		.4byte	0xf6
ARM GAS  C:\Users\Geo\AppData\Local\Temp\ccVeTRuu.s 			page 56


 2180 0110 07       		.uleb128 0x7
 2181 0111 F6000000 		.4byte	0xf6
 2182 0115 07       		.uleb128 0x7
 2183 0116 F6000000 		.4byte	0xf6
 2184 011a 0A       		.uleb128 0xa
 2185 011b 6A010000 		.4byte	.LASF18
 2186 011f 08       		.byte	0x8
 2187 0120 03       		.byte	0x3
 2188 0121 38       		.byte	0x38
 2189 0122 43010000 		.4byte	0x143
 2190 0126 0B       		.uleb128 0xb
 2191 0127 F5020000 		.4byte	.LASF19
 2192 012b 03       		.byte	0x3
 2193 012c 39       		.byte	0x39
 2194 012d 43010000 		.4byte	0x143
 2195 0131 02       		.byte	0x2
 2196 0132 23       		.byte	0x23
 2197 0133 00       		.uleb128 0x0
 2198 0134 0B       		.uleb128 0xb
 2199 0135 FA020000 		.4byte	.LASF20
 2200 0139 03       		.byte	0x3
 2201 013a 3A       		.byte	0x3a
 2202 013b 48010000 		.4byte	0x148
 2203 013f 02       		.byte	0x2
 2204 0140 23       		.byte	0x23
 2205 0141 04       		.uleb128 0x4
 2206 0142 00       		.byte	0x0
 2207 0143 07       		.uleb128 0x7
 2208 0144 F6000000 		.4byte	0xf6
 2209 0148 07       		.uleb128 0x7
 2210 0149 F6000000 		.4byte	0xf6
 2211 014d 0A       		.uleb128 0xa
 2212 014e F3000000 		.4byte	.LASF21
 2213 0152 08       		.byte	0x8
 2214 0153 03       		.byte	0x3
 2215 0154 3F       		.byte	0x3f
 2216 0155 76010000 		.4byte	0x176
 2217 0159 0C       		.uleb128 0xc
 2218 015a 54443000 		.ascii	"TD0\000"
 2219 015e 03       		.byte	0x3
 2220 015f 40       		.byte	0x40
 2221 0160 76010000 		.4byte	0x176
 2222 0164 02       		.byte	0x2
 2223 0165 23       		.byte	0x23
 2224 0166 00       		.uleb128 0x0
 2225 0167 0C       		.uleb128 0xc
 2226 0168 54443100 		.ascii	"TD1\000"
 2227 016c 03       		.byte	0x3
 2228 016d 41       		.byte	0x41
 2229 016e 7B010000 		.4byte	0x17b
 2230 0172 02       		.byte	0x2
 2231 0173 23       		.byte	0x23
 2232 0174 04       		.uleb128 0x4
 2233 0175 00       		.byte	0x0
 2234 0176 07       		.uleb128 0x7
 2235 0177 F6000000 		.4byte	0xf6
 2236 017b 07       		.uleb128 0x7
ARM GAS  C:\Users\Geo\AppData\Local\Temp\ccVeTRuu.s 			page 57


 2237 017c F6000000 		.4byte	0xf6
 2238 0180 0D       		.uleb128 0xd
 2239 0181 04       		.byte	0x4
 2240 0182 86010000 		.4byte	0x186
 2241 0186 0E       		.uleb128 0xe
 2242 0187 0A       		.uleb128 0xa
 2243 0188 5F020000 		.4byte	.LASF22
 2244 018c 08       		.byte	0x8
 2245 018d 01       		.byte	0x1
 2246 018e B3       		.byte	0xb3
 2247 018f DA010000 		.4byte	0x1da
 2248 0193 0B       		.uleb128 0xb
 2249 0194 9A010000 		.4byte	.LASF23
 2250 0198 01       		.byte	0x1
 2251 0199 B4       		.byte	0xb4
 2252 019a 86000000 		.4byte	0x86
 2253 019e 02       		.byte	0x2
 2254 019f 23       		.byte	0x23
 2255 01a0 00       		.uleb128 0x0
 2256 01a1 0B       		.uleb128 0xb
 2257 01a2 E7000000 		.4byte	.LASF24
 2258 01a6 01       		.byte	0x1
 2259 01a7 B5       		.byte	0xb5
 2260 01a8 7B000000 		.4byte	0x7b
 2261 01ac 02       		.byte	0x2
 2262 01ad 23       		.byte	0x23
 2263 01ae 02       		.uleb128 0x2
 2264 01af 0B       		.uleb128 0xb
 2265 01b0 09030000 		.4byte	.LASF25
 2266 01b4 01       		.byte	0x1
 2267 01b5 B6       		.byte	0xb6
 2268 01b6 7B000000 		.4byte	0x7b
 2269 01ba 02       		.byte	0x2
 2270 01bb 23       		.byte	0x23
 2271 01bc 03       		.uleb128 0x3
 2272 01bd 0C       		.uleb128 0xc
 2273 01be 73726300 		.ascii	"src\000"
 2274 01c2 01       		.byte	0x1
 2275 01c3 B7       		.byte	0xb7
 2276 01c4 86000000 		.4byte	0x86
 2277 01c8 02       		.byte	0x2
 2278 01c9 23       		.byte	0x23
 2279 01ca 04       		.uleb128 0x4
 2280 01cb 0B       		.uleb128 0xb
 2281 01cc 43020000 		.4byte	.LASF26
 2282 01d0 01       		.byte	0x1
 2283 01d1 B8       		.byte	0xb8
 2284 01d2 86000000 		.4byte	0x86
 2285 01d6 02       		.byte	0x2
 2286 01d7 23       		.byte	0x23
 2287 01d8 06       		.uleb128 0x6
 2288 01d9 00       		.byte	0x0
 2289 01da 0F       		.uleb128 0xf
 2290 01db 29000000 		.4byte	.LASF27
 2291 01df 01       		.byte	0x1
 2292 01e0 32       		.byte	0x32
 2293 01e1 01       		.byte	0x1
ARM GAS  C:\Users\Geo\AppData\Local\Temp\ccVeTRuu.s 			page 58


 2294 01e2 00000000 		.4byte	.LFB0
 2295 01e6 0C000000 		.4byte	.LFE0
 2296 01ea 00000000 		.4byte	.LLST0
 2297 01ee 01020000 		.4byte	0x201
 2298 01f2 10       		.uleb128 0x10
 2299 01f3 B5000000 		.4byte	.LASF29
 2300 01f7 01       		.byte	0x1
 2301 01f8 32       		.byte	0x32
 2302 01f9 7B000000 		.4byte	0x7b
 2303 01fd 02       		.byte	0x2
 2304 01fe 91       		.byte	0x91
 2305 01ff 77       		.sleb128 -9
 2306 0200 00       		.byte	0x0
 2307 0201 0F       		.uleb128 0xf
 2308 0202 DE010000 		.4byte	.LASF28
 2309 0206 01       		.byte	0x1
 2310 0207 70       		.byte	0x70
 2311 0208 01       		.byte	0x1
 2312 0209 00000000 		.4byte	.LFB1
 2313 020d 42000000 		.4byte	.LFE1
 2314 0211 37000000 		.4byte	.LLST1
 2315 0215 44020000 		.4byte	0x244
 2316 0219 10       		.uleb128 0x10
 2317 021a 61000000 		.4byte	.LASF30
 2318 021e 01       		.byte	0x1
 2319 021f 70       		.byte	0x70
 2320 0220 6B000000 		.4byte	0x6b
 2321 0224 02       		.byte	0x2
 2322 0225 91       		.byte	0x91
 2323 0226 6C       		.sleb128 -20
 2324 0227 10       		.uleb128 0x10
 2325 0228 00000000 		.4byte	.LASF31
 2326 022c 01       		.byte	0x1
 2327 022d 70       		.byte	0x70
 2328 022e 4C000000 		.4byte	0x4c
 2329 0232 02       		.byte	0x2
 2330 0233 91       		.byte	0x91
 2331 0234 68       		.sleb128 -24
 2332 0235 11       		.uleb128 0x11
 2333 0236 B2010000 		.4byte	.LASF33
 2334 023a 01       		.byte	0x1
 2335 023b 72       		.byte	0x72
 2336 023c 44020000 		.4byte	0x244
 2337 0240 02       		.byte	0x2
 2338 0241 91       		.byte	0x91
 2339 0242 74       		.sleb128 -12
 2340 0243 00       		.byte	0x0
 2341 0244 0D       		.uleb128 0xd
 2342 0245 04       		.byte	0x4
 2343 0246 9C000000 		.4byte	0x9c
 2344 024a 0F       		.uleb128 0xf
 2345 024b FF020000 		.4byte	.LASF32
 2346 024f 01       		.byte	0x1
 2347 0250 8D       		.byte	0x8d
 2348 0251 01       		.byte	0x1
 2349 0252 00000000 		.4byte	.LFB2
 2350 0256 50000000 		.4byte	.LFE2
ARM GAS  C:\Users\Geo\AppData\Local\Temp\ccVeTRuu.s 			page 59


 2351 025a 6E000000 		.4byte	.LLST2
 2352 025e A9020000 		.4byte	0x2a9
 2353 0262 10       		.uleb128 0x10
 2354 0263 43020000 		.4byte	.LASF26
 2355 0267 01       		.byte	0x1
 2356 0268 8D       		.byte	0x8d
 2357 0269 6B000000 		.4byte	0x6b
 2358 026d 02       		.byte	0x2
 2359 026e 91       		.byte	0x91
 2360 026f 6C       		.sleb128 -20
 2361 0270 12       		.uleb128 0x12
 2362 0271 73726300 		.ascii	"src\000"
 2363 0275 01       		.byte	0x1
 2364 0276 8D       		.byte	0x8d
 2365 0277 80010000 		.4byte	0x180
 2366 027b 02       		.byte	0x2
 2367 027c 91       		.byte	0x91
 2368 027d 68       		.sleb128 -24
 2369 027e 10       		.uleb128 0x10
 2370 027f 00000000 		.4byte	.LASF31
 2371 0283 01       		.byte	0x1
 2372 0284 8D       		.byte	0x8d
 2373 0285 4C000000 		.4byte	0x4c
 2374 0289 02       		.byte	0x2
 2375 028a 91       		.byte	0x91
 2376 028b 64       		.sleb128 -28
 2377 028c 11       		.uleb128 0x11
 2378 028d BF020000 		.4byte	.LASF34
 2379 0291 01       		.byte	0x1
 2380 0292 8F       		.byte	0x8f
 2381 0293 44020000 		.4byte	0x244
 2382 0297 02       		.byte	0x2
 2383 0298 91       		.byte	0x91
 2384 0299 70       		.sleb128 -16
 2385 029a 11       		.uleb128 0x11
 2386 029b 38030000 		.4byte	.LASF35
 2387 029f 01       		.byte	0x1
 2388 02a0 90       		.byte	0x90
 2389 02a1 A9020000 		.4byte	0x2a9
 2390 02a5 02       		.byte	0x2
 2391 02a6 91       		.byte	0x91
 2392 02a7 74       		.sleb128 -12
 2393 02a8 00       		.byte	0x0
 2394 02a9 0D       		.uleb128 0xd
 2395 02aa 04       		.byte	0x4
 2396 02ab AF020000 		.4byte	0x2af
 2397 02af 13       		.uleb128 0x13
 2398 02b0 7B000000 		.4byte	0x7b
 2399 02b4 14       		.uleb128 0x14
 2400 02b5 54000000 		.4byte	.LASF36
 2401 02b9 01       		.byte	0x1
 2402 02ba 4E02     		.2byte	0x24e
 2403 02bc 01       		.byte	0x1
 2404 02bd 00000000 		.4byte	.LFB3
 2405 02c1 08020000 		.4byte	.LFE3
 2406 02c5 A5000000 		.4byte	.LLST3
 2407 02c9 F4020000 		.4byte	0x2f4
ARM GAS  C:\Users\Geo\AppData\Local\Temp\ccVeTRuu.s 			page 60


 2408 02cd 15       		.uleb128 0x15
 2409 02ce 6900     		.ascii	"i\000"
 2410 02d0 01       		.byte	0x1
 2411 02d1 5002     		.2byte	0x250
 2412 02d3 45000000 		.4byte	0x45
 2413 02d7 02       		.byte	0x2
 2414 02d8 91       		.byte	0x91
 2415 02d9 70       		.sleb128 -16
 2416 02da 16       		.uleb128 0x16
 2417 02db 04010000 		.4byte	.LBB2
 2418 02df 2E010000 		.4byte	.LBE2
 2419 02e3 17       		.uleb128 0x17
 2420 02e4 B8010000 		.4byte	.LASF37
 2421 02e8 01       		.byte	0x1
 2422 02e9 6D02     		.2byte	0x26d
 2423 02eb 44020000 		.4byte	0x244
 2424 02ef 02       		.byte	0x2
 2425 02f0 91       		.byte	0x91
 2426 02f1 74       		.sleb128 -12
 2427 02f2 00       		.byte	0x0
 2428 02f3 00       		.byte	0x0
 2429 02f4 14       		.uleb128 0x14
 2430 02f5 AA000000 		.4byte	.LASF38
 2431 02f9 01       		.byte	0x1
 2432 02fa 9402     		.2byte	0x294
 2433 02fc 01       		.byte	0x1
 2434 02fd 00000000 		.4byte	.LFB4
 2435 0301 6E010000 		.4byte	.LFE4
 2436 0305 DC000000 		.4byte	.LLST4
 2437 0309 2C030000 		.4byte	0x32c
 2438 030d 17       		.uleb128 0x17
 2439 030e 77010000 		.4byte	.LASF39
 2440 0312 01       		.byte	0x1
 2441 0313 9602     		.2byte	0x296
 2442 0315 2C030000 		.4byte	0x32c
 2443 0319 02       		.byte	0x2
 2444 031a 91       		.byte	0x91
 2445 031b 70       		.sleb128 -16
 2446 031c 17       		.uleb128 0x17
 2447 031d DD000000 		.4byte	.LASF40
 2448 0321 01       		.byte	0x1
 2449 0322 9702     		.2byte	0x297
 2450 0324 31030000 		.4byte	0x331
 2451 0328 02       		.byte	0x2
 2452 0329 91       		.byte	0x91
 2453 032a 74       		.sleb128 -12
 2454 032b 00       		.byte	0x0
 2455 032c 07       		.uleb128 0x7
 2456 032d 6D000000 		.4byte	0x6d
 2457 0331 0D       		.uleb128 0xd
 2458 0332 04       		.byte	0x4
 2459 0333 2C030000 		.4byte	0x32c
 2460 0337 18       		.uleb128 0x18
 2461 0338 01       		.byte	0x1
 2462 0339 72000000 		.4byte	.LASF46
 2463 033d 01       		.byte	0x1
 2464 033e D002     		.2byte	0x2d0
ARM GAS  C:\Users\Geo\AppData\Local\Temp\ccVeTRuu.s 			page 61


 2465 0340 01       		.byte	0x1
 2466 0341 00000000 		.4byte	.LFB5
 2467 0345 06010000 		.4byte	.LFE5
 2468 0349 13010000 		.4byte	.LLST5
 2469 034d 19       		.uleb128 0x19
 2470 034e 01       		.byte	0x1
 2471 034f DA020000 		.4byte	.LASF42
 2472 0353 01       		.byte	0x1
 2473 0354 0003     		.2byte	0x300
 2474 0356 01       		.byte	0x1
 2475 0357 00000000 		.4byte	.LFB6
 2476 035b 92000000 		.4byte	.LFE6
 2477 035f 3E010000 		.4byte	.LLST6
 2478 0363 77030000 		.4byte	0x377
 2479 0367 1A       		.uleb128 0x1a
 2480 0368 A3020000 		.4byte	.LASF41
 2481 036c 01       		.byte	0x1
 2482 036d 0003     		.2byte	0x300
 2483 036f 7B000000 		.4byte	0x7b
 2484 0373 02       		.byte	0x2
 2485 0374 91       		.byte	0x91
 2486 0375 77       		.sleb128 -9
 2487 0376 00       		.byte	0x0
 2488 0377 19       		.uleb128 0x19
 2489 0378 01       		.byte	0x1
 2490 0379 C3010000 		.4byte	.LASF43
 2491 037d 01       		.byte	0x1
 2492 037e 1803     		.2byte	0x318
 2493 0380 01       		.byte	0x1
 2494 0381 00000000 		.4byte	.LFB7
 2495 0385 A6000000 		.4byte	.LFE7
 2496 0389 75010000 		.4byte	.LLST7
 2497 038d A1030000 		.4byte	0x3a1
 2498 0391 1A       		.uleb128 0x1a
 2499 0392 A3020000 		.4byte	.LASF41
 2500 0396 01       		.byte	0x1
 2501 0397 1803     		.2byte	0x318
 2502 0399 7B000000 		.4byte	0x7b
 2503 039d 02       		.byte	0x2
 2504 039e 91       		.byte	0x91
 2505 039f 77       		.sleb128 -9
 2506 03a0 00       		.byte	0x0
 2507 03a1 19       		.uleb128 0x19
 2508 03a2 01       		.byte	0x1
 2509 03a3 C5020000 		.4byte	.LASF44
 2510 03a7 01       		.byte	0x1
 2511 03a8 4503     		.2byte	0x345
 2512 03aa 01       		.byte	0x1
 2513 03ab 00000000 		.4byte	.LFB8
 2514 03af 50000000 		.4byte	.LFE8
 2515 03b3 AC010000 		.4byte	.LLST8
 2516 03b7 CB030000 		.4byte	0x3cb
 2517 03bb 1A       		.uleb128 0x1a
 2518 03bc A3020000 		.4byte	.LASF41
 2519 03c0 01       		.byte	0x1
 2520 03c1 4503     		.2byte	0x345
 2521 03c3 7B000000 		.4byte	0x7b
ARM GAS  C:\Users\Geo\AppData\Local\Temp\ccVeTRuu.s 			page 62


 2522 03c7 02       		.byte	0x2
 2523 03c8 91       		.byte	0x91
 2524 03c9 77       		.sleb128 -9
 2525 03ca 00       		.byte	0x0
 2526 03cb 19       		.uleb128 0x19
 2527 03cc 01       		.byte	0x1
 2528 03cd 3D030000 		.4byte	.LASF45
 2529 03d1 01       		.byte	0x1
 2530 03d2 5A03     		.2byte	0x35a
 2531 03d4 01       		.byte	0x1
 2532 03d5 00000000 		.4byte	.LFB9
 2533 03d9 5A000000 		.4byte	.LFE9
 2534 03dd E3010000 		.4byte	.LLST9
 2535 03e1 F5030000 		.4byte	0x3f5
 2536 03e5 1A       		.uleb128 0x1a
 2537 03e6 A3020000 		.4byte	.LASF41
 2538 03ea 01       		.byte	0x1
 2539 03eb 5A03     		.2byte	0x35a
 2540 03ed 7B000000 		.4byte	0x7b
 2541 03f1 02       		.byte	0x2
 2542 03f2 91       		.byte	0x91
 2543 03f3 77       		.sleb128 -9
 2544 03f4 00       		.byte	0x0
 2545 03f5 18       		.uleb128 0x18
 2546 03f6 01       		.byte	0x1
 2547 03f7 54030000 		.4byte	.LASF47
 2548 03fb 01       		.byte	0x1
 2549 03fc 7303     		.2byte	0x373
 2550 03fe 01       		.byte	0x1
 2551 03ff 00000000 		.4byte	.LFB10
 2552 0403 B0020000 		.4byte	.LFE10
 2553 0407 1A020000 		.4byte	.LLST10
 2554 040b 08       		.uleb128 0x8
 2555 040c 7B000000 		.4byte	0x7b
 2556 0410 1B040000 		.4byte	0x41b
 2557 0414 09       		.uleb128 0x9
 2558 0415 68000000 		.4byte	0x68
 2559 0419 07       		.byte	0x7
 2560 041a 00       		.byte	0x0
 2561 041b 17       		.uleb128 0x17
 2562 041c 81020000 		.4byte	.LASF48
 2563 0420 01       		.byte	0x1
 2564 0421 8901     		.2byte	0x189
 2565 0423 2D040000 		.4byte	0x42d
 2566 0427 05       		.byte	0x5
 2567 0428 03       		.byte	0x3
 2568 0429 00000000 		.4byte	CH1_ADDR_DATA0
 2569 042d 13       		.uleb128 0x13
 2570 042e 0B040000 		.4byte	0x40b
 2571 0432 17       		.uleb128 0x17
 2572 0433 AB020000 		.4byte	.LASF49
 2573 0437 01       		.byte	0x1
 2574 0438 8C01     		.2byte	0x18c
 2575 043a 44040000 		.4byte	0x444
 2576 043e 05       		.byte	0x5
 2577 043f 03       		.byte	0x3
 2578 0440 08000000 		.4byte	CH2_ADDR_DATA0
ARM GAS  C:\Users\Geo\AppData\Local\Temp\ccVeTRuu.s 			page 63


 2579 0444 13       		.uleb128 0x13
 2580 0445 0B040000 		.4byte	0x40b
 2581 0449 17       		.uleb128 0x17
 2582 044a E6020000 		.4byte	.LASF50
 2583 044e 01       		.byte	0x1
 2584 044f 8F01     		.2byte	0x18f
 2585 0451 5B040000 		.4byte	0x45b
 2586 0455 05       		.byte	0x5
 2587 0456 03       		.byte	0x3
 2588 0457 10000000 		.4byte	CH5_ADDR_DATA0
 2589 045b 13       		.uleb128 0x13
 2590 045c 0B040000 		.4byte	0x40b
 2591 0460 17       		.uleb128 0x17
 2592 0461 C8000000 		.4byte	.LASF51
 2593 0465 01       		.byte	0x1
 2594 0466 9201     		.2byte	0x192
 2595 0468 72040000 		.4byte	0x472
 2596 046c 05       		.byte	0x5
 2597 046d 03       		.byte	0x3
 2598 046e 18000000 		.4byte	CH6_ADDR_DATA0
 2599 0472 13       		.uleb128 0x13
 2600 0473 0B040000 		.4byte	0x40b
 2601 0477 17       		.uleb128 0x17
 2602 0478 7F010000 		.4byte	.LASF52
 2603 047c 01       		.byte	0x1
 2604 047d 9501     		.2byte	0x195
 2605 047f 89040000 		.4byte	0x489
 2606 0483 05       		.byte	0x5
 2607 0484 03       		.byte	0x3
 2608 0485 20000000 		.4byte	DMA_TD_START_CMD
 2609 0489 13       		.uleb128 0x13
 2610 048a A1000000 		.4byte	0xa1
 2611 048e 17       		.uleb128 0x17
 2612 048f 2B030000 		.4byte	.LASF53
 2613 0493 01       		.byte	0x1
 2614 0494 9701     		.2byte	0x197
 2615 0496 91000000 		.4byte	0x91
 2616 049a 05       		.byte	0x5
 2617 049b 03       		.byte	0x3
 2618 049c 00000000 		.4byte	DMA_ZERO_VAL
 2619 04a0 08       		.uleb128 0x8
 2620 04a1 87010000 		.4byte	0x187
 2621 04a5 B0040000 		.4byte	0x4b0
 2622 04a9 09       		.uleb128 0x9
 2623 04aa 68000000 		.4byte	0x68
 2624 04ae 4A       		.byte	0x4a
 2625 04af 00       		.byte	0x0
 2626 04b0 17       		.uleb128 0x17
 2627 04b1 9D000000 		.4byte	.LASF54
 2628 04b5 01       		.byte	0x1
 2629 04b6 9F01     		.2byte	0x19f
 2630 04b8 C2040000 		.4byte	0x4c2
 2631 04bc 05       		.byte	0x5
 2632 04bd 03       		.byte	0x3
 2633 04be 28000000 		.4byte	CFG_TD_LIST0
 2634 04c2 13       		.uleb128 0x13
 2635 04c3 A0040000 		.4byte	0x4a0
ARM GAS  C:\Users\Geo\AppData\Local\Temp\ccVeTRuu.s 			page 64


 2636 04c7 08       		.uleb128 0x8
 2637 04c8 80010000 		.4byte	0x180
 2638 04cc D7040000 		.4byte	0x4d7
 2639 04d0 09       		.uleb128 0x9
 2640 04d1 68000000 		.4byte	0x68
 2641 04d5 4A       		.byte	0x4a
 2642 04d6 00       		.byte	0x0
 2643 04d7 17       		.uleb128 0x17
 2644 04d8 FF000000 		.4byte	.LASF55
 2645 04dc 01       		.byte	0x1
 2646 04dd F201     		.2byte	0x1f2
 2647 04df E9040000 		.4byte	0x4e9
 2648 04e3 05       		.byte	0x5
 2649 04e4 03       		.byte	0x3
 2650 04e5 00000000 		.4byte	CFG_TD_ADDR0
 2651 04e9 13       		.uleb128 0x13
 2652 04ea C7040000 		.4byte	0x4c7
 2653 04ee 08       		.uleb128 0x8
 2654 04ef FE040000 		.4byte	0x4fe
 2655 04f3 FE040000 		.4byte	0x4fe
 2656 04f7 09       		.uleb128 0x9
 2657 04f8 68000000 		.4byte	0x68
 2658 04fc 03       		.byte	0x3
 2659 04fd 00       		.byte	0x0
 2660 04fe 0D       		.uleb128 0xd
 2661 04ff 04       		.byte	0x4
 2662 0500 7B000000 		.4byte	0x7b
 2663 0504 1B       		.uleb128 0x1b
 2664 0505 90020000 		.4byte	.LASF56
 2665 0509 01       		.byte	0x1
 2666 050a E802     		.2byte	0x2e8
 2667 050c 17050000 		.4byte	0x517
 2668 0510 01       		.byte	0x1
 2669 0511 05       		.byte	0x5
 2670 0512 03       		.byte	0x3
 2671 0513 00000000 		.4byte	AMuxAdc__addrTable
 2672 0517 13       		.uleb128 0x13
 2673 0518 EE040000 		.4byte	0x4ee
 2674 051c 1B       		.uleb128 0x1b
 2675 051d 64020000 		.4byte	.LASF57
 2676 0521 01       		.byte	0x1
 2677 0522 EE02     		.2byte	0x2ee
 2678 0524 2F050000 		.4byte	0x52f
 2679 0528 01       		.byte	0x1
 2680 0529 05       		.byte	0x5
 2681 052a 03       		.byte	0x3
 2682 052b 00000000 		.4byte	AMuxAdc__maskTable
 2683 052f 13       		.uleb128 0x13
 2684 0530 F6000000 		.4byte	0xf6
 2685 0534 08       		.uleb128 0x8
 2686 0535 FE040000 		.4byte	0x4fe
 2687 0539 44050000 		.4byte	0x544
 2688 053d 09       		.uleb128 0x9
 2689 053e 68000000 		.4byte	0x68
 2690 0542 06       		.byte	0x6
 2691 0543 00       		.byte	0x0
 2692 0544 1B       		.uleb128 0x1b
ARM GAS  C:\Users\Geo\AppData\Local\Temp\ccVeTRuu.s 			page 65


 2693 0545 0F030000 		.4byte	.LASF58
 2694 0549 01       		.byte	0x1
 2695 054a 2303     		.2byte	0x323
 2696 054c 57050000 		.4byte	0x557
 2697 0550 01       		.byte	0x1
 2698 0551 05       		.byte	0x5
 2699 0552 03       		.byte	0x3
 2700 0553 00000000 		.4byte	CapSense_AMuxCH0__addrTable
 2701 0557 13       		.uleb128 0x13
 2702 0558 34050000 		.4byte	0x534
 2703 055c 08       		.uleb128 0x8
 2704 055d 7B000000 		.4byte	0x7b
 2705 0561 6C050000 		.4byte	0x56c
 2706 0565 09       		.uleb128 0x9
 2707 0566 68000000 		.4byte	0x68
 2708 056a 06       		.byte	0x6
 2709 056b 00       		.byte	0x0
 2710 056c 1B       		.uleb128 0x1b
 2711 056d 0D000000 		.4byte	.LASF59
 2712 0571 01       		.byte	0x1
 2713 0572 2E03     		.2byte	0x32e
 2714 0574 7F050000 		.4byte	0x57f
 2715 0578 01       		.byte	0x1
 2716 0579 05       		.byte	0x5
 2717 057a 03       		.byte	0x3
 2718 057b 00000000 		.4byte	CapSense_AMuxCH0__maskTable
 2719 057f 13       		.uleb128 0x13
 2720 0580 5C050000 		.4byte	0x55c
 2721 0584 00       		.byte	0x0
 2722              		.section	.debug_abbrev
 2723 0000 01       		.uleb128 0x1
 2724 0001 11       		.uleb128 0x11
 2725 0002 01       		.byte	0x1
 2726 0003 25       		.uleb128 0x25
 2727 0004 0E       		.uleb128 0xe
 2728 0005 13       		.uleb128 0x13
 2729 0006 0B       		.uleb128 0xb
 2730 0007 03       		.uleb128 0x3
 2731 0008 0E       		.uleb128 0xe
 2732 0009 1B       		.uleb128 0x1b
 2733 000a 0E       		.uleb128 0xe
 2734 000b 11       		.uleb128 0x11
 2735 000c 01       		.uleb128 0x1
 2736 000d 52       		.uleb128 0x52
 2737 000e 01       		.uleb128 0x1
 2738 000f 55       		.uleb128 0x55
 2739 0010 06       		.uleb128 0x6
 2740 0011 10       		.uleb128 0x10
 2741 0012 06       		.uleb128 0x6
 2742 0013 00       		.byte	0x0
 2743 0014 00       		.byte	0x0
 2744 0015 02       		.uleb128 0x2
 2745 0016 24       		.uleb128 0x24
 2746 0017 00       		.byte	0x0
 2747 0018 0B       		.uleb128 0xb
 2748 0019 0B       		.uleb128 0xb
 2749 001a 3E       		.uleb128 0x3e
ARM GAS  C:\Users\Geo\AppData\Local\Temp\ccVeTRuu.s 			page 66


 2750 001b 0B       		.uleb128 0xb
 2751 001c 03       		.uleb128 0x3
 2752 001d 0E       		.uleb128 0xe
 2753 001e 00       		.byte	0x0
 2754 001f 00       		.byte	0x0
 2755 0020 03       		.uleb128 0x3
 2756 0021 24       		.uleb128 0x24
 2757 0022 00       		.byte	0x0
 2758 0023 0B       		.uleb128 0xb
 2759 0024 0B       		.uleb128 0xb
 2760 0025 3E       		.uleb128 0x3e
 2761 0026 0B       		.uleb128 0xb
 2762 0027 03       		.uleb128 0x3
 2763 0028 08       		.uleb128 0x8
 2764 0029 00       		.byte	0x0
 2765 002a 00       		.byte	0x0
 2766 002b 04       		.uleb128 0x4
 2767 002c 24       		.uleb128 0x24
 2768 002d 00       		.byte	0x0
 2769 002e 0B       		.uleb128 0xb
 2770 002f 0B       		.uleb128 0xb
 2771 0030 3E       		.uleb128 0x3e
 2772 0031 0B       		.uleb128 0xb
 2773 0032 00       		.byte	0x0
 2774 0033 00       		.byte	0x0
 2775 0034 05       		.uleb128 0x5
 2776 0035 0F       		.uleb128 0xf
 2777 0036 00       		.byte	0x0
 2778 0037 0B       		.uleb128 0xb
 2779 0038 0B       		.uleb128 0xb
 2780 0039 00       		.byte	0x0
 2781 003a 00       		.byte	0x0
 2782 003b 06       		.uleb128 0x6
 2783 003c 16       		.uleb128 0x16
 2784 003d 00       		.byte	0x0
 2785 003e 03       		.uleb128 0x3
 2786 003f 0E       		.uleb128 0xe
 2787 0040 3A       		.uleb128 0x3a
 2788 0041 0B       		.uleb128 0xb
 2789 0042 3B       		.uleb128 0x3b
 2790 0043 0B       		.uleb128 0xb
 2791 0044 49       		.uleb128 0x49
 2792 0045 13       		.uleb128 0x13
 2793 0046 00       		.byte	0x0
 2794 0047 00       		.byte	0x0
 2795 0048 07       		.uleb128 0x7
 2796 0049 35       		.uleb128 0x35
 2797 004a 00       		.byte	0x0
 2798 004b 49       		.uleb128 0x49
 2799 004c 13       		.uleb128 0x13
 2800 004d 00       		.byte	0x0
 2801 004e 00       		.byte	0x0
 2802 004f 08       		.uleb128 0x8
 2803 0050 01       		.uleb128 0x1
 2804 0051 01       		.byte	0x1
 2805 0052 49       		.uleb128 0x49
 2806 0053 13       		.uleb128 0x13
ARM GAS  C:\Users\Geo\AppData\Local\Temp\ccVeTRuu.s 			page 67


 2807 0054 01       		.uleb128 0x1
 2808 0055 13       		.uleb128 0x13
 2809 0056 00       		.byte	0x0
 2810 0057 00       		.byte	0x0
 2811 0058 09       		.uleb128 0x9
 2812 0059 21       		.uleb128 0x21
 2813 005a 00       		.byte	0x0
 2814 005b 49       		.uleb128 0x49
 2815 005c 13       		.uleb128 0x13
 2816 005d 2F       		.uleb128 0x2f
 2817 005e 0B       		.uleb128 0xb
 2818 005f 00       		.byte	0x0
 2819 0060 00       		.byte	0x0
 2820 0061 0A       		.uleb128 0xa
 2821 0062 13       		.uleb128 0x13
 2822 0063 01       		.byte	0x1
 2823 0064 03       		.uleb128 0x3
 2824 0065 0E       		.uleb128 0xe
 2825 0066 0B       		.uleb128 0xb
 2826 0067 0B       		.uleb128 0xb
 2827 0068 3A       		.uleb128 0x3a
 2828 0069 0B       		.uleb128 0xb
 2829 006a 3B       		.uleb128 0x3b
 2830 006b 0B       		.uleb128 0xb
 2831 006c 01       		.uleb128 0x1
 2832 006d 13       		.uleb128 0x13
 2833 006e 00       		.byte	0x0
 2834 006f 00       		.byte	0x0
 2835 0070 0B       		.uleb128 0xb
 2836 0071 0D       		.uleb128 0xd
 2837 0072 00       		.byte	0x0
 2838 0073 03       		.uleb128 0x3
 2839 0074 0E       		.uleb128 0xe
 2840 0075 3A       		.uleb128 0x3a
 2841 0076 0B       		.uleb128 0xb
 2842 0077 3B       		.uleb128 0x3b
 2843 0078 0B       		.uleb128 0xb
 2844 0079 49       		.uleb128 0x49
 2845 007a 13       		.uleb128 0x13
 2846 007b 38       		.uleb128 0x38
 2847 007c 0A       		.uleb128 0xa
 2848 007d 00       		.byte	0x0
 2849 007e 00       		.byte	0x0
 2850 007f 0C       		.uleb128 0xc
 2851 0080 0D       		.uleb128 0xd
 2852 0081 00       		.byte	0x0
 2853 0082 03       		.uleb128 0x3
 2854 0083 08       		.uleb128 0x8
 2855 0084 3A       		.uleb128 0x3a
 2856 0085 0B       		.uleb128 0xb
 2857 0086 3B       		.uleb128 0x3b
 2858 0087 0B       		.uleb128 0xb
 2859 0088 49       		.uleb128 0x49
 2860 0089 13       		.uleb128 0x13
 2861 008a 38       		.uleb128 0x38
 2862 008b 0A       		.uleb128 0xa
 2863 008c 00       		.byte	0x0
ARM GAS  C:\Users\Geo\AppData\Local\Temp\ccVeTRuu.s 			page 68


 2864 008d 00       		.byte	0x0
 2865 008e 0D       		.uleb128 0xd
 2866 008f 0F       		.uleb128 0xf
 2867 0090 00       		.byte	0x0
 2868 0091 0B       		.uleb128 0xb
 2869 0092 0B       		.uleb128 0xb
 2870 0093 49       		.uleb128 0x49
 2871 0094 13       		.uleb128 0x13
 2872 0095 00       		.byte	0x0
 2873 0096 00       		.byte	0x0
 2874 0097 0E       		.uleb128 0xe
 2875 0098 26       		.uleb128 0x26
 2876 0099 00       		.byte	0x0
 2877 009a 00       		.byte	0x0
 2878 009b 00       		.byte	0x0
 2879 009c 0F       		.uleb128 0xf
 2880 009d 2E       		.uleb128 0x2e
 2881 009e 01       		.byte	0x1
 2882 009f 03       		.uleb128 0x3
 2883 00a0 0E       		.uleb128 0xe
 2884 00a1 3A       		.uleb128 0x3a
 2885 00a2 0B       		.uleb128 0xb
 2886 00a3 3B       		.uleb128 0x3b
 2887 00a4 0B       		.uleb128 0xb
 2888 00a5 27       		.uleb128 0x27
 2889 00a6 0C       		.uleb128 0xc
 2890 00a7 11       		.uleb128 0x11
 2891 00a8 01       		.uleb128 0x1
 2892 00a9 12       		.uleb128 0x12
 2893 00aa 01       		.uleb128 0x1
 2894 00ab 40       		.uleb128 0x40
 2895 00ac 06       		.uleb128 0x6
 2896 00ad 01       		.uleb128 0x1
 2897 00ae 13       		.uleb128 0x13
 2898 00af 00       		.byte	0x0
 2899 00b0 00       		.byte	0x0
 2900 00b1 10       		.uleb128 0x10
 2901 00b2 05       		.uleb128 0x5
 2902 00b3 00       		.byte	0x0
 2903 00b4 03       		.uleb128 0x3
 2904 00b5 0E       		.uleb128 0xe
 2905 00b6 3A       		.uleb128 0x3a
 2906 00b7 0B       		.uleb128 0xb
 2907 00b8 3B       		.uleb128 0x3b
 2908 00b9 0B       		.uleb128 0xb
 2909 00ba 49       		.uleb128 0x49
 2910 00bb 13       		.uleb128 0x13
 2911 00bc 02       		.uleb128 0x2
 2912 00bd 0A       		.uleb128 0xa
 2913 00be 00       		.byte	0x0
 2914 00bf 00       		.byte	0x0
 2915 00c0 11       		.uleb128 0x11
 2916 00c1 34       		.uleb128 0x34
 2917 00c2 00       		.byte	0x0
 2918 00c3 03       		.uleb128 0x3
 2919 00c4 0E       		.uleb128 0xe
 2920 00c5 3A       		.uleb128 0x3a
ARM GAS  C:\Users\Geo\AppData\Local\Temp\ccVeTRuu.s 			page 69


 2921 00c6 0B       		.uleb128 0xb
 2922 00c7 3B       		.uleb128 0x3b
 2923 00c8 0B       		.uleb128 0xb
 2924 00c9 49       		.uleb128 0x49
 2925 00ca 13       		.uleb128 0x13
 2926 00cb 02       		.uleb128 0x2
 2927 00cc 0A       		.uleb128 0xa
 2928 00cd 00       		.byte	0x0
 2929 00ce 00       		.byte	0x0
 2930 00cf 12       		.uleb128 0x12
 2931 00d0 05       		.uleb128 0x5
 2932 00d1 00       		.byte	0x0
 2933 00d2 03       		.uleb128 0x3
 2934 00d3 08       		.uleb128 0x8
 2935 00d4 3A       		.uleb128 0x3a
 2936 00d5 0B       		.uleb128 0xb
 2937 00d6 3B       		.uleb128 0x3b
 2938 00d7 0B       		.uleb128 0xb
 2939 00d8 49       		.uleb128 0x49
 2940 00d9 13       		.uleb128 0x13
 2941 00da 02       		.uleb128 0x2
 2942 00db 0A       		.uleb128 0xa
 2943 00dc 00       		.byte	0x0
 2944 00dd 00       		.byte	0x0
 2945 00de 13       		.uleb128 0x13
 2946 00df 26       		.uleb128 0x26
 2947 00e0 00       		.byte	0x0
 2948 00e1 49       		.uleb128 0x49
 2949 00e2 13       		.uleb128 0x13
 2950 00e3 00       		.byte	0x0
 2951 00e4 00       		.byte	0x0
 2952 00e5 14       		.uleb128 0x14
 2953 00e6 2E       		.uleb128 0x2e
 2954 00e7 01       		.byte	0x1
 2955 00e8 03       		.uleb128 0x3
 2956 00e9 0E       		.uleb128 0xe
 2957 00ea 3A       		.uleb128 0x3a
 2958 00eb 0B       		.uleb128 0xb
 2959 00ec 3B       		.uleb128 0x3b
 2960 00ed 05       		.uleb128 0x5
 2961 00ee 27       		.uleb128 0x27
 2962 00ef 0C       		.uleb128 0xc
 2963 00f0 11       		.uleb128 0x11
 2964 00f1 01       		.uleb128 0x1
 2965 00f2 12       		.uleb128 0x12
 2966 00f3 01       		.uleb128 0x1
 2967 00f4 40       		.uleb128 0x40
 2968 00f5 06       		.uleb128 0x6
 2969 00f6 01       		.uleb128 0x1
 2970 00f7 13       		.uleb128 0x13
 2971 00f8 00       		.byte	0x0
 2972 00f9 00       		.byte	0x0
 2973 00fa 15       		.uleb128 0x15
 2974 00fb 34       		.uleb128 0x34
 2975 00fc 00       		.byte	0x0
 2976 00fd 03       		.uleb128 0x3
 2977 00fe 08       		.uleb128 0x8
ARM GAS  C:\Users\Geo\AppData\Local\Temp\ccVeTRuu.s 			page 70


 2978 00ff 3A       		.uleb128 0x3a
 2979 0100 0B       		.uleb128 0xb
 2980 0101 3B       		.uleb128 0x3b
 2981 0102 05       		.uleb128 0x5
 2982 0103 49       		.uleb128 0x49
 2983 0104 13       		.uleb128 0x13
 2984 0105 02       		.uleb128 0x2
 2985 0106 0A       		.uleb128 0xa
 2986 0107 00       		.byte	0x0
 2987 0108 00       		.byte	0x0
 2988 0109 16       		.uleb128 0x16
 2989 010a 0B       		.uleb128 0xb
 2990 010b 01       		.byte	0x1
 2991 010c 11       		.uleb128 0x11
 2992 010d 01       		.uleb128 0x1
 2993 010e 12       		.uleb128 0x12
 2994 010f 01       		.uleb128 0x1
 2995 0110 00       		.byte	0x0
 2996 0111 00       		.byte	0x0
 2997 0112 17       		.uleb128 0x17
 2998 0113 34       		.uleb128 0x34
 2999 0114 00       		.byte	0x0
 3000 0115 03       		.uleb128 0x3
 3001 0116 0E       		.uleb128 0xe
 3002 0117 3A       		.uleb128 0x3a
 3003 0118 0B       		.uleb128 0xb
 3004 0119 3B       		.uleb128 0x3b
 3005 011a 05       		.uleb128 0x5
 3006 011b 49       		.uleb128 0x49
 3007 011c 13       		.uleb128 0x13
 3008 011d 02       		.uleb128 0x2
 3009 011e 0A       		.uleb128 0xa
 3010 011f 00       		.byte	0x0
 3011 0120 00       		.byte	0x0
 3012 0121 18       		.uleb128 0x18
 3013 0122 2E       		.uleb128 0x2e
 3014 0123 00       		.byte	0x0
 3015 0124 3F       		.uleb128 0x3f
 3016 0125 0C       		.uleb128 0xc
 3017 0126 03       		.uleb128 0x3
 3018 0127 0E       		.uleb128 0xe
 3019 0128 3A       		.uleb128 0x3a
 3020 0129 0B       		.uleb128 0xb
 3021 012a 3B       		.uleb128 0x3b
 3022 012b 05       		.uleb128 0x5
 3023 012c 27       		.uleb128 0x27
 3024 012d 0C       		.uleb128 0xc
 3025 012e 11       		.uleb128 0x11
 3026 012f 01       		.uleb128 0x1
 3027 0130 12       		.uleb128 0x12
 3028 0131 01       		.uleb128 0x1
 3029 0132 40       		.uleb128 0x40
 3030 0133 06       		.uleb128 0x6
 3031 0134 00       		.byte	0x0
 3032 0135 00       		.byte	0x0
 3033 0136 19       		.uleb128 0x19
 3034 0137 2E       		.uleb128 0x2e
ARM GAS  C:\Users\Geo\AppData\Local\Temp\ccVeTRuu.s 			page 71


 3035 0138 01       		.byte	0x1
 3036 0139 3F       		.uleb128 0x3f
 3037 013a 0C       		.uleb128 0xc
 3038 013b 03       		.uleb128 0x3
 3039 013c 0E       		.uleb128 0xe
 3040 013d 3A       		.uleb128 0x3a
 3041 013e 0B       		.uleb128 0xb
 3042 013f 3B       		.uleb128 0x3b
 3043 0140 05       		.uleb128 0x5
 3044 0141 27       		.uleb128 0x27
 3045 0142 0C       		.uleb128 0xc
 3046 0143 11       		.uleb128 0x11
 3047 0144 01       		.uleb128 0x1
 3048 0145 12       		.uleb128 0x12
 3049 0146 01       		.uleb128 0x1
 3050 0147 40       		.uleb128 0x40
 3051 0148 06       		.uleb128 0x6
 3052 0149 01       		.uleb128 0x1
 3053 014a 13       		.uleb128 0x13
 3054 014b 00       		.byte	0x0
 3055 014c 00       		.byte	0x0
 3056 014d 1A       		.uleb128 0x1a
 3057 014e 05       		.uleb128 0x5
 3058 014f 00       		.byte	0x0
 3059 0150 03       		.uleb128 0x3
 3060 0151 0E       		.uleb128 0xe
 3061 0152 3A       		.uleb128 0x3a
 3062 0153 0B       		.uleb128 0xb
 3063 0154 3B       		.uleb128 0x3b
 3064 0155 05       		.uleb128 0x5
 3065 0156 49       		.uleb128 0x49
 3066 0157 13       		.uleb128 0x13
 3067 0158 02       		.uleb128 0x2
 3068 0159 0A       		.uleb128 0xa
 3069 015a 00       		.byte	0x0
 3070 015b 00       		.byte	0x0
 3071 015c 1B       		.uleb128 0x1b
 3072 015d 34       		.uleb128 0x34
 3073 015e 00       		.byte	0x0
 3074 015f 03       		.uleb128 0x3
 3075 0160 0E       		.uleb128 0xe
 3076 0161 3A       		.uleb128 0x3a
 3077 0162 0B       		.uleb128 0xb
 3078 0163 3B       		.uleb128 0x3b
 3079 0164 05       		.uleb128 0x5
 3080 0165 49       		.uleb128 0x49
 3081 0166 13       		.uleb128 0x13
 3082 0167 3F       		.uleb128 0x3f
 3083 0168 0C       		.uleb128 0xc
 3084 0169 02       		.uleb128 0x2
 3085 016a 0A       		.uleb128 0xa
 3086 016b 00       		.byte	0x0
 3087 016c 00       		.byte	0x0
 3088 016d 00       		.byte	0x0
 3089              		.section	.debug_pubnames,"",%progbits
 3090 0000 F8000000 		.4byte	0xf8
 3091 0004 0200     		.2byte	0x2
ARM GAS  C:\Users\Geo\AppData\Local\Temp\ccVeTRuu.s 			page 72


 3092 0006 00000000 		.4byte	.Ldebug_info0
 3093 000a 85050000 		.4byte	0x585
 3094 000e 37030000 		.4byte	0x337
 3095 0012 416E616C 		.ascii	"AnalogSetDefault\000"
 3095      6F675365 
 3095      74446566 
 3095      61756C74 
 3095      00
 3096 0023 4D030000 		.4byte	0x34d
 3097 0027 414D7578 		.ascii	"AMuxAdc_Set\000"
 3097      4164635F 
 3097      53657400 
 3098 0033 77030000 		.4byte	0x377
 3099 0037 414D7578 		.ascii	"AMuxAdc_Unset\000"
 3099      4164635F 
 3099      556E7365 
 3099      7400
 3100 0045 A1030000 		.4byte	0x3a1
 3101 0049 43617053 		.ascii	"CapSense_AMuxCH0_Set\000"
 3101      656E7365 
 3101      5F414D75 
 3101      78434830 
 3101      5F536574 
 3102 005e CB030000 		.4byte	0x3cb
 3103 0062 43617053 		.ascii	"CapSense_AMuxCH0_Unset\000"
 3103      656E7365 
 3103      5F414D75 
 3103      78434830 
 3103      5F556E73 
 3104 0079 F5030000 		.4byte	0x3f5
 3105 007d 63796669 		.ascii	"cyfitter_cfg\000"
 3105      74746572 
 3105      5F636667 
 3105      00
 3106 008a 04050000 		.4byte	0x504
 3107 008e 414D7578 		.ascii	"AMuxAdc__addrTable\000"
 3107      4164635F 
 3107      5F616464 
 3107      72546162 
 3107      6C6500
 3108 00a1 1C050000 		.4byte	0x51c
 3109 00a5 414D7578 		.ascii	"AMuxAdc__maskTable\000"
 3109      4164635F 
 3109      5F6D6173 
 3109      6B546162 
 3109      6C6500
 3110 00b8 44050000 		.4byte	0x544
 3111 00bc 43617053 		.ascii	"CapSense_AMuxCH0__addrTable\000"
 3111      656E7365 
 3111      5F414D75 
 3111      78434830 
 3111      5F5F6164 
 3112 00d8 6C050000 		.4byte	0x56c
 3113 00dc 43617053 		.ascii	"CapSense_AMuxCH0__maskTable\000"
 3113      656E7365 
 3113      5F414D75 
 3113      78434830 
ARM GAS  C:\Users\Geo\AppData\Local\Temp\ccVeTRuu.s 			page 73


 3113      5F5F6D61 
 3114 00f8 00000000 		.4byte	0x0
 3115              		.section	.debug_aranges,"",%progbits
 3116 0000 6C000000 		.4byte	0x6c
 3117 0004 0200     		.2byte	0x2
 3118 0006 00000000 		.4byte	.Ldebug_info0
 3119 000a 04       		.byte	0x4
 3120 000b 00       		.byte	0x0
 3121 000c 0000     		.2byte	0x0
 3122 000e 0000     		.2byte	0x0
 3123 0010 00000000 		.4byte	.LFB0
 3124 0014 0C000000 		.4byte	.LFE0-.LFB0
 3125 0018 00000000 		.4byte	.LFB1
 3126 001c 42000000 		.4byte	.LFE1-.LFB1
 3127 0020 00000000 		.4byte	.LFB2
 3128 0024 50000000 		.4byte	.LFE2-.LFB2
 3129 0028 00000000 		.4byte	.LFB3
 3130 002c 08020000 		.4byte	.LFE3-.LFB3
 3131 0030 00000000 		.4byte	.LFB4
 3132 0034 6E010000 		.4byte	.LFE4-.LFB4
 3133 0038 00000000 		.4byte	.LFB5
 3134 003c 06010000 		.4byte	.LFE5-.LFB5
 3135 0040 00000000 		.4byte	.LFB6
 3136 0044 92000000 		.4byte	.LFE6-.LFB6
 3137 0048 00000000 		.4byte	.LFB7
 3138 004c A6000000 		.4byte	.LFE7-.LFB7
 3139 0050 00000000 		.4byte	.LFB8
 3140 0054 50000000 		.4byte	.LFE8-.LFB8
 3141 0058 00000000 		.4byte	.LFB9
 3142 005c 5A000000 		.4byte	.LFE9-.LFB9
 3143 0060 00000000 		.4byte	.LFB10
 3144 0064 B0020000 		.4byte	.LFE10-.LFB10
 3145 0068 00000000 		.4byte	0x0
 3146 006c 00000000 		.4byte	0x0
 3147              		.section	.debug_ranges,"",%progbits
 3148              	.Ldebug_ranges0:
 3149 0000 00000000 		.4byte	.Ltext0
 3150 0004 00000000 		.4byte	.Letext0
 3151 0008 00000000 		.4byte	.LFB0
 3152 000c 0C000000 		.4byte	.LFE0
 3153 0010 00000000 		.4byte	.LFB1
 3154 0014 42000000 		.4byte	.LFE1
 3155 0018 00000000 		.4byte	.LFB2
 3156 001c 50000000 		.4byte	.LFE2
 3157 0020 00000000 		.4byte	.LFB3
 3158 0024 08020000 		.4byte	.LFE3
 3159 0028 00000000 		.4byte	.LFB4
 3160 002c 6E010000 		.4byte	.LFE4
 3161 0030 00000000 		.4byte	.LFB5
 3162 0034 06010000 		.4byte	.LFE5
 3163 0038 00000000 		.4byte	.LFB6
 3164 003c 92000000 		.4byte	.LFE6
 3165 0040 00000000 		.4byte	.LFB7
 3166 0044 A6000000 		.4byte	.LFE7
 3167 0048 00000000 		.4byte	.LFB8
 3168 004c 50000000 		.4byte	.LFE8
 3169 0050 00000000 		.4byte	.LFB9
ARM GAS  C:\Users\Geo\AppData\Local\Temp\ccVeTRuu.s 			page 74


 3170 0054 5A000000 		.4byte	.LFE9
 3171 0058 00000000 		.4byte	.LFB10
 3172 005c B0020000 		.4byte	.LFE10
 3173 0060 00000000 		.4byte	0x0
 3174 0064 00000000 		.4byte	0x0
 3175              		.section	.debug_str,"MS",%progbits,1
 3176              	.LASF31:
 3177 0000 636F756E 		.ascii	"count\000"
 3177      7400
 3178              	.LASF11:
 3179 0006 75696E74 		.ascii	"uint16\000"
 3179      313600
 3180              	.LASF59:
 3181 000d 43617053 		.ascii	"CapSense_AMuxCH0__maskTable\000"
 3181      656E7365 
 3181      5F414D75 
 3181      78434830 
 3181      5F5F6D61 
 3182              	.LASF27:
 3183 0029 4379436C 		.ascii	"CyClockStartupError\000"
 3183      6F636B53 
 3183      74617274 
 3183      75704572 
 3183      726F7200 
 3184              	.LASF6:
 3185 003d 6C6F6E67 		.ascii	"long long unsigned int\000"
 3185      206C6F6E 
 3185      6720756E 
 3185      7369676E 
 3185      65642069 
 3186              	.LASF36:
 3187 0054 6366675F 		.ascii	"cfg_dma_init\000"
 3187      646D615F 
 3187      696E6974 
 3187      00
 3188              	.LASF30:
 3189 0061 61646472 		.ascii	"addr\000"
 3189      00
 3190              	.LASF60:
 3191 0066 474E5520 		.ascii	"GNU C 4.4.1\000"
 3191      4320342E 
 3191      342E3100 
 3192              	.LASF46:
 3193 0072 416E616C 		.ascii	"AnalogSetDefault\000"
 3193      6F675365 
 3193      74446566 
 3193      61756C74 
 3193      00
 3194              	.LASF5:
 3195 0083 6C6F6E67 		.ascii	"long long int\000"
 3195      206C6F6E 
 3195      6720696E 
 3195      7400
 3196              	.LASF0:
 3197 0091 7369676E 		.ascii	"signed char\000"
 3197      65642063 
 3197      68617200 
ARM GAS  C:\Users\Geo\AppData\Local\Temp\ccVeTRuu.s 			page 75


 3198              	.LASF54:
 3199 009d 4346475F 		.ascii	"CFG_TD_LIST0\000"
 3199      54445F4C 
 3199      49535430 
 3199      00
 3200              	.LASF38:
 3201 00aa 436C6F63 		.ascii	"ClockSetup\000"
 3201      6B536574 
 3201      757000
 3202              	.LASF29:
 3203 00b5 6572726F 		.ascii	"errorCode\000"
 3203      72436F64 
 3203      6500
 3204              	.LASF7:
 3205 00bf 6C6F6E67 		.ascii	"long int\000"
 3205      20696E74 
 3205      00
 3206              	.LASF51:
 3207 00c8 4348365F 		.ascii	"CH6_ADDR_DATA0\000"
 3207      41444452 
 3207      5F444154 
 3207      413000
 3208              	.LASF10:
 3209 00d7 75696E74 		.ascii	"uint8\000"
 3209      3800
 3210              	.LASF40:
 3211 00dd 74696D65 		.ascii	"timeout_p\000"
 3211      6F75745F 
 3211      7000
 3212              	.LASF24:
 3213 00e7 6E657874 		.ascii	"next_td_ptr\000"
 3213      5F74645F 
 3213      70747200 
 3214              	.LASF21:
 3215 00f3 5F646D61 		.ascii	"_dmac_tdmem\000"
 3215      635F7464 
 3215      6D656D00 
 3216              	.LASF55:
 3217 00ff 4346475F 		.ascii	"CFG_TD_ADDR0\000"
 3217      54445F41 
 3217      44445230 
 3217      00
 3218              	.LASF12:
 3219 010c 75696E74 		.ascii	"uint32\000"
 3219      333200
 3220              	.LASF14:
 3221 0113 61637469 		.ascii	"action\000"
 3221      6F6E00
 3222              	.LASF16:
 3223 011a 72657365 		.ascii	"reserved\000"
 3223      72766564 
 3223      00
 3224              	.LASF4:
 3225 0123 756E7369 		.ascii	"unsigned int\000"
 3225      676E6564 
 3225      20696E74 
 3225      00
ARM GAS  C:\Users\Geo\AppData\Local\Temp\ccVeTRuu.s 			page 76


 3226              	.LASF61:
 3227 0130 2E5C4765 		.ascii	".\\Generated_Source\\PSoC5\\cyfitter_cfg.c\000"
 3227      6E657261 
 3227      7465645F 
 3227      536F7572 
 3227      63655C50 
 3228              	.LASF8:
 3229 0158 6C6F6E67 		.ascii	"long unsigned int\000"
 3229      20756E73 
 3229      69676E65 
 3229      6420696E 
 3229      7400
 3230              	.LASF18:
 3231 016a 5F646D61 		.ascii	"_dmac_cfgmem\000"
 3231      635F6366 
 3231      676D656D 
 3231      00
 3232              	.LASF39:
 3233 0177 74696D65 		.ascii	"timeout\000"
 3233      6F757400 
 3234              	.LASF52:
 3235 017f 444D415F 		.ascii	"DMA_TD_START_CMD\000"
 3235      54445F53 
 3235      54415254 
 3235      5F434D44 
 3235      00
 3236              	.LASF13:
 3237 0190 62617369 		.ascii	"basic_cfg\000"
 3237      635F6366 
 3237      6700
 3238              	.LASF23:
 3239 019a 73697A65 		.ascii	"size\000"
 3239      00
 3240              	.LASF3:
 3241 019f 73686F72 		.ascii	"short unsigned int\000"
 3241      7420756E 
 3241      7369676E 
 3241      65642069 
 3241      6E7400
 3242              	.LASF33:
 3243 01b2 61646472 		.ascii	"addr8\000"
 3243      3800
 3244              	.LASF37:
 3245 01b8 73726341 		.ascii	"srcAddrPtr\000"
 3245      64647250 
 3245      747200
 3246              	.LASF43:
 3247 01c3 414D7578 		.ascii	"AMuxAdc_Unset\000"
 3247      4164635F 
 3247      556E7365 
 3247      7400
 3248              	.LASF15:
 3249 01d1 62617369 		.ascii	"basic_status\000"
 3249      635F7374 
 3249      61747573 
 3249      00
 3250              	.LASF28:
ARM GAS  C:\Users\Geo\AppData\Local\Temp\ccVeTRuu.s 			page 77


 3251 01de 63796D65 		.ascii	"cymemzero8\000"
 3251      6D7A6572 
 3251      6F3800
 3252              	.LASF62:
 3253 01e9 433A5C55 		.ascii	"C:\\Users\\Geo\\Documents\\Projects\\Electric Skate"
 3253      73657273 
 3253      5C47656F 
 3253      5C446F63 
 3253      756D656E 
 3254 0217 626F6172 		.ascii	"board\\Firmware\\PSoC\\Skateboard Remote.cydsn\000"
 3254      645C4669 
 3254      726D7761 
 3254      72655C50 
 3254      536F435C 
 3255              	.LASF26:
 3256 0243 64657374 		.ascii	"dest\000"
 3256      00
 3257              	.LASF17:
 3258 0248 5F646D61 		.ascii	"_dmac_ch\000"
 3258      635F6368 
 3258      00
 3259              	.LASF1:
 3260 0251 756E7369 		.ascii	"unsigned char\000"
 3260      676E6564 
 3260      20636861 
 3260      7200
 3261              	.LASF22:
 3262 025f 74645F74 		.ascii	"td_t\000"
 3262      00
 3263              	.LASF57:
 3264 0264 414D7578 		.ascii	"AMuxAdc__maskTable\000"
 3264      4164635F 
 3264      5F6D6173 
 3264      6B546162 
 3264      6C6500
 3265              	.LASF2:
 3266 0277 73686F72 		.ascii	"short int\000"
 3266      7420696E 
 3266      7400
 3267              	.LASF48:
 3268 0281 4348315F 		.ascii	"CH1_ADDR_DATA0\000"
 3268      41444452 
 3268      5F444154 
 3268      413000
 3269              	.LASF56:
 3270 0290 414D7578 		.ascii	"AMuxAdc__addrTable\000"
 3270      4164635F 
 3270      5F616464 
 3270      72546162 
 3270      6C6500
 3271              	.LASF41:
 3272 02a3 6368616E 		.ascii	"channel\000"
 3272      6E656C00 
 3273              	.LASF49:
 3274 02ab 4348325F 		.ascii	"CH2_ADDR_DATA0\000"
 3274      41444452 
 3274      5F444154 
ARM GAS  C:\Users\Geo\AppData\Local\Temp\ccVeTRuu.s 			page 78


 3274      413000
 3275              	.LASF9:
 3276 02ba 63686172 		.ascii	"char\000"
 3276      00
 3277              	.LASF34:
 3278 02bf 64657374 		.ascii	"dest8\000"
 3278      3800
 3279              	.LASF44:
 3280 02c5 43617053 		.ascii	"CapSense_AMuxCH0_Set\000"
 3280      656E7365 
 3280      5F414D75 
 3280      78434830 
 3280      5F536574 
 3281              	.LASF42:
 3282 02da 414D7578 		.ascii	"AMuxAdc_Set\000"
 3282      4164635F 
 3282      53657400 
 3283              	.LASF50:
 3284 02e6 4348355F 		.ascii	"CH5_ADDR_DATA0\000"
 3284      41444452 
 3284      5F444154 
 3284      413000
 3285              	.LASF19:
 3286 02f5 43464730 		.ascii	"CFG0\000"
 3286      00
 3287              	.LASF20:
 3288 02fa 43464731 		.ascii	"CFG1\000"
 3288      00
 3289              	.LASF32:
 3290 02ff 63796D65 		.ascii	"cymemcpy8\000"
 3290      6D637079 
 3290      3800
 3291              	.LASF25:
 3292 0309 666C6167 		.ascii	"flags\000"
 3292      7300
 3293              	.LASF58:
 3294 030f 43617053 		.ascii	"CapSense_AMuxCH0__addrTable\000"
 3294      656E7365 
 3294      5F414D75 
 3294      78434830 
 3294      5F5F6164 
 3295              	.LASF53:
 3296 032b 444D415F 		.ascii	"DMA_ZERO_VAL\000"
 3296      5A45524F 
 3296      5F56414C 
 3296      00
 3297              	.LASF35:
 3298 0338 73726338 		.ascii	"src8\000"
 3298      00
 3299              	.LASF45:
 3300 033d 43617053 		.ascii	"CapSense_AMuxCH0_Unset\000"
 3300      656E7365 
 3300      5F414D75 
 3300      78434830 
 3300      5F556E73 
 3301              	.LASF47:
 3302 0354 63796669 		.ascii	"cyfitter_cfg\000"
ARM GAS  C:\Users\Geo\AppData\Local\Temp\ccVeTRuu.s 			page 79


 3302      74746572 
 3302      5F636667 
 3302      00
 3303              		.ident	"GCC: (Sourcery G++ Lite 2010q1-188) 4.4.1"
