ARM GAS  C:\Users\Geo\AppData\Local\Temp\ccVeTRuu.s 			page 1


   1              		.syntax unified
   2              		.cpu cortex-m3
   3              		.fpu softvfp
   4              		.eabi_attribute 20, 1
   5              		.eabi_attribute 21, 1
   6              		.eabi_attribute 23, 3
   7              		.eabi_attribute 24, 1
   8              		.eabi_attribute 25, 1
   9              		.eabi_attribute 26, 1
  10              		.eabi_attribute 30, 6
  11              		.eabi_attribute 18, 4
  12              		.thumb
  13              		.file	"cyfitter_cfg.c"
  20 0000 C6010000 		.text
  20      02007000 
  20      00000201 
  20      FB0E0D00 
  20      01010101 
  21              	.Ltext0:
  22              		.cfi_sections	.debug_frame
  23              		.section	.text.CyClockStartupError,"ax",%progbits
  24              		.align	2
  25              		.thumb
  26              		.thumb_func
  27              		.type	CyClockStartupError, %function
  28              	CyClockStartupError:
  29              	.LFB0:
  30              		.file 1 ".\\Generated_Source\\PSoC5\\cyfitter_cfg.c"
   1:.\Generated_Source\PSoC5/cyfitter_cfg.c **** /*******************************************************************************
   2:.\Generated_Source\PSoC5/cyfitter_cfg.c **** * FILENAME: cyfitter_cfg.c
   3:.\Generated_Source\PSoC5/cyfitter_cfg.c **** * PSoC Creator 2.0 Component Pack 2
   4:.\Generated_Source\PSoC5/cyfitter_cfg.c **** *
   5:.\Generated_Source\PSoC5/cyfitter_cfg.c **** * Description:
   6:.\Generated_Source\PSoC5/cyfitter_cfg.c **** * This file is automatically generated by PSoC Creator with device 
   7:.\Generated_Source\PSoC5/cyfitter_cfg.c **** * initialization code.
   8:.\Generated_Source\PSoC5/cyfitter_cfg.c **** *
   9:.\Generated_Source\PSoC5/cyfitter_cfg.c **** * THIS FILE SHOULD NOT BE MODIFIED.
  10:.\Generated_Source\PSoC5/cyfitter_cfg.c **** *
  11:.\Generated_Source\PSoC5/cyfitter_cfg.c **** ********************************************************************************
  12:.\Generated_Source\PSoC5/cyfitter_cfg.c **** * Copyright 2011, Cypress Semiconductor Corporation.  All rights reserved.
  13:.\Generated_Source\PSoC5/cyfitter_cfg.c **** * You may use this file only in accordance with the license, terms, conditions, 
  14:.\Generated_Source\PSoC5/cyfitter_cfg.c **** * disclaimers, and limitations in the end user license agreement accompanying 
  15:.\Generated_Source\PSoC5/cyfitter_cfg.c **** * the software package with which this file was provided.
  16:.\Generated_Source\PSoC5/cyfitter_cfg.c **** ********************************************************************************/
  17:.\Generated_Source\PSoC5/cyfitter_cfg.c **** 
  18:.\Generated_Source\PSoC5/cyfitter_cfg.c **** #include <string.h>
  19:.\Generated_Source\PSoC5/cyfitter_cfg.c **** #include <cytypes.h>
  20:.\Generated_Source\PSoC5/cyfitter_cfg.c **** #include <cydevice_trm.h>
  21:.\Generated_Source\PSoC5/cyfitter_cfg.c **** #include <cyfitter.h>
  22:.\Generated_Source\PSoC5/cyfitter_cfg.c **** #include <CyLib.h>
  23:.\Generated_Source\PSoC5/cyfitter_cfg.c **** #include <CyDmac.h>
ARM GAS  C:\Users\Geo\AppData\Local\Temp\ccVeTRuu.s 			page 2


  24:.\Generated_Source\PSoC5/cyfitter_cfg.c **** #include <cyfitter_cfg.h>
  25:.\Generated_Source\PSoC5/cyfitter_cfg.c **** 
  26:.\Generated_Source\PSoC5/cyfitter_cfg.c **** /* Clock startup error codes                                                   */
  27:.\Generated_Source\PSoC5/cyfitter_cfg.c **** #define CYCLOCKSTART_NO_ERROR    0
  28:.\Generated_Source\PSoC5/cyfitter_cfg.c **** #define CYCLOCKSTART_XTAL_ERROR  1
  29:.\Generated_Source\PSoC5/cyfitter_cfg.c **** #define CYCLOCKSTART_32KHZ_ERROR 2
  30:.\Generated_Source\PSoC5/cyfitter_cfg.c **** #define CYCLOCKSTART_PLL_ERROR   3
  31:.\Generated_Source\PSoC5/cyfitter_cfg.c **** 
  32:.\Generated_Source\PSoC5/cyfitter_cfg.c **** /*******************************************************************************
  33:.\Generated_Source\PSoC5/cyfitter_cfg.c **** * Function Name: CyClockStartupError
  34:.\Generated_Source\PSoC5/cyfitter_cfg.c **** ********************************************************************************
  35:.\Generated_Source\PSoC5/cyfitter_cfg.c **** * Summary:
  36:.\Generated_Source\PSoC5/cyfitter_cfg.c **** *  If an error is encountered during clock configuration (crystal startup error,
  37:.\Generated_Source\PSoC5/cyfitter_cfg.c **** *  PLL lock error, etc) the system will end up here.  Unless reimplemented by 
  38:.\Generated_Source\PSoC5/cyfitter_cfg.c **** *  the customer, an infinite loop will be encountered.
  39:.\Generated_Source\PSoC5/cyfitter_cfg.c **** *
  40:.\Generated_Source\PSoC5/cyfitter_cfg.c **** * Parameters:  
  41:.\Generated_Source\PSoC5/cyfitter_cfg.c **** *   void
  42:.\Generated_Source\PSoC5/cyfitter_cfg.c **** *
  43:.\Generated_Source\PSoC5/cyfitter_cfg.c **** * Return:
  44:.\Generated_Source\PSoC5/cyfitter_cfg.c **** *   void
  45:.\Generated_Source\PSoC5/cyfitter_cfg.c **** *
  46:.\Generated_Source\PSoC5/cyfitter_cfg.c **** *******************************************************************************/
  47:.\Generated_Source\PSoC5/cyfitter_cfg.c **** #if defined(__GNUC__) || defined(__ARMCC_VERSION)
  48:.\Generated_Source\PSoC5/cyfitter_cfg.c **** __attribute__ ((unused))
  49:.\Generated_Source\PSoC5/cyfitter_cfg.c **** #endif
  50:.\Generated_Source\PSoC5/cyfitter_cfg.c **** static void CyClockStartupError(uint8 errorCode)
  51:.\Generated_Source\PSoC5/cyfitter_cfg.c **** {
  31              		.loc 1 51 0
  32              		.cfi_startproc
  33              		@ args = 0, pretend = 0, frame = 8
  34              		@ frame_needed = 1, uses_anonymous_args = 0
  35              		@ link register save eliminated.
  36 0000 80B4     		push	{r7}
  37              	.LCFI0:
  38              		.cfi_def_cfa_offset 4
  39 0002 83B0     		sub	sp, sp, #12
  40              	.LCFI1:
  41              		.cfi_def_cfa_offset 16
  42 0004 00AF     		add	r7, sp, #0
  43              		.cfi_offset 7, -4
  44              	.LCFI2:
  45              		.cfi_def_cfa_register 7
  46 0006 0346     		mov	r3, r0
  47 0008 FB71     		strb	r3, [r7, #7]
  48              	.L2:
  52:.\Generated_Source\PSoC5/cyfitter_cfg.c ****     /* To remove the compiler warning if errorCode not used.                */
  53:.\Generated_Source\PSoC5/cyfitter_cfg.c ****     errorCode = errorCode;
  54:.\Generated_Source\PSoC5/cyfitter_cfg.c **** 
  55:.\Generated_Source\PSoC5/cyfitter_cfg.c ****     /* `#START CyClockStartupError` */
  56:.\Generated_Source\PSoC5/cyfitter_cfg.c **** 
  57:.\Generated_Source\PSoC5/cyfitter_cfg.c ****     /* If we have a clock startup error (bad MHz crystal, PLL lock, etc)    */
  58:.\Generated_Source\PSoC5/cyfitter_cfg.c ****     /* we will end up here to allow the customer to implement something to  */
  59:.\Generated_Source\PSoC5/cyfitter_cfg.c ****     /* deal with the clock condition.                                       */
  60:.\Generated_Source\PSoC5/cyfitter_cfg.c **** 
  61:.\Generated_Source\PSoC5/cyfitter_cfg.c ****     /* `#END` */
  62:.\Generated_Source\PSoC5/cyfitter_cfg.c **** 
ARM GAS  C:\Users\Geo\AppData\Local\Temp\ccVeTRuu.s 			page 3


  63:.\Generated_Source\PSoC5/cyfitter_cfg.c ****     /* If nothing else, stop here since the clocks have not started         */
  64:.\Generated_Source\PSoC5/cyfitter_cfg.c ****     /* correctly.                                                           */
  65:.\Generated_Source\PSoC5/cyfitter_cfg.c ****     while(1) {}
  49              		.loc 1 65 0
  50 000a FEE7     		b	.L2
  51              		.cfi_endproc
  52              	.LFE0:
  53              		.size	CyClockStartupError, .-CyClockStartupError
  54              		.section	.text.cymemzero8,"ax",%progbits
  55              		.align	2
  56              		.thumb
  57              		.thumb_func
  58              		.type	cymemzero8, %function
  59              	cymemzero8:
  60              	.LFB1:
  66:.\Generated_Source\PSoC5/cyfitter_cfg.c **** }
  67:.\Generated_Source\PSoC5/cyfitter_cfg.c **** 
  68:.\Generated_Source\PSoC5/cyfitter_cfg.c **** 
  69:.\Generated_Source\PSoC5/cyfitter_cfg.c **** #undef CYCODE
  70:.\Generated_Source\PSoC5/cyfitter_cfg.c **** #undef CYDATA
  71:.\Generated_Source\PSoC5/cyfitter_cfg.c **** #undef CYXDATA
  72:.\Generated_Source\PSoC5/cyfitter_cfg.c **** #undef CYFAR
  73:.\Generated_Source\PSoC5/cyfitter_cfg.c **** #if defined(__GNUC__) || defined(__ARMCC_VERSION)
  74:.\Generated_Source\PSoC5/cyfitter_cfg.c **** 	#define CYCODE
  75:.\Generated_Source\PSoC5/cyfitter_cfg.c **** 	#define CYDATA
  76:.\Generated_Source\PSoC5/cyfitter_cfg.c **** 	#define CYXDATA
  77:.\Generated_Source\PSoC5/cyfitter_cfg.c **** 	#define CYFAR
  78:.\Generated_Source\PSoC5/cyfitter_cfg.c **** 
  79:.\Generated_Source\PSoC5/cyfitter_cfg.c **** 	#define CYPACKED __attribute__ ((packed))
  80:.\Generated_Source\PSoC5/cyfitter_cfg.c **** 	#define CYALIGNED __attribute__ ((aligned))
  81:.\Generated_Source\PSoC5/cyfitter_cfg.c **** 	
  82:.\Generated_Source\PSoC5/cyfitter_cfg.c ****     #if CYDEV_CONFIGURATION_DMA
  83:.\Generated_Source\PSoC5/cyfitter_cfg.c ****         #define DMAINITSEC __attribute__ ((section (".dma_init")))
  84:.\Generated_Source\PSoC5/cyfitter_cfg.c ****     #else
  85:.\Generated_Source\PSoC5/cyfitter_cfg.c ****         #define DMAINITSEC
  86:.\Generated_Source\PSoC5/cyfitter_cfg.c ****     #endif
  87:.\Generated_Source\PSoC5/cyfitter_cfg.c **** 
  88:.\Generated_Source\PSoC5/cyfitter_cfg.c **** 	#if defined(__ARMCC_VERSION)
  89:.\Generated_Source\PSoC5/cyfitter_cfg.c **** 		#define CY_CFG_MEMORY_BARRIER() __memory_changed()
  90:.\Generated_Source\PSoC5/cyfitter_cfg.c **** 	#else
  91:.\Generated_Source\PSoC5/cyfitter_cfg.c **** 		#define CY_CFG_MEMORY_BARRIER() __sync_synchronize()
  92:.\Generated_Source\PSoC5/cyfitter_cfg.c **** 	#endif
  93:.\Generated_Source\PSoC5/cyfitter_cfg.c **** 	
  94:.\Generated_Source\PSoC5/cyfitter_cfg.c ****     /*******************************************************************************
  95:.\Generated_Source\PSoC5/cyfitter_cfg.c ****     * Function Name: cymemzero8
  96:.\Generated_Source\PSoC5/cyfitter_cfg.c ****     ********************************************************************************
  97:.\Generated_Source\PSoC5/cyfitter_cfg.c ****     * Summary:
  98:.\Generated_Source\PSoC5/cyfitter_cfg.c ****     *  This function is provided as a way to initialize a block of memory to zero
  99:.\Generated_Source\PSoC5/cyfitter_cfg.c ****     *  one byte at a time.  While this is a 32bit processor, some of the 
 100:.\Generated_Source\PSoC5/cyfitter_cfg.c ****     *  configuration registers are only 8bits wide.  This allows us to initialize
 101:.\Generated_Source\PSoC5/cyfitter_cfg.c ****     *  just the registers we care about.
 102:.\Generated_Source\PSoC5/cyfitter_cfg.c ****     *
 103:.\Generated_Source\PSoC5/cyfitter_cfg.c ****     * Parameters:  
 104:.\Generated_Source\PSoC5/cyfitter_cfg.c ****     *   addr  - The first address to start writing zero to.
 105:.\Generated_Source\PSoC5/cyfitter_cfg.c ****     *   count - The number of bytes to write 0 to.
 106:.\Generated_Source\PSoC5/cyfitter_cfg.c ****     *
 107:.\Generated_Source\PSoC5/cyfitter_cfg.c ****     * Return:
ARM GAS  C:\Users\Geo\AppData\Local\Temp\ccVeTRuu.s 			page 4


 108:.\Generated_Source\PSoC5/cyfitter_cfg.c ****     *   void
 109:.\Generated_Source\PSoC5/cyfitter_cfg.c ****     *
 110:.\Generated_Source\PSoC5/cyfitter_cfg.c ****     *******************************************************************************/
 111:.\Generated_Source\PSoC5/cyfitter_cfg.c ****     __attribute__ ((unused))
 112:.\Generated_Source\PSoC5/cyfitter_cfg.c ****     static void cymemzero8(void *addr, unsigned int count)
 113:.\Generated_Source\PSoC5/cyfitter_cfg.c ****     {
  61              		.loc 1 113 0
  62              		.cfi_startproc
  63              		@ args = 0, pretend = 0, frame = 16
  64              		@ frame_needed = 1, uses_anonymous_args = 0
  65              		@ link register save eliminated.
  66 0000 80B4     		push	{r7}
  67              	.LCFI3:
  68              		.cfi_def_cfa_offset 4
  69 0002 85B0     		sub	sp, sp, #20
  70              	.LCFI4:
  71              		.cfi_def_cfa_offset 24
  72 0004 00AF     		add	r7, sp, #0
  73              		.cfi_offset 7, -4
  74              	.LCFI5:
  75              		.cfi_def_cfa_register 7
  76 0006 7860     		str	r0, [r7, #4]
  77 0008 3960     		str	r1, [r7, #0]
 114:.\Generated_Source\PSoC5/cyfitter_cfg.c **** 	    volatile uint8 *addr8 = (uint8 *)addr;
  78              		.loc 1 114 0
  79 000a 7B68     		ldr	r3, [r7, #4]
  80 000c FB60     		str	r3, [r7, #12]
 115:.\Generated_Source\PSoC5/cyfitter_cfg.c **** 	    while (count--)
  81              		.loc 1 115 0
  82 000e 07E0     		b	.L5
  83              	.L6:
 116:.\Generated_Source\PSoC5/cyfitter_cfg.c **** 	    {
 117:.\Generated_Source\PSoC5/cyfitter_cfg.c **** 		    *addr8 = 0;
  84              		.loc 1 117 0
  85 0010 FB68     		ldr	r3, [r7, #12]
  86 0012 4FF00002 		mov	r2, #0
  87 0016 1A70     		strb	r2, [r3, #0]
 118:.\Generated_Source\PSoC5/cyfitter_cfg.c **** 		    addr8++;
  88              		.loc 1 118 0
  89 0018 FB68     		ldr	r3, [r7, #12]
  90 001a 03F10103 		add	r3, r3, #1
  91 001e FB60     		str	r3, [r7, #12]
  92              	.L5:
  93              		.loc 1 115 0
  94 0020 3B68     		ldr	r3, [r7, #0]
  95 0022 002B     		cmp	r3, #0
  96 0024 0CBF     		ite	eq
  97 0026 0023     		moveq	r3, #0
  98 0028 0123     		movne	r3, #1
  99 002a DBB2     		uxtb	r3, r3
 100 002c 3A68     		ldr	r2, [r7, #0]
 101 002e 02F1FF32 		add	r2, r2, #-1
 102 0032 3A60     		str	r2, [r7, #0]
 103 0034 002B     		cmp	r3, #0
 104 0036 EBD1     		bne	.L6
 119:.\Generated_Source\PSoC5/cyfitter_cfg.c **** 	    }
 120:.\Generated_Source\PSoC5/cyfitter_cfg.c ****     }
ARM GAS  C:\Users\Geo\AppData\Local\Temp\ccVeTRuu.s 			page 5


 105              		.loc 1 120 0
 106 0038 07F11407 		add	r7, r7, #20
 107 003c BD46     		mov	sp, r7
 108 003e 80BC     		pop	{r7}
 109 0040 7047     		bx	lr
 110              		.cfi_endproc
 111              	.LFE1:
 112              		.size	cymemzero8, .-cymemzero8
 113 0042 00BF     		.section	.text.cymemcpy8,"ax",%progbits
 114              		.align	2
 115              		.thumb
 116              		.thumb_func
 117              		.type	cymemcpy8, %function
 118              	cymemcpy8:
 119              	.LFB2:
 121:.\Generated_Source\PSoC5/cyfitter_cfg.c **** 
 122:.\Generated_Source\PSoC5/cyfitter_cfg.c ****     /*******************************************************************************
 123:.\Generated_Source\PSoC5/cyfitter_cfg.c ****     * Function Name: cymemcpy8
 124:.\Generated_Source\PSoC5/cyfitter_cfg.c ****     ********************************************************************************
 125:.\Generated_Source\PSoC5/cyfitter_cfg.c ****     * Summary:
 126:.\Generated_Source\PSoC5/cyfitter_cfg.c ****     *  This function is provided as a way to copy data from one location to another
 127:.\Generated_Source\PSoC5/cyfitter_cfg.c ****     *  one byte at a time.  While this is a 32bit processor, some of the 
 128:.\Generated_Source\PSoC5/cyfitter_cfg.c ****     *  configuration registers are only 8bits wide.  This allows us to initialize
 129:.\Generated_Source\PSoC5/cyfitter_cfg.c ****     *  just the registers we care about.
 130:.\Generated_Source\PSoC5/cyfitter_cfg.c ****     *
 131:.\Generated_Source\PSoC5/cyfitter_cfg.c ****     * Parameters:  
 132:.\Generated_Source\PSoC5/cyfitter_cfg.c ****     *   dest  - The destination address to copy data to.
 133:.\Generated_Source\PSoC5/cyfitter_cfg.c ****     *   src   - The source address to copy data from.
 134:.\Generated_Source\PSoC5/cyfitter_cfg.c ****     *   count - The number of bytes to copy from 'src' to 'dest'.
 135:.\Generated_Source\PSoC5/cyfitter_cfg.c ****     *
 136:.\Generated_Source\PSoC5/cyfitter_cfg.c ****     * Return:
 137:.\Generated_Source\PSoC5/cyfitter_cfg.c ****     *   void
 138:.\Generated_Source\PSoC5/cyfitter_cfg.c ****     *
 139:.\Generated_Source\PSoC5/cyfitter_cfg.c ****     *******************************************************************************/
 140:.\Generated_Source\PSoC5/cyfitter_cfg.c ****     __attribute__ ((unused))
 141:.\Generated_Source\PSoC5/cyfitter_cfg.c ****     static void cymemcpy8(void *dest, const void *src, unsigned int count)
 142:.\Generated_Source\PSoC5/cyfitter_cfg.c ****     {
 120              		.loc 1 142 0
 121              		.cfi_startproc
 122              		@ args = 0, pretend = 0, frame = 24
 123              		@ frame_needed = 1, uses_anonymous_args = 0
 124              		@ link register save eliminated.
 125 0000 80B4     		push	{r7}
 126              	.LCFI6:
 127              		.cfi_def_cfa_offset 4
 128 0002 87B0     		sub	sp, sp, #28
 129              	.LCFI7:
 130              		.cfi_def_cfa_offset 32
 131 0004 00AF     		add	r7, sp, #0
 132              		.cfi_offset 7, -4
 133              	.LCFI8:
 134              		.cfi_def_cfa_register 7
 135 0006 F860     		str	r0, [r7, #12]
 136 0008 B960     		str	r1, [r7, #8]
 137 000a 7A60     		str	r2, [r7, #4]
 143:.\Generated_Source\PSoC5/cyfitter_cfg.c **** 	    volatile uint8 *dest8 = (uint8 *)dest;
 138              		.loc 1 143 0
ARM GAS  C:\Users\Geo\AppData\Local\Temp\ccVeTRuu.s 			page 6


 139 000c FB68     		ldr	r3, [r7, #12]
 140 000e 3B61     		str	r3, [r7, #16]
 144:.\Generated_Source\PSoC5/cyfitter_cfg.c **** 	    const uint8 *src8 = (const uint8 *)src;
 141              		.loc 1 144 0
 142 0010 BB68     		ldr	r3, [r7, #8]
 143 0012 7B61     		str	r3, [r7, #20]
 145:.\Generated_Source\PSoC5/cyfitter_cfg.c **** 
 146:.\Generated_Source\PSoC5/cyfitter_cfg.c **** 	    while (count--)
 144              		.loc 1 146 0
 145 0014 0BE0     		b	.L9
 146              	.L10:
 147:.\Generated_Source\PSoC5/cyfitter_cfg.c **** 	    {
 148:.\Generated_Source\PSoC5/cyfitter_cfg.c **** 		    *dest8 = *src8;
 147              		.loc 1 148 0
 148 0016 7B69     		ldr	r3, [r7, #20]
 149 0018 1A78     		ldrb	r2, [r3, #0]	@ zero_extendqisi2
 150 001a 3B69     		ldr	r3, [r7, #16]
 151 001c 1A70     		strb	r2, [r3, #0]
 149:.\Generated_Source\PSoC5/cyfitter_cfg.c **** 		    dest8++;
 152              		.loc 1 149 0
 153 001e 3B69     		ldr	r3, [r7, #16]
 154 0020 03F10103 		add	r3, r3, #1
 155 0024 3B61     		str	r3, [r7, #16]
 150:.\Generated_Source\PSoC5/cyfitter_cfg.c **** 		    src8++;
 156              		.loc 1 150 0
 157 0026 7B69     		ldr	r3, [r7, #20]
 158 0028 03F10103 		add	r3, r3, #1
 159 002c 7B61     		str	r3, [r7, #20]
 160              	.L9:
 161              		.loc 1 146 0
 162 002e 7B68     		ldr	r3, [r7, #4]
 163 0030 002B     		cmp	r3, #0
 164 0032 0CBF     		ite	eq
 165 0034 0023     		moveq	r3, #0
 166 0036 0123     		movne	r3, #1
 167 0038 DBB2     		uxtb	r3, r3
 168 003a 7A68     		ldr	r2, [r7, #4]
 169 003c 02F1FF32 		add	r2, r2, #-1
 170 0040 7A60     		str	r2, [r7, #4]
 171 0042 002B     		cmp	r3, #0
 172 0044 E7D1     		bne	.L10
 151:.\Generated_Source\PSoC5/cyfitter_cfg.c **** 	    }
 152:.\Generated_Source\PSoC5/cyfitter_cfg.c ****     }
 173              		.loc 1 152 0
 174 0046 07F11C07 		add	r7, r7, #28
 175 004a BD46     		mov	sp, r7
 176 004c 80BC     		pop	{r7}
 177 004e 7047     		bx	lr
 178              		.cfi_endproc
 179              	.LFE2:
 180              		.size	cymemcpy8, .-cymemcpy8
 181              		.section	.dma_init,"a",%progbits
 182              		.align	2
 183              		.type	CH1_ADDR_DATA0, %object
 184              		.size	CH1_ADDR_DATA0, 8
 185              	CH1_ADDR_DATA0:
 186 0000 01       		.byte	1
ARM GAS  C:\Users\Geo\AppData\Local\Temp\ccVeTRuu.s 			page 7


 187 0001 00       		.byte	0
 188 0002 00       		.byte	0
 189 0003 00       		.byte	0
 190 0004 00       		.byte	0
 191 0005 20       		.byte	32
 192 0006 00       		.byte	0
 193 0007 40       		.byte	64
 194              		.align	2
 195              		.type	CH2_ADDR_DATA0, %object
 196              		.size	CH2_ADDR_DATA0, 8
 197              	CH2_ADDR_DATA0:
 198 0008 01       		.byte	1
 199 0009 00       		.byte	0
 200 000a 00       		.byte	0
 201 000b 00       		.byte	0
 202 000c 00       		.byte	0
 203 000d 20       		.byte	32
 204 000e 01       		.byte	1
 205 000f 40       		.byte	64
 206              		.align	2
 207              		.type	CH5_ADDR_DATA0, %object
 208              		.size	CH5_ADDR_DATA0, 8
 209              	CH5_ADDR_DATA0:
 210 0010 01       		.byte	1
 211 0011 00       		.byte	0
 212 0012 00       		.byte	0
 213 0013 00       		.byte	0
 214 0014 00       		.byte	0
 215 0015 48       		.byte	72
 216 0016 00       		.byte	0
 217 0017 40       		.byte	64
 218              		.align	2
 219              		.type	CH6_ADDR_DATA0, %object
 220              		.size	CH6_ADDR_DATA0, 8
 221              	CH6_ADDR_DATA0:
 222 0018 01       		.byte	1
 223 0019 00       		.byte	0
 224 001a 00       		.byte	0
 225 001b 00       		.byte	0
 226 001c 00       		.byte	0
 227 001d 48       		.byte	72
 228 001e 01       		.byte	1
 229 001f 40       		.byte	64
 230              		.align	2
 231              		.type	DMA_TD_START_CMD, %object
 232              		.size	DMA_TD_START_CMD, 5
 233              	DMA_TD_START_CMD:
 234 0020 01       		.byte	1
 235 0021 00       		.byte	0
 236 0022 00       		.byte	0
 237 0023 00       		.byte	0
 238 0024 01       		.byte	1
 239              		.bss
 240              		.align	3
 241              	DMA_ZERO_VAL:
 242 0000 00000000 		.space	4
 243 0004 00000000 		.section	.dma_init
ARM GAS  C:\Users\Geo\AppData\Local\Temp\ccVeTRuu.s 			page 8


 244 0025 000000   		.align	2
 245              		.type	CFG_TD_LIST0, %object
 246              		.size	CFG_TD_LIST0, 600
 247              	CFG_TD_LIST0:
 248 0028 0800     		.short	8
 249 002a 02       		.byte	2
 250 002b 23       		.byte	35
 251 002c 0000     		.short	0
 252 002e 0876     		.short	30216
 253 0030 0800     		.short	8
 254 0032 03       		.byte	3
 255 0033 23       		.byte	35
 256 0034 0000     		.short	0
 257 0036 1076     		.short	30224
 258 0038 0800     		.short	8
 259 003a 04       		.byte	4
 260 003b 23       		.byte	35
 261 003c 0000     		.short	0
 262 003e 2876     		.short	30248
 263 0040 0800     		.short	8
 264 0042 05       		.byte	5
 265 0043 23       		.byte	35
 266 0044 0000     		.short	0
 267 0046 3076     		.short	30256
 268 0048 0500     		.short	5
 269 004a 06       		.byte	6
 270 004b 23       		.byte	35
 271 004c 0000     		.short	0
 272 004e 2070     		.short	28704
 273 0050 0500     		.short	5
 274 0052 07       		.byte	7
 275 0053 23       		.byte	35
 276 0054 0000     		.short	0
 277 0056 3070     		.short	28720
 278 0058 0500     		.short	5
 279 005a 08       		.byte	8
 280 005b 23       		.byte	35
 281 005c 0000     		.short	0
 282 005e 6070     		.short	28768
 283 0060 0500     		.short	5
 284 0062 FF       		.byte	-1
 285 0063 23       		.byte	35
 286 0064 0000     		.short	0
 287 0066 7070     		.short	28784
 288 0068 1000     		.short	16
 289 006a 0A       		.byte	10
 290 006b 22       		.byte	34
 291 006c 0000     		.short	0
 292 006e 6051     		.short	20832
 293 0070 1000     		.short	16
 294 0072 FF       		.byte	-1
 295 0073 22       		.byte	34
 296 0074 0000     		.short	0
 297 0076 F051     		.short	20976
 298 0078 8001     		.short	384
 299 007a 0C       		.byte	12
 300 007b 22       		.byte	34
ARM GAS  C:\Users\Geo\AppData\Local\Temp\ccVeTRuu.s 			page 9


 301 007c 0000     		.short	0
 302 007e 0008     		.short	2048
 303 0080 8000     		.short	128
 304 0082 0D       		.byte	13
 305 0083 22       		.byte	34
 306 0084 0000     		.short	0
 307 0086 800C     		.short	3200
 308 0088 8000     		.short	128
 309 008a 0E       		.byte	14
 310 008b 22       		.byte	34
 311 008c 0000     		.short	0
 312 008e 000E     		.short	3584
 313 0090 8002     		.short	640
 314 0092 0F       		.byte	15
 315 0093 22       		.byte	34
 316 0094 0000     		.short	0
 317 0096 0014     		.short	5120
 318 0098 8001     		.short	384
 319 009a 10       		.byte	16
 320 009b 22       		.byte	34
 321 009c 0000     		.short	0
 322 009e 0018     		.short	6144
 323 00a0 0002     		.short	512
 324 00a2 11       		.byte	17
 325 00a3 22       		.byte	34
 326 00a4 0000     		.short	0
 327 00a6 001A     		.short	6656
 328 00a8 8000     		.short	128
 329 00aa 12       		.byte	18
 330 00ab 22       		.byte	34
 331 00ac 0000     		.short	0
 332 00ae 0047     		.short	18176
 333 00b0 8000     		.short	128
 334 00b2 13       		.byte	19
 335 00b3 22       		.byte	34
 336 00b4 0000     		.short	0
 337 00b6 0048     		.short	18432
 338 00b8 0001     		.short	256
 339 00ba 14       		.byte	20
 340 00bb 22       		.byte	34
 341 00bc 0000     		.short	0
 342 00be 0049     		.short	18688
 343 00c0 0001     		.short	256
 344 00c2 FF       		.byte	-1
 345 00c3 22       		.byte	34
 346 00c4 0000     		.short	0
 347 00c6 004D     		.short	19712
 348 00c8 4000     		.short	64
 349 00ca 16       		.byte	22
 350 00cb 23       		.byte	35
 351 00cc 0000     		.short	0
 352 00ce 0064     		.short	25600
 353 00d0 2000     		.short	32
 354 00d2 17       		.byte	23
 355 00d3 23       		.byte	35
 356 00d4 0000     		.short	0
 357 00d6 7064     		.short	25712
ARM GAS  C:\Users\Geo\AppData\Local\Temp\ccVeTRuu.s 			page 10


 358 00d8 2000     		.short	32
 359 00da FF       		.byte	-1
 360 00db 23       		.byte	35
 361 00dc 0000     		.short	0
 362 00de 7065     		.short	25968
 363 00e0 0800     		.short	8
 364 00e2 19       		.byte	25
 365 00e3 23       		.byte	35
 366 00e4 0000     		.short	0
 367 00e6 0051     		.short	20736
 368 00e8 8000     		.short	128
 369 00ea 1A       		.byte	26
 370 00eb 23       		.byte	35
 371 00ec 0000     		.short	0
 372 00ee 0000     		.short	0
 373 00f0 8000     		.short	128
 374 00f2 1B       		.byte	27
 375 00f3 23       		.byte	35
 376 00f4 0000     		.short	0
 377 00f6 8000     		.short	128
 378 00f8 8000     		.short	128
 379 00fa 1C       		.byte	28
 380 00fb 23       		.byte	35
 381 00fc 0000     		.short	0
 382 00fe 0002     		.short	512
 383 0100 8000     		.short	128
 384 0102 1D       		.byte	29
 385 0103 23       		.byte	35
 386 0104 0000     		.short	0
 387 0106 8002     		.short	640
 388 0108 8000     		.short	128
 389 010a 1E       		.byte	30
 390 010b 23       		.byte	35
 391 010c 0000     		.short	0
 392 010e 0004     		.short	1024
 393 0110 8000     		.short	128
 394 0112 1F       		.byte	31
 395 0113 23       		.byte	35
 396 0114 0000     		.short	0
 397 0116 8004     		.short	1152
 398 0118 8000     		.short	128
 399 011a 20       		.byte	32
 400 011b 23       		.byte	35
 401 011c 0000     		.short	0
 402 011e 0006     		.short	1536
 403 0120 8000     		.short	128
 404 0122 21       		.byte	33
 405 0123 23       		.byte	35
 406 0124 0000     		.short	0
 407 0126 8006     		.short	1664
 408 0128 8000     		.short	128
 409 012a 22       		.byte	34
 410 012b 23       		.byte	35
 411 012c 0000     		.short	0
 412 012e 000A     		.short	2560
 413 0130 8000     		.short	128
 414 0132 23       		.byte	35
ARM GAS  C:\Users\Geo\AppData\Local\Temp\ccVeTRuu.s 			page 11


 415 0133 23       		.byte	35
 416 0134 0000     		.short	0
 417 0136 800A     		.short	2688
 418 0138 8000     		.short	128
 419 013a 24       		.byte	36
 420 013b 23       		.byte	35
 421 013c 0000     		.short	0
 422 013e 000C     		.short	3072
 423 0140 8000     		.short	128
 424 0142 25       		.byte	37
 425 0143 23       		.byte	35
 426 0144 0000     		.short	0
 427 0146 800E     		.short	3712
 428 0148 8000     		.short	128
 429 014a 26       		.byte	38
 430 014b 23       		.byte	35
 431 014c 0000     		.short	0
 432 014e 8016     		.short	5760
 433 0150 8000     		.short	128
 434 0152 27       		.byte	39
 435 0153 23       		.byte	35
 436 0154 0000     		.short	0
 437 0156 004C     		.short	19456
 438 0158 8000     		.short	128
 439 015a 28       		.byte	40
 440 015b 23       		.byte	35
 441 015c 0000     		.short	0
 442 015e 804C     		.short	19584
 443 0160 8000     		.short	128
 444 0162 29       		.byte	41
 445 0163 23       		.byte	35
 446 0164 0000     		.short	0
 447 0166 8047     		.short	18304
 448 0168 8000     		.short	128
 449 016a 2A       		.byte	42
 450 016b 23       		.byte	35
 451 016c 0000     		.short	0
 452 016e 0046     		.short	17920
 453 0170 8000     		.short	128
 454 0172 2B       		.byte	43
 455 0173 23       		.byte	35
 456 0174 0000     		.short	0
 457 0176 8046     		.short	18048
 458 0178 8000     		.short	128
 459 017a 2C       		.byte	44
 460 017b 23       		.byte	35
 461 017c 0000     		.short	0
 462 017e 0045     		.short	17664
 463 0180 8000     		.short	128
 464 0182 2D       		.byte	45
 465 0183 23       		.byte	35
 466 0184 0000     		.short	0
 467 0186 8045     		.short	17792
 468 0188 8000     		.short	128
 469 018a 2E       		.byte	46
 470 018b 23       		.byte	35
 471 018c 0000     		.short	0
ARM GAS  C:\Users\Geo\AppData\Local\Temp\ccVeTRuu.s 			page 12


 472 018e 0044     		.short	17408
 473 0190 8000     		.short	128
 474 0192 2F       		.byte	47
 475 0193 23       		.byte	35
 476 0194 0000     		.short	0
 477 0196 8044     		.short	17536
 478 0198 8000     		.short	128
 479 019a 30       		.byte	48
 480 019b 23       		.byte	35
 481 019c 0000     		.short	0
 482 019e 8019     		.short	6528
 483 01a0 8000     		.short	128
 484 01a2 31       		.byte	49
 485 01a3 23       		.byte	35
 486 01a4 0000     		.short	0
 487 01a6 0017     		.short	5888
 488 01a8 8000     		.short	128
 489 01aa 32       		.byte	50
 490 01ab 23       		.byte	35
 491 01ac 0000     		.short	0
 492 01ae 8017     		.short	6016
 493 01b0 8000     		.short	128
 494 01b2 33       		.byte	51
 495 01b3 23       		.byte	35
 496 01b4 0000     		.short	0
 497 01b6 8009     		.short	2432
 498 01b8 8000     		.short	128
 499 01ba 34       		.byte	52
 500 01bb 23       		.byte	35
 501 01bc 0000     		.short	0
 502 01be 0007     		.short	1792
 503 01c0 8000     		.short	128
 504 01c2 35       		.byte	53
 505 01c3 23       		.byte	35
 506 01c4 0000     		.short	0
 507 01c6 8007     		.short	1920
 508 01c8 8000     		.short	128
 509 01ca 36       		.byte	54
 510 01cb 23       		.byte	35
 511 01cc 0000     		.short	0
 512 01ce 000B     		.short	2816
 513 01d0 8000     		.short	128
 514 01d2 37       		.byte	55
 515 01d3 23       		.byte	35
 516 01d4 0000     		.short	0
 517 01d6 800B     		.short	2944
 518 01d8 8000     		.short	128
 519 01da 38       		.byte	56
 520 01db 23       		.byte	35
 521 01dc 0000     		.short	0
 522 01de 0005     		.short	1280
 523 01e0 8000     		.short	128
 524 01e2 39       		.byte	57
 525 01e3 23       		.byte	35
 526 01e4 0000     		.short	0
 527 01e6 8005     		.short	1408
 528 01e8 8000     		.short	128
ARM GAS  C:\Users\Geo\AppData\Local\Temp\ccVeTRuu.s 			page 13


 529 01ea 3A       		.byte	58
 530 01eb 23       		.byte	35
 531 01ec 0000     		.short	0
 532 01ee 000D     		.short	3328
 533 01f0 8000     		.short	128
 534 01f2 3B       		.byte	59
 535 01f3 23       		.byte	35
 536 01f4 0000     		.short	0
 537 01f6 800D     		.short	3456
 538 01f8 8000     		.short	128
 539 01fa 3C       		.byte	60
 540 01fb 23       		.byte	35
 541 01fc 0000     		.short	0
 542 01fe 0003     		.short	768
 543 0200 8000     		.short	128
 544 0202 3D       		.byte	61
 545 0203 23       		.byte	35
 546 0204 0000     		.short	0
 547 0206 8003     		.short	896
 548 0208 8000     		.short	128
 549 020a 3E       		.byte	62
 550 020b 23       		.byte	35
 551 020c 0000     		.short	0
 552 020e 000F     		.short	3840
 553 0210 8000     		.short	128
 554 0212 3F       		.byte	63
 555 0213 23       		.byte	35
 556 0214 0000     		.short	0
 557 0216 800F     		.short	3968
 558 0218 8000     		.short	128
 559 021a 40       		.byte	64
 560 021b 23       		.byte	35
 561 021c 0000     		.short	0
 562 021e 0001     		.short	256
 563 0220 8000     		.short	128
 564 0222 41       		.byte	65
 565 0223 23       		.byte	35
 566 0224 0000     		.short	0
 567 0226 8001     		.short	384
 568 0228 8000     		.short	128
 569 022a 42       		.byte	66
 570 022b 23       		.byte	35
 571 022c 0000     		.short	0
 572 022e 8048     		.short	18560
 573 0230 8000     		.short	128
 574 0232 43       		.byte	67
 575 0233 23       		.byte	35
 576 0234 0000     		.short	0
 577 0236 0043     		.short	17152
 578 0238 8000     		.short	128
 579 023a 44       		.byte	68
 580 023b 23       		.byte	35
 581 023c 0000     		.short	0
 582 023e 8043     		.short	17280
 583 0240 8000     		.short	128
 584 0242 45       		.byte	69
 585 0243 23       		.byte	35
ARM GAS  C:\Users\Geo\AppData\Local\Temp\ccVeTRuu.s 			page 14


 586 0244 0000     		.short	0
 587 0246 0042     		.short	16896
 588 0248 8000     		.short	128
 589 024a 46       		.byte	70
 590 024b 23       		.byte	35
 591 024c 0000     		.short	0
 592 024e 8042     		.short	17024
 593 0250 8000     		.short	128
 594 0252 47       		.byte	71
 595 0253 23       		.byte	35
 596 0254 0000     		.short	0
 597 0256 0041     		.short	16640
 598 0258 8000     		.short	128
 599 025a 48       		.byte	72
 600 025b 23       		.byte	35
 601 025c 0000     		.short	0
 602 025e 8041     		.short	16768
 603 0260 8000     		.short	128
 604 0262 49       		.byte	73
 605 0263 23       		.byte	35
 606 0264 0000     		.short	0
 607 0266 0040     		.short	16384
 608 0268 8000     		.short	128
 609 026a 4A       		.byte	74
 610 026b 23       		.byte	35
 611 026c 0000     		.short	0
 612 026e 8040     		.short	16512
 613 0270 1000     		.short	16
 614 0272 4B       		.byte	75
 615 0273 23       		.byte	35
 616 0274 0000     		.short	0
 617 0276 1050     		.short	20496
 618 0278 1000     		.short	16
 619 027a FF       		.byte	-1
 620 027b 23       		.byte	35
 621 027c 0000     		.short	0
 622 027e 0050     		.short	20480
 623              		.section	.rodata
 624              		.align	2
 625              		.type	CFG_TD_ADDR0, %object
 626              		.size	CFG_TD_ADDR0, 300
 627              	CFG_TD_ADDR0:
 628 0000 00000000 		.word	CH1_ADDR_DATA0
 629 0004 08000000 		.word	CH2_ADDR_DATA0
 630 0008 10000000 		.word	CH5_ADDR_DATA0
 631 000c 18000000 		.word	CH6_ADDR_DATA0
 632 0010 20000000 		.word	DMA_TD_START_CMD
 633 0014 20000000 		.word	DMA_TD_START_CMD
 634 0018 20000000 		.word	DMA_TD_START_CMD
 635 001c 20000000 		.word	DMA_TD_START_CMD
 636 0020 00000000 		.word	DMA_ZERO_VAL
 637 0024 00000000 		.word	DMA_ZERO_VAL
 638 0028 00000000 		.word	DMA_ZERO_VAL
 639 002c 00000000 		.word	DMA_ZERO_VAL
 640 0030 00000000 		.word	DMA_ZERO_VAL
 641 0034 00000000 		.word	DMA_ZERO_VAL
 642 0038 00000000 		.word	DMA_ZERO_VAL
ARM GAS  C:\Users\Geo\AppData\Local\Temp\ccVeTRuu.s 			page 15


 643 003c 00000000 		.word	DMA_ZERO_VAL
 644 0040 00000000 		.word	DMA_ZERO_VAL
 645 0044 00000000 		.word	DMA_ZERO_VAL
 646 0048 00000000 		.word	DMA_ZERO_VAL
 647 004c 00000000 		.word	DMA_ZERO_VAL
 648 0050 88060048 		.word	1207961224
 649 0054 C8060048 		.word	1207961288
 650 0058 E8060048 		.word	1207961320
 651 005c 00000048 		.word	1207959552
 652 0060 08000048 		.word	1207959560
 653 0064 88000048 		.word	1207959688
 654 0068 08010048 		.word	1207959816
 655 006c 88010048 		.word	1207959944
 656 0070 08020048 		.word	1207960072
 657 0074 88020048 		.word	1207960200
 658 0078 08030048 		.word	1207960328
 659 007c 88030048 		.word	1207960456
 660 0080 08040048 		.word	1207960584
 661 0084 88040048 		.word	1207960712
 662 0088 08050048 		.word	1207960840
 663 008c 88050048 		.word	1207960968
 664 0090 08060048 		.word	1207961096
 665 0094 08070048 		.word	1207961352
 666 0098 88070048 		.word	1207961480
 667 009c 08080048 		.word	1207961608
 668 00a0 88080048 		.word	1207961736
 669 00a4 08090048 		.word	1207961864
 670 00a8 88090048 		.word	1207961992
 671 00ac 080A0048 		.word	1207962120
 672 00b0 880A0048 		.word	1207962248
 673 00b4 080B0048 		.word	1207962376
 674 00b8 880B0048 		.word	1207962504
 675 00bc 080C0048 		.word	1207962632
 676 00c0 880C0048 		.word	1207962760
 677 00c4 080D0048 		.word	1207962888
 678 00c8 880D0048 		.word	1207963016
 679 00cc 080E0048 		.word	1207963144
 680 00d0 880E0048 		.word	1207963272
 681 00d4 080F0048 		.word	1207963400
 682 00d8 880F0048 		.word	1207963528
 683 00dc 08100048 		.word	1207963656
 684 00e0 88100048 		.word	1207963784
 685 00e4 08110048 		.word	1207963912
 686 00e8 88110048 		.word	1207964040
 687 00ec 08120048 		.word	1207964168
 688 00f0 88120048 		.word	1207964296
 689 00f4 08130048 		.word	1207964424
 690 00f8 88130048 		.word	1207964552
 691 00fc 08140048 		.word	1207964680
 692 0100 88140048 		.word	1207964808
 693 0104 08150048 		.word	1207964936
 694 0108 88150048 		.word	1207965064
 695 010c 08160048 		.word	1207965192
 696 0110 88160048 		.word	1207965320
 697 0114 08170048 		.word	1207965448
 698 0118 88170048 		.word	1207965576
 699 011c 08180048 		.word	1207965704
ARM GAS  C:\Users\Geo\AppData\Local\Temp\ccVeTRuu.s 			page 16


 700 0120 88180048 		.word	1207965832
 701 0124 08190048 		.word	1207965960
 702 0128 18190048 		.word	1207965976
 703              		.section	.text.cfg_dma_init,"ax",%progbits
 704              		.align	2
 705              		.thumb
 706              		.thumb_func
 707              		.type	cfg_dma_init, %function
 708              	cfg_dma_init:
 709              	.LFB3:
 153:.\Generated_Source\PSoC5/cyfitter_cfg.c **** 
 154:.\Generated_Source\PSoC5/cyfitter_cfg.c ****     #define CYMEMZERO8(a,c) cymemzero8((a),(c))
 155:.\Generated_Source\PSoC5/cyfitter_cfg.c ****     #define CYCONFIGCPY8(d,s,c) cymemcpy8((d),(s),(c))
 156:.\Generated_Source\PSoC5/cyfitter_cfg.c ****     #define CYCONFIGCPYCODE8(d,s,c) cymemcpy8((d),(s),(c))
 157:.\Generated_Source\PSoC5/cyfitter_cfg.c **** 	
 158:.\Generated_Source\PSoC5/cyfitter_cfg.c **** 	#define CYMEMZERO(a,c) memset((a),0,(c))
 159:.\Generated_Source\PSoC5/cyfitter_cfg.c **** 	#define CYCONFIGCPY(d,s,c) memcpy((d),(s),(c))
 160:.\Generated_Source\PSoC5/cyfitter_cfg.c **** 	#define CYCONFIGCPYCODE(d,s,c) memcpy((d),(s),(c))
 161:.\Generated_Source\PSoC5/cyfitter_cfg.c **** #else
 162:.\Generated_Source\PSoC5/cyfitter_cfg.c **** 	#error Unsupported toolchain
 163:.\Generated_Source\PSoC5/cyfitter_cfg.c **** #endif
 164:.\Generated_Source\PSoC5/cyfitter_cfg.c **** 
 165:.\Generated_Source\PSoC5/cyfitter_cfg.c **** /* Defines the layout and meaning of each entry in the cfg_memset_list used for clearing registers 
 166:.\Generated_Source\PSoC5/cyfitter_cfg.c **** typedef struct {
 167:.\Generated_Source\PSoC5/cyfitter_cfg.c **** 	void CYFAR *address;
 168:.\Generated_Source\PSoC5/cyfitter_cfg.c **** 	uint16 size;
 169:.\Generated_Source\PSoC5/cyfitter_cfg.c **** } CYPACKED cfg_memset_t;
 170:.\Generated_Source\PSoC5/cyfitter_cfg.c **** 
 171:.\Generated_Source\PSoC5/cyfitter_cfg.c **** /* Defines the layout and meaning of each entry in the cfg_memcpy_list used for initializing regist
 172:.\Generated_Source\PSoC5/cyfitter_cfg.c **** typedef struct {
 173:.\Generated_Source\PSoC5/cyfitter_cfg.c **** 	void CYFAR *dest;
 174:.\Generated_Source\PSoC5/cyfitter_cfg.c **** 	const void CYFAR *src;
 175:.\Generated_Source\PSoC5/cyfitter_cfg.c **** 	uint16 size;
 176:.\Generated_Source\PSoC5/cyfitter_cfg.c **** } CYPACKED cfg_memcpy_t;
 177:.\Generated_Source\PSoC5/cyfitter_cfg.c **** 
 178:.\Generated_Source\PSoC5/cyfitter_cfg.c **** /* TD structure for little-endian systems. Does not require endian swap */
 179:.\Generated_Source\PSoC5/cyfitter_cfg.c **** struct td_t {
 180:.\Generated_Source\PSoC5/cyfitter_cfg.c **** 	uint16 size;
 181:.\Generated_Source\PSoC5/cyfitter_cfg.c **** 	uint8 next_td_ptr;
 182:.\Generated_Source\PSoC5/cyfitter_cfg.c **** 	uint8 flags;
 183:.\Generated_Source\PSoC5/cyfitter_cfg.c **** 	uint16 src;
 184:.\Generated_Source\PSoC5/cyfitter_cfg.c **** 	uint16 dest;
 185:.\Generated_Source\PSoC5/cyfitter_cfg.c **** } CYPACKED;
 186:.\Generated_Source\PSoC5/cyfitter_cfg.c **** 
 187:.\Generated_Source\PSoC5/cyfitter_cfg.c **** /* IDMUX_IRQ Address: CYREG_IDMUX_IRQ_CTL0 Size (bytes): 8 */
 188:.\Generated_Source\PSoC5/cyfitter_cfg.c **** #define BS_IDMUX_IRQ_VAL ((const uint8 CYFAR *)0x48000000)
 189:.\Generated_Source\PSoC5/cyfitter_cfg.c **** 
 190:.\Generated_Source\PSoC5/cyfitter_cfg.c **** /* UDB_1_5_0_CONFIG Address: CYDEV_UCFG_B0_P0_U0_BASE Size (bytes): 128 */
 191:.\Generated_Source\PSoC5/cyfitter_cfg.c **** #define BS_UDB_1_5_0_CONFIG_VAL ((const uint8 CYFAR *)0x48000008)
 192:.\Generated_Source\PSoC5/cyfitter_cfg.c **** 
 193:.\Generated_Source\PSoC5/cyfitter_cfg.c **** /* UDB_1_5_1_CONFIG Address: CYDEV_UCFG_B0_P0_U1_BASE Size (bytes): 128 */
 194:.\Generated_Source\PSoC5/cyfitter_cfg.c **** #define BS_UDB_1_5_1_CONFIG_VAL ((const uint8 CYFAR *)0x48000088)
 195:.\Generated_Source\PSoC5/cyfitter_cfg.c **** 
 196:.\Generated_Source\PSoC5/cyfitter_cfg.c **** /* UDB_1_4_1_CONFIG Address: CYDEV_UCFG_B0_P1_U0_BASE Size (bytes): 128 */
 197:.\Generated_Source\PSoC5/cyfitter_cfg.c **** #define BS_UDB_1_4_1_CONFIG_VAL ((const uint8 CYFAR *)0x48000108)
 198:.\Generated_Source\PSoC5/cyfitter_cfg.c **** 
 199:.\Generated_Source\PSoC5/cyfitter_cfg.c **** /* UDB_1_4_0_CONFIG Address: CYDEV_UCFG_B0_P1_U1_BASE Size (bytes): 128 */
ARM GAS  C:\Users\Geo\AppData\Local\Temp\ccVeTRuu.s 			page 17


 200:.\Generated_Source\PSoC5/cyfitter_cfg.c **** #define BS_UDB_1_4_0_CONFIG_VAL ((const uint8 CYFAR *)0x48000188)
 201:.\Generated_Source\PSoC5/cyfitter_cfg.c **** 
 202:.\Generated_Source\PSoC5/cyfitter_cfg.c **** /* UDB_1_3_0_CONFIG Address: CYDEV_UCFG_B0_P2_U0_BASE Size (bytes): 128 */
 203:.\Generated_Source\PSoC5/cyfitter_cfg.c **** #define BS_UDB_1_3_0_CONFIG_VAL ((const uint8 CYFAR *)0x48000208)
 204:.\Generated_Source\PSoC5/cyfitter_cfg.c **** 
 205:.\Generated_Source\PSoC5/cyfitter_cfg.c **** /* UDB_1_3_1_CONFIG Address: CYDEV_UCFG_B0_P2_U1_BASE Size (bytes): 128 */
 206:.\Generated_Source\PSoC5/cyfitter_cfg.c **** #define BS_UDB_1_3_1_CONFIG_VAL ((const uint8 CYFAR *)0x48000288)
 207:.\Generated_Source\PSoC5/cyfitter_cfg.c **** 
 208:.\Generated_Source\PSoC5/cyfitter_cfg.c **** /* UDB_1_2_1_CONFIG Address: CYDEV_UCFG_B0_P3_U0_BASE Size (bytes): 128 */
 209:.\Generated_Source\PSoC5/cyfitter_cfg.c **** #define BS_UDB_1_2_1_CONFIG_VAL ((const uint8 CYFAR *)0x48000308)
 210:.\Generated_Source\PSoC5/cyfitter_cfg.c **** 
 211:.\Generated_Source\PSoC5/cyfitter_cfg.c **** /* UDB_1_2_0_CONFIG Address: CYDEV_UCFG_B0_P3_U1_BASE Size (bytes): 128 */
 212:.\Generated_Source\PSoC5/cyfitter_cfg.c **** #define BS_UDB_1_2_0_CONFIG_VAL ((const uint8 CYFAR *)0x48000388)
 213:.\Generated_Source\PSoC5/cyfitter_cfg.c **** 
 214:.\Generated_Source\PSoC5/cyfitter_cfg.c **** /* UDB_0_3_0_CONFIG Address: CYDEV_UCFG_B0_P5_U0_BASE Size (bytes): 128 */
 215:.\Generated_Source\PSoC5/cyfitter_cfg.c **** #define BS_UDB_0_3_0_CONFIG_VAL ((const uint8 CYFAR *)0x48000408)
 216:.\Generated_Source\PSoC5/cyfitter_cfg.c **** 
 217:.\Generated_Source\PSoC5/cyfitter_cfg.c **** /* UDB_0_3_1_CONFIG Address: CYDEV_UCFG_B0_P5_U1_BASE Size (bytes): 128 */
 218:.\Generated_Source\PSoC5/cyfitter_cfg.c **** #define BS_UDB_0_3_1_CONFIG_VAL ((const uint8 CYFAR *)0x48000488)
 219:.\Generated_Source\PSoC5/cyfitter_cfg.c **** 
 220:.\Generated_Source\PSoC5/cyfitter_cfg.c **** /* UDB_0_4_1_CONFIG Address: CYDEV_UCFG_B0_P6_U0_BASE Size (bytes): 128 */
 221:.\Generated_Source\PSoC5/cyfitter_cfg.c **** #define BS_UDB_0_4_1_CONFIG_VAL ((const uint8 CYFAR *)0x48000508)
 222:.\Generated_Source\PSoC5/cyfitter_cfg.c **** 
 223:.\Generated_Source\PSoC5/cyfitter_cfg.c **** /* UDB_0_5_1_CONFIG Address: CYDEV_UCFG_B0_P7_U1_BASE Size (bytes): 128 */
 224:.\Generated_Source\PSoC5/cyfitter_cfg.c **** #define BS_UDB_0_5_1_CONFIG_VAL ((const uint8 CYFAR *)0x48000588)
 225:.\Generated_Source\PSoC5/cyfitter_cfg.c **** 
 226:.\Generated_Source\PSoC5/cyfitter_cfg.c **** /* UDB_1_1_0_CONFIG Address: CYDEV_UCFG_B1_P3_U1_BASE Size (bytes): 128 */
 227:.\Generated_Source\PSoC5/cyfitter_cfg.c **** #define BS_UDB_1_1_0_CONFIG_VAL ((const uint8 CYFAR *)0x48000608)
 228:.\Generated_Source\PSoC5/cyfitter_cfg.c **** 
 229:.\Generated_Source\PSoC5/cyfitter_cfg.c **** /* UWRK_B0_WRK_DP_BITS Address: CYDEV_UWRK_UWRK8_B0_BASE Size (bytes): 64 */
 230:.\Generated_Source\PSoC5/cyfitter_cfg.c **** #define BS_UWRK_B0_WRK_DP_BITS_VAL ((const uint8 CYFAR *)0x48000688)
 231:.\Generated_Source\PSoC5/cyfitter_cfg.c **** 
 232:.\Generated_Source\PSoC5/cyfitter_cfg.c **** /* UWRK_B0_WRK_STATCTL_BITS Address: CYDEV_UWRK_UWRK8_B0_BASE + 0x00000070 Size (bytes): 32 */
 233:.\Generated_Source\PSoC5/cyfitter_cfg.c **** #define BS_UWRK_B0_WRK_STATCTL_BITS_VAL ((const uint8 CYFAR *)0x480006C8)
 234:.\Generated_Source\PSoC5/cyfitter_cfg.c **** 
 235:.\Generated_Source\PSoC5/cyfitter_cfg.c **** /* UWRK_B1_WRK_STATCTL_BITS Address: CYDEV_UWRK_UWRK8_B1_BASE + 0x00000070 Size (bytes): 32 */
 236:.\Generated_Source\PSoC5/cyfitter_cfg.c **** #define BS_UWRK_B1_WRK_STATCTL_BITS_VAL ((const uint8 CYFAR *)0x480006E8)
 237:.\Generated_Source\PSoC5/cyfitter_cfg.c **** 
 238:.\Generated_Source\PSoC5/cyfitter_cfg.c **** /* DSISWITCH_0_1 Address: CYDEV_UCFG_DSI12_BASE Size (bytes): 128 */
 239:.\Generated_Source\PSoC5/cyfitter_cfg.c **** #define BS_DSISWITCH_0_1_VAL ((const uint8 CYFAR *)0x48000708)
 240:.\Generated_Source\PSoC5/cyfitter_cfg.c **** 
 241:.\Generated_Source\PSoC5/cyfitter_cfg.c **** /* DSI0_1_HV_ROUTING Address: CYDEV_UCFG_DSI12_BASE + 0x00000080 Size (bytes): 128 */
 242:.\Generated_Source\PSoC5/cyfitter_cfg.c **** #define BS_DSI0_1_HV_ROUTING_VAL ((const uint8 CYFAR *)0x48000788)
 243:.\Generated_Source\PSoC5/cyfitter_cfg.c **** 
 244:.\Generated_Source\PSoC5/cyfitter_cfg.c **** /* DSI0_2_HV_ROUTING Address: CYDEV_UCFG_DSI7_BASE + 0x00000080 Size (bytes): 128 */
 245:.\Generated_Source\PSoC5/cyfitter_cfg.c **** #define BS_DSI0_2_HV_ROUTING_VAL ((const uint8 CYFAR *)0x48000808)
 246:.\Generated_Source\PSoC5/cyfitter_cfg.c **** 
 247:.\Generated_Source\PSoC5/cyfitter_cfg.c **** /* DSISWITCH_0_3 Address: CYDEV_UCFG_DSI6_BASE Size (bytes): 128 */
 248:.\Generated_Source\PSoC5/cyfitter_cfg.c **** #define BS_DSISWITCH_0_3_VAL ((const uint8 CYFAR *)0x48000888)
 249:.\Generated_Source\PSoC5/cyfitter_cfg.c **** 
 250:.\Generated_Source\PSoC5/cyfitter_cfg.c **** /* DSI0_3_HV_ROUTING Address: CYDEV_UCFG_DSI6_BASE + 0x00000080 Size (bytes): 128 */
 251:.\Generated_Source\PSoC5/cyfitter_cfg.c **** #define BS_DSI0_3_HV_ROUTING_VAL ((const uint8 CYFAR *)0x48000908)
 252:.\Generated_Source\PSoC5/cyfitter_cfg.c **** 
 253:.\Generated_Source\PSoC5/cyfitter_cfg.c **** /* DSISWITCH_0_4 Address: CYDEV_UCFG_DSI5_BASE Size (bytes): 128 */
 254:.\Generated_Source\PSoC5/cyfitter_cfg.c **** #define BS_DSISWITCH_0_4_VAL ((const uint8 CYFAR *)0x48000988)
 255:.\Generated_Source\PSoC5/cyfitter_cfg.c **** 
 256:.\Generated_Source\PSoC5/cyfitter_cfg.c **** /* DSI0_4_HV_ROUTING Address: CYDEV_UCFG_DSI5_BASE + 0x00000080 Size (bytes): 128 */
ARM GAS  C:\Users\Geo\AppData\Local\Temp\ccVeTRuu.s 			page 18


 257:.\Generated_Source\PSoC5/cyfitter_cfg.c **** #define BS_DSI0_4_HV_ROUTING_VAL ((const uint8 CYFAR *)0x48000A08)
 258:.\Generated_Source\PSoC5/cyfitter_cfg.c **** 
 259:.\Generated_Source\PSoC5/cyfitter_cfg.c **** /* DSISWITCH_0_5 Address: CYDEV_UCFG_DSI4_BASE Size (bytes): 128 */
 260:.\Generated_Source\PSoC5/cyfitter_cfg.c **** #define BS_DSISWITCH_0_5_VAL ((const uint8 CYFAR *)0x48000A88)
 261:.\Generated_Source\PSoC5/cyfitter_cfg.c **** 
 262:.\Generated_Source\PSoC5/cyfitter_cfg.c **** /* DSI0_5_HV_ROUTING Address: CYDEV_UCFG_DSI4_BASE + 0x00000080 Size (bytes): 128 */
 263:.\Generated_Source\PSoC5/cyfitter_cfg.c **** #define BS_DSI0_5_HV_ROUTING_VAL ((const uint8 CYFAR *)0x48000B08)
 264:.\Generated_Source\PSoC5/cyfitter_cfg.c **** 
 265:.\Generated_Source\PSoC5/cyfitter_cfg.c **** /* UDB_1_1_HV_ROUTING Address: CYDEV_UCFG_B1_P4_ROUTE_BASE + 0x00000080 Size (bytes): 128 */
 266:.\Generated_Source\PSoC5/cyfitter_cfg.c **** #define BS_UDB_1_1_HV_ROUTING_VAL ((const uint8 CYFAR *)0x48000B88)
 267:.\Generated_Source\PSoC5/cyfitter_cfg.c **** 
 268:.\Generated_Source\PSoC5/cyfitter_cfg.c **** /* UDBSWITCH_1_1 Address: CYDEV_UCFG_B1_P3_ROUTE_BASE Size (bytes): 128 */
 269:.\Generated_Source\PSoC5/cyfitter_cfg.c **** #define BS_UDBSWITCH_1_1_VAL ((const uint8 CYFAR *)0x48000C08)
 270:.\Generated_Source\PSoC5/cyfitter_cfg.c **** 
 271:.\Generated_Source\PSoC5/cyfitter_cfg.c **** /* UDB_2_1_HV_ROUTING Address: CYDEV_UCFG_B1_P3_ROUTE_BASE + 0x00000080 Size (bytes): 128 */
 272:.\Generated_Source\PSoC5/cyfitter_cfg.c **** #define BS_UDB_2_1_HV_ROUTING_VAL ((const uint8 CYFAR *)0x48000C88)
 273:.\Generated_Source\PSoC5/cyfitter_cfg.c **** 
 274:.\Generated_Source\PSoC5/cyfitter_cfg.c **** /* UDB_1_2_HV_ROUTING Address: CYDEV_UCFG_B0_P4_ROUTE_BASE + 0x00000080 Size (bytes): 128 */
 275:.\Generated_Source\PSoC5/cyfitter_cfg.c **** #define BS_UDB_1_2_HV_ROUTING_VAL ((const uint8 CYFAR *)0x48000D08)
 276:.\Generated_Source\PSoC5/cyfitter_cfg.c **** 
 277:.\Generated_Source\PSoC5/cyfitter_cfg.c **** /* UDBSWITCH_1_2 Address: CYDEV_UCFG_B0_P3_ROUTE_BASE Size (bytes): 128 */
 278:.\Generated_Source\PSoC5/cyfitter_cfg.c **** #define BS_UDBSWITCH_1_2_VAL ((const uint8 CYFAR *)0x48000D88)
 279:.\Generated_Source\PSoC5/cyfitter_cfg.c **** 
 280:.\Generated_Source\PSoC5/cyfitter_cfg.c **** /* UDB_2_2_HV_ROUTING Address: CYDEV_UCFG_B0_P3_ROUTE_BASE + 0x00000080 Size (bytes): 128 */
 281:.\Generated_Source\PSoC5/cyfitter_cfg.c **** #define BS_UDB_2_2_HV_ROUTING_VAL ((const uint8 CYFAR *)0x48000E08)
 282:.\Generated_Source\PSoC5/cyfitter_cfg.c **** 
 283:.\Generated_Source\PSoC5/cyfitter_cfg.c **** /* UDBSWITCH_0_3 Address: CYDEV_UCFG_B0_P5_ROUTE_BASE Size (bytes): 128 */
 284:.\Generated_Source\PSoC5/cyfitter_cfg.c **** #define BS_UDBSWITCH_0_3_VAL ((const uint8 CYFAR *)0x48000E88)
 285:.\Generated_Source\PSoC5/cyfitter_cfg.c **** 
 286:.\Generated_Source\PSoC5/cyfitter_cfg.c **** /* UDB_1_3_HV_ROUTING Address: CYDEV_UCFG_B0_P5_ROUTE_BASE + 0x00000080 Size (bytes): 128 */
 287:.\Generated_Source\PSoC5/cyfitter_cfg.c **** #define BS_UDB_1_3_HV_ROUTING_VAL ((const uint8 CYFAR *)0x48000F08)
 288:.\Generated_Source\PSoC5/cyfitter_cfg.c **** 
 289:.\Generated_Source\PSoC5/cyfitter_cfg.c **** /* UDBSWITCH_1_3 Address: CYDEV_UCFG_B0_P2_ROUTE_BASE Size (bytes): 128 */
 290:.\Generated_Source\PSoC5/cyfitter_cfg.c **** #define BS_UDBSWITCH_1_3_VAL ((const uint8 CYFAR *)0x48000F88)
 291:.\Generated_Source\PSoC5/cyfitter_cfg.c **** 
 292:.\Generated_Source\PSoC5/cyfitter_cfg.c **** /* UDB_2_3_HV_ROUTING Address: CYDEV_UCFG_B0_P2_ROUTE_BASE + 0x00000080 Size (bytes): 128 */
 293:.\Generated_Source\PSoC5/cyfitter_cfg.c **** #define BS_UDB_2_3_HV_ROUTING_VAL ((const uint8 CYFAR *)0x48001008)
 294:.\Generated_Source\PSoC5/cyfitter_cfg.c **** 
 295:.\Generated_Source\PSoC5/cyfitter_cfg.c **** /* UDBSWITCH_0_4 Address: CYDEV_UCFG_B0_P6_ROUTE_BASE Size (bytes): 128 */
 296:.\Generated_Source\PSoC5/cyfitter_cfg.c **** #define BS_UDBSWITCH_0_4_VAL ((const uint8 CYFAR *)0x48001088)
 297:.\Generated_Source\PSoC5/cyfitter_cfg.c **** 
 298:.\Generated_Source\PSoC5/cyfitter_cfg.c **** /* UDB_1_4_HV_ROUTING Address: CYDEV_UCFG_B0_P6_ROUTE_BASE + 0x00000080 Size (bytes): 128 */
 299:.\Generated_Source\PSoC5/cyfitter_cfg.c **** #define BS_UDB_1_4_HV_ROUTING_VAL ((const uint8 CYFAR *)0x48001108)
 300:.\Generated_Source\PSoC5/cyfitter_cfg.c **** 
 301:.\Generated_Source\PSoC5/cyfitter_cfg.c **** /* UDBSWITCH_1_4 Address: CYDEV_UCFG_B0_P1_ROUTE_BASE Size (bytes): 128 */
 302:.\Generated_Source\PSoC5/cyfitter_cfg.c **** #define BS_UDBSWITCH_1_4_VAL ((const uint8 CYFAR *)0x48001188)
 303:.\Generated_Source\PSoC5/cyfitter_cfg.c **** 
 304:.\Generated_Source\PSoC5/cyfitter_cfg.c **** /* UDB_2_4_HV_ROUTING Address: CYDEV_UCFG_B0_P1_ROUTE_BASE + 0x00000080 Size (bytes): 128 */
 305:.\Generated_Source\PSoC5/cyfitter_cfg.c **** #define BS_UDB_2_4_HV_ROUTING_VAL ((const uint8 CYFAR *)0x48001208)
 306:.\Generated_Source\PSoC5/cyfitter_cfg.c **** 
 307:.\Generated_Source\PSoC5/cyfitter_cfg.c **** /* UDBSWITCH_0_5 Address: CYDEV_UCFG_B0_P7_ROUTE_BASE Size (bytes): 128 */
 308:.\Generated_Source\PSoC5/cyfitter_cfg.c **** #define BS_UDBSWITCH_0_5_VAL ((const uint8 CYFAR *)0x48001288)
 309:.\Generated_Source\PSoC5/cyfitter_cfg.c **** 
 310:.\Generated_Source\PSoC5/cyfitter_cfg.c **** /* UDB_1_5_HV_ROUTING Address: CYDEV_UCFG_B0_P7_ROUTE_BASE + 0x00000080 Size (bytes): 128 */
 311:.\Generated_Source\PSoC5/cyfitter_cfg.c **** #define BS_UDB_1_5_HV_ROUTING_VAL ((const uint8 CYFAR *)0x48001308)
 312:.\Generated_Source\PSoC5/cyfitter_cfg.c **** 
 313:.\Generated_Source\PSoC5/cyfitter_cfg.c **** /* UDBSWITCH_1_5 Address: CYDEV_UCFG_B0_P0_ROUTE_BASE Size (bytes): 128 */
ARM GAS  C:\Users\Geo\AppData\Local\Temp\ccVeTRuu.s 			page 19


 314:.\Generated_Source\PSoC5/cyfitter_cfg.c **** #define BS_UDBSWITCH_1_5_VAL ((const uint8 CYFAR *)0x48001388)
 315:.\Generated_Source\PSoC5/cyfitter_cfg.c **** 
 316:.\Generated_Source\PSoC5/cyfitter_cfg.c **** /* UDB_2_5_HV_ROUTING Address: CYDEV_UCFG_B0_P0_ROUTE_BASE + 0x00000080 Size (bytes): 128 */
 317:.\Generated_Source\PSoC5/cyfitter_cfg.c **** #define BS_UDB_2_5_HV_ROUTING_VAL ((const uint8 CYFAR *)0x48001408)
 318:.\Generated_Source\PSoC5/cyfitter_cfg.c **** 
 319:.\Generated_Source\PSoC5/cyfitter_cfg.c **** /* DSI3_1_HV_ROUTING Address: CYDEV_UCFG_DSI8_BASE + 0x00000080 Size (bytes): 128 */
 320:.\Generated_Source\PSoC5/cyfitter_cfg.c **** #define BS_DSI3_1_HV_ROUTING_VAL ((const uint8 CYFAR *)0x48001488)
 321:.\Generated_Source\PSoC5/cyfitter_cfg.c **** 
 322:.\Generated_Source\PSoC5/cyfitter_cfg.c **** /* DSISWITCH_1_2 Address: CYDEV_UCFG_DSI3_BASE Size (bytes): 128 */
 323:.\Generated_Source\PSoC5/cyfitter_cfg.c **** #define BS_DSISWITCH_1_2_VAL ((const uint8 CYFAR *)0x48001508)
 324:.\Generated_Source\PSoC5/cyfitter_cfg.c **** 
 325:.\Generated_Source\PSoC5/cyfitter_cfg.c **** /* DSI3_2_HV_ROUTING Address: CYDEV_UCFG_DSI3_BASE + 0x00000080 Size (bytes): 128 */
 326:.\Generated_Source\PSoC5/cyfitter_cfg.c **** #define BS_DSI3_2_HV_ROUTING_VAL ((const uint8 CYFAR *)0x48001588)
 327:.\Generated_Source\PSoC5/cyfitter_cfg.c **** 
 328:.\Generated_Source\PSoC5/cyfitter_cfg.c **** /* DSISWITCH_1_3 Address: CYDEV_UCFG_DSI2_BASE Size (bytes): 128 */
 329:.\Generated_Source\PSoC5/cyfitter_cfg.c **** #define BS_DSISWITCH_1_3_VAL ((const uint8 CYFAR *)0x48001608)
 330:.\Generated_Source\PSoC5/cyfitter_cfg.c **** 
 331:.\Generated_Source\PSoC5/cyfitter_cfg.c **** /* DSI3_3_HV_ROUTING Address: CYDEV_UCFG_DSI2_BASE + 0x00000080 Size (bytes): 128 */
 332:.\Generated_Source\PSoC5/cyfitter_cfg.c **** #define BS_DSI3_3_HV_ROUTING_VAL ((const uint8 CYFAR *)0x48001688)
 333:.\Generated_Source\PSoC5/cyfitter_cfg.c **** 
 334:.\Generated_Source\PSoC5/cyfitter_cfg.c **** /* DSISWITCH_1_4 Address: CYDEV_UCFG_DSI1_BASE Size (bytes): 128 */
 335:.\Generated_Source\PSoC5/cyfitter_cfg.c **** #define BS_DSISWITCH_1_4_VAL ((const uint8 CYFAR *)0x48001708)
 336:.\Generated_Source\PSoC5/cyfitter_cfg.c **** 
 337:.\Generated_Source\PSoC5/cyfitter_cfg.c **** /* DSI3_4_HV_ROUTING Address: CYDEV_UCFG_DSI1_BASE + 0x00000080 Size (bytes): 128 */
 338:.\Generated_Source\PSoC5/cyfitter_cfg.c **** #define BS_DSI3_4_HV_ROUTING_VAL ((const uint8 CYFAR *)0x48001788)
 339:.\Generated_Source\PSoC5/cyfitter_cfg.c **** 
 340:.\Generated_Source\PSoC5/cyfitter_cfg.c **** /* DSISWITCH_1_5 Address: CYDEV_UCFG_DSI0_BASE Size (bytes): 128 */
 341:.\Generated_Source\PSoC5/cyfitter_cfg.c **** #define BS_DSISWITCH_1_5_VAL ((const uint8 CYFAR *)0x48001808)
 342:.\Generated_Source\PSoC5/cyfitter_cfg.c **** 
 343:.\Generated_Source\PSoC5/cyfitter_cfg.c **** /* DSI3_5_HV_ROUTING Address: CYDEV_UCFG_DSI0_BASE + 0x00000080 Size (bytes): 128 */
 344:.\Generated_Source\PSoC5/cyfitter_cfg.c **** #define BS_DSI3_5_HV_ROUTING_VAL ((const uint8 CYFAR *)0x48001888)
 345:.\Generated_Source\PSoC5/cyfitter_cfg.c **** 
 346:.\Generated_Source\PSoC5/cyfitter_cfg.c **** /* UCFG_BCTL1 Address: CYREG_BCTL1_MDCLK_EN Size (bytes): 16 */
 347:.\Generated_Source\PSoC5/cyfitter_cfg.c **** #define BS_UCFG_BCTL1_VAL ((const uint8 CYFAR *)0x48001908)
 348:.\Generated_Source\PSoC5/cyfitter_cfg.c **** 
 349:.\Generated_Source\PSoC5/cyfitter_cfg.c **** /* UCFG_BCTL0 Address: CYREG_BCTL0_MDCLK_EN Size (bytes): 16 */
 350:.\Generated_Source\PSoC5/cyfitter_cfg.c **** #define BS_UCFG_BCTL0_VAL ((const uint8 CYFAR *)0x48001918)
 351:.\Generated_Source\PSoC5/cyfitter_cfg.c **** 
 352:.\Generated_Source\PSoC5/cyfitter_cfg.c **** /* IOPINS0_0 Address: CYREG_PRT0_DM0 Size (bytes): 8 */
 353:.\Generated_Source\PSoC5/cyfitter_cfg.c **** #define BS_IOPINS0_0_VAL ((const uint8 CYFAR *)0x48001928)
 354:.\Generated_Source\PSoC5/cyfitter_cfg.c **** 
 355:.\Generated_Source\PSoC5/cyfitter_cfg.c **** /* IOPINS0_1 Address: CYREG_PRT1_DM0 Size (bytes): 8 */
 356:.\Generated_Source\PSoC5/cyfitter_cfg.c **** #define BS_IOPINS0_1_VAL ((const uint8 CYFAR *)0x48001930)
 357:.\Generated_Source\PSoC5/cyfitter_cfg.c **** 
 358:.\Generated_Source\PSoC5/cyfitter_cfg.c **** /* IOPINS0_7 Address: CYREG_PRT12_DM0 Size (bytes): 8 */
 359:.\Generated_Source\PSoC5/cyfitter_cfg.c **** #define BS_IOPINS0_7_VAL ((const uint8 CYFAR *)0x48001938)
 360:.\Generated_Source\PSoC5/cyfitter_cfg.c **** 
 361:.\Generated_Source\PSoC5/cyfitter_cfg.c **** /* IOPINS0_2 Address: CYREG_PRT2_DM0 Size (bytes): 8 */
 362:.\Generated_Source\PSoC5/cyfitter_cfg.c **** #define BS_IOPINS0_2_VAL ((const uint8 CYFAR *)0x48001940)
 363:.\Generated_Source\PSoC5/cyfitter_cfg.c **** 
 364:.\Generated_Source\PSoC5/cyfitter_cfg.c **** /* IOPINS0_3 Address: CYREG_PRT3_DR Size (bytes): 10 */
 365:.\Generated_Source\PSoC5/cyfitter_cfg.c **** #define BS_IOPINS0_3_VAL ((const uint8 CYFAR *)0x48001948)
 366:.\Generated_Source\PSoC5/cyfitter_cfg.c **** 
 367:.\Generated_Source\PSoC5/cyfitter_cfg.c **** /* IOPINS0_4 Address: CYREG_PRT4_DR Size (bytes): 10 */
 368:.\Generated_Source\PSoC5/cyfitter_cfg.c **** #define BS_IOPINS0_4_VAL ((const uint8 CYFAR *)0x48001954)
 369:.\Generated_Source\PSoC5/cyfitter_cfg.c **** 
 370:.\Generated_Source\PSoC5/cyfitter_cfg.c **** /* IOPINS0_5 Address: CYREG_PRT5_DM0 Size (bytes): 8 */
ARM GAS  C:\Users\Geo\AppData\Local\Temp\ccVeTRuu.s 			page 20


 371:.\Generated_Source\PSoC5/cyfitter_cfg.c **** #define BS_IOPINS0_5_VAL ((const uint8 CYFAR *)0x48001960)
 372:.\Generated_Source\PSoC5/cyfitter_cfg.c **** 
 373:.\Generated_Source\PSoC5/cyfitter_cfg.c **** /* IOPORT_0 Address: CYDEV_PRTDSI_PRT0_BASE Size (bytes): 7 */
 374:.\Generated_Source\PSoC5/cyfitter_cfg.c **** #define BS_IOPORT_0_VAL ((const uint8 CYFAR *)0x48001968)
 375:.\Generated_Source\PSoC5/cyfitter_cfg.c **** 
 376:.\Generated_Source\PSoC5/cyfitter_cfg.c **** /* IOPORT_2 Address: CYDEV_PRTDSI_PRT2_BASE Size (bytes): 7 */
 377:.\Generated_Source\PSoC5/cyfitter_cfg.c **** #define BS_IOPORT_2_VAL ((const uint8 CYFAR *)0x48001970)
 378:.\Generated_Source\PSoC5/cyfitter_cfg.c **** 
 379:.\Generated_Source\PSoC5/cyfitter_cfg.c **** /* IOPORT_3 Address: CYDEV_PRTDSI_PRT3_BASE Size (bytes): 7 */
 380:.\Generated_Source\PSoC5/cyfitter_cfg.c **** #define BS_IOPORT_3_VAL ((const uint8 CYFAR *)0x48001978)
 381:.\Generated_Source\PSoC5/cyfitter_cfg.c **** 
 382:.\Generated_Source\PSoC5/cyfitter_cfg.c **** /* IOPORT_4 Address: CYDEV_PRTDSI_PRT4_BASE Size (bytes): 7 */
 383:.\Generated_Source\PSoC5/cyfitter_cfg.c **** #define BS_IOPORT_4_VAL ((const uint8 CYFAR *)0x48001980)
 384:.\Generated_Source\PSoC5/cyfitter_cfg.c **** 
 385:.\Generated_Source\PSoC5/cyfitter_cfg.c **** /* IOPORT_5 Address: CYDEV_PRTDSI_PRT5_BASE Size (bytes): 7 */
 386:.\Generated_Source\PSoC5/cyfitter_cfg.c **** #define BS_IOPORT_5_VAL ((const uint8 CYFAR *)0x48001988)
 387:.\Generated_Source\PSoC5/cyfitter_cfg.c **** 
 388:.\Generated_Source\PSoC5/cyfitter_cfg.c **** /* CYDEV_CLKDIST_ACFG0_CFG0 Address: CYREG_CLKDIST_ACFG0_CFG0 Size (bytes): 4 */
 389:.\Generated_Source\PSoC5/cyfitter_cfg.c **** #define BS_CYDEV_CLKDIST_ACFG0_CFG0_VAL ((const uint8 CYFAR *)0x48001990)
 390:.\Generated_Source\PSoC5/cyfitter_cfg.c **** 
 391:.\Generated_Source\PSoC5/cyfitter_cfg.c **** 
 392:.\Generated_Source\PSoC5/cyfitter_cfg.c **** /* PHUB_CH1_CFGMEM_CFG0/1 initialization data */
 393:.\Generated_Source\PSoC5/cyfitter_cfg.c **** static const uint8 CYCODE CH1_ADDR_DATA0[] DMAINITSEC = { 0x01, 0x00, 0x00, 0x00, 0x00, 0x20, 0x00,
 394:.\Generated_Source\PSoC5/cyfitter_cfg.c **** 
 395:.\Generated_Source\PSoC5/cyfitter_cfg.c **** /* PHUB_CH2_CFGMEM_CFG0/1 initialization data */
 396:.\Generated_Source\PSoC5/cyfitter_cfg.c **** static const uint8 CYCODE CH2_ADDR_DATA0[] DMAINITSEC = { 0x01, 0x00, 0x00, 0x00, 0x00, 0x20, 0x01,
 397:.\Generated_Source\PSoC5/cyfitter_cfg.c **** 
 398:.\Generated_Source\PSoC5/cyfitter_cfg.c **** /* PHUB_CH5_CFGMEM_CFG0/1 initialization data */
 399:.\Generated_Source\PSoC5/cyfitter_cfg.c **** static const uint8 CYCODE CH5_ADDR_DATA0[] DMAINITSEC = { 0x01, 0x00, 0x00, 0x00, 0x00, 0x48, 0x00,
 400:.\Generated_Source\PSoC5/cyfitter_cfg.c **** 
 401:.\Generated_Source\PSoC5/cyfitter_cfg.c **** /* PHUB_CH6_CFGMEM_CFG0/1 initialization data */
 402:.\Generated_Source\PSoC5/cyfitter_cfg.c **** static const uint8 CYCODE CH6_ADDR_DATA0[] DMAINITSEC = { 0x01, 0x00, 0x00, 0x00, 0x00, 0x48, 0x01,
 403:.\Generated_Source\PSoC5/cyfitter_cfg.c **** 
 404:.\Generated_Source\PSoC5/cyfitter_cfg.c **** /* Initialization data for each DMA channel's TD registers */
 405:.\Generated_Source\PSoC5/cyfitter_cfg.c **** static const uint8 CYCODE DMA_TD_START_CMD[] DMAINITSEC = { 0x01, 0x00, 0x00, 0x00, 0x01 };
 406:.\Generated_Source\PSoC5/cyfitter_cfg.c **** 
 407:.\Generated_Source\PSoC5/cyfitter_cfg.c **** static uint32 CYXDATA DMA_ZERO_VAL CYALIGNED;
 408:.\Generated_Source\PSoC5/cyfitter_cfg.c **** 
 409:.\Generated_Source\PSoC5/cyfitter_cfg.c **** /* This table holds all of the initialization data necessary for the DMA
 410:.\Generated_Source\PSoC5/cyfitter_cfg.c ****    process to transfer data from the source location to the destination. */
 411:.\Generated_Source\PSoC5/cyfitter_cfg.c **** /* Source addresses can be relocated, but only when in 32bit addresses.
 412:.\Generated_Source\PSoC5/cyfitter_cfg.c ****    Because the standard TD table only has 16bit addresses, we generate a
 413:.\Generated_Source\PSoC5/cyfitter_cfg.c ****    seperate CFG_TD_ADDR table for the source addresses that supports 32bit
 414:.\Generated_Source\PSoC5/cyfitter_cfg.c ****    addresses. */
 415:.\Generated_Source\PSoC5/cyfitter_cfg.c **** static const struct td_t CYCODE CFG_TD_LIST0[] DMAINITSEC = {
 416:.\Generated_Source\PSoC5/cyfitter_cfg.c **** /* Size, Next, Flags, Source, Destination */
 417:.\Generated_Source\PSoC5/cyfitter_cfg.c **** 	{ 8, 0x02, 0x23, (uint16)(0), (uint16)(CYREG_PHUB_CFGMEM1_CFG0) },	/* TD 1 */
 418:.\Generated_Source\PSoC5/cyfitter_cfg.c **** 	{ 8, 0x03, 0x23, (uint16)(0), (uint16)(CYREG_PHUB_CFGMEM2_CFG0) },	/* TD 2 */
 419:.\Generated_Source\PSoC5/cyfitter_cfg.c **** 	{ 8, 0x04, 0x23, (uint16)(0), (uint16)(CYREG_PHUB_CFGMEM5_CFG0) },	/* TD 3 */
 420:.\Generated_Source\PSoC5/cyfitter_cfg.c **** 	{ 8, 0x05, 0x23, (uint16)(0), (uint16)(CYREG_PHUB_CFGMEM6_CFG0) },	/* TD 4 */
 421:.\Generated_Source\PSoC5/cyfitter_cfg.c **** 	{ 5, 0x06, 0x23, (uint16)(0), (uint16)(CYREG_PHUB_CH1_BASIC_CFG) },	/* TD 5 */
 422:.\Generated_Source\PSoC5/cyfitter_cfg.c **** 	{ 5, 0x07, 0x23, (uint16)(0), (uint16)(CYREG_PHUB_CH2_BASIC_CFG) },	/* TD 6 */
 423:.\Generated_Source\PSoC5/cyfitter_cfg.c **** 	{ 5, 0x08, 0x23, (uint16)(0), (uint16)(CYREG_PHUB_CH5_BASIC_CFG) },	/* TD 7 */
 424:.\Generated_Source\PSoC5/cyfitter_cfg.c **** 	{ 5, 0xFF, 0x23, (uint16)(0), (uint16)(CYREG_PHUB_CH6_BASIC_CFG) },	/* TD 8 */
 425:.\Generated_Source\PSoC5/cyfitter_cfg.c **** 	{ 16, 0x0A, 0x22, (uint16)(0), (uint16)(CYREG_PRT6_DR) },	/* TD 9 */
 426:.\Generated_Source\PSoC5/cyfitter_cfg.c **** 	{ 16, 0xFF, 0x22, (uint16)(0), (uint16)(CYREG_PRT15_DR) },	/* TD 10 */
 427:.\Generated_Source\PSoC5/cyfitter_cfg.c **** 	{ 384, 0x0C, 0x22, (uint16)(0), (uint16)(CYDEV_UCFG_B0_P4_U0_BASE) },	/* TD 11 */
ARM GAS  C:\Users\Geo\AppData\Local\Temp\ccVeTRuu.s 			page 21


 428:.\Generated_Source\PSoC5/cyfitter_cfg.c **** 	{ 128, 0x0D, 0x22, (uint16)(0), (uint16)(CYDEV_UCFG_B0_P6_U1_BASE) },	/* TD 12 */
 429:.\Generated_Source\PSoC5/cyfitter_cfg.c **** 	{ 128, 0x0E, 0x22, (uint16)(0), (uint16)(CYDEV_UCFG_B0_P7_U0_BASE) },	/* TD 13 */
 430:.\Generated_Source\PSoC5/cyfitter_cfg.c **** 	{ 640, 0x0F, 0x22, (uint16)(0), (uint16)(CYDEV_UCFG_B1_P2_U0_BASE) },	/* TD 14 */
 431:.\Generated_Source\PSoC5/cyfitter_cfg.c **** 	{ 384, 0x10, 0x22, (uint16)(0), (uint16)(CYDEV_UCFG_B1_P4_U0_BASE) },	/* TD 15 */
 432:.\Generated_Source\PSoC5/cyfitter_cfg.c **** 	{ 512, 0x11, 0x22, (uint16)(0), (uint16)(CYDEV_UCFG_B1_P5_U0_BASE) },	/* TD 16 */
 433:.\Generated_Source\PSoC5/cyfitter_cfg.c **** 	{ 128, 0x12, 0x22, (uint16)(0), (uint16)(CYDEV_UCFG_DSI7_BASE) },	/* TD 17 */
 434:.\Generated_Source\PSoC5/cyfitter_cfg.c **** 	{ 128, 0x13, 0x22, (uint16)(0), (uint16)(CYDEV_UCFG_DSI8_BASE) },	/* TD 18 */
 435:.\Generated_Source\PSoC5/cyfitter_cfg.c **** 	{ 256, 0x14, 0x22, (uint16)(0), (uint16)(CYDEV_UCFG_DSI9_BASE) },	/* TD 19 */
 436:.\Generated_Source\PSoC5/cyfitter_cfg.c **** 	{ 256, 0xFF, 0x22, (uint16)(0), (uint16)(CYDEV_UCFG_DSI13_BASE) },	/* TD 20 */
 437:.\Generated_Source\PSoC5/cyfitter_cfg.c **** 	{ 64, 0x16, 0x23, (uint16)(0), (uint16)(CYDEV_UWRK_UWRK8_B0_BASE) },	/* TD 21 */
 438:.\Generated_Source\PSoC5/cyfitter_cfg.c **** 	{ 32, 0x17, 0x23, (uint16)(0), (uint16)(CYDEV_UWRK_UWRK8_B0_BASE + 0x00000070) },	/* TD 22 */
 439:.\Generated_Source\PSoC5/cyfitter_cfg.c **** 	{ 32, 0xFF, 0x23, (uint16)(0), (uint16)(CYDEV_UWRK_UWRK8_B1_BASE + 0x00000070) },	/* TD 23 */
 440:.\Generated_Source\PSoC5/cyfitter_cfg.c **** 	{ 8, 0x19, 0x23, (uint16)(0), (uint16)(CYREG_IDMUX_IRQ_CTL0) },	/* TD 24 */
 441:.\Generated_Source\PSoC5/cyfitter_cfg.c **** 	{ 128, 0x1A, 0x23, (uint16)(0), (uint16)(CYDEV_UCFG_B0_P0_U0_BASE) },	/* TD 25 */
 442:.\Generated_Source\PSoC5/cyfitter_cfg.c **** 	{ 128, 0x1B, 0x23, (uint16)(0), (uint16)(CYDEV_UCFG_B0_P0_U1_BASE) },	/* TD 26 */
 443:.\Generated_Source\PSoC5/cyfitter_cfg.c **** 	{ 128, 0x1C, 0x23, (uint16)(0), (uint16)(CYDEV_UCFG_B0_P1_U0_BASE) },	/* TD 27 */
 444:.\Generated_Source\PSoC5/cyfitter_cfg.c **** 	{ 128, 0x1D, 0x23, (uint16)(0), (uint16)(CYDEV_UCFG_B0_P1_U1_BASE) },	/* TD 28 */
 445:.\Generated_Source\PSoC5/cyfitter_cfg.c **** 	{ 128, 0x1E, 0x23, (uint16)(0), (uint16)(CYDEV_UCFG_B0_P2_U0_BASE) },	/* TD 29 */
 446:.\Generated_Source\PSoC5/cyfitter_cfg.c **** 	{ 128, 0x1F, 0x23, (uint16)(0), (uint16)(CYDEV_UCFG_B0_P2_U1_BASE) },	/* TD 30 */
 447:.\Generated_Source\PSoC5/cyfitter_cfg.c **** 	{ 128, 0x20, 0x23, (uint16)(0), (uint16)(CYDEV_UCFG_B0_P3_U0_BASE) },	/* TD 31 */
 448:.\Generated_Source\PSoC5/cyfitter_cfg.c **** 	{ 128, 0x21, 0x23, (uint16)(0), (uint16)(CYDEV_UCFG_B0_P3_U1_BASE) },	/* TD 32 */
 449:.\Generated_Source\PSoC5/cyfitter_cfg.c **** 	{ 128, 0x22, 0x23, (uint16)(0), (uint16)(CYDEV_UCFG_B0_P5_U0_BASE) },	/* TD 33 */
 450:.\Generated_Source\PSoC5/cyfitter_cfg.c **** 	{ 128, 0x23, 0x23, (uint16)(0), (uint16)(CYDEV_UCFG_B0_P5_U1_BASE) },	/* TD 34 */
 451:.\Generated_Source\PSoC5/cyfitter_cfg.c **** 	{ 128, 0x24, 0x23, (uint16)(0), (uint16)(CYDEV_UCFG_B0_P6_U0_BASE) },	/* TD 35 */
 452:.\Generated_Source\PSoC5/cyfitter_cfg.c **** 	{ 128, 0x25, 0x23, (uint16)(0), (uint16)(CYDEV_UCFG_B0_P7_U1_BASE) },	/* TD 36 */
 453:.\Generated_Source\PSoC5/cyfitter_cfg.c **** 	{ 128, 0x26, 0x23, (uint16)(0), (uint16)(CYDEV_UCFG_B1_P3_U1_BASE) },	/* TD 37 */
 454:.\Generated_Source\PSoC5/cyfitter_cfg.c **** 	{ 128, 0x27, 0x23, (uint16)(0), (uint16)(CYDEV_UCFG_DSI12_BASE) },	/* TD 38 */
 455:.\Generated_Source\PSoC5/cyfitter_cfg.c **** 	{ 128, 0x28, 0x23, (uint16)(0), (uint16)(CYDEV_UCFG_DSI12_BASE + 0x00000080) },	/* TD 39 */
 456:.\Generated_Source\PSoC5/cyfitter_cfg.c **** 	{ 128, 0x29, 0x23, (uint16)(0), (uint16)(CYDEV_UCFG_DSI7_BASE + 0x00000080) },	/* TD 40 */
 457:.\Generated_Source\PSoC5/cyfitter_cfg.c **** 	{ 128, 0x2A, 0x23, (uint16)(0), (uint16)(CYDEV_UCFG_DSI6_BASE) },	/* TD 41 */
 458:.\Generated_Source\PSoC5/cyfitter_cfg.c **** 	{ 128, 0x2B, 0x23, (uint16)(0), (uint16)(CYDEV_UCFG_DSI6_BASE + 0x00000080) },	/* TD 42 */
 459:.\Generated_Source\PSoC5/cyfitter_cfg.c **** 	{ 128, 0x2C, 0x23, (uint16)(0), (uint16)(CYDEV_UCFG_DSI5_BASE) },	/* TD 43 */
 460:.\Generated_Source\PSoC5/cyfitter_cfg.c **** 	{ 128, 0x2D, 0x23, (uint16)(0), (uint16)(CYDEV_UCFG_DSI5_BASE + 0x00000080) },	/* TD 44 */
 461:.\Generated_Source\PSoC5/cyfitter_cfg.c **** 	{ 128, 0x2E, 0x23, (uint16)(0), (uint16)(CYDEV_UCFG_DSI4_BASE) },	/* TD 45 */
 462:.\Generated_Source\PSoC5/cyfitter_cfg.c **** 	{ 128, 0x2F, 0x23, (uint16)(0), (uint16)(CYDEV_UCFG_DSI4_BASE + 0x00000080) },	/* TD 46 */
 463:.\Generated_Source\PSoC5/cyfitter_cfg.c **** 	{ 128, 0x30, 0x23, (uint16)(0), (uint16)(CYDEV_UCFG_B1_P4_ROUTE_BASE + 0x00000080) },	/* TD 47 */
 464:.\Generated_Source\PSoC5/cyfitter_cfg.c **** 	{ 128, 0x31, 0x23, (uint16)(0), (uint16)(CYDEV_UCFG_B1_P3_ROUTE_BASE) },	/* TD 48 */
 465:.\Generated_Source\PSoC5/cyfitter_cfg.c **** 	{ 128, 0x32, 0x23, (uint16)(0), (uint16)(CYDEV_UCFG_B1_P3_ROUTE_BASE + 0x00000080) },	/* TD 49 */
 466:.\Generated_Source\PSoC5/cyfitter_cfg.c **** 	{ 128, 0x33, 0x23, (uint16)(0), (uint16)(CYDEV_UCFG_B0_P4_ROUTE_BASE + 0x00000080) },	/* TD 50 */
 467:.\Generated_Source\PSoC5/cyfitter_cfg.c **** 	{ 128, 0x34, 0x23, (uint16)(0), (uint16)(CYDEV_UCFG_B0_P3_ROUTE_BASE) },	/* TD 51 */
 468:.\Generated_Source\PSoC5/cyfitter_cfg.c **** 	{ 128, 0x35, 0x23, (uint16)(0), (uint16)(CYDEV_UCFG_B0_P3_ROUTE_BASE + 0x00000080) },	/* TD 52 */
 469:.\Generated_Source\PSoC5/cyfitter_cfg.c **** 	{ 128, 0x36, 0x23, (uint16)(0), (uint16)(CYDEV_UCFG_B0_P5_ROUTE_BASE) },	/* TD 53 */
 470:.\Generated_Source\PSoC5/cyfitter_cfg.c **** 	{ 128, 0x37, 0x23, (uint16)(0), (uint16)(CYDEV_UCFG_B0_P5_ROUTE_BASE + 0x00000080) },	/* TD 54 */
 471:.\Generated_Source\PSoC5/cyfitter_cfg.c **** 	{ 128, 0x38, 0x23, (uint16)(0), (uint16)(CYDEV_UCFG_B0_P2_ROUTE_BASE) },	/* TD 55 */
 472:.\Generated_Source\PSoC5/cyfitter_cfg.c **** 	{ 128, 0x39, 0x23, (uint16)(0), (uint16)(CYDEV_UCFG_B0_P2_ROUTE_BASE + 0x00000080) },	/* TD 56 */
 473:.\Generated_Source\PSoC5/cyfitter_cfg.c **** 	{ 128, 0x3A, 0x23, (uint16)(0), (uint16)(CYDEV_UCFG_B0_P6_ROUTE_BASE) },	/* TD 57 */
 474:.\Generated_Source\PSoC5/cyfitter_cfg.c **** 	{ 128, 0x3B, 0x23, (uint16)(0), (uint16)(CYDEV_UCFG_B0_P6_ROUTE_BASE + 0x00000080) },	/* TD 58 */
 475:.\Generated_Source\PSoC5/cyfitter_cfg.c **** 	{ 128, 0x3C, 0x23, (uint16)(0), (uint16)(CYDEV_UCFG_B0_P1_ROUTE_BASE) },	/* TD 59 */
 476:.\Generated_Source\PSoC5/cyfitter_cfg.c **** 	{ 128, 0x3D, 0x23, (uint16)(0), (uint16)(CYDEV_UCFG_B0_P1_ROUTE_BASE + 0x00000080) },	/* TD 60 */
 477:.\Generated_Source\PSoC5/cyfitter_cfg.c **** 	{ 128, 0x3E, 0x23, (uint16)(0), (uint16)(CYDEV_UCFG_B0_P7_ROUTE_BASE) },	/* TD 61 */
 478:.\Generated_Source\PSoC5/cyfitter_cfg.c **** 	{ 128, 0x3F, 0x23, (uint16)(0), (uint16)(CYDEV_UCFG_B0_P7_ROUTE_BASE + 0x00000080) },	/* TD 62 */
 479:.\Generated_Source\PSoC5/cyfitter_cfg.c **** 	{ 128, 0x40, 0x23, (uint16)(0), (uint16)(CYDEV_UCFG_B0_P0_ROUTE_BASE) },	/* TD 63 */
 480:.\Generated_Source\PSoC5/cyfitter_cfg.c **** 	{ 128, 0x41, 0x23, (uint16)(0), (uint16)(CYDEV_UCFG_B0_P0_ROUTE_BASE + 0x00000080) },	/* TD 64 */
 481:.\Generated_Source\PSoC5/cyfitter_cfg.c **** 	{ 128, 0x42, 0x23, (uint16)(0), (uint16)(CYDEV_UCFG_DSI8_BASE + 0x00000080) },	/* TD 65 */
 482:.\Generated_Source\PSoC5/cyfitter_cfg.c **** 	{ 128, 0x43, 0x23, (uint16)(0), (uint16)(CYDEV_UCFG_DSI3_BASE) },	/* TD 66 */
 483:.\Generated_Source\PSoC5/cyfitter_cfg.c **** 	{ 128, 0x44, 0x23, (uint16)(0), (uint16)(CYDEV_UCFG_DSI3_BASE + 0x00000080) },	/* TD 67 */
 484:.\Generated_Source\PSoC5/cyfitter_cfg.c **** 	{ 128, 0x45, 0x23, (uint16)(0), (uint16)(CYDEV_UCFG_DSI2_BASE) },	/* TD 68 */
ARM GAS  C:\Users\Geo\AppData\Local\Temp\ccVeTRuu.s 			page 22


 485:.\Generated_Source\PSoC5/cyfitter_cfg.c **** 	{ 128, 0x46, 0x23, (uint16)(0), (uint16)(CYDEV_UCFG_DSI2_BASE + 0x00000080) },	/* TD 69 */
 486:.\Generated_Source\PSoC5/cyfitter_cfg.c **** 	{ 128, 0x47, 0x23, (uint16)(0), (uint16)(CYDEV_UCFG_DSI1_BASE) },	/* TD 70 */
 487:.\Generated_Source\PSoC5/cyfitter_cfg.c **** 	{ 128, 0x48, 0x23, (uint16)(0), (uint16)(CYDEV_UCFG_DSI1_BASE + 0x00000080) },	/* TD 71 */
 488:.\Generated_Source\PSoC5/cyfitter_cfg.c **** 	{ 128, 0x49, 0x23, (uint16)(0), (uint16)(CYDEV_UCFG_DSI0_BASE) },	/* TD 72 */
 489:.\Generated_Source\PSoC5/cyfitter_cfg.c **** 	{ 128, 0x4A, 0x23, (uint16)(0), (uint16)(CYDEV_UCFG_DSI0_BASE + 0x00000080) },	/* TD 73 */
 490:.\Generated_Source\PSoC5/cyfitter_cfg.c **** 	{ 16, 0x4B, 0x23, (uint16)(0), (uint16)(CYREG_BCTL1_MDCLK_EN) },	/* TD 74 */
 491:.\Generated_Source\PSoC5/cyfitter_cfg.c **** 	{ 16, 0xFF, 0x23, (uint16)(0), (uint16)(CYREG_BCTL0_MDCLK_EN) },	/* TD 75 */
 492:.\Generated_Source\PSoC5/cyfitter_cfg.c **** };
 493:.\Generated_Source\PSoC5/cyfitter_cfg.c **** /* Source addresses can be relocated, but only when in 32bit addresses.
 494:.\Generated_Source\PSoC5/cyfitter_cfg.c ****    Because the standard TD table only has 16bit addresses, we generate a
 495:.\Generated_Source\PSoC5/cyfitter_cfg.c ****    seperate table for the source addresses that does use 32bit addresses. This
 496:.\Generated_Source\PSoC5/cyfitter_cfg.c ****    table will be remerged with the corresponding CFG_TD_LIST table during
 497:.\Generated_Source\PSoC5/cyfitter_cfg.c ****    initialization. */
 498:.\Generated_Source\PSoC5/cyfitter_cfg.c **** static const void * const CFG_TD_ADDR0[] = {
 499:.\Generated_Source\PSoC5/cyfitter_cfg.c **** 	(const void *)(&CH1_ADDR_DATA0),	/* TD 1 */
 500:.\Generated_Source\PSoC5/cyfitter_cfg.c **** 	(const void *)(&CH2_ADDR_DATA0),	/* TD 2 */
 501:.\Generated_Source\PSoC5/cyfitter_cfg.c **** 	(const void *)(&CH5_ADDR_DATA0),	/* TD 3 */
 502:.\Generated_Source\PSoC5/cyfitter_cfg.c **** 	(const void *)(&CH6_ADDR_DATA0),	/* TD 4 */
 503:.\Generated_Source\PSoC5/cyfitter_cfg.c **** 	(const void *)(&DMA_TD_START_CMD),	/* TD 5 */
 504:.\Generated_Source\PSoC5/cyfitter_cfg.c **** 	(const void *)(&DMA_TD_START_CMD),	/* TD 6 */
 505:.\Generated_Source\PSoC5/cyfitter_cfg.c **** 	(const void *)(&DMA_TD_START_CMD),	/* TD 7 */
 506:.\Generated_Source\PSoC5/cyfitter_cfg.c **** 	(const void *)(&DMA_TD_START_CMD),	/* TD 8 */
 507:.\Generated_Source\PSoC5/cyfitter_cfg.c **** 	(const void *)(&DMA_ZERO_VAL),	/* TD 9 */
 508:.\Generated_Source\PSoC5/cyfitter_cfg.c **** 	(const void *)(&DMA_ZERO_VAL),	/* TD 10 */
 509:.\Generated_Source\PSoC5/cyfitter_cfg.c **** 	(const void *)(&DMA_ZERO_VAL),	/* TD 11 */
 510:.\Generated_Source\PSoC5/cyfitter_cfg.c **** 	(const void *)(&DMA_ZERO_VAL),	/* TD 12 */
 511:.\Generated_Source\PSoC5/cyfitter_cfg.c **** 	(const void *)(&DMA_ZERO_VAL),	/* TD 13 */
 512:.\Generated_Source\PSoC5/cyfitter_cfg.c **** 	(const void *)(&DMA_ZERO_VAL),	/* TD 14 */
 513:.\Generated_Source\PSoC5/cyfitter_cfg.c **** 	(const void *)(&DMA_ZERO_VAL),	/* TD 15 */
 514:.\Generated_Source\PSoC5/cyfitter_cfg.c **** 	(const void *)(&DMA_ZERO_VAL),	/* TD 16 */
 515:.\Generated_Source\PSoC5/cyfitter_cfg.c **** 	(const void *)(&DMA_ZERO_VAL),	/* TD 17 */
 516:.\Generated_Source\PSoC5/cyfitter_cfg.c **** 	(const void *)(&DMA_ZERO_VAL),	/* TD 18 */
 517:.\Generated_Source\PSoC5/cyfitter_cfg.c **** 	(const void *)(&DMA_ZERO_VAL),	/* TD 19 */
 518:.\Generated_Source\PSoC5/cyfitter_cfg.c **** 	(const void *)(&DMA_ZERO_VAL),	/* TD 20 */
 519:.\Generated_Source\PSoC5/cyfitter_cfg.c **** 	(const void *)(BS_UWRK_B0_WRK_DP_BITS_VAL),	/* TD 21 */
 520:.\Generated_Source\PSoC5/cyfitter_cfg.c **** 	(const void *)(BS_UWRK_B0_WRK_STATCTL_BITS_VAL),	/* TD 22 */
 521:.\Generated_Source\PSoC5/cyfitter_cfg.c **** 	(const void *)(BS_UWRK_B1_WRK_STATCTL_BITS_VAL),	/* TD 23 */
 522:.\Generated_Source\PSoC5/cyfitter_cfg.c **** 	(const void *)(BS_IDMUX_IRQ_VAL),	/* TD 24 */
 523:.\Generated_Source\PSoC5/cyfitter_cfg.c **** 	(const void *)(BS_UDB_1_5_0_CONFIG_VAL),	/* TD 25 */
 524:.\Generated_Source\PSoC5/cyfitter_cfg.c **** 	(const void *)(BS_UDB_1_5_1_CONFIG_VAL),	/* TD 26 */
 525:.\Generated_Source\PSoC5/cyfitter_cfg.c **** 	(const void *)(BS_UDB_1_4_1_CONFIG_VAL),	/* TD 27 */
 526:.\Generated_Source\PSoC5/cyfitter_cfg.c **** 	(const void *)(BS_UDB_1_4_0_CONFIG_VAL),	/* TD 28 */
 527:.\Generated_Source\PSoC5/cyfitter_cfg.c **** 	(const void *)(BS_UDB_1_3_0_CONFIG_VAL),	/* TD 29 */
 528:.\Generated_Source\PSoC5/cyfitter_cfg.c **** 	(const void *)(BS_UDB_1_3_1_CONFIG_VAL),	/* TD 30 */
 529:.\Generated_Source\PSoC5/cyfitter_cfg.c **** 	(const void *)(BS_UDB_1_2_1_CONFIG_VAL),	/* TD 31 */
 530:.\Generated_Source\PSoC5/cyfitter_cfg.c **** 	(const void *)(BS_UDB_1_2_0_CONFIG_VAL),	/* TD 32 */
 531:.\Generated_Source\PSoC5/cyfitter_cfg.c **** 	(const void *)(BS_UDB_0_3_0_CONFIG_VAL),	/* TD 33 */
 532:.\Generated_Source\PSoC5/cyfitter_cfg.c **** 	(const void *)(BS_UDB_0_3_1_CONFIG_VAL),	/* TD 34 */
 533:.\Generated_Source\PSoC5/cyfitter_cfg.c **** 	(const void *)(BS_UDB_0_4_1_CONFIG_VAL),	/* TD 35 */
 534:.\Generated_Source\PSoC5/cyfitter_cfg.c **** 	(const void *)(BS_UDB_0_5_1_CONFIG_VAL),	/* TD 36 */
 535:.\Generated_Source\PSoC5/cyfitter_cfg.c **** 	(const void *)(BS_UDB_1_1_0_CONFIG_VAL),	/* TD 37 */
 536:.\Generated_Source\PSoC5/cyfitter_cfg.c **** 	(const void *)(BS_DSISWITCH_0_1_VAL),	/* TD 38 */
 537:.\Generated_Source\PSoC5/cyfitter_cfg.c **** 	(const void *)(BS_DSI0_1_HV_ROUTING_VAL),	/* TD 39 */
 538:.\Generated_Source\PSoC5/cyfitter_cfg.c **** 	(const void *)(BS_DSI0_2_HV_ROUTING_VAL),	/* TD 40 */
 539:.\Generated_Source\PSoC5/cyfitter_cfg.c **** 	(const void *)(BS_DSISWITCH_0_3_VAL),	/* TD 41 */
 540:.\Generated_Source\PSoC5/cyfitter_cfg.c **** 	(const void *)(BS_DSI0_3_HV_ROUTING_VAL),	/* TD 42 */
 541:.\Generated_Source\PSoC5/cyfitter_cfg.c **** 	(const void *)(BS_DSISWITCH_0_4_VAL),	/* TD 43 */
ARM GAS  C:\Users\Geo\AppData\Local\Temp\ccVeTRuu.s 			page 23


 542:.\Generated_Source\PSoC5/cyfitter_cfg.c **** 	(const void *)(BS_DSI0_4_HV_ROUTING_VAL),	/* TD 44 */
 543:.\Generated_Source\PSoC5/cyfitter_cfg.c **** 	(const void *)(BS_DSISWITCH_0_5_VAL),	/* TD 45 */
 544:.\Generated_Source\PSoC5/cyfitter_cfg.c **** 	(const void *)(BS_DSI0_5_HV_ROUTING_VAL),	/* TD 46 */
 545:.\Generated_Source\PSoC5/cyfitter_cfg.c **** 	(const void *)(BS_UDB_1_1_HV_ROUTING_VAL),	/* TD 47 */
 546:.\Generated_Source\PSoC5/cyfitter_cfg.c **** 	(const void *)(BS_UDBSWITCH_1_1_VAL),	/* TD 48 */
 547:.\Generated_Source\PSoC5/cyfitter_cfg.c **** 	(const void *)(BS_UDB_2_1_HV_ROUTING_VAL),	/* TD 49 */
 548:.\Generated_Source\PSoC5/cyfitter_cfg.c **** 	(const void *)(BS_UDB_1_2_HV_ROUTING_VAL),	/* TD 50 */
 549:.\Generated_Source\PSoC5/cyfitter_cfg.c **** 	(const void *)(BS_UDBSWITCH_1_2_VAL),	/* TD 51 */
 550:.\Generated_Source\PSoC5/cyfitter_cfg.c **** 	(const void *)(BS_UDB_2_2_HV_ROUTING_VAL),	/* TD 52 */
 551:.\Generated_Source\PSoC5/cyfitter_cfg.c **** 	(const void *)(BS_UDBSWITCH_0_3_VAL),	/* TD 53 */
 552:.\Generated_Source\PSoC5/cyfitter_cfg.c **** 	(const void *)(BS_UDB_1_3_HV_ROUTING_VAL),	/* TD 54 */
 553:.\Generated_Source\PSoC5/cyfitter_cfg.c **** 	(const void *)(BS_UDBSWITCH_1_3_VAL),	/* TD 55 */
 554:.\Generated_Source\PSoC5/cyfitter_cfg.c **** 	(const void *)(BS_UDB_2_3_HV_ROUTING_VAL),	/* TD 56 */
 555:.\Generated_Source\PSoC5/cyfitter_cfg.c **** 	(const void *)(BS_UDBSWITCH_0_4_VAL),	/* TD 57 */
 556:.\Generated_Source\PSoC5/cyfitter_cfg.c **** 	(const void *)(BS_UDB_1_4_HV_ROUTING_VAL),	/* TD 58 */
 557:.\Generated_Source\PSoC5/cyfitter_cfg.c **** 	(const void *)(BS_UDBSWITCH_1_4_VAL),	/* TD 59 */
 558:.\Generated_Source\PSoC5/cyfitter_cfg.c **** 	(const void *)(BS_UDB_2_4_HV_ROUTING_VAL),	/* TD 60 */
 559:.\Generated_Source\PSoC5/cyfitter_cfg.c **** 	(const void *)(BS_UDBSWITCH_0_5_VAL),	/* TD 61 */
 560:.\Generated_Source\PSoC5/cyfitter_cfg.c **** 	(const void *)(BS_UDB_1_5_HV_ROUTING_VAL),	/* TD 62 */
 561:.\Generated_Source\PSoC5/cyfitter_cfg.c **** 	(const void *)(BS_UDBSWITCH_1_5_VAL),	/* TD 63 */
 562:.\Generated_Source\PSoC5/cyfitter_cfg.c **** 	(const void *)(BS_UDB_2_5_HV_ROUTING_VAL),	/* TD 64 */
 563:.\Generated_Source\PSoC5/cyfitter_cfg.c **** 	(const void *)(BS_DSI3_1_HV_ROUTING_VAL),	/* TD 65 */
 564:.\Generated_Source\PSoC5/cyfitter_cfg.c **** 	(const void *)(BS_DSISWITCH_1_2_VAL),	/* TD 66 */
 565:.\Generated_Source\PSoC5/cyfitter_cfg.c **** 	(const void *)(BS_DSI3_2_HV_ROUTING_VAL),	/* TD 67 */
 566:.\Generated_Source\PSoC5/cyfitter_cfg.c **** 	(const void *)(BS_DSISWITCH_1_3_VAL),	/* TD 68 */
 567:.\Generated_Source\PSoC5/cyfitter_cfg.c **** 	(const void *)(BS_DSI3_3_HV_ROUTING_VAL),	/* TD 69 */
 568:.\Generated_Source\PSoC5/cyfitter_cfg.c **** 	(const void *)(BS_DSISWITCH_1_4_VAL),	/* TD 70 */
 569:.\Generated_Source\PSoC5/cyfitter_cfg.c **** 	(const void *)(BS_DSI3_4_HV_ROUTING_VAL),	/* TD 71 */
 570:.\Generated_Source\PSoC5/cyfitter_cfg.c **** 	(const void *)(BS_DSISWITCH_1_5_VAL),	/* TD 72 */
 571:.\Generated_Source\PSoC5/cyfitter_cfg.c **** 	(const void *)(BS_DSI3_5_HV_ROUTING_VAL),	/* TD 73 */
 572:.\Generated_Source\PSoC5/cyfitter_cfg.c **** 	(const void *)(BS_UCFG_BCTL1_VAL),	/* TD 74 */
 573:.\Generated_Source\PSoC5/cyfitter_cfg.c **** 	(const void *)(BS_UCFG_BCTL0_VAL),	/* TD 75 */
 574:.\Generated_Source\PSoC5/cyfitter_cfg.c **** };
 575:.\Generated_Source\PSoC5/cyfitter_cfg.c **** /*******************************************************************************
 576:.\Generated_Source\PSoC5/cyfitter_cfg.c **** * Function Name: cfg_dma_init
 577:.\Generated_Source\PSoC5/cyfitter_cfg.c **** ********************************************************************************
 578:.\Generated_Source\PSoC5/cyfitter_cfg.c **** * Summary:
 579:.\Generated_Source\PSoC5/cyfitter_cfg.c **** *  This function is used to copy device configuration data from constant values
 580:.\Generated_Source\PSoC5/cyfitter_cfg.c **** *  stored in memory into the proper chip configuration registers using DMA.  It
 581:.\Generated_Source\PSoC5/cyfitter_cfg.c **** *  pulls data out of the CFG_TD_LISTs to know exactly how/what to configure.
 582:.\Generated_Source\PSoC5/cyfitter_cfg.c **** *
 583:.\Generated_Source\PSoC5/cyfitter_cfg.c **** * Parameters:  
 584:.\Generated_Source\PSoC5/cyfitter_cfg.c **** *   void
 585:.\Generated_Source\PSoC5/cyfitter_cfg.c **** *
 586:.\Generated_Source\PSoC5/cyfitter_cfg.c **** * Return:
 587:.\Generated_Source\PSoC5/cyfitter_cfg.c **** *   void
 588:.\Generated_Source\PSoC5/cyfitter_cfg.c **** *
 589:.\Generated_Source\PSoC5/cyfitter_cfg.c **** *******************************************************************************/
 590:.\Generated_Source\PSoC5/cyfitter_cfg.c **** static void cfg_dma_init(void)
 591:.\Generated_Source\PSoC5/cyfitter_cfg.c **** {
 710              		.loc 1 591 0
 711              		.cfi_startproc
 712              		@ args = 0, pretend = 0, frame = 8
 713              		@ frame_needed = 1, uses_anonymous_args = 0
 714              		@ link register save eliminated.
 715 0000 80B4     		push	{r7}
 716              	.LCFI9:
ARM GAS  C:\Users\Geo\AppData\Local\Temp\ccVeTRuu.s 			page 24


 717              		.cfi_def_cfa_offset 4
 718 0002 83B0     		sub	sp, sp, #12
 719              	.LCFI10:
 720              		.cfi_def_cfa_offset 16
 721 0004 00AF     		add	r7, sp, #0
 722              		.cfi_offset 7, -4
 723              	.LCFI11:
 724              		.cfi_def_cfa_register 7
 592:.\Generated_Source\PSoC5/cyfitter_cfg.c **** 	int i;
 593:.\Generated_Source\PSoC5/cyfitter_cfg.c **** 
 594:.\Generated_Source\PSoC5/cyfitter_cfg.c **** 	DMA_ZERO_VAL = 0u;
 725              		.loc 1 594 0
 726 0006 40F20003 		movw	r3, #:lower16:DMA_ZERO_VAL
 727 000a C0F20003 		movt	r3, #:upper16:DMA_ZERO_VAL
 728 000e 4FF00002 		mov	r2, #0
 729 0012 1A60     		str	r2, [r3, #0]
 595:.\Generated_Source\PSoC5/cyfitter_cfg.c **** 	DMAC_CFGMEM[0].CFG0[0] = 0x10;		/* set burstcount */
 730              		.loc 1 595 0
 731 0014 47F20063 		movw	r3, #:lower16:1073772032
 732 0018 C4F20003 		movt	r3, #:upper16:1073772032
 733 001c 4FF01002 		mov	r2, #16
 734 0020 1A70     		strb	r2, [r3, #0]
 596:.\Generated_Source\PSoC5/cyfitter_cfg.c **** 	DMAC_CH[0].basic_cfg[0] = 0x01u;	/* enable channel0 */
 735              		.loc 1 596 0
 736 0022 47F21003 		movw	r3, #:lower16:1073770512
 737 0026 C4F20003 		movt	r3, #:upper16:1073770512
 738 002a 4FF00102 		mov	r2, #1
 739 002e 1A70     		strb	r2, [r3, #0]
 597:.\Generated_Source\PSoC5/cyfitter_cfg.c **** 	DMAC_CH[0].basic_status[1] = 0;		/* set channel0's first td to 0 */
 740              		.loc 1 597 0
 741 0030 47F21003 		movw	r3, #:lower16:1073770512
 742 0034 C4F20003 		movt	r3, #:upper16:1073770512
 743 0038 4FF00002 		mov	r2, #0
 744 003c 5A72     		strb	r2, [r3, #9]
 598:.\Generated_Source\PSoC5/cyfitter_cfg.c **** 	
 599:.\Generated_Source\PSoC5/cyfitter_cfg.c **** 	DMAC_TDMEM[0].TD0[2] = 0x01;		/* set td0's next td to 1 */
 745              		.loc 1 599 0
 746 003e 47F60003 		movw	r3, #:lower16:1073772544
 747 0042 C4F20003 		movt	r3, #:upper16:1073772544
 748 0046 4FF00102 		mov	r2, #1
 749 004a 9A70     		strb	r2, [r3, #2]
 600:.\Generated_Source\PSoC5/cyfitter_cfg.c **** 	DMAC_TDMEM[0].TD0[3] = 0x03;		/* set td0's flags */
 750              		.loc 1 600 0
 751 004c 47F60003 		movw	r3, #:lower16:1073772544
 752 0050 C4F20003 		movt	r3, #:upper16:1073772544
 753 0054 4FF00302 		mov	r2, #3
 754 0058 DA70     		strb	r2, [r3, #3]
 601:.\Generated_Source\PSoC5/cyfitter_cfg.c **** 	CY_SET_REG16((reg16 *) &DMAC_TDMEM[0].TD0[0], 75*8);					/* set td0's size */
 755              		.loc 1 601 0
 756 005a 47F60003 		movw	r3, #:lower16:1073772544
 757 005e C4F20003 		movt	r3, #:upper16:1073772544
 758 0062 4FF41672 		mov	r2, #600
 759 0066 1A80     		strh	r2, [r3, #0]	@ movhi
 602:.\Generated_Source\PSoC5/cyfitter_cfg.c **** 	CY_SET_REG16((reg16 *) &DMAC_TDMEM[0].TD1[0], (uint16)(uint32)CFG_TD_LIST0);	/* set td0's src addr
 760              		.loc 1 602 0
 761 0068 47F60403 		movw	r3, #:lower16:1073772548
 762 006c C4F20003 		movt	r3, #:upper16:1073772548
ARM GAS  C:\Users\Geo\AppData\Local\Temp\ccVeTRuu.s 			page 25


 763 0070 40F20002 		movw	r2, #:lower16:CFG_TD_LIST0
 764 0074 C0F20002 		movt	r2, #:upper16:CFG_TD_LIST0
 765 0078 92B2     		uxth	r2, r2
 766 007a 1A80     		strh	r2, [r3, #0]	@ movhi
 603:.\Generated_Source\PSoC5/cyfitter_cfg.c **** 	CY_SET_REG16((reg16 *) &DMAC_TDMEM[0].TD1[2], CYDEV_PHUB_TDMEM1_BASE);	/* set td0's dst addr */
 767              		.loc 1 603 0
 768 007c 47F60603 		movw	r3, #:lower16:1073772550
 769 0080 C4F20003 		movt	r3, #:upper16:1073772550
 770 0084 47F60802 		movw	r2, #30728
 771 0088 1A80     		strh	r2, [r3, #0]	@ movhi
 604:.\Generated_Source\PSoC5/cyfitter_cfg.c **** 	CY_SET_REG16((reg16 *) &DMAC_CFGMEM[0].CFG1[0], (uint16)(CYDEV_FLASH_BASE >> 16));				/* set ch0's
 772              		.loc 1 604 0
 773 008a 47F20463 		movw	r3, #:lower16:1073772036
 774 008e C4F20003 		movt	r3, #:upper16:1073772036
 775 0092 4FF00002 		mov	r2, #0
 776 0096 1A80     		strh	r2, [r3, #0]	@ movhi
 605:.\Generated_Source\PSoC5/cyfitter_cfg.c **** 	CY_SET_REG16((reg16 *) &DMAC_CFGMEM[0].CFG1[2], (uint16)(CYDEV_PHUB_TDMEM1_BASE >> 16));				/* set
 777              		.loc 1 605 0
 778 0098 47F20663 		movw	r3, #:lower16:1073772038
 779 009c C4F20003 		movt	r3, #:upper16:1073772038
 780 00a0 4FF48042 		mov	r2, #16384
 781 00a4 1A80     		strh	r2, [r3, #0]	@ movhi
 606:.\Generated_Source\PSoC5/cyfitter_cfg.c **** 	DMAC_CH[1].basic_status[1] = 0x09; /* First TD = 9 */
 782              		.loc 1 606 0
 783 00a6 47F22003 		movw	r3, #:lower16:1073770528
 784 00aa C4F20003 		movt	r3, #:upper16:1073770528
 785 00ae 4FF00902 		mov	r2, #9
 786 00b2 5A72     		strb	r2, [r3, #9]
 607:.\Generated_Source\PSoC5/cyfitter_cfg.c **** 	DMAC_CH[2].basic_status[1] = 0x0B; /* First TD = 11 */
 787              		.loc 1 607 0
 788 00b4 47F23003 		movw	r3, #:lower16:1073770544
 789 00b8 C4F20003 		movt	r3, #:upper16:1073770544
 790 00bc 4FF00B02 		mov	r2, #11
 791 00c0 5A72     		strb	r2, [r3, #9]
 608:.\Generated_Source\PSoC5/cyfitter_cfg.c **** 	DMAC_CH[5].basic_status[1] = 0x15; /* First TD = 21 */
 792              		.loc 1 608 0
 793 00c2 47F26003 		movw	r3, #:lower16:1073770592
 794 00c6 C4F20003 		movt	r3, #:upper16:1073770592
 795 00ca 4FF01502 		mov	r2, #21
 796 00ce 5A72     		strb	r2, [r3, #9]
 609:.\Generated_Source\PSoC5/cyfitter_cfg.c **** 	DMAC_CH[6].basic_status[1] = 0x18; /* First TD = 24 */
 797              		.loc 1 609 0
 798 00d0 47F27003 		movw	r3, #:lower16:1073770608
 799 00d4 C4F20003 		movt	r3, #:upper16:1073770608
 800 00d8 4FF01802 		mov	r2, #24
 801 00dc 5A72     		strb	r2, [r3, #9]
 610:.\Generated_Source\PSoC5/cyfitter_cfg.c **** 
 611:.\Generated_Source\PSoC5/cyfitter_cfg.c **** 	CY_CFG_MEMORY_BARRIER();
 802              		.loc 1 611 0
 612:.\Generated_Source\PSoC5/cyfitter_cfg.c **** 	DMAC_CH[0].action[0] = CPU_REQ;    /* initiate the DMA transfer */
 803              		.loc 1 612 0
 804 00de 47F21003 		movw	r3, #:lower16:1073770512
 805 00e2 C4F20003 		movt	r3, #:upper16:1073770512
 806 00e6 4FF00102 		mov	r2, #1
 807 00ea 1A71     		strb	r2, [r3, #4]
 613:.\Generated_Source\PSoC5/cyfitter_cfg.c **** 	CY_CFG_MEMORY_BARRIER();
 808              		.loc 1 613 0
ARM GAS  C:\Users\Geo\AppData\Local\Temp\ccVeTRuu.s 			page 26


 809              	.L13:
 614:.\Generated_Source\PSoC5/cyfitter_cfg.c **** 
 615:.\Generated_Source\PSoC5/cyfitter_cfg.c **** 	/* Wait for TDs to be copied into TDMEM */
 616:.\Generated_Source\PSoC5/cyfitter_cfg.c **** 	while ((*(volatile uint16 *)(DMAC_TDMEM[0].TD0))) {}
 810              		.loc 1 616 0
 811 00ec 47F60003 		movw	r3, #:lower16:1073772544
 812 00f0 C4F20003 		movt	r3, #:upper16:1073772544
 813 00f4 1B88     		ldrh	r3, [r3, #0]	@ movhi
 814 00f6 9BB2     		uxth	r3, r3
 815 00f8 002B     		cmp	r3, #0
 816 00fa F7D1     		bne	.L13
 617:.\Generated_Source\PSoC5/cyfitter_cfg.c **** 
 618:.\Generated_Source\PSoC5/cyfitter_cfg.c **** 	/* Recombine TD source table (CFG_TD_ADDR) with full TD table (CFG_TD_LIST) */
 619:.\Generated_Source\PSoC5/cyfitter_cfg.c **** 	for (i = 0; i < 75; i++)
 817              		.loc 1 619 0
 818 00fc 4FF00003 		mov	r3, #0
 819 0100 3B60     		str	r3, [r7, #0]
 820 0102 18E0     		b	.L14
 821              	.L15:
 822              	.LBB2:
 620:.\Generated_Source\PSoC5/cyfitter_cfg.c **** 	{
 621:.\Generated_Source\PSoC5/cyfitter_cfg.c **** 		volatile uint8 *srcAddrPtr = &DMAC_TDMEM[i+1].TD1[0];
 823              		.loc 1 621 0
 824 0104 3B68     		ldr	r3, [r7, #0]
 825 0106 4FEAC302 		lsl	r2, r3, #3
 826 010a 47F60803 		movw	r3, #:lower16:1073772552
 827 010e C4F20003 		movt	r3, #:upper16:1073772552
 828 0112 1344     		add	r3, r2, r3
 829 0114 03F10403 		add	r3, r3, #4
 830 0118 7B60     		str	r3, [r7, #4]
 622:.\Generated_Source\PSoC5/cyfitter_cfg.c **** 		CY_SET_REG16(srcAddrPtr, (uint16)(uint32)CFG_TD_ADDR0[i]);
 831              		.loc 1 622 0
 832 011a 7A68     		ldr	r2, [r7, #4]
 833 011c 3968     		ldr	r1, [r7, #0]
 834 011e 40F20003 		movw	r3, #:lower16:CFG_TD_ADDR0
 835 0122 C0F20003 		movt	r3, #:upper16:CFG_TD_ADDR0
 836 0126 53F82130 		ldr	r3, [r3, r1, lsl #2]
 837 012a 9BB2     		uxth	r3, r3
 838 012c 1380     		strh	r3, [r2, #0]	@ movhi
 839              	.LBE2:
 840              		.loc 1 619 0
 841 012e 3B68     		ldr	r3, [r7, #0]
 842 0130 03F10103 		add	r3, r3, #1
 843 0134 3B60     		str	r3, [r7, #0]
 844              	.L14:
 845 0136 3B68     		ldr	r3, [r7, #0]
 846 0138 4A2B     		cmp	r3, #74
 847 013a E3DD     		ble	.L15
 623:.\Generated_Source\PSoC5/cyfitter_cfg.c **** 	}
 624:.\Generated_Source\PSoC5/cyfitter_cfg.c **** 
 625:.\Generated_Source\PSoC5/cyfitter_cfg.c **** 	CY_CFG_MEMORY_BARRIER();
 848              		.loc 1 625 0
 626:.\Generated_Source\PSoC5/cyfitter_cfg.c **** 	DMAC_CH[0].action[0] = CPU_REQ;    /* initiate the DMA transfer */
 849              		.loc 1 626 0
 850 013c 47F21003 		movw	r3, #:lower16:1073770512
 851 0140 C4F20003 		movt	r3, #:upper16:1073770512
 852 0144 4FF00102 		mov	r2, #1
ARM GAS  C:\Users\Geo\AppData\Local\Temp\ccVeTRuu.s 			page 27


 853 0148 1A71     		strb	r2, [r3, #4]
 627:.\Generated_Source\PSoC5/cyfitter_cfg.c **** 	CY_CFG_MEMORY_BARRIER();
 854              		.loc 1 627 0
 855              	.L16:
 628:.\Generated_Source\PSoC5/cyfitter_cfg.c **** 
 629:.\Generated_Source\PSoC5/cyfitter_cfg.c **** 	/* Wait for all DMA transfers to complete */
 630:.\Generated_Source\PSoC5/cyfitter_cfg.c **** 	while((CY_GET_REG8(CYREG_PHUB_CH0_BASIC_STATUS) & 0x01u)){}
 856              		.loc 1 630 0
 857 014a 47F21803 		movw	r3, #:lower16:1073770520
 858 014e C4F20003 		movt	r3, #:upper16:1073770520
 859 0152 1B78     		ldrb	r3, [r3, #0]
 860 0154 DBB2     		uxtb	r3, r3
 861 0156 03F00103 		and	r3, r3, #1
 862 015a DBB2     		uxtb	r3, r3
 863 015c 002B     		cmp	r3, #0
 864 015e F4D1     		bne	.L16
 865              	.L17:
 631:.\Generated_Source\PSoC5/cyfitter_cfg.c **** 	while((CY_GET_REG8(CYREG_PHUB_CH1_BASIC_STATUS) & 0x01u)){}
 866              		.loc 1 631 0
 867 0160 47F22803 		movw	r3, #:lower16:1073770536
 868 0164 C4F20003 		movt	r3, #:upper16:1073770536
 869 0168 1B78     		ldrb	r3, [r3, #0]
 870 016a DBB2     		uxtb	r3, r3
 871 016c 03F00103 		and	r3, r3, #1
 872 0170 DBB2     		uxtb	r3, r3
 873 0172 002B     		cmp	r3, #0
 874 0174 F4D1     		bne	.L17
 875              	.L18:
 632:.\Generated_Source\PSoC5/cyfitter_cfg.c **** 	while((CY_GET_REG8(CYREG_PHUB_CH2_BASIC_STATUS) & 0x01u)){}
 876              		.loc 1 632 0
 877 0176 47F23803 		movw	r3, #:lower16:1073770552
 878 017a C4F20003 		movt	r3, #:upper16:1073770552
 879 017e 1B78     		ldrb	r3, [r3, #0]
 880 0180 DBB2     		uxtb	r3, r3
 881 0182 03F00103 		and	r3, r3, #1
 882 0186 DBB2     		uxtb	r3, r3
 883 0188 002B     		cmp	r3, #0
 884 018a F4D1     		bne	.L18
 885              	.L19:
 633:.\Generated_Source\PSoC5/cyfitter_cfg.c **** 	while((CY_GET_REG8(CYREG_PHUB_CH5_BASIC_STATUS) & 0x01u)){}
 886              		.loc 1 633 0
 887 018c 47F26803 		movw	r3, #:lower16:1073770600
 888 0190 C4F20003 		movt	r3, #:upper16:1073770600
 889 0194 1B78     		ldrb	r3, [r3, #0]
 890 0196 DBB2     		uxtb	r3, r3
 891 0198 03F00103 		and	r3, r3, #1
 892 019c DBB2     		uxtb	r3, r3
 893 019e 002B     		cmp	r3, #0
 894 01a0 F4D1     		bne	.L19
 895              	.L20:
 634:.\Generated_Source\PSoC5/cyfitter_cfg.c **** 	while((CY_GET_REG8(CYREG_PHUB_CH6_BASIC_STATUS) & 0x01u)){}
 896              		.loc 1 634 0
 897 01a2 47F27803 		movw	r3, #:lower16:1073770616
 898 01a6 C4F20003 		movt	r3, #:upper16:1073770616
 899 01aa 1B78     		ldrb	r3, [r3, #0]
 900 01ac DBB2     		uxtb	r3, r3
 901 01ae 03F00103 		and	r3, r3, #1
ARM GAS  C:\Users\Geo\AppData\Local\Temp\ccVeTRuu.s 			page 28


 902 01b2 DBB2     		uxtb	r3, r3
 903 01b4 002B     		cmp	r3, #0
 904 01b6 F4D1     		bne	.L20
 635:.\Generated_Source\PSoC5/cyfitter_cfg.c **** 
 636:.\Generated_Source\PSoC5/cyfitter_cfg.c **** 	/* DMA initialization is complete, disable all channels */
 637:.\Generated_Source\PSoC5/cyfitter_cfg.c **** 	CY_SET_REG8(CYREG_PHUB_CH0_BASIC_CFG, 0x00);
 905              		.loc 1 637 0
 906 01b8 47F21003 		movw	r3, #:lower16:1073770512
 907 01bc C4F20003 		movt	r3, #:upper16:1073770512
 908 01c0 4FF00002 		mov	r2, #0
 909 01c4 1A70     		strb	r2, [r3, #0]
 638:.\Generated_Source\PSoC5/cyfitter_cfg.c **** 	CY_SET_REG8(CYREG_PHUB_CH1_BASIC_CFG, 0x00);
 910              		.loc 1 638 0
 911 01c6 47F22003 		movw	r3, #:lower16:1073770528
 912 01ca C4F20003 		movt	r3, #:upper16:1073770528
 913 01ce 4FF00002 		mov	r2, #0
 914 01d2 1A70     		strb	r2, [r3, #0]
 639:.\Generated_Source\PSoC5/cyfitter_cfg.c **** 	CY_SET_REG8(CYREG_PHUB_CH2_BASIC_CFG, 0x00);
 915              		.loc 1 639 0
 916 01d4 47F23003 		movw	r3, #:lower16:1073770544
 917 01d8 C4F20003 		movt	r3, #:upper16:1073770544
 918 01dc 4FF00002 		mov	r2, #0
 919 01e0 1A70     		strb	r2, [r3, #0]
 640:.\Generated_Source\PSoC5/cyfitter_cfg.c **** 	CY_SET_REG8(CYREG_PHUB_CH5_BASIC_CFG, 0x00);
 920              		.loc 1 640 0
 921 01e2 47F26003 		movw	r3, #:lower16:1073770592
 922 01e6 C4F20003 		movt	r3, #:upper16:1073770592
 923 01ea 4FF00002 		mov	r2, #0
 924 01ee 1A70     		strb	r2, [r3, #0]
 641:.\Generated_Source\PSoC5/cyfitter_cfg.c **** 	CY_SET_REG8(CYREG_PHUB_CH6_BASIC_CFG, 0x00);
 925              		.loc 1 641 0
 926 01f0 47F27003 		movw	r3, #:lower16:1073770608
 927 01f4 C4F20003 		movt	r3, #:upper16:1073770608
 928 01f8 4FF00002 		mov	r2, #0
 929 01fc 1A70     		strb	r2, [r3, #0]
 642:.\Generated_Source\PSoC5/cyfitter_cfg.c **** 
 643:.\Generated_Source\PSoC5/cyfitter_cfg.c **** }
 930              		.loc 1 643 0
 931 01fe 07F10C07 		add	r7, r7, #12
 932 0202 BD46     		mov	sp, r7
 933 0204 80BC     		pop	{r7}
 934 0206 7047     		bx	lr
 935              		.cfi_endproc
 936              	.LFE3:
 937              		.size	cfg_dma_init, .-cfg_dma_init
 938              		.section	.text.ClockSetup,"ax",%progbits
 939              		.align	2
 940              		.thumb
 941              		.thumb_func
 942              		.type	ClockSetup, %function
 943              	ClockSetup:
 944              	.LFB4:
 644:.\Generated_Source\PSoC5/cyfitter_cfg.c **** /*******************************************************************************
 645:.\Generated_Source\PSoC5/cyfitter_cfg.c **** * Function Name: ClockSetup
 646:.\Generated_Source\PSoC5/cyfitter_cfg.c **** ********************************************************************************
 647:.\Generated_Source\PSoC5/cyfitter_cfg.c **** *
 648:.\Generated_Source\PSoC5/cyfitter_cfg.c **** * Summary:
ARM GAS  C:\Users\Geo\AppData\Local\Temp\ccVeTRuu.s 			page 29


 649:.\Generated_Source\PSoC5/cyfitter_cfg.c **** *  Performs the initialization of all of the clocks in the device based on the
 650:.\Generated_Source\PSoC5/cyfitter_cfg.c **** *  settings in the Clock tab of the DWR.  This includes enabling the requested
 651:.\Generated_Source\PSoC5/cyfitter_cfg.c **** *  clocks and setting the necessary dividers to produce the desired frequency. 
 652:.\Generated_Source\PSoC5/cyfitter_cfg.c **** *
 653:.\Generated_Source\PSoC5/cyfitter_cfg.c **** * Parameters:
 654:.\Generated_Source\PSoC5/cyfitter_cfg.c **** *  void
 655:.\Generated_Source\PSoC5/cyfitter_cfg.c **** *
 656:.\Generated_Source\PSoC5/cyfitter_cfg.c **** * Return:
 657:.\Generated_Source\PSoC5/cyfitter_cfg.c **** *  void
 658:.\Generated_Source\PSoC5/cyfitter_cfg.c **** *
 659:.\Generated_Source\PSoC5/cyfitter_cfg.c **** *******************************************************************************/
 660:.\Generated_Source\PSoC5/cyfitter_cfg.c **** static void ClockSetup(void)
 661:.\Generated_Source\PSoC5/cyfitter_cfg.c **** {
 945              		.loc 1 661 0
 946              		.cfi_startproc
 947              		@ args = 0, pretend = 0, frame = 8
 948              		@ frame_needed = 1, uses_anonymous_args = 0
 949 0000 80B5     		push	{r7, lr}
 950              	.LCFI12:
 951              		.cfi_def_cfa_offset 8
 952 0002 82B0     		sub	sp, sp, #8
 953              	.LCFI13:
 954              		.cfi_def_cfa_offset 16
 955 0004 00AF     		add	r7, sp, #0
 956              		.cfi_offset 14, -4
 957              		.cfi_offset 7, -8
 958              	.LCFI14:
 959              		.cfi_def_cfa_register 7
 662:.\Generated_Source\PSoC5/cyfitter_cfg.c **** 	reg32  timeout;
 663:.\Generated_Source\PSoC5/cyfitter_cfg.c **** 	reg32* timeout_p = &timeout;
 960              		.loc 1 663 0
 961 0006 3B46     		mov	r3, r7
 962 0008 7B60     		str	r3, [r7, #4]
 664:.\Generated_Source\PSoC5/cyfitter_cfg.c **** 
 665:.\Generated_Source\PSoC5/cyfitter_cfg.c **** 
 666:.\Generated_Source\PSoC5/cyfitter_cfg.c **** 	/* Configure Digital Clocks based on settings from Clock DWR */
 667:.\Generated_Source\PSoC5/cyfitter_cfg.c **** 	CY_SET_XTND_REG24((void CYFAR *)(CYREG_CLKDIST_DCFG0_CFG0), 0x190001);
 963              		.loc 1 667 0
 964 000a 44F28000 		movw	r0, #:lower16:1073758336
 965 000e C4F20000 		movt	r0, #:upper16:1073758336
 966 0012 40F20101 		movw	r1, #:lower16:1638401
 967 0016 C0F21901 		movt	r1, #:upper16:1638401
 968 001a FFF7FEFF 		bl	CySetReg24
 668:.\Generated_Source\PSoC5/cyfitter_cfg.c **** 	CY_SET_XTND_REG24((void CYFAR *)(CYREG_CLKDIST_DCFG1_CFG0), 0x190033);
 969              		.loc 1 668 0
 970 001e 44F28400 		movw	r0, #:lower16:1073758340
 971 0022 C4F20000 		movt	r0, #:upper16:1073758340
 972 0026 40F23301 		movw	r1, #:lower16:1638451
 973 002a C0F21901 		movt	r1, #:upper16:1638451
 974 002e FFF7FEFF 		bl	CySetReg24
 669:.\Generated_Source\PSoC5/cyfitter_cfg.c **** 	CY_SET_XTND_REG24((void CYFAR *)(CYREG_CLKDIST_DCFG2_CFG0), 0x190138);
 975              		.loc 1 669 0
 976 0032 44F28800 		movw	r0, #:lower16:1073758344
 977 0036 C4F20000 		movt	r0, #:upper16:1073758344
 978 003a 40F23811 		movw	r1, #:lower16:1638712
 979 003e C0F21901 		movt	r1, #:upper16:1638712
 980 0042 FFF7FEFF 		bl	CySetReg24
ARM GAS  C:\Users\Geo\AppData\Local\Temp\ccVeTRuu.s 			page 30


 670:.\Generated_Source\PSoC5/cyfitter_cfg.c **** 
 671:.\Generated_Source\PSoC5/cyfitter_cfg.c **** 	/* Configure Analog Clocks based on settings from Clock DWR */
 672:.\Generated_Source\PSoC5/cyfitter_cfg.c **** 	CYCONFIGCPY((void CYFAR *)(CYREG_CLKDIST_ACFG0_CFG0), (void CYFAR *)(BS_CYDEV_CLKDIST_ACFG0_CFG0_V
 981              		.loc 1 672 0
 982 0046 44F20010 		movw	r0, #:lower16:1073758464
 983 004a C4F20000 		movt	r0, #:upper16:1073758464
 984 004e 41F69011 		movw	r1, #:lower16:1207966096
 985 0052 C4F60001 		movt	r1, #:upper16:1207966096
 986 0056 4FF00402 		mov	r2, #4
 987 005a FFF7FEFF 		bl	memcpy
 673:.\Generated_Source\PSoC5/cyfitter_cfg.c **** 
 674:.\Generated_Source\PSoC5/cyfitter_cfg.c **** 	/* Configure ILO based on settings from Clock DWR */
 675:.\Generated_Source\PSoC5/cyfitter_cfg.c **** 	CY_SET_XTND_REG8((void CYFAR *)(CYREG_SLOWCLK_ILO_CR0), 0x02);
 988              		.loc 1 675 0
 989 005e 44F20033 		movw	r3, #:lower16:1073758976
 990 0062 C4F20003 		movt	r3, #:upper16:1073758976
 991 0066 4FF00202 		mov	r2, #2
 992 006a 1A70     		strb	r2, [r3, #0]
 676:.\Generated_Source\PSoC5/cyfitter_cfg.c **** 	CY_SET_XTND_REG8((void CYFAR *)(CYREG_CLKDIST_CR), 0x08);
 993              		.loc 1 676 0
 994 006c 44F20003 		movw	r3, #:lower16:1073758208
 995 0070 C4F20003 		movt	r3, #:upper16:1073758208
 996 0074 4FF00802 		mov	r2, #8
 997 0078 1A70     		strb	r2, [r3, #0]
 677:.\Generated_Source\PSoC5/cyfitter_cfg.c **** 
 678:.\Generated_Source\PSoC5/cyfitter_cfg.c **** 	/* Configure XTAL based on settings from Clock DWR */
 679:.\Generated_Source\PSoC5/cyfitter_cfg.c **** 	CY_SET_XTND_REG8((void CYFAR *)(CYREG_FASTCLK_XMHZ_CFG0), 0x19);
 998              		.loc 1 679 0
 999 007a 44F21223 		movw	r3, #:lower16:1073758738
 1000 007e C4F20003 		movt	r3, #:upper16:1073758738
 1001 0082 4FF01902 		mov	r2, #25
 1002 0086 1A70     		strb	r2, [r3, #0]
 680:.\Generated_Source\PSoC5/cyfitter_cfg.c **** 	CY_SET_XTND_REG8((void CYFAR *)(CYREG_FASTCLK_XMHZ_CSR), 0x07);
 1003              		.loc 1 680 0
 1004 0088 44F21023 		movw	r3, #:lower16:1073758736
 1005 008c C4F20003 		movt	r3, #:upper16:1073758736
 1006 0090 4FF00702 		mov	r2, #7
 1007 0094 1A70     		strb	r2, [r3, #0]
 681:.\Generated_Source\PSoC5/cyfitter_cfg.c **** 	/* Wait 130000us for the XTAL to lock */
 682:.\Generated_Source\PSoC5/cyfitter_cfg.c **** 	CyDelayCycles(130000 * 12); /* Delay 130000us based on 12MHz clock */
 1008              		.loc 1 682 0
 1009 0096 4CF6C050 		movw	r0, #:lower16:1560000
 1010 009a C0F21700 		movt	r0, #:upper16:1560000
 1011 009e FFF7FEFF 		bl	CyDelayCycles
 683:.\Generated_Source\PSoC5/cyfitter_cfg.c **** 
 684:.\Generated_Source\PSoC5/cyfitter_cfg.c **** 	/* Configure Bus/Master Clock based on settings from Clock DWR */
 685:.\Generated_Source\PSoC5/cyfitter_cfg.c **** 	CY_SET_XTND_REG16((void CYFAR *)(CYREG_CLKDIST_MSTR0), 0x0203);
 1012              		.loc 1 685 0
 1013 00a2 44F20403 		movw	r3, #:lower16:1073758212
 1014 00a6 C4F20003 		movt	r3, #:upper16:1073758212
 1015 00aa 40F20322 		movw	r2, #515
 1016 00ae 1A80     		strh	r2, [r3, #0]	@ movhi
 686:.\Generated_Source\PSoC5/cyfitter_cfg.c **** 	CY_SET_XTND_REG8((void CYFAR *)(CYREG_CLKDIST_MSTR0), 0x00);
 1017              		.loc 1 686 0
 1018 00b0 44F20403 		movw	r3, #:lower16:1073758212
 1019 00b4 C4F20003 		movt	r3, #:upper16:1073758212
 1020 00b8 4FF00002 		mov	r2, #0
ARM GAS  C:\Users\Geo\AppData\Local\Temp\ccVeTRuu.s 			page 31


 1021 00bc 1A70     		strb	r2, [r3, #0]
 687:.\Generated_Source\PSoC5/cyfitter_cfg.c **** 	CY_SET_XTND_REG8((void CYFAR *)(CYREG_CLKDIST_CR), 0x48);
 1022              		.loc 1 687 0
 1023 00be 44F20003 		movw	r3, #:lower16:1073758208
 1024 00c2 C4F20003 		movt	r3, #:upper16:1073758208
 1025 00c6 4FF04802 		mov	r2, #72
 1026 00ca 1A70     		strb	r2, [r3, #0]
 688:.\Generated_Source\PSoC5/cyfitter_cfg.c **** 
 689:.\Generated_Source\PSoC5/cyfitter_cfg.c **** 	/* Configure IMO based on settings from Clock DWR */
 690:.\Generated_Source\PSoC5/cyfitter_cfg.c **** 	CY_SET_XTND_REG8((void CYFAR *)(CYREG_FASTCLK_IMO_CR), 0x20);
 1027              		.loc 1 690 0
 1028 00cc 44F20023 		movw	r3, #:lower16:1073758720
 1029 00d0 C4F20003 		movt	r3, #:upper16:1073758720
 1030 00d4 4FF02002 		mov	r2, #32
 1031 00d8 1A70     		strb	r2, [r3, #0]
 691:.\Generated_Source\PSoC5/cyfitter_cfg.c **** 	CY_SET_XTND_REG8((void CYFAR *)(CYREG_CLKDIST_MSTR0), 0x07);
 1032              		.loc 1 691 0
 1033 00da 44F20403 		movw	r3, #:lower16:1073758212
 1034 00de C4F20003 		movt	r3, #:upper16:1073758212
 1035 00e2 4FF00702 		mov	r2, #7
 1036 00e6 1A70     		strb	r2, [r3, #0]
 692:.\Generated_Source\PSoC5/cyfitter_cfg.c **** 	CY_SET_XTND_REG8((void CYFAR *)(CYREG_CLKDIST_BCFG0), 0x00);
 1037              		.loc 1 692 0
 1038 00e8 44F20603 		movw	r3, #:lower16:1073758214
 1039 00ec C4F20003 		movt	r3, #:upper16:1073758214
 1040 00f0 4FF00002 		mov	r2, #0
 1041 00f4 1A70     		strb	r2, [r3, #0]
 693:.\Generated_Source\PSoC5/cyfitter_cfg.c **** 	CY_SET_XTND_REG8((void CYFAR *)(CYREG_CLKDIST_BCFG2), 0x48);
 1042              		.loc 1 693 0
 1043 00f6 44F20803 		movw	r3, #:lower16:1073758216
 1044 00fa C4F20003 		movt	r3, #:upper16:1073758216
 1045 00fe 4FF04802 		mov	r2, #72
 1046 0102 1A70     		strb	r2, [r3, #0]
 694:.\Generated_Source\PSoC5/cyfitter_cfg.c **** 	CY_SET_XTND_REG8((void CYFAR *)(CYREG_CLKDIST_MSTR0), 0x00);
 1047              		.loc 1 694 0
 1048 0104 44F20403 		movw	r3, #:lower16:1073758212
 1049 0108 C4F20003 		movt	r3, #:upper16:1073758212
 1050 010c 4FF00002 		mov	r2, #0
 1051 0110 1A70     		strb	r2, [r3, #0]
 695:.\Generated_Source\PSoC5/cyfitter_cfg.c **** 	CY_SET_XTND_REG8((void CYFAR *)(CYREG_CLKDIST_LD), 0x02);
 1052              		.loc 1 695 0
 1053 0112 44F20103 		movw	r3, #:lower16:1073758209
 1054 0116 C4F20003 		movt	r3, #:upper16:1073758209
 1055 011a 4FF00202 		mov	r2, #2
 1056 011e 1A70     		strb	r2, [r3, #0]
 696:.\Generated_Source\PSoC5/cyfitter_cfg.c **** 	CY_SET_XTND_REG8((void CYFAR *)(CYREG_CLKDIST_DLY1), 0x04);
 1057              		.loc 1 696 0
 1058 0120 44F20B03 		movw	r3, #:lower16:1073758219
 1059 0124 C4F20003 		movt	r3, #:upper16:1073758219
 1060 0128 4FF00402 		mov	r2, #4
 1061 012c 1A70     		strb	r2, [r3, #0]
 697:.\Generated_Source\PSoC5/cyfitter_cfg.c **** 
 698:.\Generated_Source\PSoC5/cyfitter_cfg.c **** 	CY_SET_XTND_REG8((void CYFAR *)(CYREG_PM_ACT_CFG2), ((CY_GET_XTND_REG8(CYREG_PM_ACT_CFG2) | 0x07))
 1062              		.loc 1 698 0
 1063 012e 44F2A233 		movw	r3, #:lower16:1073759138
 1064 0132 C4F20003 		movt	r3, #:upper16:1073759138
 1065 0136 44F2A232 		movw	r2, #:lower16:1073759138
ARM GAS  C:\Users\Geo\AppData\Local\Temp\ccVeTRuu.s 			page 32


 1066 013a C4F20002 		movt	r2, #:upper16:1073759138
 1067 013e 1278     		ldrb	r2, [r2, #0]
 1068 0140 D2B2     		uxtb	r2, r2
 1069 0142 42F00702 		orr	r2, r2, #7
 1070 0146 D2B2     		uxtb	r2, r2
 1071 0148 1A70     		strb	r2, [r3, #0]
 699:.\Generated_Source\PSoC5/cyfitter_cfg.c **** 	CY_SET_XTND_REG8((void CYFAR *)(CYREG_PM_ACT_CFG1), ((CY_GET_XTND_REG8(CYREG_PM_ACT_CFG1) | 0x01))
 1072              		.loc 1 699 0
 1073 014a 44F2A133 		movw	r3, #:lower16:1073759137
 1074 014e C4F20003 		movt	r3, #:upper16:1073759137
 1075 0152 44F2A132 		movw	r2, #:lower16:1073759137
 1076 0156 C4F20002 		movt	r2, #:upper16:1073759137
 1077 015a 1278     		ldrb	r2, [r2, #0]
 1078 015c D2B2     		uxtb	r2, r2
 1079 015e 42F00102 		orr	r2, r2, #1
 1080 0162 D2B2     		uxtb	r2, r2
 1081 0164 1A70     		strb	r2, [r3, #0]
 700:.\Generated_Source\PSoC5/cyfitter_cfg.c **** }
 1082              		.loc 1 700 0
 1083 0166 07F10807 		add	r7, r7, #8
 1084 016a BD46     		mov	sp, r7
 1085 016c 80BD     		pop	{r7, pc}
 1086              		.cfi_endproc
 1087              	.LFE4:
 1088              		.size	ClockSetup, .-ClockSetup
 1089 016e 00BF     		.section	.text.AnalogSetDefault,"ax",%progbits
 1090              		.align	2
 1091              		.global	AnalogSetDefault
 1092              		.thumb
 1093              		.thumb_func
 1094              		.type	AnalogSetDefault, %function
 1095              	AnalogSetDefault:
 1096              	.LFB5:
 701:.\Generated_Source\PSoC5/cyfitter_cfg.c **** 
 702:.\Generated_Source\PSoC5/cyfitter_cfg.c **** 
 703:.\Generated_Source\PSoC5/cyfitter_cfg.c **** /* Analog API Functions */
 704:.\Generated_Source\PSoC5/cyfitter_cfg.c **** 
 705:.\Generated_Source\PSoC5/cyfitter_cfg.c **** /*******************************************************************************
 706:.\Generated_Source\PSoC5/cyfitter_cfg.c **** * Function Name: AnalogSetDefault
 707:.\Generated_Source\PSoC5/cyfitter_cfg.c **** ********************************************************************************
 708:.\Generated_Source\PSoC5/cyfitter_cfg.c **** *
 709:.\Generated_Source\PSoC5/cyfitter_cfg.c **** * Summary:
 710:.\Generated_Source\PSoC5/cyfitter_cfg.c **** *  Sets up the analog portions of the chip to default values based on chip
 711:.\Generated_Source\PSoC5/cyfitter_cfg.c **** *  configuration options from the project.
 712:.\Generated_Source\PSoC5/cyfitter_cfg.c **** *
 713:.\Generated_Source\PSoC5/cyfitter_cfg.c **** * Parameters:
 714:.\Generated_Source\PSoC5/cyfitter_cfg.c **** *  void
 715:.\Generated_Source\PSoC5/cyfitter_cfg.c **** *
 716:.\Generated_Source\PSoC5/cyfitter_cfg.c **** * Return:
 717:.\Generated_Source\PSoC5/cyfitter_cfg.c **** *  void
 718:.\Generated_Source\PSoC5/cyfitter_cfg.c **** *
 719:.\Generated_Source\PSoC5/cyfitter_cfg.c **** *******************************************************************************/
 720:.\Generated_Source\PSoC5/cyfitter_cfg.c **** void AnalogSetDefault(void)
 721:.\Generated_Source\PSoC5/cyfitter_cfg.c **** {
 1097              		.loc 1 721 0
 1098              		.cfi_startproc
 1099              		@ args = 0, pretend = 0, frame = 0
ARM GAS  C:\Users\Geo\AppData\Local\Temp\ccVeTRuu.s 			page 33


 1100              		@ frame_needed = 1, uses_anonymous_args = 0
 1101              		@ link register save eliminated.
 1102 0000 80B4     		push	{r7}
 1103              	.LCFI15:
 1104              		.cfi_def_cfa_offset 4
 1105 0002 00AF     		add	r7, sp, #0
 1106              		.cfi_offset 7, -4
 1107              	.LCFI16:
 1108              		.cfi_def_cfa_register 7
 722:.\Generated_Source\PSoC5/cyfitter_cfg.c **** 	CY_SET_XTND_REG16(CYREG_PM_ACT_CFG10, 0x0310);
 1109              		.loc 1 722 0
 1110 0004 44F2AA33 		movw	r3, #:lower16:1073759146
 1111 0008 C4F20003 		movt	r3, #:upper16:1073759146
 1112 000c 4FF44472 		mov	r2, #784
 1113 0010 1A80     		strh	r2, [r3, #0]	@ movhi
 723:.\Generated_Source\PSoC5/cyfitter_cfg.c **** 	CY_SET_XTND_REG8(CYREG_PRT4_AG, 0x20);
 1114              		.loc 1 723 0
 1115 0012 45F24D13 		movw	r3, #:lower16:1073762637
 1116 0016 C4F20003 		movt	r3, #:upper16:1073762637
 1117 001a 4FF02002 		mov	r2, #32
 1118 001e 1A70     		strb	r2, [r3, #0]
 724:.\Generated_Source\PSoC5/cyfitter_cfg.c **** 	CY_SET_XTND_REG8(CYREG_DAC0_CR0, 0x1E);
 1119              		.loc 1 724 0
 1120 0020 45F62003 		movw	r3, #:lower16:1073764384
 1121 0024 C4F20003 		movt	r3, #:upper16:1073764384
 1122 0028 4FF01E02 		mov	r2, #30
 1123 002c 1A70     		strb	r2, [r3, #0]
 725:.\Generated_Source\PSoC5/cyfitter_cfg.c **** 	CY_SET_XTND_REG8(CYREG_DAC1_CR0, 0x1E);
 1124              		.loc 1 725 0
 1125 002e 45F62403 		movw	r3, #:lower16:1073764388
 1126 0032 C4F20003 		movt	r3, #:upper16:1073764388
 1127 0036 4FF01E02 		mov	r2, #30
 1128 003a 1A70     		strb	r2, [r3, #0]
 726:.\Generated_Source\PSoC5/cyfitter_cfg.c **** 	CY_SET_XTND_REG8(CYREG_DAC2_CR0, 0x1E);
 1129              		.loc 1 726 0
 1130 003c 45F62803 		movw	r3, #:lower16:1073764392
 1131 0040 C4F20003 		movt	r3, #:upper16:1073764392
 1132 0044 4FF01E02 		mov	r2, #30
 1133 0048 1A70     		strb	r2, [r3, #0]
 727:.\Generated_Source\PSoC5/cyfitter_cfg.c **** 	CY_SET_XTND_REG8(CYREG_DAC3_CR0, 0x1E);
 1134              		.loc 1 727 0
 1135 004a 45F62C03 		movw	r3, #:lower16:1073764396
 1136 004e C4F20003 		movt	r3, #:upper16:1073764396
 1137 0052 4FF01E02 		mov	r2, #30
 1138 0056 1A70     		strb	r2, [r3, #0]
 728:.\Generated_Source\PSoC5/cyfitter_cfg.c **** 	CY_SET_XTND_REG8(CYREG_BG_CR0, 0x08);
 1139              		.loc 1 728 0
 1140 0058 45F66C03 		movw	r3, #:lower16:1073764460
 1141 005c C4F20003 		movt	r3, #:upper16:1073764460
 1142 0060 4FF00802 		mov	r2, #8
 1143 0064 1A70     		strb	r2, [r3, #0]
 729:.\Generated_Source\PSoC5/cyfitter_cfg.c **** 	CY_SET_XTND_REG8(CYREG_CAPSL_CFG0, 0x00);
 1144              		.loc 1 729 0
 1145 0066 45F67003 		movw	r3, #:lower16:1073764464
 1146 006a C4F20003 		movt	r3, #:upper16:1073764464
 1147 006e 4FF00002 		mov	r2, #0
 1148 0072 1A70     		strb	r2, [r3, #0]
ARM GAS  C:\Users\Geo\AppData\Local\Temp\ccVeTRuu.s 			page 34


 730:.\Generated_Source\PSoC5/cyfitter_cfg.c **** 	CY_SET_XTND_REG16(CYREG_SAR0_CSR0, 0x40C0);
 1149              		.loc 1 730 0
 1150 0074 45F60013 		movw	r3, #:lower16:1073764608
 1151 0078 C4F20003 		movt	r3, #:upper16:1073764608
 1152 007c 44F2C002 		movw	r2, #16576
 1153 0080 1A80     		strh	r2, [r3, #0]	@ movhi
 731:.\Generated_Source\PSoC5/cyfitter_cfg.c **** 	CY_SET_XTND_REG8(CYREG_SAR0_CSR3, 0x0C);
 1154              		.loc 1 731 0
 1155 0082 45F60313 		movw	r3, #:lower16:1073764611
 1156 0086 C4F20003 		movt	r3, #:upper16:1073764611
 1157 008a 4FF00C02 		mov	r2, #12
 1158 008e 1A70     		strb	r2, [r3, #0]
 732:.\Generated_Source\PSoC5/cyfitter_cfg.c **** 	CY_SET_XTND_REG8(CYREG_SAR1_CSR0, 0xC0);
 1159              		.loc 1 732 0
 1160 0090 45F60813 		movw	r3, #:lower16:1073764616
 1161 0094 C4F20003 		movt	r3, #:upper16:1073764616
 1162 0098 6FF03F02 		mvn	r2, #63
 1163 009c 1A70     		strb	r2, [r3, #0]
 733:.\Generated_Source\PSoC5/cyfitter_cfg.c **** 	CY_SET_XTND_REG8(CYREG_SAR1_CSR3, 0x0C);
 1164              		.loc 1 733 0
 1165 009e 45F60B13 		movw	r3, #:lower16:1073764619
 1166 00a2 C4F20003 		movt	r3, #:upper16:1073764619
 1167 00a6 4FF00C02 		mov	r2, #12
 1168 00aa 1A70     		strb	r2, [r3, #0]
 734:.\Generated_Source\PSoC5/cyfitter_cfg.c **** 	CY_SET_XTND_REG8(CYREG_CMP0_SW3, 0x20);
 1169              		.loc 1 734 0
 1170 00ac 45F6C323 		movw	r3, #:lower16:1073765059
 1171 00b0 C4F20003 		movt	r3, #:upper16:1073765059
 1172 00b4 4FF02002 		mov	r2, #32
 1173 00b8 1A70     		strb	r2, [r3, #0]
 735:.\Generated_Source\PSoC5/cyfitter_cfg.c **** 	CY_SET_XTND_REG8(CYREG_DSM0_SW0, 0x21);
 1174              		.loc 1 735 0
 1175 00ba 45F60033 		movw	r3, #:lower16:1073765120
 1176 00be C4F20003 		movt	r3, #:upper16:1073765120
 1177 00c2 4FF02102 		mov	r2, #33
 1178 00c6 1A70     		strb	r2, [r3, #0]
 736:.\Generated_Source\PSoC5/cyfitter_cfg.c **** 	CY_SET_XTND_REG8(CYREG_SAR0_SW3, 0x20);
 1179              		.loc 1 736 0
 1180 00c8 45F62333 		movw	r3, #:lower16:1073765155
 1181 00cc C4F20003 		movt	r3, #:upper16:1073765155
 1182 00d0 4FF02002 		mov	r2, #32
 1183 00d4 1A70     		strb	r2, [r3, #0]
 737:.\Generated_Source\PSoC5/cyfitter_cfg.c **** 	CY_SET_XTND_REG8(CYREG_ABUF2_MX, 0x20);
 1184              		.loc 1 737 0
 1185 00d6 45F64433 		movw	r3, #:lower16:1073765188
 1186 00da C4F20003 		movt	r3, #:upper16:1073765188
 1187 00de 4FF02002 		mov	r2, #32
 1188 00e2 1A70     		strb	r2, [r3, #0]
 738:.\Generated_Source\PSoC5/cyfitter_cfg.c **** 	CY_SET_XTND_REG8(CYREG_BUS_SW3, 0x01);
 1189              		.loc 1 738 0
 1190 00e4 45F65B33 		movw	r3, #:lower16:1073765211
 1191 00e8 C4F20003 		movt	r3, #:upper16:1073765211
 1192 00ec 4FF00102 		mov	r2, #1
 1193 00f0 1A70     		strb	r2, [r3, #0]
 739:.\Generated_Source\PSoC5/cyfitter_cfg.c **** 	CY_SET_XTND_REG8(CYREG_PUMP_CR0, 0x66);
 1194              		.loc 1 739 0
 1195 00f2 45F67603 		movw	r3, #:lower16:1073764470
ARM GAS  C:\Users\Geo\AppData\Local\Temp\ccVeTRuu.s 			page 35


 1196 00f6 C4F20003 		movt	r3, #:upper16:1073764470
 1197 00fa 4FF06602 		mov	r2, #102
 1198 00fe 1A70     		strb	r2, [r3, #0]
 740:.\Generated_Source\PSoC5/cyfitter_cfg.c **** }
 1199              		.loc 1 740 0
 1200 0100 BD46     		mov	sp, r7
 1201 0102 80BC     		pop	{r7}
 1202 0104 7047     		bx	lr
 1203              		.cfi_endproc
 1204              	.LFE5:
 1205              		.size	AnalogSetDefault, .-AnalogSetDefault
 1206              		.global	AMuxAdc__addrTable
 1207 0106 00BF     		.section	.rodata
 1208              		.align	2
 1209              		.type	AMuxAdc__addrTable, %object
 1210              		.size	AMuxAdc__addrTable, 16
 1211              	AMuxAdc__addrTable:
 1212 012c 455B0040 		.word	1073765189
 1213 0130 205B0040 		.word	1073765152
 1214 0134 2D510040 		.word	1073762605
 1215 0138 205B0040 		.word	1073765152
 1216              		.global	AMuxAdc__maskTable
 1217              		.align	2
 1218              		.type	AMuxAdc__maskTable, %object
 1219              		.size	AMuxAdc__maskTable, 4
 1220              	AMuxAdc__maskTable:
 1221 013c 02       		.byte	2
 1222 013d 80       		.byte	-128
 1223 013e 08       		.byte	8
 1224 013f 08       		.byte	8
 1225              		.section	.text.AMuxAdc_Set,"ax",%progbits
 1226              		.align	2
 1227              		.global	AMuxAdc_Set
 1228              		.thumb
 1229              		.thumb_func
 1230              		.type	AMuxAdc_Set, %function
 1231              	AMuxAdc_Set:
 1232              	.LFB6:
 741:.\Generated_Source\PSoC5/cyfitter_cfg.c **** 
 742:.\Generated_Source\PSoC5/cyfitter_cfg.c **** #define CY_AMUX_UNUSED CYREG_BOOST_SR
 743:.\Generated_Source\PSoC5/cyfitter_cfg.c **** /* Table used to specify registers used to implement AMuxAdc */
 744:.\Generated_Source\PSoC5/cyfitter_cfg.c **** uint8 CYXDATA * const CYCODE AMuxAdc__addrTable[] = {
 745:.\Generated_Source\PSoC5/cyfitter_cfg.c **** 	(uint8 CYXDATA *)CYREG_ABUF2_SW, (uint8 CYXDATA *)CYREG_SAR0_SW0, 
 746:.\Generated_Source\PSoC5/cyfitter_cfg.c **** 	(uint8 CYXDATA *)CYREG_PRT2_AG, (uint8 CYXDATA *)CYREG_SAR0_SW0, 
 747:.\Generated_Source\PSoC5/cyfitter_cfg.c **** };
 748:.\Generated_Source\PSoC5/cyfitter_cfg.c **** 
 749:.\Generated_Source\PSoC5/cyfitter_cfg.c **** /* Table used to define bit masks used to enable inputs for AMuxAdc */
 750:.\Generated_Source\PSoC5/cyfitter_cfg.c **** const uint8 CYCODE AMuxAdc__maskTable[] = {
 751:.\Generated_Source\PSoC5/cyfitter_cfg.c **** 	0x02, 0x80, 
 752:.\Generated_Source\PSoC5/cyfitter_cfg.c **** 	0x08, 0x08, 
 753:.\Generated_Source\PSoC5/cyfitter_cfg.c **** };
 754:.\Generated_Source\PSoC5/cyfitter_cfg.c **** 
 755:.\Generated_Source\PSoC5/cyfitter_cfg.c **** /*******************************************************************************
 756:.\Generated_Source\PSoC5/cyfitter_cfg.c **** * Function Name: AMuxAdc_Set
 757:.\Generated_Source\PSoC5/cyfitter_cfg.c **** ********************************************************************************
 758:.\Generated_Source\PSoC5/cyfitter_cfg.c **** * Summary:
 759:.\Generated_Source\PSoC5/cyfitter_cfg.c **** *  This function is used to set a particular channel as active on the AMux.
ARM GAS  C:\Users\Geo\AppData\Local\Temp\ccVeTRuu.s 			page 36


 760:.\Generated_Source\PSoC5/cyfitter_cfg.c **** *
 761:.\Generated_Source\PSoC5/cyfitter_cfg.c **** * Parameters:  
 762:.\Generated_Source\PSoC5/cyfitter_cfg.c **** *   channel - The mux channel input to set as active
 763:.\Generated_Source\PSoC5/cyfitter_cfg.c **** *
 764:.\Generated_Source\PSoC5/cyfitter_cfg.c **** * Return:
 765:.\Generated_Source\PSoC5/cyfitter_cfg.c **** *   void
 766:.\Generated_Source\PSoC5/cyfitter_cfg.c **** *
 767:.\Generated_Source\PSoC5/cyfitter_cfg.c **** *******************************************************************************/
 768:.\Generated_Source\PSoC5/cyfitter_cfg.c **** void AMuxAdc_Set(uint8 channel)
 769:.\Generated_Source\PSoC5/cyfitter_cfg.c **** {
 1233              		.loc 1 769 0
 1234              		.cfi_startproc
 1235              		@ args = 0, pretend = 0, frame = 8
 1236              		@ frame_needed = 1, uses_anonymous_args = 0
 1237              		@ link register save eliminated.
 1238 0000 80B4     		push	{r7}
 1239              	.LCFI17:
 1240              		.cfi_def_cfa_offset 4
 1241 0002 83B0     		sub	sp, sp, #12
 1242              	.LCFI18:
 1243              		.cfi_def_cfa_offset 16
 1244 0004 00AF     		add	r7, sp, #0
 1245              		.cfi_offset 7, -4
 1246              	.LCFI19:
 1247              		.cfi_def_cfa_register 7
 1248 0006 0346     		mov	r3, r0
 1249 0008 FB71     		strb	r3, [r7, #7]
 770:.\Generated_Source\PSoC5/cyfitter_cfg.c **** 	if (channel >= 2)
 1250              		.loc 1 770 0
 1251 000a FB79     		ldrb	r3, [r7, #7]	@ zero_extendqisi2
 1252 000c 012B     		cmp	r3, #1
 1253 000e 3AD8     		bhi	.L30
 1254              	.L27:
 771:.\Generated_Source\PSoC5/cyfitter_cfg.c **** 		return;
 772:.\Generated_Source\PSoC5/cyfitter_cfg.c **** 	channel += channel;
 1255              		.loc 1 772 0
 1256 0010 FA79     		ldrb	r2, [r7, #7]
 1257 0012 FB79     		ldrb	r3, [r7, #7]
 1258 0014 1344     		add	r3, r2, r3
 1259 0016 FB71     		strb	r3, [r7, #7]
 773:.\Generated_Source\PSoC5/cyfitter_cfg.c **** 	*AMuxAdc__addrTable[channel] |= AMuxAdc__maskTable[channel];
 1260              		.loc 1 773 0
 1261 0018 FA79     		ldrb	r2, [r7, #7]	@ zero_extendqisi2
 1262 001a 40F20003 		movw	r3, #:lower16:AMuxAdc__addrTable
 1263 001e C0F20003 		movt	r3, #:upper16:AMuxAdc__addrTable
 1264 0022 53F82220 		ldr	r2, [r3, r2, lsl #2]
 1265 0026 F979     		ldrb	r1, [r7, #7]	@ zero_extendqisi2
 1266 0028 40F20003 		movw	r3, #:lower16:AMuxAdc__addrTable
 1267 002c C0F20003 		movt	r3, #:upper16:AMuxAdc__addrTable
 1268 0030 53F82130 		ldr	r3, [r3, r1, lsl #2]
 1269 0034 1978     		ldrb	r1, [r3, #0]	@ zero_extendqisi2
 1270 0036 F879     		ldrb	r0, [r7, #7]	@ zero_extendqisi2
 1271 0038 40F20003 		movw	r3, #:lower16:AMuxAdc__maskTable
 1272 003c C0F20003 		movt	r3, #:upper16:AMuxAdc__maskTable
 1273 0040 1B5C     		ldrb	r3, [r3, r0]	@ zero_extendqisi2
 1274 0042 41EA0303 		orr	r3, r1, r3
 1275 0046 DBB2     		uxtb	r3, r3
ARM GAS  C:\Users\Geo\AppData\Local\Temp\ccVeTRuu.s 			page 37


 1276 0048 1370     		strb	r3, [r2, #0]
 774:.\Generated_Source\PSoC5/cyfitter_cfg.c **** 	channel++;
 1277              		.loc 1 774 0
 1278 004a FB79     		ldrb	r3, [r7, #7]
 1279 004c 03F10103 		add	r3, r3, #1
 1280 0050 FB71     		strb	r3, [r7, #7]
 775:.\Generated_Source\PSoC5/cyfitter_cfg.c **** 	*AMuxAdc__addrTable[channel] |= AMuxAdc__maskTable[channel];
 1281              		.loc 1 775 0
 1282 0052 FA79     		ldrb	r2, [r7, #7]	@ zero_extendqisi2
 1283 0054 40F20003 		movw	r3, #:lower16:AMuxAdc__addrTable
 1284 0058 C0F20003 		movt	r3, #:upper16:AMuxAdc__addrTable
 1285 005c 53F82220 		ldr	r2, [r3, r2, lsl #2]
 1286 0060 F979     		ldrb	r1, [r7, #7]	@ zero_extendqisi2
 1287 0062 40F20003 		movw	r3, #:lower16:AMuxAdc__addrTable
 1288 0066 C0F20003 		movt	r3, #:upper16:AMuxAdc__addrTable
 1289 006a 53F82130 		ldr	r3, [r3, r1, lsl #2]
 1290 006e 1978     		ldrb	r1, [r3, #0]	@ zero_extendqisi2
 1291 0070 F879     		ldrb	r0, [r7, #7]	@ zero_extendqisi2
 1292 0072 40F20003 		movw	r3, #:lower16:AMuxAdc__maskTable
 1293 0076 C0F20003 		movt	r3, #:upper16:AMuxAdc__maskTable
 1294 007a 1B5C     		ldrb	r3, [r3, r0]	@ zero_extendqisi2
 1295 007c 41EA0303 		orr	r3, r1, r3
 1296 0080 DBB2     		uxtb	r3, r3
 1297 0082 1370     		strb	r3, [r2, #0]
 1298 0084 00E0     		b	.L29
 1299              	.L30:
 1300              		.loc 1 771 0
 1301 0086 00BF     		nop
 1302              	.L29:
 776:.\Generated_Source\PSoC5/cyfitter_cfg.c **** }
 1303              		.loc 1 776 0
 1304 0088 07F10C07 		add	r7, r7, #12
 1305 008c BD46     		mov	sp, r7
 1306 008e 80BC     		pop	{r7}
 1307 0090 7047     		bx	lr
 1308              		.cfi_endproc
 1309              	.LFE6:
 1310              		.size	AMuxAdc_Set, .-AMuxAdc_Set
 1311 0092 00BF     		.section	.text.AMuxAdc_Unset,"ax",%progbits
 1312              		.align	2
 1313              		.global	AMuxAdc_Unset
 1314              		.thumb
 1315              		.thumb_func
 1316              		.type	AMuxAdc_Unset, %function
 1317              	AMuxAdc_Unset:
 1318              	.LFB7:
 777:.\Generated_Source\PSoC5/cyfitter_cfg.c **** 
 778:.\Generated_Source\PSoC5/cyfitter_cfg.c **** /*******************************************************************************
 779:.\Generated_Source\PSoC5/cyfitter_cfg.c **** * Function Name: AMuxAdc_Unset
 780:.\Generated_Source\PSoC5/cyfitter_cfg.c **** ********************************************************************************
 781:.\Generated_Source\PSoC5/cyfitter_cfg.c **** * Summary:
 782:.\Generated_Source\PSoC5/cyfitter_cfg.c **** *  This function is used to clear a particular channel from being active on the
 783:.\Generated_Source\PSoC5/cyfitter_cfg.c **** *  AMux.
 784:.\Generated_Source\PSoC5/cyfitter_cfg.c **** *
 785:.\Generated_Source\PSoC5/cyfitter_cfg.c **** * Parameters:  
 786:.\Generated_Source\PSoC5/cyfitter_cfg.c **** *   channel - The mux channel input to mark inactive
 787:.\Generated_Source\PSoC5/cyfitter_cfg.c **** *
ARM GAS  C:\Users\Geo\AppData\Local\Temp\ccVeTRuu.s 			page 38


 788:.\Generated_Source\PSoC5/cyfitter_cfg.c **** * Return:
 789:.\Generated_Source\PSoC5/cyfitter_cfg.c **** *   void
 790:.\Generated_Source\PSoC5/cyfitter_cfg.c **** *
 791:.\Generated_Source\PSoC5/cyfitter_cfg.c **** *******************************************************************************/
 792:.\Generated_Source\PSoC5/cyfitter_cfg.c **** void AMuxAdc_Unset(uint8 channel)
 793:.\Generated_Source\PSoC5/cyfitter_cfg.c **** {
 1319              		.loc 1 793 0
 1320              		.cfi_startproc
 1321              		@ args = 0, pretend = 0, frame = 8
 1322              		@ frame_needed = 1, uses_anonymous_args = 0
 1323              		@ link register save eliminated.
 1324 0000 80B4     		push	{r7}
 1325              	.LCFI20:
 1326              		.cfi_def_cfa_offset 4
 1327 0002 83B0     		sub	sp, sp, #12
 1328              	.LCFI21:
 1329              		.cfi_def_cfa_offset 16
 1330 0004 00AF     		add	r7, sp, #0
 1331              		.cfi_offset 7, -4
 1332              	.LCFI22:
 1333              		.cfi_def_cfa_register 7
 1334 0006 0346     		mov	r3, r0
 1335 0008 FB71     		strb	r3, [r7, #7]
 794:.\Generated_Source\PSoC5/cyfitter_cfg.c **** 	if (channel >= 2)
 1336              		.loc 1 794 0
 1337 000a FB79     		ldrb	r3, [r7, #7]	@ zero_extendqisi2
 1338 000c 012B     		cmp	r3, #1
 1339 000e 44D8     		bhi	.L35
 1340              	.L32:
 795:.\Generated_Source\PSoC5/cyfitter_cfg.c **** 		return;
 796:.\Generated_Source\PSoC5/cyfitter_cfg.c **** 	channel += channel;
 1341              		.loc 1 796 0
 1342 0010 FA79     		ldrb	r2, [r7, #7]
 1343 0012 FB79     		ldrb	r3, [r7, #7]
 1344 0014 1344     		add	r3, r2, r3
 1345 0016 FB71     		strb	r3, [r7, #7]
 797:.\Generated_Source\PSoC5/cyfitter_cfg.c **** 	*AMuxAdc__addrTable[channel] &= ~AMuxAdc__maskTable[channel];
 1346              		.loc 1 797 0
 1347 0018 FA79     		ldrb	r2, [r7, #7]	@ zero_extendqisi2
 1348 001a 40F20003 		movw	r3, #:lower16:AMuxAdc__addrTable
 1349 001e C0F20003 		movt	r3, #:upper16:AMuxAdc__addrTable
 1350 0022 53F82220 		ldr	r2, [r3, r2, lsl #2]
 1351 0026 F979     		ldrb	r1, [r7, #7]	@ zero_extendqisi2
 1352 0028 40F20003 		movw	r3, #:lower16:AMuxAdc__addrTable
 1353 002c C0F20003 		movt	r3, #:upper16:AMuxAdc__addrTable
 1354 0030 53F82130 		ldr	r3, [r3, r1, lsl #2]
 1355 0034 1B78     		ldrb	r3, [r3, #0]	@ zero_extendqisi2
 1356 0036 1946     		mov	r1, r3
 1357 0038 F879     		ldrb	r0, [r7, #7]	@ zero_extendqisi2
 1358 003a 40F20003 		movw	r3, #:lower16:AMuxAdc__maskTable
 1359 003e C0F20003 		movt	r3, #:upper16:AMuxAdc__maskTable
 1360 0042 1B5C     		ldrb	r3, [r3, r0]	@ zero_extendqisi2
 1361 0044 6FEA0303 		mvn	r3, r3
 1362 0048 DBB2     		uxtb	r3, r3
 1363 004a 01EA0303 		and	r3, r1, r3
 1364 004e DBB2     		uxtb	r3, r3
 1365 0050 DBB2     		uxtb	r3, r3
ARM GAS  C:\Users\Geo\AppData\Local\Temp\ccVeTRuu.s 			page 39


 1366 0052 1370     		strb	r3, [r2, #0]
 798:.\Generated_Source\PSoC5/cyfitter_cfg.c **** 	channel++;
 1367              		.loc 1 798 0
 1368 0054 FB79     		ldrb	r3, [r7, #7]
 1369 0056 03F10103 		add	r3, r3, #1
 1370 005a FB71     		strb	r3, [r7, #7]
 799:.\Generated_Source\PSoC5/cyfitter_cfg.c **** 	*AMuxAdc__addrTable[channel] &= ~AMuxAdc__maskTable[channel];
 1371              		.loc 1 799 0
 1372 005c FA79     		ldrb	r2, [r7, #7]	@ zero_extendqisi2
 1373 005e 40F20003 		movw	r3, #:lower16:AMuxAdc__addrTable
 1374 0062 C0F20003 		movt	r3, #:upper16:AMuxAdc__addrTable
 1375 0066 53F82220 		ldr	r2, [r3, r2, lsl #2]
 1376 006a F979     		ldrb	r1, [r7, #7]	@ zero_extendqisi2
 1377 006c 40F20003 		movw	r3, #:lower16:AMuxAdc__addrTable
 1378 0070 C0F20003 		movt	r3, #:upper16:AMuxAdc__addrTable
 1379 0074 53F82130 		ldr	r3, [r3, r1, lsl #2]
 1380 0078 1B78     		ldrb	r3, [r3, #0]	@ zero_extendqisi2
 1381 007a 1946     		mov	r1, r3
 1382 007c F879     		ldrb	r0, [r7, #7]	@ zero_extendqisi2
 1383 007e 40F20003 		movw	r3, #:lower16:AMuxAdc__maskTable
 1384 0082 C0F20003 		movt	r3, #:upper16:AMuxAdc__maskTable
 1385 0086 1B5C     		ldrb	r3, [r3, r0]	@ zero_extendqisi2
 1386 0088 6FEA0303 		mvn	r3, r3
 1387 008c DBB2     		uxtb	r3, r3
 1388 008e 01EA0303 		and	r3, r1, r3
 1389 0092 DBB2     		uxtb	r3, r3
 1390 0094 DBB2     		uxtb	r3, r3
 1391 0096 1370     		strb	r3, [r2, #0]
 1392 0098 00E0     		b	.L34
 1393              	.L35:
 1394              		.loc 1 795 0
 1395 009a 00BF     		nop
 1396              	.L34:
 800:.\Generated_Source\PSoC5/cyfitter_cfg.c **** }
 1397              		.loc 1 800 0
 1398 009c 07F10C07 		add	r7, r7, #12
 1399 00a0 BD46     		mov	sp, r7
 1400 00a2 80BC     		pop	{r7}
 1401 00a4 7047     		bx	lr
 1402              		.cfi_endproc
 1403              	.LFE7:
 1404              		.size	AMuxAdc_Unset, .-AMuxAdc_Unset
 1405              		.global	CapSense_AMuxCH0__addrTable
 1406 00a6 00BF     		.section	.rodata
 1407              		.align	2
 1408              		.type	CapSense_AMuxCH0__addrTable, %object
 1409              		.size	CapSense_AMuxCH0__addrTable, 28
 1410              	CapSense_AMuxCH0__addrTable:
 1411 0140 5C510040 		.word	1073762652
 1412 0144 3C510040 		.word	1073762620
 1413 0148 2C510040 		.word	1073762604
 1414 014c 0C510040 		.word	1073762572
 1415 0150 4C510040 		.word	1073762636
 1416 0154 C35A0040 		.word	1073765059
 1417 0158 835A0040 		.word	1073764995
 1418              		.global	CapSense_AMuxCH0__maskTable
 1419              		.align	2
ARM GAS  C:\Users\Geo\AppData\Local\Temp\ccVeTRuu.s 			page 40


 1420              		.type	CapSense_AMuxCH0__maskTable, %object
 1421              		.size	CapSense_AMuxCH0__maskTable, 7
 1422              	CapSense_AMuxCH0__maskTable:
 1423 015c 04       		.byte	4
 1424 015d 80       		.byte	-128
 1425 015e 20       		.byte	32
 1426 015f 80       		.byte	-128
 1427 0160 20       		.byte	32
 1428 0161 01       		.byte	1
 1429 0162 10       		.byte	16
 1430 0163 00       		.section	.text.CapSense_AMuxCH0_Set,"ax",%progbits
 1431              		.align	2
 1432              		.global	CapSense_AMuxCH0_Set
 1433              		.thumb
 1434              		.thumb_func
 1435              		.type	CapSense_AMuxCH0_Set, %function
 1436              	CapSense_AMuxCH0_Set:
 1437              	.LFB8:
 801:.\Generated_Source\PSoC5/cyfitter_cfg.c **** 
 802:.\Generated_Source\PSoC5/cyfitter_cfg.c **** /* Table used to specify registers used to implement CapSense_AMuxCH0 */
 803:.\Generated_Source\PSoC5/cyfitter_cfg.c **** uint8 CYXDATA * const CYCODE CapSense_AMuxCH0__addrTable[] = {
 804:.\Generated_Source\PSoC5/cyfitter_cfg.c **** 	(uint8 CYXDATA *)CYREG_PRT5_AMUX, 
 805:.\Generated_Source\PSoC5/cyfitter_cfg.c **** 	(uint8 CYXDATA *)CYREG_PRT3_AMUX, 
 806:.\Generated_Source\PSoC5/cyfitter_cfg.c **** 	(uint8 CYXDATA *)CYREG_PRT2_AMUX, 
 807:.\Generated_Source\PSoC5/cyfitter_cfg.c **** 	(uint8 CYXDATA *)CYREG_PRT0_AMUX, 
 808:.\Generated_Source\PSoC5/cyfitter_cfg.c **** 	(uint8 CYXDATA *)CYREG_PRT4_AMUX, 
 809:.\Generated_Source\PSoC5/cyfitter_cfg.c **** 	(uint8 CYXDATA *)CYREG_CMP0_SW3, 
 810:.\Generated_Source\PSoC5/cyfitter_cfg.c **** 	(uint8 CYXDATA *)CYREG_DAC0_SW3, 
 811:.\Generated_Source\PSoC5/cyfitter_cfg.c **** };
 812:.\Generated_Source\PSoC5/cyfitter_cfg.c **** 
 813:.\Generated_Source\PSoC5/cyfitter_cfg.c **** /* Table used to define bit masks used to enable inputs for CapSense_AMuxCH0 */
 814:.\Generated_Source\PSoC5/cyfitter_cfg.c **** const uint8 CYCODE CapSense_AMuxCH0__maskTable[] = {
 815:.\Generated_Source\PSoC5/cyfitter_cfg.c **** 	0x04, 
 816:.\Generated_Source\PSoC5/cyfitter_cfg.c **** 	0x80, 
 817:.\Generated_Source\PSoC5/cyfitter_cfg.c **** 	0x20, 
 818:.\Generated_Source\PSoC5/cyfitter_cfg.c **** 	0x80, 
 819:.\Generated_Source\PSoC5/cyfitter_cfg.c **** 	0x20, 
 820:.\Generated_Source\PSoC5/cyfitter_cfg.c **** 	0x01, 
 821:.\Generated_Source\PSoC5/cyfitter_cfg.c **** 	0x10, 
 822:.\Generated_Source\PSoC5/cyfitter_cfg.c **** };
 823:.\Generated_Source\PSoC5/cyfitter_cfg.c **** 
 824:.\Generated_Source\PSoC5/cyfitter_cfg.c **** /*******************************************************************************
 825:.\Generated_Source\PSoC5/cyfitter_cfg.c **** * Function Name: CapSense_AMuxCH0_Set
 826:.\Generated_Source\PSoC5/cyfitter_cfg.c **** ********************************************************************************
 827:.\Generated_Source\PSoC5/cyfitter_cfg.c **** * Summary:
 828:.\Generated_Source\PSoC5/cyfitter_cfg.c **** *  This function is used to set a particular channel as active on the AMux.
 829:.\Generated_Source\PSoC5/cyfitter_cfg.c **** *
 830:.\Generated_Source\PSoC5/cyfitter_cfg.c **** * Parameters:  
 831:.\Generated_Source\PSoC5/cyfitter_cfg.c **** *   channel - The mux channel input to set as active
 832:.\Generated_Source\PSoC5/cyfitter_cfg.c **** *
 833:.\Generated_Source\PSoC5/cyfitter_cfg.c **** * Return:
 834:.\Generated_Source\PSoC5/cyfitter_cfg.c **** *   void
 835:.\Generated_Source\PSoC5/cyfitter_cfg.c **** *
 836:.\Generated_Source\PSoC5/cyfitter_cfg.c **** *******************************************************************************/
 837:.\Generated_Source\PSoC5/cyfitter_cfg.c **** void CapSense_AMuxCH0_Set(uint8 channel)
 838:.\Generated_Source\PSoC5/cyfitter_cfg.c **** {
 1438              		.loc 1 838 0
ARM GAS  C:\Users\Geo\AppData\Local\Temp\ccVeTRuu.s 			page 41


 1439              		.cfi_startproc
 1440              		@ args = 0, pretend = 0, frame = 8
 1441              		@ frame_needed = 1, uses_anonymous_args = 0
 1442              		@ link register save eliminated.
 1443 0000 80B4     		push	{r7}
 1444              	.LCFI23:
 1445              		.cfi_def_cfa_offset 4
 1446 0002 83B0     		sub	sp, sp, #12
 1447              	.LCFI24:
 1448              		.cfi_def_cfa_offset 16
 1449 0004 00AF     		add	r7, sp, #0
 1450              		.cfi_offset 7, -4
 1451              	.LCFI25:
 1452              		.cfi_def_cfa_register 7
 1453 0006 0346     		mov	r3, r0
 1454 0008 FB71     		strb	r3, [r7, #7]
 839:.\Generated_Source\PSoC5/cyfitter_cfg.c **** 	if (channel >= 7)
 1455              		.loc 1 839 0
 1456 000a FB79     		ldrb	r3, [r7, #7]	@ zero_extendqisi2
 1457 000c 062B     		cmp	r3, #6
 1458 000e 19D8     		bhi	.L40
 1459              	.L37:
 840:.\Generated_Source\PSoC5/cyfitter_cfg.c **** 		return;
 841:.\Generated_Source\PSoC5/cyfitter_cfg.c **** 	*CapSense_AMuxCH0__addrTable[channel] |= CapSense_AMuxCH0__maskTable[channel];
 1460              		.loc 1 841 0
 1461 0010 FA79     		ldrb	r2, [r7, #7]	@ zero_extendqisi2
 1462 0012 40F20003 		movw	r3, #:lower16:CapSense_AMuxCH0__addrTable
 1463 0016 C0F20003 		movt	r3, #:upper16:CapSense_AMuxCH0__addrTable
 1464 001a 53F82220 		ldr	r2, [r3, r2, lsl #2]
 1465 001e F979     		ldrb	r1, [r7, #7]	@ zero_extendqisi2
 1466 0020 40F20003 		movw	r3, #:lower16:CapSense_AMuxCH0__addrTable
 1467 0024 C0F20003 		movt	r3, #:upper16:CapSense_AMuxCH0__addrTable
 1468 0028 53F82130 		ldr	r3, [r3, r1, lsl #2]
 1469 002c 1978     		ldrb	r1, [r3, #0]	@ zero_extendqisi2
 1470 002e F879     		ldrb	r0, [r7, #7]	@ zero_extendqisi2
 1471 0030 40F20003 		movw	r3, #:lower16:CapSense_AMuxCH0__maskTable
 1472 0034 C0F20003 		movt	r3, #:upper16:CapSense_AMuxCH0__maskTable
 1473 0038 1B5C     		ldrb	r3, [r3, r0]	@ zero_extendqisi2
 1474 003a 41EA0303 		orr	r3, r1, r3
 1475 003e DBB2     		uxtb	r3, r3
 1476 0040 1370     		strb	r3, [r2, #0]
 1477 0042 00E0     		b	.L39
 1478              	.L40:
 1479              		.loc 1 840 0
 1480 0044 00BF     		nop
 1481              	.L39:
 842:.\Generated_Source\PSoC5/cyfitter_cfg.c **** }
 1482              		.loc 1 842 0
 1483 0046 07F10C07 		add	r7, r7, #12
 1484 004a BD46     		mov	sp, r7
 1485 004c 80BC     		pop	{r7}
 1486 004e 7047     		bx	lr
 1487              		.cfi_endproc
 1488              	.LFE8:
 1489              		.size	CapSense_AMuxCH0_Set, .-CapSense_AMuxCH0_Set
 1490              		.section	.text.CapSense_AMuxCH0_Unset,"ax",%progbits
 1491              		.align	2
ARM GAS  C:\Users\Geo\AppData\Local\Temp\ccVeTRuu.s 			page 42


 1492              		.global	CapSense_AMuxCH0_Unset
 1493              		.thumb
 1494              		.thumb_func
 1495              		.type	CapSense_AMuxCH0_Unset, %function
 1496              	CapSense_AMuxCH0_Unset:
 1497              	.LFB9:
 843:.\Generated_Source\PSoC5/cyfitter_cfg.c **** 
 844:.\Generated_Source\PSoC5/cyfitter_cfg.c **** /*******************************************************************************
 845:.\Generated_Source\PSoC5/cyfitter_cfg.c **** * Function Name: CapSense_AMuxCH0_Unset
 846:.\Generated_Source\PSoC5/cyfitter_cfg.c **** ********************************************************************************
 847:.\Generated_Source\PSoC5/cyfitter_cfg.c **** * Summary:
 848:.\Generated_Source\PSoC5/cyfitter_cfg.c **** *  This function is used to clear a particular channel from being active on the
 849:.\Generated_Source\PSoC5/cyfitter_cfg.c **** *  AMux.
 850:.\Generated_Source\PSoC5/cyfitter_cfg.c **** *
 851:.\Generated_Source\PSoC5/cyfitter_cfg.c **** * Parameters:  
 852:.\Generated_Source\PSoC5/cyfitter_cfg.c **** *   channel - The mux channel input to mark inactive
 853:.\Generated_Source\PSoC5/cyfitter_cfg.c **** *
 854:.\Generated_Source\PSoC5/cyfitter_cfg.c **** * Return:
 855:.\Generated_Source\PSoC5/cyfitter_cfg.c **** *   void
 856:.\Generated_Source\PSoC5/cyfitter_cfg.c **** *
 857:.\Generated_Source\PSoC5/cyfitter_cfg.c **** *******************************************************************************/
 858:.\Generated_Source\PSoC5/cyfitter_cfg.c **** void CapSense_AMuxCH0_Unset(uint8 channel)
 859:.\Generated_Source\PSoC5/cyfitter_cfg.c **** {
 1498              		.loc 1 859 0
 1499              		.cfi_startproc
 1500              		@ args = 0, pretend = 0, frame = 8
 1501              		@ frame_needed = 1, uses_anonymous_args = 0
 1502              		@ link register save eliminated.
 1503 0000 80B4     		push	{r7}
 1504              	.LCFI26:
 1505              		.cfi_def_cfa_offset 4
 1506 0002 83B0     		sub	sp, sp, #12
 1507              	.LCFI27:
 1508              		.cfi_def_cfa_offset 16
 1509 0004 00AF     		add	r7, sp, #0
 1510              		.cfi_offset 7, -4
 1511              	.LCFI28:
 1512              		.cfi_def_cfa_register 7
 1513 0006 0346     		mov	r3, r0
 1514 0008 FB71     		strb	r3, [r7, #7]
 860:.\Generated_Source\PSoC5/cyfitter_cfg.c **** 	if (channel >= 7)
 1515              		.loc 1 860 0
 1516 000a FB79     		ldrb	r3, [r7, #7]	@ zero_extendqisi2
 1517 000c 062B     		cmp	r3, #6
 1518 000e 1ED8     		bhi	.L45
 1519              	.L42:
 861:.\Generated_Source\PSoC5/cyfitter_cfg.c **** 		return;
 862:.\Generated_Source\PSoC5/cyfitter_cfg.c **** 	*CapSense_AMuxCH0__addrTable[channel] &= ~CapSense_AMuxCH0__maskTable[channel];
 1520              		.loc 1 862 0
 1521 0010 FA79     		ldrb	r2, [r7, #7]	@ zero_extendqisi2
 1522 0012 40F20003 		movw	r3, #:lower16:CapSense_AMuxCH0__addrTable
 1523 0016 C0F20003 		movt	r3, #:upper16:CapSense_AMuxCH0__addrTable
 1524 001a 53F82220 		ldr	r2, [r3, r2, lsl #2]
 1525 001e F979     		ldrb	r1, [r7, #7]	@ zero_extendqisi2
 1526 0020 40F20003 		movw	r3, #:lower16:CapSense_AMuxCH0__addrTable
 1527 0024 C0F20003 		movt	r3, #:upper16:CapSense_AMuxCH0__addrTable
 1528 0028 53F82130 		ldr	r3, [r3, r1, lsl #2]
ARM GAS  C:\Users\Geo\AppData\Local\Temp\ccVeTRuu.s 			page 43


 1529 002c 1B78     		ldrb	r3, [r3, #0]	@ zero_extendqisi2
 1530 002e 1946     		mov	r1, r3
 1531 0030 F879     		ldrb	r0, [r7, #7]	@ zero_extendqisi2
 1532 0032 40F20003 		movw	r3, #:lower16:CapSense_AMuxCH0__maskTable
 1533 0036 C0F20003 		movt	r3, #:upper16:CapSense_AMuxCH0__maskTable
 1534 003a 1B5C     		ldrb	r3, [r3, r0]	@ zero_extendqisi2
 1535 003c 6FEA0303 		mvn	r3, r3
 1536 0040 DBB2     		uxtb	r3, r3
 1537 0042 01EA0303 		and	r3, r1, r3
 1538 0046 DBB2     		uxtb	r3, r3
 1539 0048 DBB2     		uxtb	r3, r3
 1540 004a 1370     		strb	r3, [r2, #0]
 1541 004c 00E0     		b	.L44
 1542              	.L45:
 1543              		.loc 1 861 0
 1544 004e 00BF     		nop
 1545              	.L44:
 863:.\Generated_Source\PSoC5/cyfitter_cfg.c **** }
 1546              		.loc 1 863 0
 1547 0050 07F10C07 		add	r7, r7, #12
 1548 0054 BD46     		mov	sp, r7
 1549 0056 80BC     		pop	{r7}
 1550 0058 7047     		bx	lr
 1551              		.cfi_endproc
 1552              	.LFE9:
 1553              		.size	CapSense_AMuxCH0_Unset, .-CapSense_AMuxCH0_Unset
 1554 005a 00BF     		.section	.text.cyfitter_cfg,"ax",%progbits
 1555              		.align	2
 1556              		.global	cyfitter_cfg
 1557              		.thumb
 1558              		.thumb_func
 1559              		.type	cyfitter_cfg, %function
 1560              	cyfitter_cfg:
 1561              	.LFB10:
 864:.\Generated_Source\PSoC5/cyfitter_cfg.c **** 
 865:.\Generated_Source\PSoC5/cyfitter_cfg.c **** 
 866:.\Generated_Source\PSoC5/cyfitter_cfg.c **** 
 867:.\Generated_Source\PSoC5/cyfitter_cfg.c **** /*******************************************************************************
 868:.\Generated_Source\PSoC5/cyfitter_cfg.c **** * Function Name: cyfitter_cfg
 869:.\Generated_Source\PSoC5/cyfitter_cfg.c **** ********************************************************************************
 870:.\Generated_Source\PSoC5/cyfitter_cfg.c **** * Summary:
 871:.\Generated_Source\PSoC5/cyfitter_cfg.c **** *  This function is called by the start-up code for the selected device. It
 872:.\Generated_Source\PSoC5/cyfitter_cfg.c **** *  performs all of the necessary device configuration based on the design
 873:.\Generated_Source\PSoC5/cyfitter_cfg.c **** *  settings.  This includes settings from the Design Wide Resources (DWR) such
 874:.\Generated_Source\PSoC5/cyfitter_cfg.c **** *  as Clocks and Pins as well as any component configuration that is necessary.
 875:.\Generated_Source\PSoC5/cyfitter_cfg.c **** *
 876:.\Generated_Source\PSoC5/cyfitter_cfg.c **** * Parameters:  
 877:.\Generated_Source\PSoC5/cyfitter_cfg.c **** *   void
 878:.\Generated_Source\PSoC5/cyfitter_cfg.c **** *
 879:.\Generated_Source\PSoC5/cyfitter_cfg.c **** * Return:
 880:.\Generated_Source\PSoC5/cyfitter_cfg.c **** *   void
 881:.\Generated_Source\PSoC5/cyfitter_cfg.c **** *
 882:.\Generated_Source\PSoC5/cyfitter_cfg.c **** *******************************************************************************/
 883:.\Generated_Source\PSoC5/cyfitter_cfg.c **** void cyfitter_cfg(void)
 884:.\Generated_Source\PSoC5/cyfitter_cfg.c **** {
 1562              		.loc 1 884 0
 1563              		.cfi_startproc
ARM GAS  C:\Users\Geo\AppData\Local\Temp\ccVeTRuu.s 			page 44


 1564              		@ args = 0, pretend = 0, frame = 0
 1565              		@ frame_needed = 1, uses_anonymous_args = 0
 1566 0000 80B5     		push	{r7, lr}
 1567              	.LCFI29:
 1568              		.cfi_def_cfa_offset 8
 1569 0002 00AF     		add	r7, sp, #0
 1570              		.cfi_offset 14, -4
 1571              		.cfi_offset 7, -8
 1572              	.LCFI30:
 1573              		.cfi_def_cfa_register 7
 885:.\Generated_Source\PSoC5/cyfitter_cfg.c **** #ifdef CYGlobalIntDisable
 886:.\Generated_Source\PSoC5/cyfitter_cfg.c **** 	/* Disable interrupts by default. Let user enable if/when they want. */
 887:.\Generated_Source\PSoC5/cyfitter_cfg.c **** 	CYGlobalIntDisable;
 1574              		.loc 1 887 0
 1575              	@ 887 ".\Generated_Source\PSoC5\cyfitter_cfg.c" 1
 1576 0004 72B6     		CPSID   i
 1577              	@ 0 "" 2
 888:.\Generated_Source\PSoC5/cyfitter_cfg.c **** #endif
 889:.\Generated_Source\PSoC5/cyfitter_cfg.c **** 
 890:.\Generated_Source\PSoC5/cyfitter_cfg.c **** 	/* Setup Flash Cycles based on 12MHz clock startup frequency. */
 891:.\Generated_Source\PSoC5/cyfitter_cfg.c **** 	CY_SET_XTND_REG8((void CYFAR *)(CYREG_CACHE_CC_CTL), ((CYDEV_INSTRUCT_CACHE_ENABLED) ? 0x40 : 0x41
 1578              		.loc 1 891 0
 1579              		.thumb
 1580 0006 44F60003 		movw	r3, #:lower16:1073760256
 1581 000a C4F20003 		movt	r3, #:upper16:1073760256
 1582 000e 4FF04002 		mov	r2, #64
 1583 0012 1A70     		strb	r2, [r3, #0]
 892:.\Generated_Source\PSoC5/cyfitter_cfg.c **** 
 893:.\Generated_Source\PSoC5/cyfitter_cfg.c **** 	/* Disable DMA channels so they can be configured for chip initialization */
 894:.\Generated_Source\PSoC5/cyfitter_cfg.c **** 	CY_SET_XTND_REG8((void CYFAR *)(CYREG_PHUB_CH0_BASIC_CFG), 0x00);
 1584              		.loc 1 894 0
 1585 0014 47F21003 		movw	r3, #:lower16:1073770512
 1586 0018 C4F20003 		movt	r3, #:upper16:1073770512
 1587 001c 4FF00002 		mov	r2, #0
 1588 0020 1A70     		strb	r2, [r3, #0]
 895:.\Generated_Source\PSoC5/cyfitter_cfg.c **** 	CY_SET_XTND_REG8((void CYFAR *)(CYREG_PHUB_CH1_BASIC_CFG), 0x00);
 1589              		.loc 1 895 0
 1590 0022 47F22003 		movw	r3, #:lower16:1073770528
 1591 0026 C4F20003 		movt	r3, #:upper16:1073770528
 1592 002a 4FF00002 		mov	r2, #0
 1593 002e 1A70     		strb	r2, [r3, #0]
 896:.\Generated_Source\PSoC5/cyfitter_cfg.c **** 
 897:.\Generated_Source\PSoC5/cyfitter_cfg.c **** 	/* Enable analog pulldown switches */
 898:.\Generated_Source\PSoC5/cyfitter_cfg.c **** 	CY_SET_XTND_REG8((void CYFAR *)(CYREG_ANAIF_CFG_MISC_CR0), 0x01);
 1594              		.loc 1 898 0
 1595 0030 45F67C03 		movw	r3, #:lower16:1073764476
 1596 0034 C4F20003 		movt	r3, #:upper16:1073764476
 1597 0038 4FF00102 		mov	r2, #1
 1598 003c 1A70     		strb	r2, [r3, #0]
 899:.\Generated_Source\PSoC5/cyfitter_cfg.c **** 
 900:.\Generated_Source\PSoC5/cyfitter_cfg.c **** 	/* Enable/Disable Debug functionality based on settings from System DWR */
 901:.\Generated_Source\PSoC5/cyfitter_cfg.c **** 	CY_SET_XTND_REG8(CYREG_MLOGIC_DBG_DBE, (CY_GET_XTND_REG8(CYREG_MLOGIC_DBG_DBE) | 0x01));
 1599              		.loc 1 901 0
 1600 003e 44F2E863 		movw	r3, #:lower16:1073759976
 1601 0042 C4F20003 		movt	r3, #:upper16:1073759976
 1602 0046 44F2E862 		movw	r2, #:lower16:1073759976
 1603 004a C4F20002 		movt	r2, #:upper16:1073759976
ARM GAS  C:\Users\Geo\AppData\Local\Temp\ccVeTRuu.s 			page 45


 1604 004e 1278     		ldrb	r2, [r2, #0]
 1605 0050 D2B2     		uxtb	r2, r2
 1606 0052 42F00102 		orr	r2, r2, #1
 1607 0056 D2B2     		uxtb	r2, r2
 1608 0058 1A70     		strb	r2, [r3, #0]
 902:.\Generated_Source\PSoC5/cyfitter_cfg.c **** 
 903:.\Generated_Source\PSoC5/cyfitter_cfg.c **** 	{
 904:.\Generated_Source\PSoC5/cyfitter_cfg.c **** 		cfg_dma_init();
 1609              		.loc 1 904 0
 1610 005a FFF7FEFF 		bl	cfg_dma_init
 905:.\Generated_Source\PSoC5/cyfitter_cfg.c **** 
 906:.\Generated_Source\PSoC5/cyfitter_cfg.c **** 		/* Perform normal device configuration. Order is not critical for these items. */
 907:.\Generated_Source\PSoC5/cyfitter_cfg.c **** 		CYCONFIGCPY8((void CYFAR *)(CYDEV_PRTDSI_PRT0_BASE), (void CYFAR *)(BS_IOPORT_0_VAL), 7);
 1611              		.loc 1 907 0
 1612 005e 45F20020 		movw	r0, #:lower16:1073762816
 1613 0062 C4F20000 		movt	r0, #:upper16:1073762816
 1614 0066 41F66811 		movw	r1, #:lower16:1207966056
 1615 006a C4F60001 		movt	r1, #:upper16:1207966056
 1616 006e 4FF00702 		mov	r2, #7
 1617 0072 FFF7FEFF 		bl	cymemcpy8
 908:.\Generated_Source\PSoC5/cyfitter_cfg.c **** 		CYMEMZERO8((void CYFAR *)(CYDEV_PRTDSI_PRT1_BASE), 7);
 1618              		.loc 1 908 0
 1619 0076 45F20820 		movw	r0, #:lower16:1073762824
 1620 007a C4F20000 		movt	r0, #:upper16:1073762824
 1621 007e 4FF00701 		mov	r1, #7
 1622 0082 FFF7FEFF 		bl	cymemzero8
 909:.\Generated_Source\PSoC5/cyfitter_cfg.c **** 		CYCONFIGCPY8((void CYFAR *)(CYDEV_PRTDSI_PRT2_BASE), (void CYFAR *)(BS_IOPORT_2_VAL), 7);
 1623              		.loc 1 909 0
 1624 0086 45F21020 		movw	r0, #:lower16:1073762832
 1625 008a C4F20000 		movt	r0, #:upper16:1073762832
 1626 008e 41F67011 		movw	r1, #:lower16:1207966064
 1627 0092 C4F60001 		movt	r1, #:upper16:1207966064
 1628 0096 4FF00702 		mov	r2, #7
 1629 009a FFF7FEFF 		bl	cymemcpy8
 910:.\Generated_Source\PSoC5/cyfitter_cfg.c **** 		CYCONFIGCPY8((void CYFAR *)(CYDEV_PRTDSI_PRT3_BASE), (void CYFAR *)(BS_IOPORT_3_VAL), 7);
 1630              		.loc 1 910 0
 1631 009e 45F21820 		movw	r0, #:lower16:1073762840
 1632 00a2 C4F20000 		movt	r0, #:upper16:1073762840
 1633 00a6 41F67811 		movw	r1, #:lower16:1207966072
 1634 00aa C4F60001 		movt	r1, #:upper16:1207966072
 1635 00ae 4FF00702 		mov	r2, #7
 1636 00b2 FFF7FEFF 		bl	cymemcpy8
 911:.\Generated_Source\PSoC5/cyfitter_cfg.c **** 		CYCONFIGCPY8((void CYFAR *)(CYDEV_PRTDSI_PRT4_BASE), (void CYFAR *)(BS_IOPORT_4_VAL), 7);
 1637              		.loc 1 911 0
 1638 00b6 45F22020 		movw	r0, #:lower16:1073762848
 1639 00ba C4F20000 		movt	r0, #:upper16:1073762848
 1640 00be 41F68011 		movw	r1, #:lower16:1207966080
 1641 00c2 C4F60001 		movt	r1, #:upper16:1207966080
 1642 00c6 4FF00702 		mov	r2, #7
 1643 00ca FFF7FEFF 		bl	cymemcpy8
 912:.\Generated_Source\PSoC5/cyfitter_cfg.c **** 		CYCONFIGCPY8((void CYFAR *)(CYDEV_PRTDSI_PRT5_BASE), (void CYFAR *)(BS_IOPORT_5_VAL), 7);
 1644              		.loc 1 912 0
 1645 00ce 45F22820 		movw	r0, #:lower16:1073762856
 1646 00d2 C4F20000 		movt	r0, #:upper16:1073762856
 1647 00d6 41F68811 		movw	r1, #:lower16:1207966088
 1648 00da C4F60001 		movt	r1, #:upper16:1207966088
 1649 00de 4FF00702 		mov	r2, #7
ARM GAS  C:\Users\Geo\AppData\Local\Temp\ccVeTRuu.s 			page 46


 1650 00e2 FFF7FEFF 		bl	cymemcpy8
 913:.\Generated_Source\PSoC5/cyfitter_cfg.c **** 		CYMEMZERO8((void CYFAR *)(CYDEV_PRTDSI_PRT6_BASE), 7);
 1651              		.loc 1 913 0
 1652 00e6 45F23020 		movw	r0, #:lower16:1073762864
 1653 00ea C4F20000 		movt	r0, #:upper16:1073762864
 1654 00ee 4FF00701 		mov	r1, #7
 1655 00f2 FFF7FEFF 		bl	cymemzero8
 914:.\Generated_Source\PSoC5/cyfitter_cfg.c **** 		CYMEMZERO8((void CYFAR *)(CYDEV_PRTDSI_PRT12_BASE), 6);
 1656              		.loc 1 914 0
 1657 00f6 45F26020 		movw	r0, #:lower16:1073762912
 1658 00fa C4F20000 		movt	r0, #:upper16:1073762912
 1659 00fe 4FF00601 		mov	r1, #6
 1660 0102 FFF7FEFF 		bl	cymemzero8
 915:.\Generated_Source\PSoC5/cyfitter_cfg.c **** 		CYMEMZERO8((void CYFAR *)(CYDEV_PRTDSI_PRT15_BASE), 7);
 1661              		.loc 1 915 0
 1662 0106 45F27820 		movw	r0, #:lower16:1073762936
 1663 010a C4F20000 		movt	r0, #:upper16:1073762936
 1664 010e 4FF00701 		mov	r1, #7
 1665 0112 FFF7FEFF 		bl	cymemzero8
 916:.\Generated_Source\PSoC5/cyfitter_cfg.c **** 		CY_SET_XTND_REG16((void CYFAR *)(CYREG_CAPSL_CFG0), 0x0300);
 1666              		.loc 1 916 0
 1667 0116 45F67003 		movw	r3, #:lower16:1073764464
 1668 011a C4F20003 		movt	r3, #:upper16:1073764464
 1669 011e 4FF44072 		mov	r2, #768
 1670 0122 1A80     		strh	r2, [r3, #0]	@ movhi
 917:.\Generated_Source\PSoC5/cyfitter_cfg.c **** 		CY_SET_XTND_REG16((void CYFAR *)(CYREG_CAPSR_CFG0), 0x0300);
 1671              		.loc 1 917 0
 1672 0124 45F67203 		movw	r3, #:lower16:1073764466
 1673 0128 C4F20003 		movt	r3, #:upper16:1073764466
 1674 012c 4FF44072 		mov	r2, #768
 1675 0130 1A80     		strh	r2, [r3, #0]	@ movhi
 918:.\Generated_Source\PSoC5/cyfitter_cfg.c **** 		CY_SET_XTND_REG16((void CYFAR *)(CYREG_LUT0_CR), 0x0003);
 1676              		.loc 1 918 0
 1677 0132 45F64803 		movw	r3, #:lower16:1073764424
 1678 0136 C4F20003 		movt	r3, #:upper16:1073764424
 1679 013a 4FF00302 		mov	r2, #3
 1680 013e 1A80     		strh	r2, [r3, #0]	@ movhi
 919:.\Generated_Source\PSoC5/cyfitter_cfg.c **** 
 920:.\Generated_Source\PSoC5/cyfitter_cfg.c **** 		/* Enable digital routing */
 921:.\Generated_Source\PSoC5/cyfitter_cfg.c **** 		CY_SET_XTND_REG8(CYREG_BCTL0_BANK_CTL, CY_GET_XTND_REG8(CYREG_BCTL0_BANK_CTL) | 0x02u);
 1681              		.loc 1 921 0
 1682 0140 45F20303 		movw	r3, #:lower16:1073827843
 1683 0144 C4F20103 		movt	r3, #:upper16:1073827843
 1684 0148 45F20302 		movw	r2, #:lower16:1073827843
 1685 014c C4F20102 		movt	r2, #:upper16:1073827843
 1686 0150 1278     		ldrb	r2, [r2, #0]
 1687 0152 D2B2     		uxtb	r2, r2
 1688 0154 42F00202 		orr	r2, r2, #2
 1689 0158 D2B2     		uxtb	r2, r2
 1690 015a 1A70     		strb	r2, [r3, #0]
 922:.\Generated_Source\PSoC5/cyfitter_cfg.c **** 		CY_SET_XTND_REG8(CYREG_BCTL1_BANK_CTL, CY_GET_XTND_REG8(CYREG_BCTL1_BANK_CTL) | 0x02u);
 1691              		.loc 1 922 0
 1692 015c 45F21303 		movw	r3, #:lower16:1073827859
 1693 0160 C4F20103 		movt	r3, #:upper16:1073827859
 1694 0164 45F21302 		movw	r2, #:lower16:1073827859
 1695 0168 C4F20102 		movt	r2, #:upper16:1073827859
 1696 016c 1278     		ldrb	r2, [r2, #0]
ARM GAS  C:\Users\Geo\AppData\Local\Temp\ccVeTRuu.s 			page 47


 1697 016e D2B2     		uxtb	r2, r2
 1698 0170 42F00202 		orr	r2, r2, #2
 1699 0174 D2B2     		uxtb	r2, r2
 1700 0176 1A70     		strb	r2, [r3, #0]
 923:.\Generated_Source\PSoC5/cyfitter_cfg.c **** 
 924:.\Generated_Source\PSoC5/cyfitter_cfg.c **** 		/* Enable UDB array */
 925:.\Generated_Source\PSoC5/cyfitter_cfg.c **** 		CY_SET_XTND_REG8(CYREG_PM_ACT_CFG0, CY_GET_XTND_REG8(CYREG_PM_ACT_CFG0) | 0x40u);
 1701              		.loc 1 925 0
 1702 0178 44F2A033 		movw	r3, #:lower16:1073759136
 1703 017c C4F20003 		movt	r3, #:upper16:1073759136
 1704 0180 44F2A032 		movw	r2, #:lower16:1073759136
 1705 0184 C4F20002 		movt	r2, #:upper16:1073759136
 1706 0188 1278     		ldrb	r2, [r2, #0]
 1707 018a D2B2     		uxtb	r2, r2
 1708 018c 42F04002 		orr	r2, r2, #64
 1709 0190 D2B2     		uxtb	r2, r2
 1710 0192 1A70     		strb	r2, [r3, #0]
 926:.\Generated_Source\PSoC5/cyfitter_cfg.c **** 		CY_SET_XTND_REG8(CYREG_PM_AVAIL_CR2, CY_GET_XTND_REG8(CYREG_PM_AVAIL_CR2) | 0x10u);
 1711              		.loc 1 926 0
 1712 0194 44F2C233 		movw	r3, #:lower16:1073759170
 1713 0198 C4F20003 		movt	r3, #:upper16:1073759170
 1714 019c 44F2C232 		movw	r2, #:lower16:1073759170
 1715 01a0 C4F20002 		movt	r2, #:upper16:1073759170
 1716 01a4 1278     		ldrb	r2, [r2, #0]
 1717 01a6 D2B2     		uxtb	r2, r2
 1718 01a8 42F01002 		orr	r2, r2, #16
 1719 01ac D2B2     		uxtb	r2, r2
 1720 01ae 1A70     		strb	r2, [r3, #0]
 927:.\Generated_Source\PSoC5/cyfitter_cfg.c **** 	}
 928:.\Generated_Source\PSoC5/cyfitter_cfg.c **** 
 929:.\Generated_Source\PSoC5/cyfitter_cfg.c **** 	/* Perform second pass device configuration. These items must be configured in specific order afte
 930:.\Generated_Source\PSoC5/cyfitter_cfg.c **** 	CYCONFIGCPY((void CYFAR *)(CYREG_PRT0_DM0), (void CYFAR *)(BS_IOPINS0_0_VAL), 8);
 1721              		.loc 1 930 0
 1722 01b0 45F20210 		movw	r0, #:lower16:1073762562
 1723 01b4 C4F20000 		movt	r0, #:upper16:1073762562
 1724 01b8 41F62811 		movw	r1, #:lower16:1207965992
 1725 01bc C4F60001 		movt	r1, #:upper16:1207965992
 1726 01c0 4FF00802 		mov	r2, #8
 1727 01c4 FFF7FEFF 		bl	memcpy
 931:.\Generated_Source\PSoC5/cyfitter_cfg.c **** 	CYCONFIGCPY((void CYFAR *)(CYREG_PRT1_DM0), (void CYFAR *)(BS_IOPINS0_1_VAL), 8);
 1728              		.loc 1 931 0
 1729 01c8 45F21210 		movw	r0, #:lower16:1073762578
 1730 01cc C4F20000 		movt	r0, #:upper16:1073762578
 1731 01d0 41F63011 		movw	r1, #:lower16:1207966000
 1732 01d4 C4F60001 		movt	r1, #:upper16:1207966000
 1733 01d8 4FF00802 		mov	r2, #8
 1734 01dc FFF7FEFF 		bl	memcpy
 932:.\Generated_Source\PSoC5/cyfitter_cfg.c **** 	CYCONFIGCPY8((void CYFAR *)(CYREG_PRT12_DM0), (void CYFAR *)(BS_IOPINS0_7_VAL), 8);
 1735              		.loc 1 932 0
 1736 01e0 45F2C210 		movw	r0, #:lower16:1073762754
 1737 01e4 C4F20000 		movt	r0, #:upper16:1073762754
 1738 01e8 41F63811 		movw	r1, #:lower16:1207966008
 1739 01ec C4F60001 		movt	r1, #:upper16:1207966008
 1740 01f0 4FF00802 		mov	r2, #8
 1741 01f4 FFF7FEFF 		bl	cymemcpy8
 933:.\Generated_Source\PSoC5/cyfitter_cfg.c **** 	CYCONFIGCPY((void CYFAR *)(CYREG_PRT2_DM0), (void CYFAR *)(BS_IOPINS0_2_VAL), 8);
 1742              		.loc 1 933 0
ARM GAS  C:\Users\Geo\AppData\Local\Temp\ccVeTRuu.s 			page 48


 1743 01f8 45F22210 		movw	r0, #:lower16:1073762594
 1744 01fc C4F20000 		movt	r0, #:upper16:1073762594
 1745 0200 41F64011 		movw	r1, #:lower16:1207966016
 1746 0204 C4F60001 		movt	r1, #:upper16:1207966016
 1747 0208 4FF00802 		mov	r2, #8
 1748 020c FFF7FEFF 		bl	memcpy
 934:.\Generated_Source\PSoC5/cyfitter_cfg.c **** 	CYCONFIGCPY((void CYFAR *)(CYREG_PRT3_DR), (void CYFAR *)(BS_IOPINS0_3_VAL), 10);
 1749              		.loc 1 934 0
 1750 0210 45F23010 		movw	r0, #:lower16:1073762608
 1751 0214 C4F20000 		movt	r0, #:upper16:1073762608
 1752 0218 41F64811 		movw	r1, #:lower16:1207966024
 1753 021c C4F60001 		movt	r1, #:upper16:1207966024
 1754 0220 4FF00A02 		mov	r2, #10
 1755 0224 FFF7FEFF 		bl	memcpy
 935:.\Generated_Source\PSoC5/cyfitter_cfg.c **** 	CYCONFIGCPY((void CYFAR *)(CYREG_PRT4_DR), (void CYFAR *)(BS_IOPINS0_4_VAL), 10);
 1756              		.loc 1 935 0
 1757 0228 45F24010 		movw	r0, #:lower16:1073762624
 1758 022c C4F20000 		movt	r0, #:upper16:1073762624
 1759 0230 41F65411 		movw	r1, #:lower16:1207966036
 1760 0234 C4F60001 		movt	r1, #:upper16:1207966036
 1761 0238 4FF00A02 		mov	r2, #10
 1762 023c FFF7FEFF 		bl	memcpy
 936:.\Generated_Source\PSoC5/cyfitter_cfg.c **** 	CYCONFIGCPY((void CYFAR *)(CYREG_PRT5_DM0), (void CYFAR *)(BS_IOPINS0_5_VAL), 8);
 1763              		.loc 1 936 0
 1764 0240 45F25210 		movw	r0, #:lower16:1073762642
 1765 0244 C4F20000 		movt	r0, #:upper16:1073762642
 1766 0248 41F66011 		movw	r1, #:lower16:1207966048
 1767 024c C4F60001 		movt	r1, #:upper16:1207966048
 1768 0250 4FF00802 		mov	r2, #8
 1769 0254 FFF7FEFF 		bl	memcpy
 937:.\Generated_Source\PSoC5/cyfitter_cfg.c **** 
 938:.\Generated_Source\PSoC5/cyfitter_cfg.c **** 
 939:.\Generated_Source\PSoC5/cyfitter_cfg.c **** 	/* Set Flash Cycles based on max possible frequency in case a glitch occurs during ClockSetup(). *
 940:.\Generated_Source\PSoC5/cyfitter_cfg.c **** 	CY_SET_XTND_REG8((void CYFAR *)(CYREG_CACHE_CC_CTL), ((CYDEV_INSTRUCT_CACHE_ENABLED) ? 0x00 : 0x01
 1770              		.loc 1 940 0
 1771 0258 44F60003 		movw	r3, #:lower16:1073760256
 1772 025c C4F20003 		movt	r3, #:upper16:1073760256
 1773 0260 4FF00002 		mov	r2, #0
 1774 0264 1A70     		strb	r2, [r3, #0]
 941:.\Generated_Source\PSoC5/cyfitter_cfg.c **** 	/* Setup clocks based on selections from Clock DWR */
 942:.\Generated_Source\PSoC5/cyfitter_cfg.c **** 	ClockSetup();
 1775              		.loc 1 942 0
 1776 0266 FFF7FEFF 		bl	ClockSetup
 943:.\Generated_Source\PSoC5/cyfitter_cfg.c **** 	/* Set Flash Cycles based on newly configured 24.00MHz Bus Clock. */
 944:.\Generated_Source\PSoC5/cyfitter_cfg.c **** 	CY_SET_XTND_REG8((void CYFAR *)(CYREG_CACHE_CC_CTL), ((CYDEV_INSTRUCT_CACHE_ENABLED) ? 0x80 : 0x81
 1777              		.loc 1 944 0
 1778 026a 44F60003 		movw	r3, #:lower16:1073760256
 1779 026e C4F20003 		movt	r3, #:upper16:1073760256
 1780 0272 6FF07F02 		mvn	r2, #127
 1781 0276 1A70     		strb	r2, [r3, #0]
 945:.\Generated_Source\PSoC5/cyfitter_cfg.c **** 
 946:.\Generated_Source\PSoC5/cyfitter_cfg.c **** 	/* Perform basic analog initialization to defaults */
 947:.\Generated_Source\PSoC5/cyfitter_cfg.c **** 	AnalogSetDefault();
 1782              		.loc 1 947 0
 1783 0278 FFF7FEFF 		bl	AnalogSetDefault
 948:.\Generated_Source\PSoC5/cyfitter_cfg.c **** 
 949:.\Generated_Source\PSoC5/cyfitter_cfg.c **** 	/* Configure alternate active mode */
ARM GAS  C:\Users\Geo\AppData\Local\Temp\ccVeTRuu.s 			page 49


 950:.\Generated_Source\PSoC5/cyfitter_cfg.c **** 	CYCONFIGCPY((void CYFAR *)CYDEV_PM_STBY_BASE, (void CYFAR *)CYDEV_PM_ACT_BASE, 12);
 1784              		.loc 1 950 0
 1785 027c 44F2B030 		movw	r0, #:lower16:1073759152
 1786 0280 C4F20000 		movt	r0, #:upper16:1073759152
 1787 0284 44F2A031 		movw	r1, #:lower16:1073759136
 1788 0288 C4F20001 		movt	r1, #:upper16:1073759136
 1789 028c 4FF00C02 		mov	r2, #12
 1790 0290 FFF7FEFF 		bl	memcpy
 951:.\Generated_Source\PSoC5/cyfitter_cfg.c **** 	CY_SET_XTND_REG8(CYREG_PM_STBY_CFG0, CY_GET_XTND_REG8(CYREG_PM_STBY_CFG0) & ~0x02u);	/* Disable CP
 1791              		.loc 1 951 0
 1792 0294 44F2B033 		movw	r3, #:lower16:1073759152
 1793 0298 C4F20003 		movt	r3, #:upper16:1073759152
 1794 029c 44F2B032 		movw	r2, #:lower16:1073759152
 1795 02a0 C4F20002 		movt	r2, #:upper16:1073759152
 1796 02a4 1278     		ldrb	r2, [r2, #0]
 1797 02a6 D2B2     		uxtb	r2, r2
 1798 02a8 02F0FD02 		and	r2, r2, #253
 1799 02ac 1A70     		strb	r2, [r3, #0]
 952:.\Generated_Source\PSoC5/cyfitter_cfg.c **** }
 1800              		.loc 1 952 0
 1801 02ae 80BD     		pop	{r7, pc}
 1802              		.cfi_endproc
 1803              	.LFE10:
 1804              		.size	cyfitter_cfg, .-cyfitter_cfg
 1805              		.text
 1806              	.Letext0: