ARM GAS  C:\Users\Geo\AppData\Local\Temp\ccUYtTFu.s 			page 1


   1              		.syntax unified
   2              		.cpu cortex-m3
   3              		.fpu softvfp
   4              		.eabi_attribute 20, 1
   5              		.eabi_attribute 21, 1
   6              		.eabi_attribute 23, 3
   7              		.eabi_attribute 24, 1
   8              		.eabi_attribute 25, 1
   9              		.eabi_attribute 26, 1
  10              		.eabi_attribute 30, 6
  11              		.eabi_attribute 18, 4
  12              		.thumb
  13              		.file	"CyFlash.c"
  20 0000 6F010000 		.text
  20      02005F00 
  20      00000201 
  20      FB0E0D00 
  20      01010101 
  21              	.Ltext0:
  22              		.cfi_sections	.debug_frame
  23              		.comm	dieTemperature,2,4
  24              		.bss
  25              		.align	2
  26              	rowBuffer:
  27 0000 00000000 		.space	4
  28              		.section	.text.CyFlash_Start,"ax",%progbits
  29              		.align	2
  30              		.global	CyFlash_Start
  31              		.thumb
  32              		.thumb_func
  33              		.type	CyFlash_Start, %function
  34              	CyFlash_Start:
  35              	.LFB0:
  36              		.file 1 ".\\Generated_Source\\PSoC5\\CyFlash.c"
   1:.\Generated_Source\PSoC5/CyFlash.c **** /*******************************************************************************
   2:.\Generated_Source\PSoC5/CyFlash.c **** * File Name: CyFlash.c  
   3:.\Generated_Source\PSoC5/CyFlash.c **** * Version 2.40
   4:.\Generated_Source\PSoC5/CyFlash.c **** *
   5:.\Generated_Source\PSoC5/CyFlash.c **** *  Description:
   6:.\Generated_Source\PSoC5/CyFlash.c **** *   Provides an API for the FLASH/EEPROM.
   7:.\Generated_Source\PSoC5/CyFlash.c **** *
   8:.\Generated_Source\PSoC5/CyFlash.c **** *  Note:
   9:.\Generated_Source\PSoC5/CyFlash.c **** *   This code is endian agnostic.
  10:.\Generated_Source\PSoC5/CyFlash.c **** *
  11:.\Generated_Source\PSoC5/CyFlash.c **** *  Note: 
  12:.\Generated_Source\PSoC5/CyFlash.c **** *   Documentation of the API's in this file is located in the
  13:.\Generated_Source\PSoC5/CyFlash.c **** *   System Reference Guide provided with PSoC Creator.
  14:.\Generated_Source\PSoC5/CyFlash.c **** *
  15:.\Generated_Source\PSoC5/CyFlash.c **** *******************************************************************************
  16:.\Generated_Source\PSoC5/CyFlash.c **** * Copyright 2008-2011, Cypress Semiconductor Corporation.  All rights reserved.
  17:.\Generated_Source\PSoC5/CyFlash.c **** * You may use this file only in accordance with the license, terms, conditions, 
ARM GAS  C:\Users\Geo\AppData\Local\Temp\ccUYtTFu.s 			page 2


  18:.\Generated_Source\PSoC5/CyFlash.c **** * disclaimers, and limitations in the end user license agreement accompanying 
  19:.\Generated_Source\PSoC5/CyFlash.c **** * the software package with which this file was provided.
  20:.\Generated_Source\PSoC5/CyFlash.c **** ********************************************************************************/
  21:.\Generated_Source\PSoC5/CyFlash.c **** 
  22:.\Generated_Source\PSoC5/CyFlash.c **** #include <Cydevice_trm.h>
  23:.\Generated_Source\PSoC5/CyFlash.c **** #include "CYFLASH.H"
  24:.\Generated_Source\PSoC5/CyFlash.c **** 
  25:.\Generated_Source\PSoC5/CyFlash.c **** uint8 dieTemperature[2];
  26:.\Generated_Source\PSoC5/CyFlash.c **** 
  27:.\Generated_Source\PSoC5/CyFlash.c **** #if (CYDEV_ECC_ENABLE == 0)
  28:.\Generated_Source\PSoC5/CyFlash.c ****     static uint8 * rowBuffer = 0;
  29:.\Generated_Source\PSoC5/CyFlash.c **** #endif
  30:.\Generated_Source\PSoC5/CyFlash.c **** 
  31:.\Generated_Source\PSoC5/CyFlash.c **** 
  32:.\Generated_Source\PSoC5/CyFlash.c **** /*******************************************************************************
  33:.\Generated_Source\PSoC5/CyFlash.c **** * Function Name: CyFlash_Start
  34:.\Generated_Source\PSoC5/CyFlash.c **** ********************************************************************************
  35:.\Generated_Source\PSoC5/CyFlash.c **** *
  36:.\Generated_Source\PSoC5/CyFlash.c **** * Summary:
  37:.\Generated_Source\PSoC5/CyFlash.c **** *  Enable the EEPROM/Flash. In CY_PSOC3_ES2/CY_PSOC5_ES1, this will enable both
  38:.\Generated_Source\PSoC5/CyFlash.c **** *  Flash and EEPROM. In CY_PSOC3_ES3/CY_PSOC5_ES2, this will enable only Flash.
  39:.\Generated_Source\PSoC5/CyFlash.c **** *   
  40:.\Generated_Source\PSoC5/CyFlash.c **** * Parameters:
  41:.\Generated_Source\PSoC5/CyFlash.c **** *  void
  42:.\Generated_Source\PSoC5/CyFlash.c **** * 
  43:.\Generated_Source\PSoC5/CyFlash.c **** * Return:
  44:.\Generated_Source\PSoC5/CyFlash.c **** *  void  
  45:.\Generated_Source\PSoC5/CyFlash.c **** * 
  46:.\Generated_Source\PSoC5/CyFlash.c **** * Reentrant
  47:.\Generated_Source\PSoC5/CyFlash.c **** *  No
  48:.\Generated_Source\PSoC5/CyFlash.c **** *
  49:.\Generated_Source\PSoC5/CyFlash.c **** *******************************************************************************/
  50:.\Generated_Source\PSoC5/CyFlash.c **** void CyFlash_Start(void) 
  51:.\Generated_Source\PSoC5/CyFlash.c **** {
  37              		.loc 1 51 0
  38              		.cfi_startproc
  39              		@ args = 0, pretend = 0, frame = 0
  40              		@ frame_needed = 1, uses_anonymous_args = 0
  41              		@ link register save eliminated.
  42 0000 80B4     		push	{r7}
  43              	.LCFI0:
  44              		.cfi_def_cfa_offset 4
  45 0002 00AF     		add	r7, sp, #0
  46              		.cfi_offset 7, -4
  47              	.LCFI1:
  48              		.cfi_def_cfa_register 7
  52:.\Generated_Source\PSoC5/CyFlash.c ****     #if (CY_PSOC3_ES2 || CY_PSOC5_ES1)
  53:.\Generated_Source\PSoC5/CyFlash.c ****         /* Active Power Mode */
  54:.\Generated_Source\PSoC5/CyFlash.c ****         *PM_ACT_EEFLASH |= PM_FLASH_EE_MASK;
  49              		.loc 1 54 0
  50 0004 44F2A033 		movw	r3, #:lower16:1073759136
  51 0008 C4F20003 		movt	r3, #:upper16:1073759136
  52 000c 44F2A032 		movw	r2, #:lower16:1073759136
  53 0010 C4F20002 		movt	r2, #:upper16:1073759136
  54 0014 1278     		ldrb	r2, [r2, #0]
  55 0016 D2B2     		uxtb	r2, r2
  56 0018 6FEA4262 		mvn	r2, r2, lsl #25
ARM GAS  C:\Users\Geo\AppData\Local\Temp\ccUYtTFu.s 			page 3


  57 001c 6FEA5262 		mvn	r2, r2, lsr #25
  58 0020 D2B2     		uxtb	r2, r2
  59 0022 1A70     		strb	r2, [r3, #0]
  55:.\Generated_Source\PSoC5/CyFlash.c ****         /* Standby Power Mode */
  56:.\Generated_Source\PSoC5/CyFlash.c ****         *PM_STBY_EEFLASH |= PM_FLASH_EE_MASK;
  60              		.loc 1 56 0
  61 0024 44F2B033 		movw	r3, #:lower16:1073759152
  62 0028 C4F20003 		movt	r3, #:upper16:1073759152
  63 002c 44F2B032 		movw	r2, #:lower16:1073759152
  64 0030 C4F20002 		movt	r2, #:upper16:1073759152
  65 0034 1278     		ldrb	r2, [r2, #0]
  66 0036 D2B2     		uxtb	r2, r2
  67 0038 6FEA4262 		mvn	r2, r2, lsl #25
  68 003c 6FEA5262 		mvn	r2, r2, lsr #25
  69 0040 D2B2     		uxtb	r2, r2
  70 0042 1A70     		strb	r2, [r3, #0]
  57:.\Generated_Source\PSoC5/CyFlash.c ****     #endif
  58:.\Generated_Source\PSoC5/CyFlash.c ****     
  59:.\Generated_Source\PSoC5/CyFlash.c ****     #if (CY_PSOC3_ES3 || CY_PSOC5_ES2)
  60:.\Generated_Source\PSoC5/CyFlash.c ****         /* Active Power Mode */
  61:.\Generated_Source\PSoC5/CyFlash.c ****         *PM_ACT_FLASH_PTR |= PM_FLASH_MASK;
  62:.\Generated_Source\PSoC5/CyFlash.c ****         /* Standby Power Mode */
  63:.\Generated_Source\PSoC5/CyFlash.c ****         *PM_STBY_FLASH_PTR |= PM_FLASH_MASK;
  64:.\Generated_Source\PSoC5/CyFlash.c ****     #endif
  65:.\Generated_Source\PSoC5/CyFlash.c **** }
  71              		.loc 1 65 0
  72 0044 BD46     		mov	sp, r7
  73 0046 80BC     		pop	{r7}
  74 0048 7047     		bx	lr
  75              		.cfi_endproc
  76              	.LFE0:
  77              		.size	CyFlash_Start, .-CyFlash_Start
  78 004a 00BF     		.section	.text.CyFlash_Stop,"ax",%progbits
  79              		.align	2
  80              		.global	CyFlash_Stop
  81              		.thumb
  82              		.thumb_func
  83              		.type	CyFlash_Stop, %function
  84              	CyFlash_Stop:
  85              	.LFB1:
  66:.\Generated_Source\PSoC5/CyFlash.c **** 
  67:.\Generated_Source\PSoC5/CyFlash.c **** 
  68:.\Generated_Source\PSoC5/CyFlash.c **** /*******************************************************************************
  69:.\Generated_Source\PSoC5/CyFlash.c **** * Function Name: CyFlash_Stop
  70:.\Generated_Source\PSoC5/CyFlash.c **** ********************************************************************************
  71:.\Generated_Source\PSoC5/CyFlash.c **** *
  72:.\Generated_Source\PSoC5/CyFlash.c **** * Summary:
  73:.\Generated_Source\PSoC5/CyFlash.c **** *  Disable the EEPROM/Flash. In CY_PSOC3_ES2/CY_PSOC5_ES1, this will disable both
  74:.\Generated_Source\PSoC5/CyFlash.c **** *  Flash and EEPROM. In CY_PSOC3_ES3/CY_PSOC5_ES2, this will disable only Flash.
  75:.\Generated_Source\PSoC5/CyFlash.c **** *
  76:.\Generated_Source\PSoC5/CyFlash.c **** * Parameters:
  77:.\Generated_Source\PSoC5/CyFlash.c **** *  void
  78:.\Generated_Source\PSoC5/CyFlash.c **** *
  79:.\Generated_Source\PSoC5/CyFlash.c **** * Return:
  80:.\Generated_Source\PSoC5/CyFlash.c **** *  void  
  81:.\Generated_Source\PSoC5/CyFlash.c **** * 
  82:.\Generated_Source\PSoC5/CyFlash.c **** * Side Effects:
ARM GAS  C:\Users\Geo\AppData\Local\Temp\ccUYtTFu.s 			page 4


  83:.\Generated_Source\PSoC5/CyFlash.c **** *  This setting is ignored as long as the CPU is currently running.  This will 
  84:.\Generated_Source\PSoC5/CyFlash.c **** *  only take effect when the CPU is later disabled.
  85:.\Generated_Source\PSoC5/CyFlash.c **** *
  86:.\Generated_Source\PSoC5/CyFlash.c **** * Reentrant
  87:.\Generated_Source\PSoC5/CyFlash.c **** *  Yes
  88:.\Generated_Source\PSoC5/CyFlash.c **** *
  89:.\Generated_Source\PSoC5/CyFlash.c **** *******************************************************************************/
  90:.\Generated_Source\PSoC5/CyFlash.c **** void CyFlash_Stop (void) 
  91:.\Generated_Source\PSoC5/CyFlash.c **** {
  86              		.loc 1 91 0
  87              		.cfi_startproc
  88              		@ args = 0, pretend = 0, frame = 0
  89              		@ frame_needed = 1, uses_anonymous_args = 0
  90              		@ link register save eliminated.
  91 0000 80B4     		push	{r7}
  92              	.LCFI2:
  93              		.cfi_def_cfa_offset 4
  94 0002 00AF     		add	r7, sp, #0
  95              		.cfi_offset 7, -4
  96              	.LCFI3:
  97              		.cfi_def_cfa_register 7
  92:.\Generated_Source\PSoC5/CyFlash.c ****     #if (CY_PSOC3_ES2 || CY_PSOC5_ES1)
  93:.\Generated_Source\PSoC5/CyFlash.c ****         /* Active Power Mode */
  94:.\Generated_Source\PSoC5/CyFlash.c ****         *PM_ACT_EEFLASH &= ~PM_FLASH_EE_MASK;
  98              		.loc 1 94 0
  99 0004 44F2A033 		movw	r3, #:lower16:1073759136
 100 0008 C4F20003 		movt	r3, #:upper16:1073759136
 101 000c 44F2A032 		movw	r2, #:lower16:1073759136
 102 0010 C4F20002 		movt	r2, #:upper16:1073759136
 103 0014 1278     		ldrb	r2, [r2, #0]
 104 0016 D2B2     		uxtb	r2, r2
 105 0018 02F07F02 		and	r2, r2, #127
 106 001c 1A70     		strb	r2, [r3, #0]
  95:.\Generated_Source\PSoC5/CyFlash.c ****         /* Standby Power Mode */
  96:.\Generated_Source\PSoC5/CyFlash.c ****         *PM_STBY_EEFLASH &= ~PM_FLASH_EE_MASK;
 107              		.loc 1 96 0
 108 001e 44F2B033 		movw	r3, #:lower16:1073759152
 109 0022 C4F20003 		movt	r3, #:upper16:1073759152
 110 0026 44F2B032 		movw	r2, #:lower16:1073759152
 111 002a C4F20002 		movt	r2, #:upper16:1073759152
 112 002e 1278     		ldrb	r2, [r2, #0]
 113 0030 D2B2     		uxtb	r2, r2
 114 0032 02F07F02 		and	r2, r2, #127
 115 0036 1A70     		strb	r2, [r3, #0]
  97:.\Generated_Source\PSoC5/CyFlash.c ****     #endif
  98:.\Generated_Source\PSoC5/CyFlash.c ****     
  99:.\Generated_Source\PSoC5/CyFlash.c ****     #if (CY_PSOC3_ES3 || CY_PSOC5_ES2)
 100:.\Generated_Source\PSoC5/CyFlash.c ****         /* Active Power Mode */
 101:.\Generated_Source\PSoC5/CyFlash.c ****         *PM_ACT_FLASH_PTR &= ~PM_FLASH_MASK;
 102:.\Generated_Source\PSoC5/CyFlash.c ****         /* Standby Power Mode */
 103:.\Generated_Source\PSoC5/CyFlash.c ****         *PM_STBY_FLASH_PTR &= ~PM_FLASH_MASK;
 104:.\Generated_Source\PSoC5/CyFlash.c ****     #endif
 105:.\Generated_Source\PSoC5/CyFlash.c **** }
 116              		.loc 1 105 0
 117 0038 BD46     		mov	sp, r7
 118 003a 80BC     		pop	{r7}
 119 003c 7047     		bx	lr
ARM GAS  C:\Users\Geo\AppData\Local\Temp\ccUYtTFu.s 			page 5


 120              		.cfi_endproc
 121              	.LFE1:
 122              		.size	CyFlash_Stop, .-CyFlash_Stop
 123 003e 00BF     		.section	.text.CySetTempInt,"ax",%progbits
 124              		.align	2
 125              		.global	CySetTempInt
 126              		.thumb
 127              		.thumb_func
 128              		.type	CySetTempInt, %function
 129              	CySetTempInt:
 130              	.LFB2:
 106:.\Generated_Source\PSoC5/CyFlash.c **** 
 107:.\Generated_Source\PSoC5/CyFlash.c **** 
 108:.\Generated_Source\PSoC5/CyFlash.c **** /*******************************************************************************
 109:.\Generated_Source\PSoC5/CyFlash.c **** * Function Name: CySetTemp
 110:.\Generated_Source\PSoC5/CyFlash.c **** ********************************************************************************
 111:.\Generated_Source\PSoC5/CyFlash.c **** *
 112:.\Generated_Source\PSoC5/CyFlash.c **** * Summary:
 113:.\Generated_Source\PSoC5/CyFlash.c **** *  Sends a command to the SPC to read the die temperature. Sets a global value
 114:.\Generated_Source\PSoC5/CyFlash.c **** *  used by the Write functions. This function must be called once before executing
 115:.\Generated_Source\PSoC5/CyFlash.c **** *  a series of Flash writing functions.
 116:.\Generated_Source\PSoC5/CyFlash.c **** 
 117:.\Generated_Source\PSoC5/CyFlash.c **** *
 118:.\Generated_Source\PSoC5/CyFlash.c **** * Parameters:
 119:.\Generated_Source\PSoC5/CyFlash.c **** *  void
 120:.\Generated_Source\PSoC5/CyFlash.c **** *
 121:.\Generated_Source\PSoC5/CyFlash.c **** * Return:
 122:.\Generated_Source\PSoC5/CyFlash.c **** *  status:
 123:.\Generated_Source\PSoC5/CyFlash.c **** *   CYRET_SUCCESS if successful. The first byte is the sign of the temperature 
 124:.\Generated_Source\PSoC5/CyFlash.c **** *   (0 = negative, 1 = positive).
 125:.\Generated_Source\PSoC5/CyFlash.c **** *   The second byte is the magnitude.
 126:.\Generated_Source\PSoC5/CyFlash.c **** *   CYRET_LOCKED if Flash writing already in use
 127:.\Generated_Source\PSoC5/CyFlash.c **** *   CYRET_UNKNOWN if there was an SPC error.
 128:.\Generated_Source\PSoC5/CyFlash.c **** *  
 129:.\Generated_Source\PSoC5/CyFlash.c **** * Side Effects:
 130:.\Generated_Source\PSoC5/CyFlash.c **** *  Execution of this function takes an extended period of time.
 131:.\Generated_Source\PSoC5/CyFlash.c **** *
 132:.\Generated_Source\PSoC5/CyFlash.c **** * Reentrant
 133:.\Generated_Source\PSoC5/CyFlash.c **** *  Yes
 134:.\Generated_Source\PSoC5/CyFlash.c **** *
 135:.\Generated_Source\PSoC5/CyFlash.c **** *******************************************************************************/
 136:.\Generated_Source\PSoC5/CyFlash.c **** cystatus CySetTempInt(void) 
 137:.\Generated_Source\PSoC5/CyFlash.c **** {
 131              		.loc 1 137 0
 132              		.cfi_startproc
 133              		@ args = 0, pretend = 0, frame = 8
 134              		@ frame_needed = 1, uses_anonymous_args = 0
 135 0000 80B5     		push	{r7, lr}
 136              	.LCFI4:
 137              		.cfi_def_cfa_offset 8
 138 0002 82B0     		sub	sp, sp, #8
 139              	.LCFI5:
 140              		.cfi_def_cfa_offset 16
 141 0004 00AF     		add	r7, sp, #0
 142              		.cfi_offset 14, -4
 143              		.cfi_offset 7, -8
 144              	.LCFI6:
ARM GAS  C:\Users\Geo\AppData\Local\Temp\ccUYtTFu.s 			page 6


 145              		.cfi_def_cfa_register 7
 138:.\Generated_Source\PSoC5/CyFlash.c ****     cystatus status;
 139:.\Generated_Source\PSoC5/CyFlash.c **** 
 140:.\Generated_Source\PSoC5/CyFlash.c ****     /* Make sure SPC is powered. */
 141:.\Generated_Source\PSoC5/CyFlash.c ****     CySpcActivePower(1);
 146              		.loc 1 141 0
 147 0006 4FF00100 		mov	r0, #1
 148 000a FFF7FEFF 		bl	CySpcActivePower
 142:.\Generated_Source\PSoC5/CyFlash.c **** 
 143:.\Generated_Source\PSoC5/CyFlash.c ****     /* Plan for failure. */
 144:.\Generated_Source\PSoC5/CyFlash.c ****     status = CYRET_UNKNOWN;
 149              		.loc 1 144 0
 150 000e 4FF0FF33 		mov	r3, #-1
 151 0012 7B60     		str	r3, [r7, #4]
 145:.\Generated_Source\PSoC5/CyFlash.c **** 
 146:.\Generated_Source\PSoC5/CyFlash.c ****     /* See if we can get the SPC. */
 147:.\Generated_Source\PSoC5/CyFlash.c ****     if(CySpcLock() == CYRET_SUCCESS)
 152              		.loc 1 147 0
 153 0014 FFF7FEFF 		bl	CySpcLock
 154 0018 0346     		mov	r3, r0
 155 001a 002B     		cmp	r3, #0
 156 001c 3ED1     		bne	.L6
 148:.\Generated_Source\PSoC5/CyFlash.c ****     {
 149:.\Generated_Source\PSoC5/CyFlash.c ****         /* Create the command. */
 150:.\Generated_Source\PSoC5/CyFlash.c ****         if(CySpcCreateCmdGetTemp(TEMP_NUMBER_OF_SAMPLES, TEMP_TIMER_PERIOD, TEMP_CLK_DIV_SELECT) ==
 157              		.loc 1 150 0
 158 001e 4FF00100 		mov	r0, #1
 159 0022 40F6FF71 		movw	r1, #4095
 160 0026 4FF00402 		mov	r2, #4
 161 002a FFF7FEFF 		bl	CySpcCreateCmdGetTemp
 162 002e 0346     		mov	r3, r0
 163 0030 002B     		cmp	r3, #0
 164 0032 30D1     		bne	.L7
 151:.\Generated_Source\PSoC5/CyFlash.c ****         {
 152:.\Generated_Source\PSoC5/CyFlash.c ****             /* Write the command. */
 153:.\Generated_Source\PSoC5/CyFlash.c ****             if(CySpcWriteCommand(0, 0) == CYRET_STARTED)
 165              		.loc 1 153 0
 166 0034 4FF00000 		mov	r0, #0
 167 0038 4FF00001 		mov	r1, #0
 168 003c FFF7FEFF 		bl	CySpcWriteCommand
 169 0040 0346     		mov	r3, r0
 170 0042 072B     		cmp	r3, #7
 171 0044 27D1     		bne	.L7
 172              	.L11:
 154:.\Generated_Source\PSoC5/CyFlash.c ****             {
 155:.\Generated_Source\PSoC5/CyFlash.c ****                 do
 156:.\Generated_Source\PSoC5/CyFlash.c ****                 {
 157:.\Generated_Source\PSoC5/CyFlash.c ****                     if(CySpcReadData(dieTemperature, 2) == 2)
 173              		.loc 1 157 0
 174 0046 40F20000 		movw	r0, #:lower16:dieTemperature
 175 004a C0F20000 		movt	r0, #:upper16:dieTemperature
 176 004e 4FF00201 		mov	r1, #2
 177 0052 FFF7FEFF 		bl	CySpcReadData
 178 0056 0346     		mov	r3, r0
 179 0058 022B     		cmp	r3, #2
 180 005a 12D1     		bne	.L8
 158:.\Generated_Source\PSoC5/CyFlash.c ****                     {
ARM GAS  C:\Users\Geo\AppData\Local\Temp\ccUYtTFu.s 			page 7


 159:.\Generated_Source\PSoC5/CyFlash.c ****                         status = CYRET_SUCCESS;
 181              		.loc 1 159 0
 182 005c 4FF00003 		mov	r3, #0
 183 0060 7B60     		str	r3, [r7, #4]
 160:.\Generated_Source\PSoC5/CyFlash.c ****                         /* Spin until idle. */
 161:.\Generated_Source\PSoC5/CyFlash.c ****                         while(!(*SPC_STATUS & SPC_SPC_IDLE))
 184              		.loc 1 161 0
 185 0062 03E0     		b	.L9
 186              	.L10:
 162:.\Generated_Source\PSoC5/CyFlash.c ****                         {
 163:.\Generated_Source\PSoC5/CyFlash.c ****                             CyDelayUs(1);
 187              		.loc 1 163 0
 188 0064 4FF00100 		mov	r0, #1
 189 0068 FFF7FEFF 		bl	CyDelayUs
 190              	.L9:
 191              		.loc 1 161 0
 192 006c 44F22273 		movw	r3, #:lower16:1073760034
 193 0070 C4F20003 		movt	r3, #:upper16:1073760034
 194 0074 1B78     		ldrb	r3, [r3, #0]
 195 0076 DBB2     		uxtb	r3, r3
 196 0078 03F00203 		and	r3, r3, #2
 197 007c 002B     		cmp	r3, #0
 198 007e F1D0     		beq	.L10
 164:.\Generated_Source\PSoC5/CyFlash.c ****                         }
 165:.\Generated_Source\PSoC5/CyFlash.c ****                         break;
 199              		.loc 1 165 0
 200 0080 09E0     		b	.L7
 201              	.L8:
 166:.\Generated_Source\PSoC5/CyFlash.c ****                     }
 167:.\Generated_Source\PSoC5/CyFlash.c ****                     /* Spin until completion. */
 168:.\Generated_Source\PSoC5/CyFlash.c ****                 } while(!(*SPC_STATUS & SPC_SPC_IDLE));
 202              		.loc 1 168 0
 203 0082 44F22273 		movw	r3, #:lower16:1073760034
 204 0086 C4F20003 		movt	r3, #:upper16:1073760034
 205 008a 1B78     		ldrb	r3, [r3, #0]
 206 008c DBB2     		uxtb	r3, r3
 207 008e 03F00203 		and	r3, r3, #2
 208 0092 002B     		cmp	r3, #0
 209 0094 D7D0     		beq	.L11
 210              	.L7:
 169:.\Generated_Source\PSoC5/CyFlash.c ****             }
 170:.\Generated_Source\PSoC5/CyFlash.c ****         }
 171:.\Generated_Source\PSoC5/CyFlash.c **** 
 172:.\Generated_Source\PSoC5/CyFlash.c ****         /* Unlock the SPC so someone else can use it. */
 173:.\Generated_Source\PSoC5/CyFlash.c ****         CySpcUnlock();
 211              		.loc 1 173 0
 212 0096 FFF7FEFF 		bl	CySpcUnlock
 213 009a 02E0     		b	.L12
 214              	.L6:
 174:.\Generated_Source\PSoC5/CyFlash.c ****     }
 175:.\Generated_Source\PSoC5/CyFlash.c ****     else
 176:.\Generated_Source\PSoC5/CyFlash.c ****     {
 177:.\Generated_Source\PSoC5/CyFlash.c ****         status = CYRET_LOCKED;
 215              		.loc 1 177 0
 216 009c 4FF00403 		mov	r3, #4
 217 00a0 7B60     		str	r3, [r7, #4]
 218              	.L12:
ARM GAS  C:\Users\Geo\AppData\Local\Temp\ccUYtTFu.s 			page 8


 178:.\Generated_Source\PSoC5/CyFlash.c ****     }
 179:.\Generated_Source\PSoC5/CyFlash.c **** 
 180:.\Generated_Source\PSoC5/CyFlash.c ****     return status;
 219              		.loc 1 180 0
 220 00a2 7B68     		ldr	r3, [r7, #4]
 181:.\Generated_Source\PSoC5/CyFlash.c **** }
 221              		.loc 1 181 0
 222 00a4 1846     		mov	r0, r3
 223 00a6 07F10807 		add	r7, r7, #8
 224 00aa BD46     		mov	sp, r7
 225 00ac 80BD     		pop	{r7, pc}
 226              		.cfi_endproc
 227              	.LFE2:
 228              		.size	CySetTempInt, .-CySetTempInt
 229 00ae 00BF     		.section	.text.CySetTemp,"ax",%progbits
 230              		.align	2
 231              		.global	CySetTemp
 232              		.thumb
 233              		.thumb_func
 234              		.type	CySetTemp, %function
 235              	CySetTemp:
 236              	.LFB3:
 182:.\Generated_Source\PSoC5/CyFlash.c **** 
 183:.\Generated_Source\PSoC5/CyFlash.c **** cystatus CySetTemp(void) 
 184:.\Generated_Source\PSoC5/CyFlash.c **** {
 237              		.loc 1 184 0
 238              		.cfi_startproc
 239              		@ args = 0, pretend = 0, frame = 8
 240              		@ frame_needed = 1, uses_anonymous_args = 0
 241 0000 80B5     		push	{r7, lr}
 242              	.LCFI7:
 243              		.cfi_def_cfa_offset 8
 244 0002 82B0     		sub	sp, sp, #8
 245              	.LCFI8:
 246              		.cfi_def_cfa_offset 16
 247 0004 00AF     		add	r7, sp, #0
 248              		.cfi_offset 14, -4
 249              		.cfi_offset 7, -8
 250              	.LCFI9:
 251              		.cfi_def_cfa_register 7
 185:.\Generated_Source\PSoC5/CyFlash.c ****     cystatus status = CySetTempInt();
 252              		.loc 1 185 0
 253 0006 FFF7FEFF 		bl	CySetTempInt
 254 000a 0346     		mov	r3, r0
 255 000c 7B60     		str	r3, [r7, #4]
 186:.\Generated_Source\PSoC5/CyFlash.c ****     if(status == CYRET_SUCCESS)
 256              		.loc 1 186 0
 257 000e 7B68     		ldr	r3, [r7, #4]
 258 0010 002B     		cmp	r3, #0
 259 0012 03D1     		bne	.L15
 187:.\Generated_Source\PSoC5/CyFlash.c ****     {
 188:.\Generated_Source\PSoC5/CyFlash.c ****         status = CySetTempInt();
 260              		.loc 1 188 0
 261 0014 FFF7FEFF 		bl	CySetTempInt
 262 0018 0346     		mov	r3, r0
 263 001a 7B60     		str	r3, [r7, #4]
 264              	.L15:
ARM GAS  C:\Users\Geo\AppData\Local\Temp\ccUYtTFu.s 			page 9


 189:.\Generated_Source\PSoC5/CyFlash.c ****     }
 190:.\Generated_Source\PSoC5/CyFlash.c ****     return status;
 265              		.loc 1 190 0
 266 001c 7B68     		ldr	r3, [r7, #4]
 191:.\Generated_Source\PSoC5/CyFlash.c **** }
 267              		.loc 1 191 0
 268 001e 1846     		mov	r0, r3
 269 0020 07F10807 		add	r7, r7, #8
 270 0024 BD46     		mov	sp, r7
 271 0026 80BD     		pop	{r7, pc}
 272              		.cfi_endproc
 273              	.LFE3:
 274              		.size	CySetTemp, .-CySetTemp
 275              		.section	.text.CySetFlashEEBuffer,"ax",%progbits
 276              		.align	2
 277              		.global	CySetFlashEEBuffer
 278              		.thumb
 279              		.thumb_func
 280              		.type	CySetFlashEEBuffer, %function
 281              	CySetFlashEEBuffer:
 282              	.LFB4:
 192:.\Generated_Source\PSoC5/CyFlash.c **** 
 193:.\Generated_Source\PSoC5/CyFlash.c **** /*******************************************************************************
 194:.\Generated_Source\PSoC5/CyFlash.c **** * Function Name: CySetFlashEEBuffer
 195:.\Generated_Source\PSoC5/CyFlash.c **** ********************************************************************************
 196:.\Generated_Source\PSoC5/CyFlash.c **** *
 197:.\Generated_Source\PSoC5/CyFlash.c **** * Summary:
 198:.\Generated_Source\PSoC5/CyFlash.c **** *  Sets the user supplied temporary buffer to store SPC data while performing
 199:.\Generated_Source\PSoC5/CyFlash.c **** *  flash and EEPROM commands. This buffer is only necessary when Flash ECC is 
 200:.\Generated_Source\PSoC5/CyFlash.c **** *  disabled.
 201:.\Generated_Source\PSoC5/CyFlash.c **** *
 202:.\Generated_Source\PSoC5/CyFlash.c **** *
 203:.\Generated_Source\PSoC5/CyFlash.c **** * Parameters:
 204:.\Generated_Source\PSoC5/CyFlash.c **** *  buffer:
 205:.\Generated_Source\PSoC5/CyFlash.c **** *       Address of block of memory to store temporary memory. The size of the
 206:.\Generated_Source\PSoC5/CyFlash.c **** *       block of memory is SIZEOF_FLASH_ROW + SIZEOF_ECC_ROW.
 207:.\Generated_Source\PSoC5/CyFlash.c **** *   
 208:.\Generated_Source\PSoC5/CyFlash.c **** * Return:
 209:.\Generated_Source\PSoC5/CyFlash.c **** *  status:
 210:.\Generated_Source\PSoC5/CyFlash.c **** *   CYRET_SUCCESS if successful.
 211:.\Generated_Source\PSoC5/CyFlash.c **** *   CYRET_LOCKED if the SPC is already in use.
 212:.\Generated_Source\PSoC5/CyFlash.c **** *   CYRET_BAD_PARAM if the buffer is NULL
 213:.\Generated_Source\PSoC5/CyFlash.c **** *
 214:.\Generated_Source\PSoC5/CyFlash.c **** * Reentrant
 215:.\Generated_Source\PSoC5/CyFlash.c **** *  Yes
 216:.\Generated_Source\PSoC5/CyFlash.c **** *
 217:.\Generated_Source\PSoC5/CyFlash.c **** *******************************************************************************/
 218:.\Generated_Source\PSoC5/CyFlash.c **** cystatus CySetFlashEEBuffer(uint8 * buffer) 
 219:.\Generated_Source\PSoC5/CyFlash.c **** {
 283              		.loc 1 219 0
 284              		.cfi_startproc
 285              		@ args = 0, pretend = 0, frame = 16
 286              		@ frame_needed = 1, uses_anonymous_args = 0
 287 0000 80B5     		push	{r7, lr}
 288              	.LCFI10:
 289              		.cfi_def_cfa_offset 8
 290 0002 84B0     		sub	sp, sp, #16
ARM GAS  C:\Users\Geo\AppData\Local\Temp\ccUYtTFu.s 			page 10


 291              	.LCFI11:
 292              		.cfi_def_cfa_offset 24
 293 0004 00AF     		add	r7, sp, #0
 294              		.cfi_offset 14, -4
 295              		.cfi_offset 7, -8
 296              	.LCFI12:
 297              		.cfi_def_cfa_register 7
 298 0006 7860     		str	r0, [r7, #4]
 220:.\Generated_Source\PSoC5/CyFlash.c ****     cystatus status;
 221:.\Generated_Source\PSoC5/CyFlash.c **** 
 222:.\Generated_Source\PSoC5/CyFlash.c ****     /* Make sure SPC is powerd. */
 223:.\Generated_Source\PSoC5/CyFlash.c ****     CySpcActivePower(1);
 299              		.loc 1 223 0
 300 0008 4FF00100 		mov	r0, #1
 301 000c FFF7FEFF 		bl	CySpcActivePower
 224:.\Generated_Source\PSoC5/CyFlash.c **** 
 225:.\Generated_Source\PSoC5/CyFlash.c ****     #if (CYDEV_ECC_ENABLE == 0)
 226:.\Generated_Source\PSoC5/CyFlash.c ****         if(!buffer)
 302              		.loc 1 226 0
 303 0010 7B68     		ldr	r3, [r7, #4]
 304 0012 002B     		cmp	r3, #0
 305 0014 03D1     		bne	.L18
 227:.\Generated_Source\PSoC5/CyFlash.c ****         {
 228:.\Generated_Source\PSoC5/CyFlash.c ****             status = CYRET_BAD_PARAM;
 306              		.loc 1 228 0
 307 0016 4FF00103 		mov	r3, #1
 308 001a FB60     		str	r3, [r7, #12]
 309 001c 13E0     		b	.L19
 310              	.L18:
 229:.\Generated_Source\PSoC5/CyFlash.c ****         }
 230:.\Generated_Source\PSoC5/CyFlash.c ****         /* See if we can get the SPC. */
 231:.\Generated_Source\PSoC5/CyFlash.c ****         else if(CySpcLock() != CYRET_SUCCESS)
 311              		.loc 1 231 0
 312 001e FFF7FEFF 		bl	CySpcLock
 313 0022 0346     		mov	r3, r0
 314 0024 002B     		cmp	r3, #0
 315 0026 03D0     		beq	.L20
 232:.\Generated_Source\PSoC5/CyFlash.c ****         {
 233:.\Generated_Source\PSoC5/CyFlash.c ****             status = CYRET_LOCKED;
 316              		.loc 1 233 0
 317 0028 4FF00403 		mov	r3, #4
 318 002c FB60     		str	r3, [r7, #12]
 319 002e 0AE0     		b	.L19
 320              	.L20:
 234:.\Generated_Source\PSoC5/CyFlash.c ****         }
 235:.\Generated_Source\PSoC5/CyFlash.c ****         else
 236:.\Generated_Source\PSoC5/CyFlash.c ****         {
 237:.\Generated_Source\PSoC5/CyFlash.c ****             rowBuffer = buffer;
 321              		.loc 1 237 0
 322 0030 40F20003 		movw	r3, #:lower16:rowBuffer
 323 0034 C0F20003 		movt	r3, #:upper16:rowBuffer
 324 0038 7A68     		ldr	r2, [r7, #4]
 325 003a 1A60     		str	r2, [r3, #0]
 238:.\Generated_Source\PSoC5/CyFlash.c ****             status = CYRET_SUCCESS;
 326              		.loc 1 238 0
 327 003c 4FF00003 		mov	r3, #0
 328 0040 FB60     		str	r3, [r7, #12]
ARM GAS  C:\Users\Geo\AppData\Local\Temp\ccUYtTFu.s 			page 11


 239:.\Generated_Source\PSoC5/CyFlash.c **** 
 240:.\Generated_Source\PSoC5/CyFlash.c ****             /* Unlock the SPC so someone else can use it. */
 241:.\Generated_Source\PSoC5/CyFlash.c ****             CySpcUnlock();
 329              		.loc 1 241 0
 330 0042 FFF7FEFF 		bl	CySpcUnlock
 331              	.L19:
 242:.\Generated_Source\PSoC5/CyFlash.c ****         }
 243:.\Generated_Source\PSoC5/CyFlash.c ****     #else
 244:.\Generated_Source\PSoC5/CyFlash.c ****         /*To supress the warning*/
 245:.\Generated_Source\PSoC5/CyFlash.c ****         buffer = buffer;
 246:.\Generated_Source\PSoC5/CyFlash.c ****         status = CYRET_SUCCESS;
 247:.\Generated_Source\PSoC5/CyFlash.c ****     #endif
 248:.\Generated_Source\PSoC5/CyFlash.c **** 
 249:.\Generated_Source\PSoC5/CyFlash.c ****     return status;
 332              		.loc 1 249 0
 333 0046 FB68     		ldr	r3, [r7, #12]
 250:.\Generated_Source\PSoC5/CyFlash.c **** }
 334              		.loc 1 250 0
 335 0048 1846     		mov	r0, r3
 336 004a 07F11007 		add	r7, r7, #16
 337 004e BD46     		mov	sp, r7
 338 0050 80BD     		pop	{r7, pc}
 339              		.cfi_endproc
 340              	.LFE4:
 341              		.size	CySetFlashEEBuffer, .-CySetFlashEEBuffer
 342 0052 00BF     		.section	.text.CyWriteRowData,"ax",%progbits
 343              		.align	2
 344              		.global	CyWriteRowData
 345              		.thumb
 346              		.thumb_func
 347              		.type	CyWriteRowData, %function
 348              	CyWriteRowData:
 349              	.LFB5:
 251:.\Generated_Source\PSoC5/CyFlash.c **** 
 252:.\Generated_Source\PSoC5/CyFlash.c ****                       
 253:.\Generated_Source\PSoC5/CyFlash.c **** #if (CYDEV_ECC_ENABLE == 1)
 254:.\Generated_Source\PSoC5/CyFlash.c **** 
 255:.\Generated_Source\PSoC5/CyFlash.c **** /*******************************************************************************
 256:.\Generated_Source\PSoC5/CyFlash.c **** * Function Name: CyWriteRowData
 257:.\Generated_Source\PSoC5/CyFlash.c **** ********************************************************************************
 258:.\Generated_Source\PSoC5/CyFlash.c **** *
 259:.\Generated_Source\PSoC5/CyFlash.c **** * Summary:
 260:.\Generated_Source\PSoC5/CyFlash.c **** *   Sends a command to the SPC to load and program a row of data in flash.
 261:.\Generated_Source\PSoC5/CyFlash.c **** *
 262:.\Generated_Source\PSoC5/CyFlash.c **** *
 263:.\Generated_Source\PSoC5/CyFlash.c **** * Parameters:
 264:.\Generated_Source\PSoC5/CyFlash.c **** *  arrayID: 
 265:.\Generated_Source\PSoC5/CyFlash.c **** *   ID of the array to write.
 266:.\Generated_Source\PSoC5/CyFlash.c **** *  rowAddress:
 267:.\Generated_Source\PSoC5/CyFlash.c **** *   rowAddress of flash row to program.
 268:.\Generated_Source\PSoC5/CyFlash.c **** *  rowData:
 269:.\Generated_Source\PSoC5/CyFlash.c **** *   Array of bytes to write.
 270:.\Generated_Source\PSoC5/CyFlash.c **** * 
 271:.\Generated_Source\PSoC5/CyFlash.c **** * Return:
 272:.\Generated_Source\PSoC5/CyFlash.c **** *  status:
 273:.\Generated_Source\PSoC5/CyFlash.c **** *   CYRET_SUCCESS if successful.
 274:.\Generated_Source\PSoC5/CyFlash.c **** *   CYRET_LOCKED if the SPC is already in use.
ARM GAS  C:\Users\Geo\AppData\Local\Temp\ccUYtTFu.s 			page 12


 275:.\Generated_Source\PSoC5/CyFlash.c **** *   CYRET_CANCELED if command not accepted
 276:.\Generated_Source\PSoC5/CyFlash.c **** *   CYRET_UNKNOWN if there was an SPC error.
 277:.\Generated_Source\PSoC5/CyFlash.c **** *
 278:.\Generated_Source\PSoC5/CyFlash.c **** * Reentrant
 279:.\Generated_Source\PSoC5/CyFlash.c **** *  Yes
 280:.\Generated_Source\PSoC5/CyFlash.c **** *
 281:.\Generated_Source\PSoC5/CyFlash.c **** *******************************************************************************/
 282:.\Generated_Source\PSoC5/CyFlash.c **** cystatus CyWriteRowData(uint8 arrayId, uint16 rowAddress, uint8 * rowData) 
 283:.\Generated_Source\PSoC5/CyFlash.c **** {
 284:.\Generated_Source\PSoC5/CyFlash.c ****     uint16 rowSize;
 285:.\Generated_Source\PSoC5/CyFlash.c ****     cystatus status;
 286:.\Generated_Source\PSoC5/CyFlash.c **** 
 287:.\Generated_Source\PSoC5/CyFlash.c ****     rowSize = (arrayId > LAST_FLASH_ARRAYID) ? SIZEOF_EEPROM_ROW : SIZEOF_FLASH_ROW;
 288:.\Generated_Source\PSoC5/CyFlash.c **** 
 289:.\Generated_Source\PSoC5/CyFlash.c ****     status = CyWriteRowFull(arrayId, rowAddress, rowData, rowSize);
 290:.\Generated_Source\PSoC5/CyFlash.c ****     return status;
 291:.\Generated_Source\PSoC5/CyFlash.c **** }
 292:.\Generated_Source\PSoC5/CyFlash.c **** 
 293:.\Generated_Source\PSoC5/CyFlash.c **** #else /* CYDEV_ECC_ENABLE == 0 */
 294:.\Generated_Source\PSoC5/CyFlash.c **** 
 295:.\Generated_Source\PSoC5/CyFlash.c **** /*******************************************************************************
 296:.\Generated_Source\PSoC5/CyFlash.c **** * Function Name: CyWriteRowData
 297:.\Generated_Source\PSoC5/CyFlash.c **** ********************************************************************************
 298:.\Generated_Source\PSoC5/CyFlash.c **** *
 299:.\Generated_Source\PSoC5/CyFlash.c **** * Summary:
 300:.\Generated_Source\PSoC5/CyFlash.c **** *   Sends a command to the SPC to load and program a row of data in flash.
 301:.\Generated_Source\PSoC5/CyFlash.c **** *
 302:.\Generated_Source\PSoC5/CyFlash.c **** *
 303:.\Generated_Source\PSoC5/CyFlash.c **** * Parameters:
 304:.\Generated_Source\PSoC5/CyFlash.c **** *  arrayID: 
 305:.\Generated_Source\PSoC5/CyFlash.c **** *   ID of the array to write.
 306:.\Generated_Source\PSoC5/CyFlash.c **** *  rowAddress:
 307:.\Generated_Source\PSoC5/CyFlash.c **** *   rowAddress of flash row to program.
 308:.\Generated_Source\PSoC5/CyFlash.c **** *  rowData:
 309:.\Generated_Source\PSoC5/CyFlash.c **** *   Array of bytes to write.
 310:.\Generated_Source\PSoC5/CyFlash.c **** * 
 311:.\Generated_Source\PSoC5/CyFlash.c **** * Return:
 312:.\Generated_Source\PSoC5/CyFlash.c **** *  status:
 313:.\Generated_Source\PSoC5/CyFlash.c **** *   CYRET_SUCCESS if successful.
 314:.\Generated_Source\PSoC5/CyFlash.c **** *   CYRET_LOCKED if the SPC is already in use.
 315:.\Generated_Source\PSoC5/CyFlash.c **** *   CYRET_CANCELED if command not accepted
 316:.\Generated_Source\PSoC5/CyFlash.c **** *   CYRET_UNKNOWN if there was an SPC error.
 317:.\Generated_Source\PSoC5/CyFlash.c **** *
 318:.\Generated_Source\PSoC5/CyFlash.c **** * Reentrant
 319:.\Generated_Source\PSoC5/CyFlash.c **** *  Yes
 320:.\Generated_Source\PSoC5/CyFlash.c **** *
 321:.\Generated_Source\PSoC5/CyFlash.c **** *******************************************************************************/
 322:.\Generated_Source\PSoC5/CyFlash.c **** cystatus CyWriteRowData(uint8 arrayId, uint16 rowAddress, uint8 * rowData) 
 323:.\Generated_Source\PSoC5/CyFlash.c **** {
 350              		.loc 1 323 0
 351              		.cfi_startproc
 352              		@ args = 0, pretend = 0, frame = 24
 353              		@ frame_needed = 1, uses_anonymous_args = 0
 354 0000 80B5     		push	{r7, lr}
 355              	.LCFI13:
 356              		.cfi_def_cfa_offset 8
 357 0002 86B0     		sub	sp, sp, #24
ARM GAS  C:\Users\Geo\AppData\Local\Temp\ccUYtTFu.s 			page 13


 358              	.LCFI14:
 359              		.cfi_def_cfa_offset 32
 360 0004 00AF     		add	r7, sp, #0
 361              		.cfi_offset 14, -4
 362              		.cfi_offset 7, -8
 363              	.LCFI15:
 364              		.cfi_def_cfa_register 7
 365 0006 0B46     		mov	r3, r1
 366 0008 3A60     		str	r2, [r7, #0]
 367 000a 0246     		mov	r2, r0
 368 000c FA71     		strb	r2, [r7, #7]
 369 000e BB80     		strh	r3, [r7, #4]	@ movhi
 324:.\Generated_Source\PSoC5/CyFlash.c ****     uint8 index;
 325:.\Generated_Source\PSoC5/CyFlash.c ****     uint32 offset;
 326:.\Generated_Source\PSoC5/CyFlash.c ****     uint16 rowSize;
 327:.\Generated_Source\PSoC5/CyFlash.c ****     cystatus status;
 328:.\Generated_Source\PSoC5/CyFlash.c **** 
 329:.\Generated_Source\PSoC5/CyFlash.c ****     rowSize = (arrayId > LAST_FLASH_ARRAYID) ? SIZEOF_EEPROM_ROW : (SIZEOF_FLASH_ROW + SIZEOF_ECC_R
 370              		.loc 1 329 0
 371 0010 FB79     		ldrb	r3, [r7, #7]	@ zero_extendqisi2
 372 0012 3F2B     		cmp	r3, #63
 373 0014 02D9     		bls	.L23
 374 0016 4FF01003 		mov	r3, #16
 375 001a 01E0     		b	.L24
 376              	.L23:
 377 001c 4FF49073 		mov	r3, #288
 378              	.L24:
 379 0020 7B82     		strh	r3, [r7, #18]	@ movhi
 330:.\Generated_Source\PSoC5/CyFlash.c **** 
 331:.\Generated_Source\PSoC5/CyFlash.c ****     if (rowSize != SIZEOF_EEPROM_ROW)
 380              		.loc 1 331 0
 381 0022 7B8A     		ldrh	r3, [r7, #18]
 382 0024 102B     		cmp	r3, #16
 383 0026 23D0     		beq	.L25
 332:.\Generated_Source\PSoC5/CyFlash.c ****     {
 333:.\Generated_Source\PSoC5/CyFlash.c ****         /* Save the ECC area. */
 334:.\Generated_Source\PSoC5/CyFlash.c ****         offset = CYDEV_ECC_BASE + ((uint32) arrayId * CYDEV_ECC_SECTOR_SIZE) + ((uint32) rowAddress
 384              		.loc 1 334 0
 385 0028 FB79     		ldrb	r3, [r7, #7]	@ zero_extendqisi2
 386 002a 03F51033 		add	r3, r3, #147456
 387 002e 4FEA0322 		lsl	r2, r3, #8
 388 0032 BB88     		ldrh	r3, [r7, #4]
 389 0034 1344     		add	r3, r2, r3
 390 0036 4FEA4313 		lsl	r3, r3, #5
 391 003a FB60     		str	r3, [r7, #12]
 335:.\Generated_Source\PSoC5/CyFlash.c ****         for (index = 0; index < SIZEOF_ECC_ROW; index++)
 392              		.loc 1 335 0
 393 003c 4FF00003 		mov	r3, #0
 394 0040 FB72     		strb	r3, [r7, #11]
 395 0042 12E0     		b	.L26
 396              	.L27:
 336:.\Generated_Source\PSoC5/CyFlash.c ****         {
 337:.\Generated_Source\PSoC5/CyFlash.c ****             rowBuffer[SIZEOF_FLASH_ROW + index] = CY_GET_XTND_REG8((void CYFAR *)(offset + index));
 397              		.loc 1 337 0
 398 0044 40F20003 		movw	r3, #:lower16:rowBuffer
 399 0048 C0F20003 		movt	r3, #:upper16:rowBuffer
 400 004c 1A68     		ldr	r2, [r3, #0]
ARM GAS  C:\Users\Geo\AppData\Local\Temp\ccUYtTFu.s 			page 14


 401 004e FB7A     		ldrb	r3, [r7, #11]	@ zero_extendqisi2
 402 0050 03F58073 		add	r3, r3, #256
 403 0054 1344     		add	r3, r2, r3
 404 0056 F97A     		ldrb	r1, [r7, #11]	@ zero_extendqisi2
 405 0058 FA68     		ldr	r2, [r7, #12]
 406 005a 0A44     		add	r2, r1, r2
 407 005c 1278     		ldrb	r2, [r2, #0]
 408 005e D2B2     		uxtb	r2, r2
 409 0060 1A70     		strb	r2, [r3, #0]
 410              		.loc 1 335 0
 411 0062 FB7A     		ldrb	r3, [r7, #11]
 412 0064 03F10103 		add	r3, r3, #1
 413 0068 FB72     		strb	r3, [r7, #11]
 414              	.L26:
 415 006a FB7A     		ldrb	r3, [r7, #11]	@ zero_extendqisi2
 416 006c 1F2B     		cmp	r3, #31
 417 006e E9D9     		bls	.L27
 418              	.L25:
 338:.\Generated_Source\PSoC5/CyFlash.c ****         }
 339:.\Generated_Source\PSoC5/CyFlash.c ****     }
 340:.\Generated_Source\PSoC5/CyFlash.c **** 
 341:.\Generated_Source\PSoC5/CyFlash.c ****     /* Copy the rowdata to the temporary buffer. */
 342:.\Generated_Source\PSoC5/CyFlash.c ****     cymemcpy(rowBuffer, rowData, SIZEOF_FLASH_ROW);
 419              		.loc 1 342 0
 420 0070 40F20003 		movw	r3, #:lower16:rowBuffer
 421 0074 C0F20003 		movt	r3, #:upper16:rowBuffer
 422 0078 1B68     		ldr	r3, [r3, #0]
 423 007a 1846     		mov	r0, r3
 424 007c 3968     		ldr	r1, [r7, #0]
 425 007e 4FF48072 		mov	r2, #256
 426 0082 FFF7FEFF 		bl	memcpy
 343:.\Generated_Source\PSoC5/CyFlash.c **** 
 344:.\Generated_Source\PSoC5/CyFlash.c ****     status = CyWriteRowFull(arrayId, rowAddress, rowBuffer, rowSize);
 427              		.loc 1 344 0
 428 0086 40F20003 		movw	r3, #:lower16:rowBuffer
 429 008a C0F20003 		movt	r3, #:upper16:rowBuffer
 430 008e 1A68     		ldr	r2, [r3, #0]
 431 0090 F879     		ldrb	r0, [r7, #7]	@ zero_extendqisi2
 432 0092 B988     		ldrh	r1, [r7, #4]
 433 0094 7B8A     		ldrh	r3, [r7, #18]
 434 0096 FFF7FEFF 		bl	CyWriteRowFull
 435 009a 0346     		mov	r3, r0
 436 009c 7B61     		str	r3, [r7, #20]
 345:.\Generated_Source\PSoC5/CyFlash.c ****     return status;
 437              		.loc 1 345 0
 438 009e 7B69     		ldr	r3, [r7, #20]
 346:.\Generated_Source\PSoC5/CyFlash.c **** }
 439              		.loc 1 346 0
 440 00a0 1846     		mov	r0, r3
 441 00a2 07F11807 		add	r7, r7, #24
 442 00a6 BD46     		mov	sp, r7
 443 00a8 80BD     		pop	{r7, pc}
 444              		.cfi_endproc
 445              	.LFE5:
 446              		.size	CyWriteRowData, .-CyWriteRowData
 447 00aa 00BF     		.section	.text.CyWriteCmdAndWait,"ax",%progbits
 448              		.align	2
ARM GAS  C:\Users\Geo\AppData\Local\Temp\ccUYtTFu.s 			page 15


 449              		.global	CyWriteCmdAndWait
 450              		.thumb
 451              		.thumb_func
 452              		.type	CyWriteCmdAndWait, %function
 453              	CyWriteCmdAndWait:
 454              	.LFB6:
 347:.\Generated_Source\PSoC5/CyFlash.c **** 
 348:.\Generated_Source\PSoC5/CyFlash.c **** #endif /* CYDEV_ECC_ENABLE == 0 */
 349:.\Generated_Source\PSoC5/CyFlash.c **** 
 350:.\Generated_Source\PSoC5/CyFlash.c **** #if (CYDEV_ECC_ENABLE == 0 && CYDEV_CONFIGURATION_ECC == 0)
 351:.\Generated_Source\PSoC5/CyFlash.c **** 
 352:.\Generated_Source\PSoC5/CyFlash.c **** /*******************************************************************************
 353:.\Generated_Source\PSoC5/CyFlash.c **** * Function Name: CyWriteRowConfig
 354:.\Generated_Source\PSoC5/CyFlash.c **** ********************************************************************************
 355:.\Generated_Source\PSoC5/CyFlash.c **** *
 356:.\Generated_Source\PSoC5/CyFlash.c **** * Summary:
 357:.\Generated_Source\PSoC5/CyFlash.c **** *  Sends a command to the SPC to load and program a row of config data in flash.
 358:.\Generated_Source\PSoC5/CyFlash.c **** *  This function is only valid for Flash array IDs (not for EEPROM).
 359:.\Generated_Source\PSoC5/CyFlash.c **** *
 360:.\Generated_Source\PSoC5/CyFlash.c **** *
 361:.\Generated_Source\PSoC5/CyFlash.c **** * Parameters:
 362:.\Generated_Source\PSoC5/CyFlash.c **** *  arrayId:
 363:.\Generated_Source\PSoC5/CyFlash.c **** *   ID of the array to write
 364:.\Generated_Source\PSoC5/CyFlash.c **** *  rowAddress:
 365:.\Generated_Source\PSoC5/CyFlash.c **** *   Address of the sector to erase.
 366:.\Generated_Source\PSoC5/CyFlash.c **** *  rowData:  
 367:.\Generated_Source\PSoC5/CyFlash.c **** *   Array of bytes to write.
 368:.\Generated_Source\PSoC5/CyFlash.c **** *   
 369:.\Generated_Source\PSoC5/CyFlash.c **** * Return:
 370:.\Generated_Source\PSoC5/CyFlash.c **** *  status:
 371:.\Generated_Source\PSoC5/CyFlash.c **** *   CYRET_SUCCESS if successful.
 372:.\Generated_Source\PSoC5/CyFlash.c **** *   CYRET_LOCKED if the SPC is already in use.
 373:.\Generated_Source\PSoC5/CyFlash.c **** *   CYRET_CANCELED if command not accepted
 374:.\Generated_Source\PSoC5/CyFlash.c **** *   CYRET_UNKNOWN if there was an SPC error.
 375:.\Generated_Source\PSoC5/CyFlash.c **** *
 376:.\Generated_Source\PSoC5/CyFlash.c **** * Reentrant
 377:.\Generated_Source\PSoC5/CyFlash.c **** *  Yes
 378:.\Generated_Source\PSoC5/CyFlash.c **** *
 379:.\Generated_Source\PSoC5/CyFlash.c **** *******************************************************************************/
 380:.\Generated_Source\PSoC5/CyFlash.c **** cystatus CyWriteRowConfig(uint8 arrayId, uint16 rowAddress, uint8 * rowData) 
 381:.\Generated_Source\PSoC5/CyFlash.c **** {
 382:.\Generated_Source\PSoC5/CyFlash.c ****     uint32 offset;
 383:.\Generated_Source\PSoC5/CyFlash.c ****     uint16 index;
 384:.\Generated_Source\PSoC5/CyFlash.c ****     cystatus status;
 385:.\Generated_Source\PSoC5/CyFlash.c **** 
 386:.\Generated_Source\PSoC5/CyFlash.c ****     /* Read the existing flash data. */
 387:.\Generated_Source\PSoC5/CyFlash.c ****     offset = CYDEV_FLS_BASE + ((uint32) arrayId * CYDEV_FLS_SECTOR_SIZE) + ((uint32) rowAddress * S
 388:.\Generated_Source\PSoC5/CyFlash.c ****     for (index = 0; index < SIZEOF_FLASH_ROW; index++)
 389:.\Generated_Source\PSoC5/CyFlash.c ****     {
 390:.\Generated_Source\PSoC5/CyFlash.c ****         rowBuffer[index] = CY_GET_XTND_REG8((void CYFAR *)(offset + index));
 391:.\Generated_Source\PSoC5/CyFlash.c ****     }
 392:.\Generated_Source\PSoC5/CyFlash.c **** 
 393:.\Generated_Source\PSoC5/CyFlash.c ****     /* Copy the rowData to the temporary buffer. */
 394:.\Generated_Source\PSoC5/CyFlash.c ****     cymemcpy(&rowBuffer[SIZEOF_FLASH_ROW], rowData, SIZEOF_ECC_ROW);
 395:.\Generated_Source\PSoC5/CyFlash.c **** 
 396:.\Generated_Source\PSoC5/CyFlash.c ****     status = CyWriteRowFull(arrayId, rowAddress, rowBuffer, SIZEOF_FLASH_ROW + SIZEOF_ECC_ROW);
 397:.\Generated_Source\PSoC5/CyFlash.c ****     return status;
ARM GAS  C:\Users\Geo\AppData\Local\Temp\ccUYtTFu.s 			page 16


 398:.\Generated_Source\PSoC5/CyFlash.c **** }
 399:.\Generated_Source\PSoC5/CyFlash.c **** 
 400:.\Generated_Source\PSoC5/CyFlash.c **** #endif  /* (CYDEV_ECC_ENABLE == 0 && CYDEV_CONFIGURATION_ECC == 0) */
 401:.\Generated_Source\PSoC5/CyFlash.c **** 
 402:.\Generated_Source\PSoC5/CyFlash.c **** 
 403:.\Generated_Source\PSoC5/CyFlash.c **** /*******************************************************************************
 404:.\Generated_Source\PSoC5/CyFlash.c **** * Function Name: CyWriteCmdAndWait
 405:.\Generated_Source\PSoC5/CyFlash.c **** ********************************************************************************
 406:.\Generated_Source\PSoC5/CyFlash.c **** * Summary:
 407:.\Generated_Source\PSoC5/CyFlash.c **** *   Sends a command to the SPC to load and program a row of data in flash. 
 408:.\Generated_Source\PSoC5/CyFlash.c **** *   rowData array is expected to contain Flash and ECC data if needed.
 409:.\Generated_Source\PSoC5/CyFlash.c **** *
 410:.\Generated_Source\PSoC5/CyFlash.c **** *
 411:.\Generated_Source\PSoC5/CyFlash.c **** * Parameters:
 412:.\Generated_Source\PSoC5/CyFlash.c **** * parameters:
 413:.\Generated_Source\PSoC5/CyFlash.c **** *   Address of the parameters associated with the SPC function being executed.
 414:.\Generated_Source\PSoC5/CyFlash.c **** *   NOTE: SPC functions are not meant to be called directly by the user application.
 415:.\Generated_Source\PSoC5/CyFlash.c **** *
 416:.\Generated_Source\PSoC5/CyFlash.c **** * size:
 417:.\Generated_Source\PSoC5/CyFlash.c **** *   size of data in bytes.
 418:.\Generated_Source\PSoC5/CyFlash.c **** *   
 419:.\Generated_Source\PSoC5/CyFlash.c **** * Return:
 420:.\Generated_Source\PSoC5/CyFlash.c **** *   CYRET_STARTED if the command and data was correctly started.
 421:.\Generated_Source\PSoC5/CyFlash.c **** *   CYRET_SUCCESS if successful.
 422:.\Generated_Source\PSoC5/CyFlash.c **** *   CYRET_LOCKED if the SPC is already in use.
 423:.\Generated_Source\PSoC5/CyFlash.c **** *   CYRET_CANCELED if command not accepted
 424:.\Generated_Source\PSoC5/CyFlash.c **** *   CYRET_UNKNOWN if there was an SPC error.
 425:.\Generated_Source\PSoC5/CyFlash.c **** *
 426:.\Generated_Source\PSoC5/CyFlash.c **** *
 427:.\Generated_Source\PSoC5/CyFlash.c **** *******************************************************************************/
 428:.\Generated_Source\PSoC5/CyFlash.c **** cystatus CyWriteCmdAndWait(uint8 * parameters, uint16 size)
 429:.\Generated_Source\PSoC5/CyFlash.c **** {
 455              		.loc 1 429 0
 456              		.cfi_startproc
 457              		@ args = 0, pretend = 0, frame = 16
 458              		@ frame_needed = 1, uses_anonymous_args = 0
 459 0000 80B5     		push	{r7, lr}
 460              	.LCFI16:
 461              		.cfi_def_cfa_offset 8
 462 0002 84B0     		sub	sp, sp, #16
 463              	.LCFI17:
 464              		.cfi_def_cfa_offset 24
 465 0004 00AF     		add	r7, sp, #0
 466              		.cfi_offset 14, -4
 467              		.cfi_offset 7, -8
 468              	.LCFI18:
 469              		.cfi_def_cfa_register 7
 470 0006 7860     		str	r0, [r7, #4]
 471 0008 0B46     		mov	r3, r1
 472 000a 7B80     		strh	r3, [r7, #2]	@ movhi
 430:.\Generated_Source\PSoC5/CyFlash.c ****     /* Write the command. */
 431:.\Generated_Source\PSoC5/CyFlash.c ****     cystatus status = CySpcWriteCommand(parameters, size);
 473              		.loc 1 431 0
 474 000c 7B88     		ldrh	r3, [r7, #2]
 475 000e 7868     		ldr	r0, [r7, #4]
 476 0010 1946     		mov	r1, r3
 477 0012 FFF7FEFF 		bl	CySpcWriteCommand
ARM GAS  C:\Users\Geo\AppData\Local\Temp\ccUYtTFu.s 			page 17


 478 0016 0346     		mov	r3, r0
 479 0018 FB60     		str	r3, [r7, #12]
 432:.\Generated_Source\PSoC5/CyFlash.c ****     if (status == CYRET_STARTED)
 480              		.loc 1 432 0
 481 001a FB68     		ldr	r3, [r7, #12]
 482 001c 072B     		cmp	r3, #7
 483 001e 1FD1     		bne	.L30
 433:.\Generated_Source\PSoC5/CyFlash.c ****     {
 434:.\Generated_Source\PSoC5/CyFlash.c ****         /* Spin until completion. */
 435:.\Generated_Source\PSoC5/CyFlash.c ****         while(!(*SPC_STATUS & SPC_SPC_IDLE))
 484              		.loc 1 435 0
 485 0020 03E0     		b	.L31
 486              	.L32:
 436:.\Generated_Source\PSoC5/CyFlash.c ****         {
 437:.\Generated_Source\PSoC5/CyFlash.c ****             CyDelayUs(1);
 487              		.loc 1 437 0
 488 0022 4FF00100 		mov	r0, #1
 489 0026 FFF7FEFF 		bl	CyDelayUs
 490              	.L31:
 491              		.loc 1 435 0
 492 002a 44F22273 		movw	r3, #:lower16:1073760034
 493 002e C4F20003 		movt	r3, #:upper16:1073760034
 494 0032 1B78     		ldrb	r3, [r3, #0]
 495 0034 DBB2     		uxtb	r3, r3
 496 0036 03F00203 		and	r3, r3, #2
 497 003a 002B     		cmp	r3, #0
 498 003c F1D0     		beq	.L32
 438:.\Generated_Source\PSoC5/CyFlash.c ****         }
 439:.\Generated_Source\PSoC5/CyFlash.c ****         status = CySpcReadStatus;
 499              		.loc 1 439 0
 500 003e 44F22273 		movw	r3, #:lower16:1073760034
 501 0042 C4F20003 		movt	r3, #:upper16:1073760034
 502 0046 1B78     		ldrb	r3, [r3, #0]
 503 0048 DBB2     		uxtb	r3, r3
 504 004a 4FEA9303 		lsr	r3, r3, #2
 505 004e DBB2     		uxtb	r3, r3
 506 0050 FB60     		str	r3, [r7, #12]
 440:.\Generated_Source\PSoC5/CyFlash.c ****         /* See if we were successful. */
 441:.\Generated_Source\PSoC5/CyFlash.c ****         if(status != SPC_SUCCESS)
 507              		.loc 1 441 0
 508 0052 FB68     		ldr	r3, [r7, #12]
 509 0054 002B     		cmp	r3, #0
 510 0056 03D0     		beq	.L30
 442:.\Generated_Source\PSoC5/CyFlash.c ****             status |= CYRET_SPC_ERROR_MASK;
 511              		.loc 1 442 0
 512 0058 FB68     		ldr	r3, [r7, #12]
 513 005a 43F08003 		orr	r3, r3, #128
 514 005e FB60     		str	r3, [r7, #12]
 515              	.L30:
 443:.\Generated_Source\PSoC5/CyFlash.c ****     }
 444:.\Generated_Source\PSoC5/CyFlash.c ****     return status;
 516              		.loc 1 444 0
 517 0060 FB68     		ldr	r3, [r7, #12]
 445:.\Generated_Source\PSoC5/CyFlash.c **** }
 518              		.loc 1 445 0
 519 0062 1846     		mov	r0, r3
 520 0064 07F11007 		add	r7, r7, #16
ARM GAS  C:\Users\Geo\AppData\Local\Temp\ccUYtTFu.s 			page 18


 521 0068 BD46     		mov	sp, r7
 522 006a 80BD     		pop	{r7, pc}
 523              		.cfi_endproc
 524              	.LFE6:
 525              		.size	CyWriteCmdAndWait, .-CyWriteCmdAndWait
 526              		.section	.text.CyWriteRowFull,"ax",%progbits
 527              		.align	2
 528              		.global	CyWriteRowFull
 529              		.thumb
 530              		.thumb_func
 531              		.type	CyWriteRowFull, %function
 532              	CyWriteRowFull:
 533              	.LFB7:
 446:.\Generated_Source\PSoC5/CyFlash.c **** 
 447:.\Generated_Source\PSoC5/CyFlash.c **** /*******************************************************************************
 448:.\Generated_Source\PSoC5/CyFlash.c **** * Function Name: CyWriteRowFull
 449:.\Generated_Source\PSoC5/CyFlash.c **** ********************************************************************************
 450:.\Generated_Source\PSoC5/CyFlash.c **** * Summary:
 451:.\Generated_Source\PSoC5/CyFlash.c **** *   Sends a command to the SPC to load and program a row of data in flash. 
 452:.\Generated_Source\PSoC5/CyFlash.c **** *   rowData array is expected to contain Flash and ECC data if needed.
 453:.\Generated_Source\PSoC5/CyFlash.c **** *
 454:.\Generated_Source\PSoC5/CyFlash.c **** *
 455:.\Generated_Source\PSoC5/CyFlash.c **** * Parameters:
 456:.\Generated_Source\PSoC5/CyFlash.c **** *
 457:.\Generated_Source\PSoC5/CyFlash.c **** *       arrayId: FLASH or EEPROM array id.
 458:.\Generated_Source\PSoC5/CyFlash.c **** *       rowData: pointer to a row of data to write.
 459:.\Generated_Source\PSoC5/CyFlash.c **** *       rowNumber: Zero based number of the row.
 460:.\Generated_Source\PSoC5/CyFlash.c **** *       rowSize: Size of the row.
 461:.\Generated_Source\PSoC5/CyFlash.c **** *   
 462:.\Generated_Source\PSoC5/CyFlash.c **** * Return:
 463:.\Generated_Source\PSoC5/CyFlash.c **** *   CYRET_SUCCESS if successful.
 464:.\Generated_Source\PSoC5/CyFlash.c **** *   CYRET_LOCKED if the SPC is already in use.
 465:.\Generated_Source\PSoC5/CyFlash.c **** *   CYRET_CANCELED if command not accepted
 466:.\Generated_Source\PSoC5/CyFlash.c **** *   CYRET_UNKNOWN if there was an SPC error.
 467:.\Generated_Source\PSoC5/CyFlash.c **** *
 468:.\Generated_Source\PSoC5/CyFlash.c **** *
 469:.\Generated_Source\PSoC5/CyFlash.c **** *******************************************************************************/
 470:.\Generated_Source\PSoC5/CyFlash.c **** cystatus CyWriteRowFull(uint8 arrayId, uint16 rowNumber, uint8* rowData, uint16 rowSize) 
 471:.\Generated_Source\PSoC5/CyFlash.c **** {
 534              		.loc 1 471 0
 535              		.cfi_startproc
 536              		@ args = 0, pretend = 0, frame = 24
 537              		@ frame_needed = 1, uses_anonymous_args = 0
 538 0000 80B5     		push	{r7, lr}
 539              	.LCFI19:
 540              		.cfi_def_cfa_offset 8
 541 0002 86B0     		sub	sp, sp, #24
 542              	.LCFI20:
 543              		.cfi_def_cfa_offset 32
 544 0004 00AF     		add	r7, sp, #0
 545              		.cfi_offset 14, -4
 546              		.cfi_offset 7, -8
 547              	.LCFI21:
 548              		.cfi_def_cfa_register 7
 549 0006 BA60     		str	r2, [r7, #8]
 550 0008 0246     		mov	r2, r0
 551 000a FA73     		strb	r2, [r7, #15]
ARM GAS  C:\Users\Geo\AppData\Local\Temp\ccUYtTFu.s 			page 19


 552 000c 0A46     		mov	r2, r1	@ movhi
 553 000e BA81     		strh	r2, [r7, #12]	@ movhi
 554 0010 FB80     		strh	r3, [r7, #6]	@ movhi
 472:.\Generated_Source\PSoC5/CyFlash.c ****     cystatus status;
 473:.\Generated_Source\PSoC5/CyFlash.c **** 
 474:.\Generated_Source\PSoC5/CyFlash.c ****     /* See if we can get the SPC. */
 475:.\Generated_Source\PSoC5/CyFlash.c ****     if (CySpcLock() == CYRET_SUCCESS)
 555              		.loc 1 475 0
 556 0012 FFF7FEFF 		bl	CySpcLock
 557 0016 0346     		mov	r3, r0
 558 0018 002B     		cmp	r3, #0
 559 001a 30D1     		bne	.L35
 476:.\Generated_Source\PSoC5/CyFlash.c ****     {
 477:.\Generated_Source\PSoC5/CyFlash.c ****         /* Create the command. */
 478:.\Generated_Source\PSoC5/CyFlash.c ****         status = CySpcCreateCmdLoadRow(arrayId);
 560              		.loc 1 478 0
 561 001c FB7B     		ldrb	r3, [r7, #15]	@ zero_extendqisi2
 562 001e 1846     		mov	r0, r3
 563 0020 FFF7FEFF 		bl	CySpcCreateCmdLoadRow
 564 0024 0346     		mov	r3, r0
 565 0026 7B61     		str	r3, [r7, #20]
 479:.\Generated_Source\PSoC5/CyFlash.c ****         if (status == CYRET_SUCCESS)
 566              		.loc 1 479 0
 567 0028 7B69     		ldr	r3, [r7, #20]
 568 002a 002B     		cmp	r3, #0
 569 002c 06D1     		bne	.L36
 480:.\Generated_Source\PSoC5/CyFlash.c ****         {
 481:.\Generated_Source\PSoC5/CyFlash.c ****             status = CyWriteCmdAndWait(rowData, rowSize);
 570              		.loc 1 481 0
 571 002e FB88     		ldrh	r3, [r7, #6]
 572 0030 B868     		ldr	r0, [r7, #8]
 573 0032 1946     		mov	r1, r3
 574 0034 FFF7FEFF 		bl	CyWriteCmdAndWait
 575 0038 0346     		mov	r3, r0
 576 003a 7B61     		str	r3, [r7, #20]
 577              	.L36:
 482:.\Generated_Source\PSoC5/CyFlash.c ****         }
 483:.\Generated_Source\PSoC5/CyFlash.c **** 
 484:.\Generated_Source\PSoC5/CyFlash.c ****         /* Create the command. */
 485:.\Generated_Source\PSoC5/CyFlash.c ****         if (status == SPC_SUCCESS)
 578              		.loc 1 485 0
 579 003c 7B69     		ldr	r3, [r7, #20]
 580 003e 002B     		cmp	r3, #0
 581 0040 1AD1     		bne	.L37
 486:.\Generated_Source\PSoC5/CyFlash.c ****         {
 487:.\Generated_Source\PSoC5/CyFlash.c ****             status = CySpcCreateCmdWriteRow(arrayId, rowNumber, dieTemperature[0], dieTemperature[1
 582              		.loc 1 487 0
 583 0042 40F20003 		movw	r3, #:lower16:dieTemperature
 584 0046 C0F20003 		movt	r3, #:upper16:dieTemperature
 585 004a 1A78     		ldrb	r2, [r3, #0]	@ zero_extendqisi2
 586 004c 40F20003 		movw	r3, #:lower16:dieTemperature
 587 0050 C0F20003 		movt	r3, #:upper16:dieTemperature
 588 0054 5B78     		ldrb	r3, [r3, #1]	@ zero_extendqisi2
 589 0056 F87B     		ldrb	r0, [r7, #15]	@ zero_extendqisi2
 590 0058 B989     		ldrh	r1, [r7, #12]
 591 005a FFF7FEFF 		bl	CySpcCreateCmdWriteRow
 592 005e 0346     		mov	r3, r0
ARM GAS  C:\Users\Geo\AppData\Local\Temp\ccUYtTFu.s 			page 20


 593 0060 7B61     		str	r3, [r7, #20]
 488:.\Generated_Source\PSoC5/CyFlash.c ****             if (status == CYRET_SUCCESS)
 594              		.loc 1 488 0
 595 0062 7B69     		ldr	r3, [r7, #20]
 596 0064 002B     		cmp	r3, #0
 597 0066 07D1     		bne	.L37
 489:.\Generated_Source\PSoC5/CyFlash.c ****             {
 490:.\Generated_Source\PSoC5/CyFlash.c ****                 status = CyWriteCmdAndWait(0, 0);
 598              		.loc 1 490 0
 599 0068 4FF00000 		mov	r0, #0
 600 006c 4FF00001 		mov	r1, #0
 601 0070 FFF7FEFF 		bl	CyWriteCmdAndWait
 602 0074 0346     		mov	r3, r0
 603 0076 7B61     		str	r3, [r7, #20]
 604              	.L37:
 491:.\Generated_Source\PSoC5/CyFlash.c ****             }
 492:.\Generated_Source\PSoC5/CyFlash.c ****         }
 493:.\Generated_Source\PSoC5/CyFlash.c **** 
 494:.\Generated_Source\PSoC5/CyFlash.c ****         /* Unlock the SPC so someone else can use it. */
 495:.\Generated_Source\PSoC5/CyFlash.c ****         CySpcUnlock();
 605              		.loc 1 495 0
 606 0078 FFF7FEFF 		bl	CySpcUnlock
 607 007c 02E0     		b	.L38
 608              	.L35:
 496:.\Generated_Source\PSoC5/CyFlash.c ****     }
 497:.\Generated_Source\PSoC5/CyFlash.c ****     else
 498:.\Generated_Source\PSoC5/CyFlash.c ****     {
 499:.\Generated_Source\PSoC5/CyFlash.c ****         status = CYRET_LOCKED;
 609              		.loc 1 499 0
 610 007e 4FF00403 		mov	r3, #4
 611 0082 7B61     		str	r3, [r7, #20]
 612              	.L38:
 500:.\Generated_Source\PSoC5/CyFlash.c ****     }
 501:.\Generated_Source\PSoC5/CyFlash.c **** 
 502:.\Generated_Source\PSoC5/CyFlash.c ****     return status;
 613              		.loc 1 502 0
 614 0084 7B69     		ldr	r3, [r7, #20]
 503:.\Generated_Source\PSoC5/CyFlash.c **** }
 615              		.loc 1 503 0
 616 0086 1846     		mov	r0, r3
 617 0088 07F11807 		add	r7, r7, #24
 618 008c BD46     		mov	sp, r7
 619 008e 80BD     		pop	{r7, pc}
 620              		.cfi_endproc
 621              	.LFE7:
 622              		.size	CyWriteRowFull, .-CyWriteRowFull
 623              		.section	.text.CyFlash_SetWaitCycles,"ax",%progbits
 624              		.align	2
 625              		.global	CyFlash_SetWaitCycles
 626              		.thumb
 627              		.thumb_func
 628              		.type	CyFlash_SetWaitCycles, %function
 629              	CyFlash_SetWaitCycles:
 630              	.LFB8:
 504:.\Generated_Source\PSoC5/CyFlash.c **** 
 505:.\Generated_Source\PSoC5/CyFlash.c **** 
 506:.\Generated_Source\PSoC5/CyFlash.c **** /*******************************************************************************
ARM GAS  C:\Users\Geo\AppData\Local\Temp\ccUYtTFu.s 			page 21


 507:.\Generated_Source\PSoC5/CyFlash.c **** * Function Name: CyFlash_SetWaitCycles
 508:.\Generated_Source\PSoC5/CyFlash.c **** ********************************************************************************
 509:.\Generated_Source\PSoC5/CyFlash.c **** *
 510:.\Generated_Source\PSoC5/CyFlash.c **** * Summary:
 511:.\Generated_Source\PSoC5/CyFlash.c **** *  Sets the correct number of wait cycles for the flash based on the frequency 
 512:.\Generated_Source\PSoC5/CyFlash.c **** *  of operation of the devices. This function should be called before increasing 
 513:.\Generated_Source\PSoC5/CyFlash.c **** *  the clock frequency.  It can optionally be called after lowering the clock 
 514:.\Generated_Source\PSoC5/CyFlash.c **** *  frequency in order to improve CPU performance.
 515:.\Generated_Source\PSoC5/CyFlash.c **** *   
 516:.\Generated_Source\PSoC5/CyFlash.c **** * Parameters:
 517:.\Generated_Source\PSoC5/CyFlash.c **** *  freq:
 518:.\Generated_Source\PSoC5/CyFlash.c **** *   Frequency of operation in Megahertz.
 519:.\Generated_Source\PSoC5/CyFlash.c **** * 
 520:.\Generated_Source\PSoC5/CyFlash.c **** * Return:
 521:.\Generated_Source\PSoC5/CyFlash.c **** *  void  
 522:.\Generated_Source\PSoC5/CyFlash.c **** * 
 523:.\Generated_Source\PSoC5/CyFlash.c **** * Reentrant
 524:.\Generated_Source\PSoC5/CyFlash.c **** *  Yes
 525:.\Generated_Source\PSoC5/CyFlash.c **** *
 526:.\Generated_Source\PSoC5/CyFlash.c **** *******************************************************************************/
 527:.\Generated_Source\PSoC5/CyFlash.c **** void CyFlash_SetWaitCycles(uint8 freq) 
 528:.\Generated_Source\PSoC5/CyFlash.c **** {
 631              		.loc 1 528 0
 632              		.cfi_startproc
 633              		@ args = 0, pretend = 0, frame = 8
 634              		@ frame_needed = 1, uses_anonymous_args = 0
 635              		@ link register save eliminated.
 636 0000 80B4     		push	{r7}
 637              	.LCFI22:
 638              		.cfi_def_cfa_offset 4
 639 0002 83B0     		sub	sp, sp, #12
 640              	.LCFI23:
 641              		.cfi_def_cfa_offset 16
 642 0004 00AF     		add	r7, sp, #0
 643              		.cfi_offset 7, -4
 644              	.LCFI24:
 645              		.cfi_def_cfa_register 7
 646 0006 0346     		mov	r3, r0
 647 0008 FB71     		strb	r3, [r7, #7]
 529:.\Generated_Source\PSoC5/CyFlash.c ****     
 530:.\Generated_Source\PSoC5/CyFlash.c ****     /* Set Flash Cycles bit fields with frequency value*/
 531:.\Generated_Source\PSoC5/CyFlash.c ****     #if (CY_PSOC3_ES2)
 532:.\Generated_Source\PSoC5/CyFlash.c ****         if (freq <= 24u)            
 533:.\Generated_Source\PSoC5/CyFlash.c ****             *FLASH_CYCLES_PTR = ((*FLASH_CYCLES_PTR & ~FLASH_CYCLES_MASK) | (LESSER_OR_EQUAL_24MHz 
 534:.\Generated_Source\PSoC5/CyFlash.c ****         else if (freq <= 48u)
 535:.\Generated_Source\PSoC5/CyFlash.c ****             *FLASH_CYCLES_PTR = ((*FLASH_CYCLES_PTR & ~FLASH_CYCLES_MASK) | (LESSER_OR_EQUAL_48MHz 
 536:.\Generated_Source\PSoC5/CyFlash.c ****         else
 537:.\Generated_Source\PSoC5/CyFlash.c ****             *FLASH_CYCLES_PTR = ((*FLASH_CYCLES_PTR & ~FLASH_CYCLES_MASK) | (GREATER_48MHz << FLASH
 538:.\Generated_Source\PSoC5/CyFlash.c ****     #endif
 539:.\Generated_Source\PSoC5/CyFlash.c ****     
 540:.\Generated_Source\PSoC5/CyFlash.c ****     #if (CY_PSOC3_ES3)
 541:.\Generated_Source\PSoC5/CyFlash.c ****         if (freq <= 22u)            
 542:.\Generated_Source\PSoC5/CyFlash.c ****             *FLASH_CYCLES_PTR = ((*FLASH_CYCLES_PTR & ~FLASH_CYCLES_MASK) | (LESSER_OR_EQUAL_22MHz 
 543:.\Generated_Source\PSoC5/CyFlash.c ****         else if (freq <= 44u)
 544:.\Generated_Source\PSoC5/CyFlash.c ****             *FLASH_CYCLES_PTR = ((*FLASH_CYCLES_PTR & ~FLASH_CYCLES_MASK) | (LESSER_OR_EQUAL_44MHz 
 545:.\Generated_Source\PSoC5/CyFlash.c ****         else
 546:.\Generated_Source\PSoC5/CyFlash.c ****             *FLASH_CYCLES_PTR = ((*FLASH_CYCLES_PTR & ~FLASH_CYCLES_MASK) | (GREATER_44MHz << FLASH
ARM GAS  C:\Users\Geo\AppData\Local\Temp\ccUYtTFu.s 			page 22


 547:.\Generated_Source\PSoC5/CyFlash.c ****     #endif
 548:.\Generated_Source\PSoC5/CyFlash.c ****     
 549:.\Generated_Source\PSoC5/CyFlash.c ****     #if (CY_PSOC5_ES1)
 550:.\Generated_Source\PSoC5/CyFlash.c ****         if (freq <= 16u)            
 648              		.loc 1 550 0
 649 000a FB79     		ldrb	r3, [r7, #7]	@ zero_extendqisi2
 650 000c 102B     		cmp	r3, #16
 651 000e 10D8     		bhi	.L41
 551:.\Generated_Source\PSoC5/CyFlash.c ****             *FLASH_CYCLES_PTR = ((*FLASH_CYCLES_PTR & ~FLASH_CYCLES_MASK) | (LESSER_OR_EQUAL_16MHz 
 652              		.loc 1 551 0
 653 0010 44F60003 		movw	r3, #:lower16:1073760256
 654 0014 C4F20003 		movt	r3, #:upper16:1073760256
 655 0018 44F60002 		movw	r2, #:lower16:1073760256
 656 001c C4F20002 		movt	r2, #:upper16:1073760256
 657 0020 1278     		ldrb	r2, [r2, #0]
 658 0022 D2B2     		uxtb	r2, r2
 659 0024 02F03F02 		and	r2, r2, #63
 660 0028 42F04002 		orr	r2, r2, #64
 661 002c D2B2     		uxtb	r2, r2
 662 002e 1A70     		strb	r2, [r3, #0]
 663 0030 36E0     		b	.L45
 664              	.L41:
 552:.\Generated_Source\PSoC5/CyFlash.c ****         else if (freq <= 33u)
 665              		.loc 1 552 0
 666 0032 FB79     		ldrb	r3, [r7, #7]	@ zero_extendqisi2
 667 0034 212B     		cmp	r3, #33
 668 0036 12D8     		bhi	.L43
 553:.\Generated_Source\PSoC5/CyFlash.c ****             *FLASH_CYCLES_PTR = ((*FLASH_CYCLES_PTR & ~FLASH_CYCLES_MASK) | (LESSER_OR_EQUAL_33MHz 
 669              		.loc 1 553 0
 670 0038 44F60003 		movw	r3, #:lower16:1073760256
 671 003c C4F20003 		movt	r3, #:upper16:1073760256
 672 0040 44F60002 		movw	r2, #:lower16:1073760256
 673 0044 C4F20002 		movt	r2, #:upper16:1073760256
 674 0048 1278     		ldrb	r2, [r2, #0]
 675 004a D2B2     		uxtb	r2, r2
 676 004c 02F03F02 		and	r2, r2, #63
 677 0050 6FEA4262 		mvn	r2, r2, lsl #25
 678 0054 6FEA5262 		mvn	r2, r2, lsr #25
 679 0058 D2B2     		uxtb	r2, r2
 680 005a 1A70     		strb	r2, [r3, #0]
 681 005c 20E0     		b	.L45
 682              	.L43:
 554:.\Generated_Source\PSoC5/CyFlash.c ****         else if (freq <= 50u)
 683              		.loc 1 554 0
 684 005e FB79     		ldrb	r3, [r7, #7]	@ zero_extendqisi2
 685 0060 322B     		cmp	r3, #50
 686 0062 10D8     		bhi	.L44
 555:.\Generated_Source\PSoC5/CyFlash.c ****             *FLASH_CYCLES_PTR = ((*FLASH_CYCLES_PTR & ~FLASH_CYCLES_MASK) | (LESSER_OR_EQUAL_50MHz 
 687              		.loc 1 555 0
 688 0064 44F60003 		movw	r3, #:lower16:1073760256
 689 0068 C4F20003 		movt	r3, #:upper16:1073760256
 690 006c 44F60002 		movw	r2, #:lower16:1073760256
 691 0070 C4F20002 		movt	r2, #:upper16:1073760256
 692 0074 1278     		ldrb	r2, [r2, #0]
 693 0076 D2B2     		uxtb	r2, r2
 694 0078 6FEA8262 		mvn	r2, r2, lsl #26
 695 007c 6FEA9262 		mvn	r2, r2, lsr #26
ARM GAS  C:\Users\Geo\AppData\Local\Temp\ccUYtTFu.s 			page 23


 696 0080 D2B2     		uxtb	r2, r2
 697 0082 1A70     		strb	r2, [r3, #0]
 698 0084 0CE0     		b	.L45
 699              	.L44:
 556:.\Generated_Source\PSoC5/CyFlash.c ****         else
 557:.\Generated_Source\PSoC5/CyFlash.c ****             *FLASH_CYCLES_PTR = ((*FLASH_CYCLES_PTR & ~FLASH_CYCLES_MASK) | (GREATER_51MHz << FLASH
 700              		.loc 1 557 0
 701 0086 44F60003 		movw	r3, #:lower16:1073760256
 702 008a C4F20003 		movt	r3, #:upper16:1073760256
 703 008e 44F60002 		movw	r2, #:lower16:1073760256
 704 0092 C4F20002 		movt	r2, #:upper16:1073760256
 705 0096 1278     		ldrb	r2, [r2, #0]
 706 0098 D2B2     		uxtb	r2, r2
 707 009a 02F03F02 		and	r2, r2, #63
 708 009e 1A70     		strb	r2, [r3, #0]
 709              	.L45:
 558:.\Generated_Source\PSoC5/CyFlash.c ****     #endif
 559:.\Generated_Source\PSoC5/CyFlash.c **** }
 710              		.loc 1 559 0
 711 00a0 07F10C07 		add	r7, r7, #12
 712 00a4 BD46     		mov	sp, r7
 713 00a6 80BC     		pop	{r7}
 714 00a8 7047     		bx	lr
 715              		.cfi_endproc
 716              	.LFE8:
 717              		.size	CyFlash_SetWaitCycles, .-CyFlash_SetWaitCycles
 718 00aa 00BF     		.section	.text.CyEEPROM_ReadReserve,"ax",%progbits
 719              		.align	2
 720              		.global	CyEEPROM_ReadReserve
 721              		.thumb
 722              		.thumb_func
 723              		.type	CyEEPROM_ReadReserve, %function
 724              	CyEEPROM_ReadReserve:
 725              	.LFB9:
 560:.\Generated_Source\PSoC5/CyFlash.c **** 
 561:.\Generated_Source\PSoC5/CyFlash.c **** 
 562:.\Generated_Source\PSoC5/CyFlash.c **** #if (CY_PSOC3_ES3 || CY_PSOC5_ES2)
 563:.\Generated_Source\PSoC5/CyFlash.c **** 
 564:.\Generated_Source\PSoC5/CyFlash.c **** /*******************************************************************************
 565:.\Generated_Source\PSoC5/CyFlash.c **** * Function Name: CyEEPROM_Start
 566:.\Generated_Source\PSoC5/CyFlash.c **** ********************************************************************************
 567:.\Generated_Source\PSoC5/CyFlash.c **** *
 568:.\Generated_Source\PSoC5/CyFlash.c **** * Summary:
 569:.\Generated_Source\PSoC5/CyFlash.c **** *  Enable the EEPROM.
 570:.\Generated_Source\PSoC5/CyFlash.c **** *   
 571:.\Generated_Source\PSoC5/CyFlash.c **** * Parameters:
 572:.\Generated_Source\PSoC5/CyFlash.c **** *  void
 573:.\Generated_Source\PSoC5/CyFlash.c **** * 
 574:.\Generated_Source\PSoC5/CyFlash.c **** * Return:
 575:.\Generated_Source\PSoC5/CyFlash.c **** *  void  
 576:.\Generated_Source\PSoC5/CyFlash.c **** * 
 577:.\Generated_Source\PSoC5/CyFlash.c **** * Reentrant
 578:.\Generated_Source\PSoC5/CyFlash.c **** *  Yes
 579:.\Generated_Source\PSoC5/CyFlash.c **** *
 580:.\Generated_Source\PSoC5/CyFlash.c **** *******************************************************************************/
 581:.\Generated_Source\PSoC5/CyFlash.c **** void CyEEPROM_Start(void) 
 582:.\Generated_Source\PSoC5/CyFlash.c **** {    
ARM GAS  C:\Users\Geo\AppData\Local\Temp\ccUYtTFu.s 			page 24


 583:.\Generated_Source\PSoC5/CyFlash.c ****     /* Active Power Mode */
 584:.\Generated_Source\PSoC5/CyFlash.c ****     *PM_ACT_EE_PTR |= PM_EE_MASK;
 585:.\Generated_Source\PSoC5/CyFlash.c ****     /* Standby Power Mode */
 586:.\Generated_Source\PSoC5/CyFlash.c ****     *PM_STBY_EE_PTR |= PM_EE_MASK;    
 587:.\Generated_Source\PSoC5/CyFlash.c **** }
 588:.\Generated_Source\PSoC5/CyFlash.c **** 
 589:.\Generated_Source\PSoC5/CyFlash.c **** 
 590:.\Generated_Source\PSoC5/CyFlash.c **** /*******************************************************************************
 591:.\Generated_Source\PSoC5/CyFlash.c **** * Function Name: CyEEPROM_Stop
 592:.\Generated_Source\PSoC5/CyFlash.c **** ********************************************************************************
 593:.\Generated_Source\PSoC5/CyFlash.c **** *
 594:.\Generated_Source\PSoC5/CyFlash.c **** * Summary:
 595:.\Generated_Source\PSoC5/CyFlash.c **** *  Disable the EEPROM.
 596:.\Generated_Source\PSoC5/CyFlash.c **** *   
 597:.\Generated_Source\PSoC5/CyFlash.c **** * Parameters:
 598:.\Generated_Source\PSoC5/CyFlash.c **** *  void
 599:.\Generated_Source\PSoC5/CyFlash.c **** * 
 600:.\Generated_Source\PSoC5/CyFlash.c **** * Return:
 601:.\Generated_Source\PSoC5/CyFlash.c **** *  void  
 602:.\Generated_Source\PSoC5/CyFlash.c **** * 
 603:.\Generated_Source\PSoC5/CyFlash.c **** * Reentrant
 604:.\Generated_Source\PSoC5/CyFlash.c **** *  Yes
 605:.\Generated_Source\PSoC5/CyFlash.c **** *
 606:.\Generated_Source\PSoC5/CyFlash.c **** *******************************************************************************/
 607:.\Generated_Source\PSoC5/CyFlash.c **** void CyEEPROM_Stop (void) 
 608:.\Generated_Source\PSoC5/CyFlash.c **** {
 609:.\Generated_Source\PSoC5/CyFlash.c ****     /* Active Power Mode */
 610:.\Generated_Source\PSoC5/CyFlash.c ****     *PM_ACT_EE_PTR &= ~PM_EE_MASK;
 611:.\Generated_Source\PSoC5/CyFlash.c ****     /* Standby Power Mode */
 612:.\Generated_Source\PSoC5/CyFlash.c ****     *PM_STBY_EE_PTR &= ~PM_EE_MASK;
 613:.\Generated_Source\PSoC5/CyFlash.c **** }
 614:.\Generated_Source\PSoC5/CyFlash.c **** 
 615:.\Generated_Source\PSoC5/CyFlash.c **** #endif /* (CY_PSOC3_ES3 || CY_PSOC5_ES2) */
 616:.\Generated_Source\PSoC5/CyFlash.c **** 
 617:.\Generated_Source\PSoC5/CyFlash.c **** 
 618:.\Generated_Source\PSoC5/CyFlash.c **** /*******************************************************************************
 619:.\Generated_Source\PSoC5/CyFlash.c **** * Function Name: CyEEPROM_ReadReserve
 620:.\Generated_Source\PSoC5/CyFlash.c **** ********************************************************************************
 621:.\Generated_Source\PSoC5/CyFlash.c **** *
 622:.\Generated_Source\PSoC5/CyFlash.c **** * Summary:
 623:.\Generated_Source\PSoC5/CyFlash.c **** *  Request access to the EEPROM for reading and wait until access is available.
 624:.\Generated_Source\PSoC5/CyFlash.c **** *   
 625:.\Generated_Source\PSoC5/CyFlash.c **** * Parameters:
 626:.\Generated_Source\PSoC5/CyFlash.c **** *  void
 627:.\Generated_Source\PSoC5/CyFlash.c **** * 
 628:.\Generated_Source\PSoC5/CyFlash.c **** * Return:
 629:.\Generated_Source\PSoC5/CyFlash.c **** *  void  
 630:.\Generated_Source\PSoC5/CyFlash.c **** *   
 631:.\Generated_Source\PSoC5/CyFlash.c **** * Reentrant
 632:.\Generated_Source\PSoC5/CyFlash.c **** *  Yes
 633:.\Generated_Source\PSoC5/CyFlash.c **** *
 634:.\Generated_Source\PSoC5/CyFlash.c **** *******************************************************************************/
 635:.\Generated_Source\PSoC5/CyFlash.c **** void CyEEPROM_ReadReserve(void) 
 636:.\Generated_Source\PSoC5/CyFlash.c **** {
 726              		.loc 1 636 0
 727              		.cfi_startproc
 728              		@ args = 0, pretend = 0, frame = 0
ARM GAS  C:\Users\Geo\AppData\Local\Temp\ccUYtTFu.s 			page 25


 729              		@ frame_needed = 1, uses_anonymous_args = 0
 730              		@ link register save eliminated.
 731 0000 80B4     		push	{r7}
 732              	.LCFI25:
 733              		.cfi_def_cfa_offset 4
 734 0002 00AF     		add	r7, sp, #0
 735              		.cfi_offset 7, -4
 736              	.LCFI26:
 737              		.cfi_def_cfa_register 7
 637:.\Generated_Source\PSoC5/CyFlash.c ****     /* Make a request for PHUB to have access */
 638:.\Generated_Source\PSoC5/CyFlash.c ****     *AHUB_EE_REQ_ACK_PTR |= 0x01u;    
 738              		.loc 1 638 0
 739 0004 44F20273 		movw	r3, #:lower16:1073760002
 740 0008 C4F20003 		movt	r3, #:upper16:1073760002
 741 000c 44F20272 		movw	r2, #:lower16:1073760002
 742 0010 C4F20002 		movt	r2, #:upper16:1073760002
 743 0014 1278     		ldrb	r2, [r2, #0]
 744 0016 D2B2     		uxtb	r2, r2
 745 0018 42F00102 		orr	r2, r2, #1
 746 001c D2B2     		uxtb	r2, r2
 747 001e 1A70     		strb	r2, [r3, #0]
 748              	.L47:
 639:.\Generated_Source\PSoC5/CyFlash.c ****     /* Wait for acknowledgement from PHUB */
 640:.\Generated_Source\PSoC5/CyFlash.c ****     while (!(*AHUB_EE_REQ_ACK_PTR & 0x02u));    
 749              		.loc 1 640 0
 750 0020 44F20273 		movw	r3, #:lower16:1073760002
 751 0024 C4F20003 		movt	r3, #:upper16:1073760002
 752 0028 1B78     		ldrb	r3, [r3, #0]
 753 002a DBB2     		uxtb	r3, r3
 754 002c 03F00203 		and	r3, r3, #2
 755 0030 002B     		cmp	r3, #0
 756 0032 F5D0     		beq	.L47
 641:.\Generated_Source\PSoC5/CyFlash.c **** }
 757              		.loc 1 641 0
 758 0034 BD46     		mov	sp, r7
 759 0036 80BC     		pop	{r7}
 760 0038 7047     		bx	lr
 761              		.cfi_endproc
 762              	.LFE9:
 763              		.size	CyEEPROM_ReadReserve, .-CyEEPROM_ReadReserve
 764 003a 00BF     		.section	.text.CyEEPROM_ReadRelease,"ax",%progbits
 765              		.align	2
 766              		.global	CyEEPROM_ReadRelease
 767              		.thumb
 768              		.thumb_func
 769              		.type	CyEEPROM_ReadRelease, %function
 770              	CyEEPROM_ReadRelease:
 771              	.LFB10:
 642:.\Generated_Source\PSoC5/CyFlash.c **** 
 643:.\Generated_Source\PSoC5/CyFlash.c **** 
 644:.\Generated_Source\PSoC5/CyFlash.c **** /*******************************************************************************
 645:.\Generated_Source\PSoC5/CyFlash.c **** * Function Name: CyEEPROM_ReadRelease
 646:.\Generated_Source\PSoC5/CyFlash.c **** ********************************************************************************
 647:.\Generated_Source\PSoC5/CyFlash.c **** *
 648:.\Generated_Source\PSoC5/CyFlash.c **** * Summary:
 649:.\Generated_Source\PSoC5/CyFlash.c **** *  Release the read reservation of the EEPROM.
 650:.\Generated_Source\PSoC5/CyFlash.c **** *   
ARM GAS  C:\Users\Geo\AppData\Local\Temp\ccUYtTFu.s 			page 26


 651:.\Generated_Source\PSoC5/CyFlash.c **** * Parameters:
 652:.\Generated_Source\PSoC5/CyFlash.c **** *  void
 653:.\Generated_Source\PSoC5/CyFlash.c **** * 
 654:.\Generated_Source\PSoC5/CyFlash.c **** * Return:
 655:.\Generated_Source\PSoC5/CyFlash.c **** *  void  
 656:.\Generated_Source\PSoC5/CyFlash.c **** * 
 657:.\Generated_Source\PSoC5/CyFlash.c **** * Reentrant
 658:.\Generated_Source\PSoC5/CyFlash.c **** *  Yes
 659:.\Generated_Source\PSoC5/CyFlash.c **** *
 660:.\Generated_Source\PSoC5/CyFlash.c **** *******************************************************************************/
 661:.\Generated_Source\PSoC5/CyFlash.c **** void CyEEPROM_ReadRelease(void) 
 662:.\Generated_Source\PSoC5/CyFlash.c **** {
 772              		.loc 1 662 0
 773              		.cfi_startproc
 774              		@ args = 0, pretend = 0, frame = 0
 775              		@ frame_needed = 1, uses_anonymous_args = 0
 776              		@ link register save eliminated.
 777 0000 80B4     		push	{r7}
 778              	.LCFI27:
 779              		.cfi_def_cfa_offset 4
 780 0002 00AF     		add	r7, sp, #0
 781              		.cfi_offset 7, -4
 782              	.LCFI28:
 783              		.cfi_def_cfa_register 7
 663:.\Generated_Source\PSoC5/CyFlash.c ****     *AHUB_EE_REQ_ACK_PTR |= 0x00u;   
 784              		.loc 1 663 0
 785 0004 44F20273 		movw	r3, #:lower16:1073760002
 786 0008 C4F20003 		movt	r3, #:upper16:1073760002
 787 000c 44F20272 		movw	r2, #:lower16:1073760002
 788 0010 C4F20002 		movt	r2, #:upper16:1073760002
 789 0014 1278     		ldrb	r2, [r2, #0]
 790 0016 D2B2     		uxtb	r2, r2
 791 0018 1A70     		strb	r2, [r3, #0]
 664:.\Generated_Source\PSoC5/CyFlash.c **** }
 792              		.loc 1 664 0
 793 001a BD46     		mov	sp, r7
 794 001c 80BC     		pop	{r7}
 795 001e 7047     		bx	lr
 796              		.cfi_endproc
 797              	.LFE10:
 798              		.size	CyEEPROM_ReadRelease, .-CyEEPROM_ReadRelease
 799              		.text
 800              	.Letext0: