ARM GAS  C:\Users\Geo\AppData\Local\Temp\ccBZ9s64.s 			page 1


   1              		.syntax unified
   2              		.cpu cortex-m3
   3              		.fpu softvfp
   4              		.eabi_attribute 20, 1
   5              		.eabi_attribute 21, 1
   6              		.eabi_attribute 23, 3
   7              		.eabi_attribute 24, 1
   8              		.eabi_attribute 25, 1
   9              		.eabi_attribute 26, 1
  10              		.eabi_attribute 30, 6
  11              		.eabi_attribute 18, 4
  12              		.thumb
  13              		.file	"Lights.c"
  20 0000 28010000 		.text
  20      02006400 
  20      00000201 
  20      FB0E0D00 
  20      01010101 
  21              	.Ltext0:
  22              		.cfi_sections	.debug_frame
  23              		.comm	ledModeArray,9,4
  24              		.comm	ledFlashRateMsArray,72,8
  25              		.global	ledPrevFlashCountArray
  26              		.bss
  27              		.align	2
  28              		.type	ledPrevFlashCountArray, %object
  29              		.size	ledPrevFlashCountArray, 36
  30              	ledPrevFlashCountArray:
  31 0000 00000000 		.space	36
  31      00000000 
  31      00000000 
  31      00000000 
  31      00000000 
  32              		.section	.text.Lights_AllOff,"ax",%progbits
  33              		.align	2
  34              		.global	Lights_AllOff
  35              		.thumb
  36              		.thumb_func
  37              		.type	Lights_AllOff, %function
  38              	Lights_AllOff:
  39              	.LFB29:
  40              		.file 1 ".\\Lights.c"
   1:.\Lights.c    **** //!
   2:.\Lights.c    **** //! @file 		Lights.c
   3:.\Lights.c    **** //! @author 	Geoffrey Hunter (gbmhunter@gmail.com)
   4:.\Lights.c    **** //! @date 		14/05/2011
   5:.\Lights.c    **** //! @brief 		Main GPRS task and supporting functions.
   6:.\Lights.c    **** //! @details
   7:.\Lights.c    **** //!		<b>Last Modified:			</b> 14/05/2011								\n
   8:.\Lights.c    **** //!		<b>Version:					</b> v1.0									\n
   9:.\Lights.c    **** //!		<b>Company:					</b> CladLabs								\n
ARM GAS  C:\Users\Geo\AppData\Local\Temp\ccBZ9s64.s 			page 2


  10:.\Lights.c    **** //!		<b>Project:					</b> Electric Skateboard - Skateboard Remote\n
  11:.\Lights.c    **** //!		<b>Computer Architecture:	</b> ARM									\n
  12:.\Lights.c    **** //!		<b>Compiler:				</b> GCC									\n
  13:.\Lights.c    **** //! 	<b>uC Model:				</b> PSoC5									\n
  14:.\Lights.c    **** //!		<b>Documentation Format:	</b> Doxygen								\n
  15:.\Lights.c    **** //!		
  16:.\Lights.c    **** //!		Controls the led's on the board
  17:.\Lights.c    **** //!
  18:.\Lights.c    **** 
  19:.\Lights.c    **** //=================================================================================================
  20:.\Lights.c    **** //============================================ INFO ===============================================
  21:.\Lights.c    **** //=================================================================================================
  22:.\Lights.c    **** 
  23:.\Lights.c    **** //=================================================================================================
  24:.\Lights.c    **** //======================================= FILE INCLUSIONS =========================================
  25:.\Lights.c    **** //=================================================================================================
  26:.\Lights.c    **** 
  27:.\Lights.c    **** #include <device.h>
  28:.\Lights.c    **** 
  29:.\Lights.c    **** #include "Config.h"
  30:.\Lights.c    **** #include "../common/PublicObjects.h"
  31:.\Lights.c    **** #include "Lights.h"
  32:.\Lights.c    **** 
  33:.\Lights.c    **** //===============================================================================================//
  34:.\Lights.c    **** //=================================== PRECOMPILER CHECKS ========================================//
  35:.\Lights.c    **** //===============================================================================================//
  36:.\Lights.c    **** 
  37:.\Lights.c    **** //=================================================================================================
  38:.\Lights.c    **** //========================================== DEFINES ==============================================
  39:.\Lights.c    **** //=================================================================================================
  40:.\Lights.c    **** 
  41:.\Lights.c    **** //=================================================================================================
  42:.\Lights.c    **** //========================================== TYPEDEF's ============================================
  43:.\Lights.c    **** //=================================================================================================
  44:.\Lights.c    **** 
  45:.\Lights.c    **** 
  46:.\Lights.c    **** 
  47:.\Lights.c    **** //=================================================================================================
  48:.\Lights.c    **** //==================================== PRIVATE VARIABLES ==========================================
  49:.\Lights.c    **** //=================================================================================================
  50:.\Lights.c    **** 
  51:.\Lights.c    **** ledMode_t ledModeArray[configNUM_OF_LEDS];
  52:.\Lights.c    **** double ledFlashRateMsArray[configNUM_OF_LEDS];
  53:.\Lights.c    **** uint32 ledPrevFlashCountArray[configNUM_OF_LEDS] = {0};
  54:.\Lights.c    **** 
  55:.\Lights.c    **** //=================================================================================================
  56:.\Lights.c    **** //=============================== PRIVATE FUNCTION PROTOTYPES =====================================
  57:.\Lights.c    **** //=================================================================================================
  58:.\Lights.c    **** 
  59:.\Lights.c    **** void Lights_SetLed(uint8 ledNum, uint8 offOn);
  60:.\Lights.c    **** void Lights_ToggleLed(uint8 ledNum);
  61:.\Lights.c    **** 
  62:.\Lights.c    **** //=================================================================================================
  63:.\Lights.c    **** //===================================== PUBLIC FUNCTIONS ==========================================
  64:.\Lights.c    **** //=================================================================================================
  65:.\Lights.c    **** 
  66:.\Lights.c    **** void Lights_AllOff(void)
ARM GAS  C:\Users\Geo\AppData\Local\Temp\ccBZ9s64.s 			page 3


  67:.\Lights.c    **** {
  41              		.loc 1 67 0
  42              		.cfi_startproc
  43              		@ args = 0, pretend = 0, frame = 8
  44              		@ frame_needed = 1, uses_anonymous_args = 0
  45 0000 80B5     		push	{r7, lr}
  46              	.LCFI0:
  47              		.cfi_def_cfa_offset 8
  48 0002 82B0     		sub	sp, sp, #8
  49              	.LCFI1:
  50              		.cfi_def_cfa_offset 16
  51 0004 00AF     		add	r7, sp, #0
  52              		.cfi_offset 14, -4
  53              		.cfi_offset 7, -8
  54              	.LCFI2:
  55              		.cfi_def_cfa_register 7
  68:.\Lights.c    **** 	uint8 x;
  69:.\Lights.c    **** 
  70:.\Lights.c    **** 	for(x = 0; x < configNUM_OF_LEDS; x++)
  56              		.loc 1 70 0
  57 0006 4FF00003 		mov	r3, #0
  58 000a FB71     		strb	r3, [r7, #7]
  59 000c 09E0     		b	.L2
  60              	.L3:
  71:.\Lights.c    **** 	{
  72:.\Lights.c    **** 		Lights_SetLed(x, 0);
  61              		.loc 1 72 0
  62 000e FB79     		ldrb	r3, [r7, #7]	@ zero_extendqisi2
  63 0010 1846     		mov	r0, r3
  64 0012 4FF00001 		mov	r1, #0
  65 0016 FFF7FEFF 		bl	Lights_SetLed
  66              		.loc 1 70 0
  67 001a FB79     		ldrb	r3, [r7, #7]
  68 001c 03F10103 		add	r3, r3, #1
  69 0020 FB71     		strb	r3, [r7, #7]
  70              	.L2:
  71 0022 FB79     		ldrb	r3, [r7, #7]	@ zero_extendqisi2
  72 0024 082B     		cmp	r3, #8
  73 0026 F2D9     		bls	.L3
  73:.\Lights.c    **** 	}
  74:.\Lights.c    **** }
  74              		.loc 1 74 0
  75 0028 07F10807 		add	r7, r7, #8
  76 002c BD46     		mov	sp, r7
  77 002e 80BD     		pop	{r7, pc}
  78              		.cfi_endproc
  79              	.LFE29:
  80              		.size	Lights_AllOff, .-Lights_AllOff
  81              		.section	.text.Lights_AllOn,"ax",%progbits
  82              		.align	2
  83              		.global	Lights_AllOn
  84              		.thumb
  85              		.thumb_func
  86              		.type	Lights_AllOn, %function
  87              	Lights_AllOn:
  88              	.LFB30:
  75:.\Lights.c    **** 
ARM GAS  C:\Users\Geo\AppData\Local\Temp\ccBZ9s64.s 			page 4


  76:.\Lights.c    **** void Lights_AllOn(void)
  77:.\Lights.c    **** {
  89              		.loc 1 77 0
  90              		.cfi_startproc
  91              		@ args = 0, pretend = 0, frame = 8
  92              		@ frame_needed = 1, uses_anonymous_args = 0
  93 0000 80B5     		push	{r7, lr}
  94              	.LCFI3:
  95              		.cfi_def_cfa_offset 8
  96 0002 82B0     		sub	sp, sp, #8
  97              	.LCFI4:
  98              		.cfi_def_cfa_offset 16
  99 0004 00AF     		add	r7, sp, #0
 100              		.cfi_offset 14, -4
 101              		.cfi_offset 7, -8
 102              	.LCFI5:
 103              		.cfi_def_cfa_register 7
  78:.\Lights.c    **** 	uint8 x;
  79:.\Lights.c    **** 
  80:.\Lights.c    **** 	for(x = 0; x < configNUM_OF_LEDS; x++)
 104              		.loc 1 80 0
 105 0006 4FF00003 		mov	r3, #0
 106 000a FB71     		strb	r3, [r7, #7]
 107 000c 09E0     		b	.L6
 108              	.L7:
  81:.\Lights.c    **** 	{
  82:.\Lights.c    **** 		Lights_SetLed(x, 1);
 109              		.loc 1 82 0
 110 000e FB79     		ldrb	r3, [r7, #7]	@ zero_extendqisi2
 111 0010 1846     		mov	r0, r3
 112 0012 4FF00101 		mov	r1, #1
 113 0016 FFF7FEFF 		bl	Lights_SetLed
 114              		.loc 1 80 0
 115 001a FB79     		ldrb	r3, [r7, #7]
 116 001c 03F10103 		add	r3, r3, #1
 117 0020 FB71     		strb	r3, [r7, #7]
 118              	.L6:
 119 0022 FB79     		ldrb	r3, [r7, #7]	@ zero_extendqisi2
 120 0024 082B     		cmp	r3, #8
 121 0026 F2D9     		bls	.L7
  83:.\Lights.c    **** 	}
  84:.\Lights.c    **** }
 122              		.loc 1 84 0
 123 0028 07F10807 		add	r7, r7, #8
 124 002c BD46     		mov	sp, r7
 125 002e 80BD     		pop	{r7, pc}
 126              		.cfi_endproc
 127              	.LFE30:
 128              		.size	Lights_AllOn, .-Lights_AllOn
 129              		.section	.text.Lights_FlashAllLeds,"ax",%progbits
 130              		.align	2
 131              		.global	Lights_FlashAllLeds
 132              		.thumb
 133              		.thumb_func
 134              		.type	Lights_FlashAllLeds, %function
 135              	Lights_FlashAllLeds:
 136              	.LFB31:
ARM GAS  C:\Users\Geo\AppData\Local\Temp\ccBZ9s64.s 			page 5


  85:.\Lights.c    **** 
  86:.\Lights.c    **** void Lights_FlashAllLeds(void)
  87:.\Lights.c    **** {
 137              		.loc 1 87 0
 138              		.cfi_startproc
 139              		@ args = 0, pretend = 0, frame = 8
 140              		@ frame_needed = 1, uses_anonymous_args = 0
 141 0000 80B5     		push	{r7, lr}
 142              	.LCFI6:
 143              		.cfi_def_cfa_offset 8
 144 0002 82B0     		sub	sp, sp, #8
 145              	.LCFI7:
 146              		.cfi_def_cfa_offset 16
 147 0004 00AF     		add	r7, sp, #0
 148              		.cfi_offset 14, -4
 149              		.cfi_offset 7, -8
 150              	.LCFI8:
 151              		.cfi_def_cfa_register 7
  88:.\Lights.c    **** 	uint8 x;
  89:.\Lights.c    **** 	
  90:.\Lights.c    **** 	for(x = 0; x < configNUM_OF_LEDS; x++)
 152              		.loc 1 90 0
 153 0006 4FF00003 		mov	r3, #0
 154 000a FB71     		strb	r3, [r7, #7]
 155 000c 09E0     		b	.L10
 156              	.L11:
  91:.\Lights.c    **** 	{
  92:.\Lights.c    **** 		Lights_SetLed(x, 1);
 157              		.loc 1 92 0
 158 000e FB79     		ldrb	r3, [r7, #7]	@ zero_extendqisi2
 159 0010 1846     		mov	r0, r3
 160 0012 4FF00101 		mov	r1, #1
 161 0016 FFF7FEFF 		bl	Lights_SetLed
 162              		.loc 1 90 0
 163 001a FB79     		ldrb	r3, [r7, #7]
 164 001c 03F10103 		add	r3, r3, #1
 165 0020 FB71     		strb	r3, [r7, #7]
 166              	.L10:
 167 0022 FB79     		ldrb	r3, [r7, #7]	@ zero_extendqisi2
 168 0024 082B     		cmp	r3, #8
 169 0026 F2D9     		bls	.L11
  93:.\Lights.c    **** 	}
  94:.\Lights.c    **** 	
  95:.\Lights.c    **** 	CyDelay(500);
 170              		.loc 1 95 0
 171 0028 4FF4FA70 		mov	r0, #500
 172 002c FFF7FEFF 		bl	CyDelay
  96:.\Lights.c    **** 	
  97:.\Lights.c    **** 	for(x = 0; x < configNUM_OF_LEDS; x++)
 173              		.loc 1 97 0
 174 0030 4FF00003 		mov	r3, #0
 175 0034 FB71     		strb	r3, [r7, #7]
 176 0036 09E0     		b	.L12
 177              	.L13:
  98:.\Lights.c    **** 	{
  99:.\Lights.c    **** 		Lights_SetLed(x, 0);
 178              		.loc 1 99 0
ARM GAS  C:\Users\Geo\AppData\Local\Temp\ccBZ9s64.s 			page 6


 179 0038 FB79     		ldrb	r3, [r7, #7]	@ zero_extendqisi2
 180 003a 1846     		mov	r0, r3
 181 003c 4FF00001 		mov	r1, #0
 182 0040 FFF7FEFF 		bl	Lights_SetLed
 183              		.loc 1 97 0
 184 0044 FB79     		ldrb	r3, [r7, #7]
 185 0046 03F10103 		add	r3, r3, #1
 186 004a FB71     		strb	r3, [r7, #7]
 187              	.L12:
 188 004c FB79     		ldrb	r3, [r7, #7]	@ zero_extendqisi2
 189 004e 082B     		cmp	r3, #8
 190 0050 F2D9     		bls	.L13
 100:.\Lights.c    **** 	}
 101:.\Lights.c    **** 
 102:.\Lights.c    **** 	CyDelay(500);
 191              		.loc 1 102 0
 192 0052 4FF4FA70 		mov	r0, #500
 193 0056 FFF7FEFF 		bl	CyDelay
 103:.\Lights.c    **** }
 194              		.loc 1 103 0
 195 005a 07F10807 		add	r7, r7, #8
 196 005e BD46     		mov	sp, r7
 197 0060 80BD     		pop	{r7, pc}
 198              		.cfi_endproc
 199              	.LFE31:
 200              		.size	Lights_FlashAllLeds, .-Lights_FlashAllLeds
 201              		.global	__aeabi_ddiv
 202              		.global	__aeabi_d2uiz
 203 0062 00BF     		.section	.text.Lights_Run,"ax",%progbits
 204              		.align	2
 205              		.global	Lights_Run
 206              		.thumb
 207              		.thumb_func
 208              		.type	Lights_Run, %function
 209              	Lights_Run:
 210              	.LFB32:
 104:.\Lights.c    **** 
 105:.\Lights.c    **** //! @brief		Main code loop
 106:.\Lights.c    **** void Lights_Run(void)
 107:.\Lights.c    **** {
 211              		.loc 1 107 0
 212              		.cfi_startproc
 213              		@ args = 0, pretend = 0, frame = 8
 214              		@ frame_needed = 1, uses_anonymous_args = 0
 215 0000 80B5     		push	{r7, lr}
 216              	.LCFI9:
 217              		.cfi_def_cfa_offset 8
 218 0002 82B0     		sub	sp, sp, #8
 219              	.LCFI10:
 220              		.cfi_def_cfa_offset 16
 221 0004 00AF     		add	r7, sp, #0
 222              		.cfi_offset 14, -4
 223              		.cfi_offset 7, -8
 224              	.LCFI11:
 225              		.cfi_def_cfa_register 7
 108:.\Lights.c    **** 	// Counter for main led state machine
 109:.\Lights.c    **** 	static uint32 counter = 0;
ARM GAS  C:\Users\Geo\AppData\Local\Temp\ccBZ9s64.s 			page 7


 110:.\Lights.c    **** 	
 111:.\Lights.c    **** 	uint8 x;
 112:.\Lights.c    **** 	
 113:.\Lights.c    **** 	for(x = 0; x < configNUM_OF_LEDS; x++)
 226              		.loc 1 113 0
 227 0006 4FF00003 		mov	r3, #0
 228 000a FB70     		strb	r3, [r7, #3]
 229 000c 63E0     		b	.L16
 230              	.L20:
 114:.\Lights.c    **** 	{
 115:.\Lights.c    **** 		if(ledModeArray[x] == OFF)
 231              		.loc 1 115 0
 232 000e FA78     		ldrb	r2, [r7, #3]	@ zero_extendqisi2
 233 0010 40F20003 		movw	r3, #:lower16:ledModeArray
 234 0014 C0F20003 		movt	r3, #:upper16:ledModeArray
 235 0018 9B5C     		ldrb	r3, [r3, r2]	@ zero_extendqisi2
 236 001a 002B     		cmp	r3, #0
 237 001c 05D1     		bne	.L17
 116:.\Lights.c    **** 			Lights_SetLed(x, 0);
 238              		.loc 1 116 0
 239 001e FB78     		ldrb	r3, [r7, #3]	@ zero_extendqisi2
 240 0020 1846     		mov	r0, r3
 241 0022 4FF00001 		mov	r1, #0
 242 0026 FFF7FEFF 		bl	Lights_SetLed
 243              	.L17:
 117:.\Lights.c    **** 		if(ledModeArray[x] == ON)
 244              		.loc 1 117 0
 245 002a FA78     		ldrb	r2, [r7, #3]	@ zero_extendqisi2
 246 002c 40F20003 		movw	r3, #:lower16:ledModeArray
 247 0030 C0F20003 		movt	r3, #:upper16:ledModeArray
 248 0034 9B5C     		ldrb	r3, [r3, r2]	@ zero_extendqisi2
 249 0036 012B     		cmp	r3, #1
 250 0038 05D1     		bne	.L18
 118:.\Lights.c    **** 			Lights_SetLed(x, 1);
 251              		.loc 1 118 0
 252 003a FB78     		ldrb	r3, [r7, #3]	@ zero_extendqisi2
 253 003c 1846     		mov	r0, r3
 254 003e 4FF00101 		mov	r1, #1
 255 0042 FFF7FEFF 		bl	Lights_SetLed
 256              	.L18:
 119:.\Lights.c    **** 		if(ledModeArray[x] == FLASHING)
 257              		.loc 1 119 0
 258 0046 FA78     		ldrb	r2, [r7, #3]	@ zero_extendqisi2
 259 0048 40F20003 		movw	r3, #:lower16:ledModeArray
 260 004c C0F20003 		movt	r3, #:upper16:ledModeArray
 261 0050 9B5C     		ldrb	r3, [r3, r2]	@ zero_extendqisi2
 262 0052 022B     		cmp	r3, #2
 263 0054 3BD1     		bne	.L19
 264              	.LBB2:
 120:.\Lights.c    **** 		{
 121:.\Lights.c    **** 			uint32 numberOfCounts = (uint32)(ledFlashRateMsArray[x]/(2*configMAIN_TICK_PERIOD_MS));
 265              		.loc 1 121 0
 266 0056 FA78     		ldrb	r2, [r7, #3]	@ zero_extendqisi2
 267 0058 40F20003 		movw	r3, #:lower16:ledFlashRateMsArray
 268 005c C0F20003 		movt	r3, #:upper16:ledFlashRateMsArray
 269 0060 4FEAC202 		lsl	r2, r2, #3
 270 0064 1344     		add	r3, r2, r3
ARM GAS  C:\Users\Geo\AppData\Local\Temp\ccBZ9s64.s 			page 8


 271 0066 D3E90023 		ldrd	r2, [r3]
 272 006a 1046     		mov	r0, r2
 273 006c 1946     		mov	r1, r3
 274 006e 4FF00002 		mov	r2, #0
 275 0072 4FF08043 		mov	r3, #1073741824
 276 0076 03F55013 		add	r3, r3, #3407872
 277 007a FFF7FEFF 		bl	__aeabi_ddiv
 278 007e 0246     		mov	r2, r0
 279 0080 0B46     		mov	r3, r1
 280 0082 1046     		mov	r0, r2
 281 0084 1946     		mov	r1, r3
 282 0086 FFF7FEFF 		bl	__aeabi_d2uiz
 283 008a 0346     		mov	r3, r0
 284 008c 7B60     		str	r3, [r7, #4]
 122:.\Lights.c    **** 			if(counter > ledPrevFlashCountArray[x] + numberOfCounts)
 285              		.loc 1 122 0
 286 008e FA78     		ldrb	r2, [r7, #3]	@ zero_extendqisi2
 287 0090 40F20003 		movw	r3, #:lower16:ledPrevFlashCountArray
 288 0094 C0F20003 		movt	r3, #:upper16:ledPrevFlashCountArray
 289 0098 53F82220 		ldr	r2, [r3, r2, lsl #2]
 290 009c 7B68     		ldr	r3, [r7, #4]
 291 009e 1A44     		add	r2, r2, r3
 292 00a0 40F20003 		movw	r3, #:lower16:counter.3051
 293 00a4 C0F20003 		movt	r3, #:upper16:counter.3051
 294 00a8 1B68     		ldr	r3, [r3, #0]
 295 00aa 9A42     		cmp	r2, r3
 296 00ac 0FD2     		bcs	.L19
 123:.\Lights.c    **** 			{
 124:.\Lights.c    **** 				Lights_ToggleLed(x);
 297              		.loc 1 124 0
 298 00ae FB78     		ldrb	r3, [r7, #3]	@ zero_extendqisi2
 299 00b0 1846     		mov	r0, r3
 300 00b2 FFF7FEFF 		bl	Lights_ToggleLed
 125:.\Lights.c    **** 				ledPrevFlashCountArray[x] = counter;
 301              		.loc 1 125 0
 302 00b6 FA78     		ldrb	r2, [r7, #3]	@ zero_extendqisi2
 303 00b8 40F20003 		movw	r3, #:lower16:counter.3051
 304 00bc C0F20003 		movt	r3, #:upper16:counter.3051
 305 00c0 1968     		ldr	r1, [r3, #0]
 306 00c2 40F20003 		movw	r3, #:lower16:ledPrevFlashCountArray
 307 00c6 C0F20003 		movt	r3, #:upper16:ledPrevFlashCountArray
 308 00ca 43F82210 		str	r1, [r3, r2, lsl #2]
 309              	.L19:
 310              	.LBE2:
 311              		.loc 1 113 0
 312 00ce FB78     		ldrb	r3, [r7, #3]
 313 00d0 03F10103 		add	r3, r3, #1
 314 00d4 FB70     		strb	r3, [r7, #3]
 315              	.L16:
 316 00d6 FB78     		ldrb	r3, [r7, #3]	@ zero_extendqisi2
 317 00d8 082B     		cmp	r3, #8
 318 00da 98D9     		bls	.L20
 126:.\Lights.c    **** 			}
 127:.\Lights.c    **** 		}
 128:.\Lights.c    **** 	}
 129:.\Lights.c    **** 
 130:.\Lights.c    **** 	
ARM GAS  C:\Users\Geo\AppData\Local\Temp\ccBZ9s64.s 			page 9


 131:.\Lights.c    **** 	// Increment counter
 132:.\Lights.c    **** 	counter++;
 319              		.loc 1 132 0
 320 00dc 40F20003 		movw	r3, #:lower16:counter.3051
 321 00e0 C0F20003 		movt	r3, #:upper16:counter.3051
 322 00e4 1B68     		ldr	r3, [r3, #0]
 323 00e6 03F10102 		add	r2, r3, #1
 324 00ea 40F20003 		movw	r3, #:lower16:counter.3051
 325 00ee C0F20003 		movt	r3, #:upper16:counter.3051
 326 00f2 1A60     		str	r2, [r3, #0]
 133:.\Lights.c    **** }
 327              		.loc 1 133 0
 328 00f4 07F10807 		add	r7, r7, #8
 329 00f8 BD46     		mov	sp, r7
 330 00fa 80BD     		pop	{r7, pc}
 331              		.cfi_endproc
 332              	.LFE32:
 333              		.size	Lights_Run, .-Lights_Run
 334              		.section	.text.Lights_SetLedMode,"ax",%progbits
 335              		.align	2
 336              		.global	Lights_SetLedMode
 337              		.thumb
 338              		.thumb_func
 339              		.type	Lights_SetLedMode, %function
 340              	Lights_SetLedMode:
 341              	.LFB33:
 134:.\Lights.c    **** 
 135:.\Lights.c    **** 
 136:.\Lights.c    **** 
 137:.\Lights.c    **** void Lights_SetLedMode(led_t led, ledMode_t ledMode, double ledFlashRate)
 138:.\Lights.c    **** {
 342              		.loc 1 138 0
 343              		.cfi_startproc
 344              		@ args = 0, pretend = 0, frame = 16
 345              		@ frame_needed = 1, uses_anonymous_args = 0
 346              		@ link register save eliminated.
 347 0000 80B4     		push	{r7}
 348              	.LCFI12:
 349              		.cfi_def_cfa_offset 4
 350 0002 85B0     		sub	sp, sp, #20
 351              	.LCFI13:
 352              		.cfi_def_cfa_offset 24
 353 0004 00AF     		add	r7, sp, #0
 354              		.cfi_offset 7, -4
 355              	.LCFI14:
 356              		.cfi_def_cfa_register 7
 357 0006 C7E90023 		strd	r2, [r7]
 358 000a 0346     		mov	r3, r0
 359 000c FB73     		strb	r3, [r7, #15]
 360 000e 0B46     		mov	r3, r1
 361 0010 BB73     		strb	r3, [r7, #14]
 139:.\Lights.c    **** 	ledModeArray[led] = ledMode;
 362              		.loc 1 139 0
 363 0012 FA7B     		ldrb	r2, [r7, #15]	@ zero_extendqisi2
 364 0014 40F20003 		movw	r3, #:lower16:ledModeArray
 365 0018 C0F20003 		movt	r3, #:upper16:ledModeArray
 366 001c B97B     		ldrb	r1, [r7, #14]
ARM GAS  C:\Users\Geo\AppData\Local\Temp\ccBZ9s64.s 			page 10


 367 001e 9954     		strb	r1, [r3, r2]
 140:.\Lights.c    **** 	ledFlashRateMsArray[led] = ledFlashRate;
 368              		.loc 1 140 0
 369 0020 FA7B     		ldrb	r2, [r7, #15]	@ zero_extendqisi2
 370 0022 40F20003 		movw	r3, #:lower16:ledFlashRateMsArray
 371 0026 C0F20003 		movt	r3, #:upper16:ledFlashRateMsArray
 372 002a 4FEAC202 		lsl	r2, r2, #3
 373 002e 02EB0301 		add	r1, r2, r3
 374 0032 D7E90023 		ldrd	r2, [r7]
 375 0036 C1E90023 		strd	r2, [r1]
 141:.\Lights.c    **** }
 376              		.loc 1 141 0
 377 003a 07F11407 		add	r7, r7, #20
 378 003e BD46     		mov	sp, r7
 379 0040 80BC     		pop	{r7}
 380 0042 7047     		bx	lr
 381              		.cfi_endproc
 382              	.LFE33:
 383              		.size	Lights_SetLedMode, .-Lights_SetLedMode
 384              		.section	.text.Lights_SetLed,"ax",%progbits
 385              		.align	2
 386              		.global	Lights_SetLed
 387              		.thumb
 388              		.thumb_func
 389              		.type	Lights_SetLed, %function
 390              	Lights_SetLed:
 391              	.LFB34:
 142:.\Lights.c    **** 
 143:.\Lights.c    **** //=================================================================================================
 144:.\Lights.c    **** //==================================== PRIVATE FUNCTIONS ==========================================
 145:.\Lights.c    **** //=================================================================================================
 146:.\Lights.c    **** 
 147:.\Lights.c    **** void Lights_SetLed(uint8 ledNum, uint8 offOn)
 148:.\Lights.c    **** {
 392              		.loc 1 148 0
 393              		.cfi_startproc
 394              		@ args = 0, pretend = 0, frame = 8
 395              		@ frame_needed = 1, uses_anonymous_args = 0
 396 0000 80B5     		push	{r7, lr}
 397              	.LCFI15:
 398              		.cfi_def_cfa_offset 8
 399 0002 82B0     		sub	sp, sp, #8
 400              	.LCFI16:
 401              		.cfi_def_cfa_offset 16
 402 0004 00AF     		add	r7, sp, #0
 403              		.cfi_offset 14, -4
 404              		.cfi_offset 7, -8
 405              	.LCFI17:
 406              		.cfi_def_cfa_register 7
 407 0006 0246     		mov	r2, r0
 408 0008 0B46     		mov	r3, r1
 409 000a FA71     		strb	r2, [r7, #7]
 410 000c BB71     		strb	r3, [r7, #6]
 149:.\Lights.c    **** 	switch(ledNum)
 411              		.loc 1 149 0
 412 000e FB79     		ldrb	r3, [r7, #7]	@ zero_extendqisi2
 413 0010 082B     		cmp	r3, #8
ARM GAS  C:\Users\Geo\AppData\Local\Temp\ccBZ9s64.s 			page 11


 414 0012 41D8     		bhi	.L36
 415 0014 01A2     		adr	r2, .L35
 416 0016 52F823F0 		ldr	pc, [r2, r3, lsl #2]
 417 001a 00BF     		.align	2
 418              	.L35:
 419 001c 41000000 		.word	.L26+1
 420 0020 4B000000 		.word	.L27+1
 421 0024 55000000 		.word	.L28+1
 422 0028 5F000000 		.word	.L29+1
 423 002c 69000000 		.word	.L30+1
 424 0030 73000000 		.word	.L31+1
 425 0034 7D000000 		.word	.L32+1
 426 0038 87000000 		.word	.L33+1
 427 003c 91000000 		.word	.L34+1
 428              	.L26:
 150:.\Lights.c    **** 	{
 151:.\Lights.c    **** 		case LED_IN_RANGE:
 152:.\Lights.c    **** 				PinLedInRange_Write(offOn);
 429              		.loc 1 152 0
 430 0040 BB79     		ldrb	r3, [r7, #6]	@ zero_extendqisi2
 431 0042 1846     		mov	r0, r3
 432 0044 FFF7FEFF 		bl	PinLedInRange_Write
 153:.\Lights.c    **** 			break;
 433              		.loc 1 153 0
 434 0048 26E0     		b	.L36
 435              	.L27:
 154:.\Lights.c    **** 		case LED_MOTOR_ON:
 155:.\Lights.c    **** 				PinLedMotorOn_Write(offOn);
 436              		.loc 1 155 0
 437 004a BB79     		ldrb	r3, [r7, #6]	@ zero_extendqisi2
 438 004c 1846     		mov	r0, r3
 439 004e FFF7FEFF 		bl	PinLedMotorOn_Write
 156:.\Lights.c    **** 			break;
 440              		.loc 1 156 0
 441 0052 21E0     		b	.L36
 442              	.L28:
 157:.\Lights.c    **** 		case LED_ALARM_ON:
 158:.\Lights.c    **** 				PinLedAlarm_Write(offOn);
 443              		.loc 1 158 0
 444 0054 BB79     		ldrb	r3, [r7, #6]	@ zero_extendqisi2
 445 0056 1846     		mov	r0, r3
 446 0058 FFF7FEFF 		bl	PinLedAlarm_Write
 159:.\Lights.c    **** 			break;
 447              		.loc 1 159 0
 448 005c 1CE0     		b	.L36
 449              	.L29:
 160:.\Lights.c    **** 		case LED_BOARD_BATT_LVL_TOP:
 161:.\Lights.c    **** 				PinLedBoardBattLevelHigh_Write(offOn);
 450              		.loc 1 161 0
 451 005e BB79     		ldrb	r3, [r7, #6]	@ zero_extendqisi2
 452 0060 1846     		mov	r0, r3
 453 0062 FFF7FEFF 		bl	PinLedBoardBattLevelHigh_Write
 162:.\Lights.c    **** 			break;
 454              		.loc 1 162 0
 455 0066 17E0     		b	.L36
 456              	.L30:
 163:.\Lights.c    **** 		case LED_BOARD_BATT_LVL_MID:
ARM GAS  C:\Users\Geo\AppData\Local\Temp\ccBZ9s64.s 			page 12


 164:.\Lights.c    **** 				PinLedBoardBattLevelMed_Write(offOn);
 457              		.loc 1 164 0
 458 0068 BB79     		ldrb	r3, [r7, #6]	@ zero_extendqisi2
 459 006a 1846     		mov	r0, r3
 460 006c FFF7FEFF 		bl	PinLedBoardBattLevelMed_Write
 165:.\Lights.c    **** 			break;
 461              		.loc 1 165 0
 462 0070 12E0     		b	.L36
 463              	.L31:
 166:.\Lights.c    **** 		case LED_BOARD_BATT_LVL_BOT:
 167:.\Lights.c    **** 				PinLedBoardBattLevelLow_Write(offOn);
 464              		.loc 1 167 0
 465 0072 BB79     		ldrb	r3, [r7, #6]	@ zero_extendqisi2
 466 0074 1846     		mov	r0, r3
 467 0076 FFF7FEFF 		bl	PinLedBoardBattLevelLow_Write
 168:.\Lights.c    **** 			break;
 468              		.loc 1 168 0
 469 007a 0DE0     		b	.L36
 470              	.L32:
 169:.\Lights.c    **** 		case LED_REMOTE_BATT_LVL_TOP:
 170:.\Lights.c    **** 				PinLedRemoteBattLevelHigh_Write(offOn);
 471              		.loc 1 170 0
 472 007c BB79     		ldrb	r3, [r7, #6]	@ zero_extendqisi2
 473 007e 1846     		mov	r0, r3
 474 0080 FFF7FEFF 		bl	PinLedRemoteBattLevelHigh_Write
 171:.\Lights.c    **** 			break;
 475              		.loc 1 171 0
 476 0084 08E0     		b	.L36
 477              	.L33:
 172:.\Lights.c    **** 		case LED_REMOTE_BATT_LVL_MID:
 173:.\Lights.c    **** 				PinLedRemoteBattLevelMed_Write(offOn);
 478              		.loc 1 173 0
 479 0086 BB79     		ldrb	r3, [r7, #6]	@ zero_extendqisi2
 480 0088 1846     		mov	r0, r3
 481 008a FFF7FEFF 		bl	PinLedRemoteBattLevelMed_Write
 174:.\Lights.c    **** 			break;
 482              		.loc 1 174 0
 483 008e 03E0     		b	.L36
 484              	.L34:
 175:.\Lights.c    **** 		case LED_REMOTE_BATT_LVL_BOT:
 176:.\Lights.c    **** 				PinLedRemoteBattLevelLow_Write(offOn);
 485              		.loc 1 176 0
 486 0090 BB79     		ldrb	r3, [r7, #6]	@ zero_extendqisi2
 487 0092 1846     		mov	r0, r3
 488 0094 FFF7FEFF 		bl	PinLedRemoteBattLevelLow_Write
 489              	.L36:
 177:.\Lights.c    **** 			break;
 178:.\Lights.c    **** 	}
 179:.\Lights.c    **** }
 490              		.loc 1 179 0
 491 0098 07F10807 		add	r7, r7, #8
 492 009c BD46     		mov	sp, r7
 493 009e 80BD     		pop	{r7, pc}
 494              		.cfi_endproc
 495              	.LFE34:
 496              		.size	Lights_SetLed, .-Lights_SetLed
 497              		.section	.text.Lights_ToggleLed,"ax",%progbits
ARM GAS  C:\Users\Geo\AppData\Local\Temp\ccBZ9s64.s 			page 13


 498              		.align	2
 499              		.global	Lights_ToggleLed
 500              		.thumb
 501              		.thumb_func
 502              		.type	Lights_ToggleLed, %function
 503              	Lights_ToggleLed:
 504              	.LFB35:
 180:.\Lights.c    **** 
 181:.\Lights.c    **** void Lights_ToggleLed(uint8 ledNum)
 182:.\Lights.c    **** {
 505              		.loc 1 182 0
 506              		.cfi_startproc
 507              		@ args = 0, pretend = 0, frame = 8
 508              		@ frame_needed = 1, uses_anonymous_args = 0
 509 0000 80B5     		push	{r7, lr}
 510              	.LCFI18:
 511              		.cfi_def_cfa_offset 8
 512 0002 82B0     		sub	sp, sp, #8
 513              	.LCFI19:
 514              		.cfi_def_cfa_offset 16
 515 0004 00AF     		add	r7, sp, #0
 516              		.cfi_offset 14, -4
 517              		.cfi_offset 7, -8
 518              	.LCFI20:
 519              		.cfi_def_cfa_register 7
 520 0006 0346     		mov	r3, r0
 521 0008 FB71     		strb	r3, [r7, #7]
 183:.\Lights.c    **** 	switch(ledNum)
 522              		.loc 1 183 0
 523 000a FB79     		ldrb	r3, [r7, #7]	@ zero_extendqisi2
 524 000c 082B     		cmp	r3, #8
 525 000e 77D8     		bhi	.L49
 526 0010 01A2     		adr	r2, .L48
 527 0012 52F823F0 		ldr	pc, [r2, r3, lsl #2]
 528 0016 00BF     		.align	2
 529              	.L48:
 530 0018 3D000000 		.word	.L39+1
 531 001c 53000000 		.word	.L40+1
 532 0020 69000000 		.word	.L41+1
 533 0024 7F000000 		.word	.L42+1
 534 0028 95000000 		.word	.L43+1
 535 002c AB000000 		.word	.L44+1
 536 0030 C1000000 		.word	.L45+1
 537 0034 D7000000 		.word	.L46+1
 538 0038 ED000000 		.word	.L47+1
 539              	.L39:
 184:.\Lights.c    **** 	{
 185:.\Lights.c    **** 		case LED_IN_RANGE:
 186:.\Lights.c    **** 				PinLedInRange_Write(!PinLedInRange_Read());
 540              		.loc 1 186 0
 541 003c FFF7FEFF 		bl	PinLedInRange_Read
 542 0040 0346     		mov	r3, r0
 543 0042 002B     		cmp	r3, #0
 544 0044 14BF     		ite	ne
 545 0046 0023     		movne	r3, #0
 546 0048 0123     		moveq	r3, #1
 547 004a 1846     		mov	r0, r3
ARM GAS  C:\Users\Geo\AppData\Local\Temp\ccBZ9s64.s 			page 14


 548 004c FFF7FEFF 		bl	PinLedInRange_Write
 187:.\Lights.c    **** 			break;
 549              		.loc 1 187 0
 550 0050 56E0     		b	.L49
 551              	.L40:
 188:.\Lights.c    **** 		case LED_MOTOR_ON:
 189:.\Lights.c    **** 				PinLedMotorOn_Write(!PinLedMotorOn_Read());
 552              		.loc 1 189 0
 553 0052 FFF7FEFF 		bl	PinLedMotorOn_Read
 554 0056 0346     		mov	r3, r0
 555 0058 002B     		cmp	r3, #0
 556 005a 14BF     		ite	ne
 557 005c 0023     		movne	r3, #0
 558 005e 0123     		moveq	r3, #1
 559 0060 1846     		mov	r0, r3
 560 0062 FFF7FEFF 		bl	PinLedMotorOn_Write
 190:.\Lights.c    **** 			break;
 561              		.loc 1 190 0
 562 0066 4BE0     		b	.L49
 563              	.L41:
 191:.\Lights.c    **** 		case LED_ALARM_ON:
 192:.\Lights.c    **** 				PinLedAlarm_Write(!PinLedAlarm_Read());
 564              		.loc 1 192 0
 565 0068 FFF7FEFF 		bl	PinLedAlarm_Read
 566 006c 0346     		mov	r3, r0
 567 006e 002B     		cmp	r3, #0
 568 0070 14BF     		ite	ne
 569 0072 0023     		movne	r3, #0
 570 0074 0123     		moveq	r3, #1
 571 0076 1846     		mov	r0, r3
 572 0078 FFF7FEFF 		bl	PinLedAlarm_Write
 193:.\Lights.c    **** 			break;
 573              		.loc 1 193 0
 574 007c 40E0     		b	.L49
 575              	.L42:
 194:.\Lights.c    **** 		case LED_BOARD_BATT_LVL_TOP:
 195:.\Lights.c    **** 				PinLedBoardBattLevelHigh_Write(!PinLedBoardBattLevelHigh_Read());
 576              		.loc 1 195 0
 577 007e FFF7FEFF 		bl	PinLedBoardBattLevelHigh_Read
 578 0082 0346     		mov	r3, r0
 579 0084 002B     		cmp	r3, #0
 580 0086 14BF     		ite	ne
 581 0088 0023     		movne	r3, #0
 582 008a 0123     		moveq	r3, #1
 583 008c 1846     		mov	r0, r3
 584 008e FFF7FEFF 		bl	PinLedBoardBattLevelHigh_Write
 196:.\Lights.c    **** 			break;
 585              		.loc 1 196 0
 586 0092 35E0     		b	.L49
 587              	.L43:
 197:.\Lights.c    **** 		case LED_BOARD_BATT_LVL_MID:
 198:.\Lights.c    **** 				PinLedBoardBattLevelMed_Write(!PinLedBoardBattLevelMed_Read());
 588              		.loc 1 198 0
 589 0094 FFF7FEFF 		bl	PinLedBoardBattLevelMed_Read
 590 0098 0346     		mov	r3, r0
 591 009a 002B     		cmp	r3, #0
 592 009c 14BF     		ite	ne
ARM GAS  C:\Users\Geo\AppData\Local\Temp\ccBZ9s64.s 			page 15


 593 009e 0023     		movne	r3, #0
 594 00a0 0123     		moveq	r3, #1
 595 00a2 1846     		mov	r0, r3
 596 00a4 FFF7FEFF 		bl	PinLedBoardBattLevelMed_Write
 199:.\Lights.c    **** 			break;
 597              		.loc 1 199 0
 598 00a8 2AE0     		b	.L49
 599              	.L44:
 200:.\Lights.c    **** 		case LED_BOARD_BATT_LVL_BOT:
 201:.\Lights.c    **** 				PinLedBoardBattLevelLow_Write(!PinLedBoardBattLevelLow_Read());
 600              		.loc 1 201 0
 601 00aa FFF7FEFF 		bl	PinLedBoardBattLevelLow_Read
 602 00ae 0346     		mov	r3, r0
 603 00b0 002B     		cmp	r3, #0
 604 00b2 14BF     		ite	ne
 605 00b4 0023     		movne	r3, #0
 606 00b6 0123     		moveq	r3, #1
 607 00b8 1846     		mov	r0, r3
 608 00ba FFF7FEFF 		bl	PinLedBoardBattLevelLow_Write
 202:.\Lights.c    **** 			break;
 609              		.loc 1 202 0
 610 00be 1FE0     		b	.L49
 611              	.L45:
 203:.\Lights.c    **** 		case LED_REMOTE_BATT_LVL_TOP:
 204:.\Lights.c    **** 				PinLedRemoteBattLevelHigh_Write(!PinLedRemoteBattLevelHigh_Read());
 612              		.loc 1 204 0
 613 00c0 FFF7FEFF 		bl	PinLedRemoteBattLevelHigh_Read
 614 00c4 0346     		mov	r3, r0
 615 00c6 002B     		cmp	r3, #0
 616 00c8 14BF     		ite	ne
 617 00ca 0023     		movne	r3, #0
 618 00cc 0123     		moveq	r3, #1
 619 00ce 1846     		mov	r0, r3
 620 00d0 FFF7FEFF 		bl	PinLedRemoteBattLevelHigh_Write
 205:.\Lights.c    **** 			break;
 621              		.loc 1 205 0
 622 00d4 14E0     		b	.L49
 623              	.L46:
 206:.\Lights.c    **** 		case LED_REMOTE_BATT_LVL_MID:
 207:.\Lights.c    **** 				PinLedRemoteBattLevelMed_Write(!PinLedRemoteBattLevelMed_Read());
 624              		.loc 1 207 0
 625 00d6 FFF7FEFF 		bl	PinLedRemoteBattLevelMed_Read
 626 00da 0346     		mov	r3, r0
 627 00dc 002B     		cmp	r3, #0
 628 00de 14BF     		ite	ne
 629 00e0 0023     		movne	r3, #0
 630 00e2 0123     		moveq	r3, #1
 631 00e4 1846     		mov	r0, r3
 632 00e6 FFF7FEFF 		bl	PinLedRemoteBattLevelMed_Write
 208:.\Lights.c    **** 			break;
 633              		.loc 1 208 0
 634 00ea 09E0     		b	.L49
 635              	.L47:
 209:.\Lights.c    **** 		case LED_REMOTE_BATT_LVL_BOT:
 210:.\Lights.c    **** 				PinLedRemoteBattLevelLow_Write(!PinLedRemoteBattLevelLow_Read());
 636              		.loc 1 210 0
 637 00ec FFF7FEFF 		bl	PinLedRemoteBattLevelLow_Read
ARM GAS  C:\Users\Geo\AppData\Local\Temp\ccBZ9s64.s 			page 16


 638 00f0 0346     		mov	r3, r0
 639 00f2 002B     		cmp	r3, #0
 640 00f4 14BF     		ite	ne
 641 00f6 0023     		movne	r3, #0
 642 00f8 0123     		moveq	r3, #1
 643 00fa 1846     		mov	r0, r3
 644 00fc FFF7FEFF 		bl	PinLedRemoteBattLevelLow_Write
 645              	.L49:
 211:.\Lights.c    **** 			break;
 212:.\Lights.c    **** 	}
 213:.\Lights.c    **** }
 646              		.loc 1 213 0
 647 0100 07F10807 		add	r7, r7, #8
 648 0104 BD46     		mov	sp, r7
 649 0106 80BD     		pop	{r7, pc}
 650              		.cfi_endproc
 651              	.LFE35:
 652              		.size	Lights_ToggleLed, .-Lights_ToggleLed
 653              		.bss
 654              		.align	2
 655              	counter.3051:
 656 0024 00000000 		.space	4
 657              		.text
 658              	.Letext0: