ARM GAS  C:\Users\Geo\AppData\Local\Temp\ccRt48Or.s 			page 1


   1              		.syntax unified
   2              		.cpu cortex-m3
   3              		.fpu softvfp
   4              		.eabi_attribute 20, 1
   5              		.eabi_attribute 21, 1
   6              		.eabi_attribute 23, 3
   7              		.eabi_attribute 24, 1
   8              		.eabi_attribute 25, 1
   9              		.eabi_attribute 26, 1
  10              		.eabi_attribute 30, 6
  11              		.eabi_attribute 18, 4
  12              		.thumb
  13              		.file	"SleepTimer.c"
  20 0000 0D010000 		.text
  20      02006200 
  20      00000201 
  20      FB0E0D00 
  20      01010101 
  21              	.Ltext0:
  22              		.cfi_sections	.debug_frame
  23              		.global	SleepTimer_initVar
  24              		.bss
  25              		.type	SleepTimer_initVar, %object
  26              		.size	SleepTimer_initVar, 1
  27              	SleepTimer_initVar:
  28 0000 00       		.space	1
  29              		.section	.text.SleepTimer_Start,"ax",%progbits
  30              		.align	2
  31              		.global	SleepTimer_Start
  32              		.thumb
  33              		.thumb_func
  34              		.type	SleepTimer_Start, %function
  35              	SleepTimer_Start:
  36              	.LFB0:
  37              		.file 1 ".\\Generated_Source\\PSoC5\\SleepTimer.c"
   1:.\Generated_Source\PSoC5/SleepTimer.c **** /*******************************************************************************
   2:.\Generated_Source\PSoC5/SleepTimer.c **** * File Name: SleepTimer.c
   3:.\Generated_Source\PSoC5/SleepTimer.c **** * Version 2.1
   4:.\Generated_Source\PSoC5/SleepTimer.c **** *
   5:.\Generated_Source\PSoC5/SleepTimer.c **** * Description:
   6:.\Generated_Source\PSoC5/SleepTimer.c **** *  This file provides the source code to API for the Sleep Timer.
   7:.\Generated_Source\PSoC5/SleepTimer.c **** *
   8:.\Generated_Source\PSoC5/SleepTimer.c **** ********************************************************************************
   9:.\Generated_Source\PSoC5/SleepTimer.c **** * Copyright 2008-2012, Cypress Semiconductor Corporation.  All rights reserved.
  10:.\Generated_Source\PSoC5/SleepTimer.c **** * You may use this file only in accordance with the license, terms, conditions,
  11:.\Generated_Source\PSoC5/SleepTimer.c **** * disclaimers, and limitations in the end user license agreement accompanying
  12:.\Generated_Source\PSoC5/SleepTimer.c **** * the software package with which this file was provided.
  13:.\Generated_Source\PSoC5/SleepTimer.c **** *******************************************************************************/
  14:.\Generated_Source\PSoC5/SleepTimer.c **** 
  15:.\Generated_Source\PSoC5/SleepTimer.c **** #include "SleepTimer.h"
  16:.\Generated_Source\PSoC5/SleepTimer.c **** #include "CyLib.h"
ARM GAS  C:\Users\Geo\AppData\Local\Temp\ccRt48Or.s 			page 2


  17:.\Generated_Source\PSoC5/SleepTimer.c **** 
  18:.\Generated_Source\PSoC5/SleepTimer.c **** /* Variables were not initialized */
  19:.\Generated_Source\PSoC5/SleepTimer.c **** uint8 SleepTimer_initVar = 0u;
  20:.\Generated_Source\PSoC5/SleepTimer.c **** 
  21:.\Generated_Source\PSoC5/SleepTimer.c **** 
  22:.\Generated_Source\PSoC5/SleepTimer.c **** /*******************************************************************************
  23:.\Generated_Source\PSoC5/SleepTimer.c **** * Function Name: SleepTimer_Start
  24:.\Generated_Source\PSoC5/SleepTimer.c **** ********************************************************************************
  25:.\Generated_Source\PSoC5/SleepTimer.c **** *
  26:.\Generated_Source\PSoC5/SleepTimer.c **** * Summary:
  27:.\Generated_Source\PSoC5/SleepTimer.c **** *  Starts the Sleep Timer operation. If this function is called, then the
  28:.\Generated_Source\PSoC5/SleepTimer.c **** *  component will be initialized with values defined in the customizer. If
  29:.\Generated_Source\PSoC5/SleepTimer.c **** *  parameters need to be changed, then stop component, change needed parameters
  30:.\Generated_Source\PSoC5/SleepTimer.c **** *  by calling the desired API functions, and restart the component.
  31:.\Generated_Source\PSoC5/SleepTimer.c **** *
  32:.\Generated_Source\PSoC5/SleepTimer.c **** * Parameters:
  33:.\Generated_Source\PSoC5/SleepTimer.c **** *  None
  34:.\Generated_Source\PSoC5/SleepTimer.c **** *
  35:.\Generated_Source\PSoC5/SleepTimer.c **** * Return:
  36:.\Generated_Source\PSoC5/SleepTimer.c **** *  None
  37:.\Generated_Source\PSoC5/SleepTimer.c **** *
  38:.\Generated_Source\PSoC5/SleepTimer.c **** * Global variables:
  39:.\Generated_Source\PSoC5/SleepTimer.c **** *  The SleepTimer_initVar variable is used to indicate initial
  40:.\Generated_Source\PSoC5/SleepTimer.c **** *  configuration of this component.  The variable is initialized to zero and
  41:.\Generated_Source\PSoC5/SleepTimer.c **** *  set to 1 the first time SleepTimer_Start() is called. This allows for
  42:.\Generated_Source\PSoC5/SleepTimer.c **** *  component initialization without re-initialization in all subsequent calls
  43:.\Generated_Source\PSoC5/SleepTimer.c **** *  to the SleepTimer_Start() routine.
  44:.\Generated_Source\PSoC5/SleepTimer.c **** *
  45:.\Generated_Source\PSoC5/SleepTimer.c **** * Reentrant:
  46:.\Generated_Source\PSoC5/SleepTimer.c **** *  No
  47:.\Generated_Source\PSoC5/SleepTimer.c **** *
  48:.\Generated_Source\PSoC5/SleepTimer.c **** * Side Effects:
  49:.\Generated_Source\PSoC5/SleepTimer.c **** *  Enables 1 kHz ILO clock and leaves it enabled after the Sleep Time component
  50:.\Generated_Source\PSoC5/SleepTimer.c **** *  is stopped.
  51:.\Generated_Source\PSoC5/SleepTimer.c **** *
  52:.\Generated_Source\PSoC5/SleepTimer.c **** *******************************************************************************/
  53:.\Generated_Source\PSoC5/SleepTimer.c **** void SleepTimer_Start(void) 
  54:.\Generated_Source\PSoC5/SleepTimer.c **** {
  38              		.loc 1 54 0
  39              		.cfi_startproc
  40              		@ args = 0, pretend = 0, frame = 0
  41              		@ frame_needed = 1, uses_anonymous_args = 0
  42 0000 80B5     		push	{r7, lr}
  43              	.LCFI0:
  44              		.cfi_def_cfa_offset 8
  45 0002 00AF     		add	r7, sp, #0
  46              		.cfi_offset 14, -4
  47              		.cfi_offset 7, -8
  48              	.LCFI1:
  49              		.cfi_def_cfa_register 7
  55:.\Generated_Source\PSoC5/SleepTimer.c ****     /* Execute once in normal flow */
  56:.\Generated_Source\PSoC5/SleepTimer.c ****     if (0u == SleepTimer_initVar)
  50              		.loc 1 56 0
  51 0004 40F20003 		movw	r3, #:lower16:SleepTimer_initVar
  52 0008 C0F20003 		movt	r3, #:upper16:SleepTimer_initVar
  53 000c 1B78     		ldrb	r3, [r3, #0]	@ zero_extendqisi2
  54 000e 002B     		cmp	r3, #0
ARM GAS  C:\Users\Geo\AppData\Local\Temp\ccRt48Or.s 			page 3


  55 0010 08D1     		bne	.L2
  57:.\Generated_Source\PSoC5/SleepTimer.c ****     {
  58:.\Generated_Source\PSoC5/SleepTimer.c ****         SleepTimer_Init();
  56              		.loc 1 58 0
  57 0012 FFF7FEFF 		bl	SleepTimer_Init
  59:.\Generated_Source\PSoC5/SleepTimer.c ****         SleepTimer_initVar = 1u;
  58              		.loc 1 59 0
  59 0016 40F20003 		movw	r3, #:lower16:SleepTimer_initVar
  60 001a C0F20003 		movt	r3, #:upper16:SleepTimer_initVar
  61 001e 4FF00102 		mov	r2, #1
  62 0022 1A70     		strb	r2, [r3, #0]
  63              	.L2:
  60:.\Generated_Source\PSoC5/SleepTimer.c ****     }
  61:.\Generated_Source\PSoC5/SleepTimer.c **** 
  62:.\Generated_Source\PSoC5/SleepTimer.c ****     /* Enables the component operation */
  63:.\Generated_Source\PSoC5/SleepTimer.c ****     SleepTimer_Enable();
  64              		.loc 1 63 0
  65 0024 FFF7FEFF 		bl	SleepTimer_Enable
  64:.\Generated_Source\PSoC5/SleepTimer.c **** }
  66              		.loc 1 64 0
  67 0028 80BD     		pop	{r7, pc}
  68              		.cfi_endproc
  69              	.LFE0:
  70              		.size	SleepTimer_Start, .-SleepTimer_Start
  71 002a 00BF     		.section	.text.SleepTimer_Init,"ax",%progbits
  72              		.align	2
  73              		.global	SleepTimer_Init
  74              		.thumb
  75              		.thumb_func
  76              		.type	SleepTimer_Init, %function
  77              	SleepTimer_Init:
  78              	.LFB1:
  65:.\Generated_Source\PSoC5/SleepTimer.c **** 
  66:.\Generated_Source\PSoC5/SleepTimer.c **** 
  67:.\Generated_Source\PSoC5/SleepTimer.c **** /*******************************************************************************
  68:.\Generated_Source\PSoC5/SleepTimer.c **** * Function Name: SleepTimer_Init
  69:.\Generated_Source\PSoC5/SleepTimer.c **** ********************************************************************************
  70:.\Generated_Source\PSoC5/SleepTimer.c **** *
  71:.\Generated_Source\PSoC5/SleepTimer.c **** * Summary:
  72:.\Generated_Source\PSoC5/SleepTimer.c **** *  Initializes/Restores default configuration provided with the customizer.
  73:.\Generated_Source\PSoC5/SleepTimer.c **** *  Sets CTW interval period and enables/disables CTW interrupt (according to
  74:.\Generated_Source\PSoC5/SleepTimer.c **** *  the customizer's settings).
  75:.\Generated_Source\PSoC5/SleepTimer.c **** *
  76:.\Generated_Source\PSoC5/SleepTimer.c **** * Parameters:
  77:.\Generated_Source\PSoC5/SleepTimer.c **** *  None
  78:.\Generated_Source\PSoC5/SleepTimer.c **** *
  79:.\Generated_Source\PSoC5/SleepTimer.c **** * Return:
  80:.\Generated_Source\PSoC5/SleepTimer.c **** *  None
  81:.\Generated_Source\PSoC5/SleepTimer.c **** *
  82:.\Generated_Source\PSoC5/SleepTimer.c **** *******************************************************************************/
  83:.\Generated_Source\PSoC5/SleepTimer.c **** void SleepTimer_Init(void)  
  84:.\Generated_Source\PSoC5/SleepTimer.c **** {
  79              		.loc 1 84 0
  80              		.cfi_startproc
  81              		@ args = 0, pretend = 0, frame = 0
  82              		@ frame_needed = 1, uses_anonymous_args = 0
  83 0000 80B5     		push	{r7, lr}
ARM GAS  C:\Users\Geo\AppData\Local\Temp\ccRt48Or.s 			page 4


  84              	.LCFI2:
  85              		.cfi_def_cfa_offset 8
  86 0002 00AF     		add	r7, sp, #0
  87              		.cfi_offset 14, -4
  88              		.cfi_offset 7, -8
  89              	.LCFI3:
  90              		.cfi_def_cfa_register 7
  85:.\Generated_Source\PSoC5/SleepTimer.c ****     /* Sets default (passed from customizer) interval */
  86:.\Generated_Source\PSoC5/SleepTimer.c ****     SleepTimer_SetInterval(SleepTimer_INTERVAL);
  91              		.loc 1 86 0
  92 0004 4FF00300 		mov	r0, #3
  93 0008 FFF7FEFF 		bl	SleepTimer_SetInterval
  87:.\Generated_Source\PSoC5/SleepTimer.c **** 
  88:.\Generated_Source\PSoC5/SleepTimer.c ****     /* Check if user sets to issue an interrupt in customizer */
  89:.\Generated_Source\PSoC5/SleepTimer.c ****     if (1u == SleepTimer_ENABLE_INTERRUPT)
  90:.\Generated_Source\PSoC5/SleepTimer.c ****     {
  91:.\Generated_Source\PSoC5/SleepTimer.c ****         /* Enable interrupt */
  92:.\Generated_Source\PSoC5/SleepTimer.c ****         SleepTimer_EnableInt();
  94              		.loc 1 92 0
  95 000c FFF7FEFF 		bl	SleepTimer_EnableInt
  93:.\Generated_Source\PSoC5/SleepTimer.c ****     }
  94:.\Generated_Source\PSoC5/SleepTimer.c ****     else /* interrupt should be disabled */
  95:.\Generated_Source\PSoC5/SleepTimer.c ****     {
  96:.\Generated_Source\PSoC5/SleepTimer.c ****         /* Disable interrupt */
  97:.\Generated_Source\PSoC5/SleepTimer.c ****         SleepTimer_DisableInt();
  98:.\Generated_Source\PSoC5/SleepTimer.c ****     }   /* Interrupt is disabled  */
  99:.\Generated_Source\PSoC5/SleepTimer.c **** }
  96              		.loc 1 99 0
  97 0010 80BD     		pop	{r7, pc}
  98              		.cfi_endproc
  99              	.LFE1:
 100              		.size	SleepTimer_Init, .-SleepTimer_Init
 101 0012 00BF     		.section	.text.SleepTimer_Enable,"ax",%progbits
 102              		.align	2
 103              		.global	SleepTimer_Enable
 104              		.thumb
 105              		.thumb_func
 106              		.type	SleepTimer_Enable, %function
 107              	SleepTimer_Enable:
 108              	.LFB2:
 100:.\Generated_Source\PSoC5/SleepTimer.c **** 
 101:.\Generated_Source\PSoC5/SleepTimer.c **** 
 102:.\Generated_Source\PSoC5/SleepTimer.c **** /*******************************************************************************
 103:.\Generated_Source\PSoC5/SleepTimer.c **** * Function Name: SleepTimer_Enable
 104:.\Generated_Source\PSoC5/SleepTimer.c **** ********************************************************************************
 105:.\Generated_Source\PSoC5/SleepTimer.c **** * Summary:
 106:.\Generated_Source\PSoC5/SleepTimer.c **** *  Enables the 1kHz ILO clock, enables the CTW counter.
 107:.\Generated_Source\PSoC5/SleepTimer.c **** *
 108:.\Generated_Source\PSoC5/SleepTimer.c **** * Parameters:
 109:.\Generated_Source\PSoC5/SleepTimer.c **** *  None
 110:.\Generated_Source\PSoC5/SleepTimer.c **** *
 111:.\Generated_Source\PSoC5/SleepTimer.c **** * Return:
 112:.\Generated_Source\PSoC5/SleepTimer.c **** *  None
 113:.\Generated_Source\PSoC5/SleepTimer.c **** *
 114:.\Generated_Source\PSoC5/SleepTimer.c **** * Side Effects:
 115:.\Generated_Source\PSoC5/SleepTimer.c **** *  Enables 1 kHz ILO clocks and leaves it enabled after Sleep Time component
 116:.\Generated_Source\PSoC5/SleepTimer.c **** *  is stopped.
ARM GAS  C:\Users\Geo\AppData\Local\Temp\ccRt48Or.s 			page 5


 117:.\Generated_Source\PSoC5/SleepTimer.c **** *
 118:.\Generated_Source\PSoC5/SleepTimer.c **** *******************************************************************************/
 119:.\Generated_Source\PSoC5/SleepTimer.c **** void SleepTimer_Enable(void) 
 120:.\Generated_Source\PSoC5/SleepTimer.c **** {
 109              		.loc 1 120 0
 110              		.cfi_startproc
 111              		@ args = 0, pretend = 0, frame = 8
 112              		@ frame_needed = 1, uses_anonymous_args = 0
 113 0000 80B5     		push	{r7, lr}
 114              	.LCFI4:
 115              		.cfi_def_cfa_offset 8
 116 0002 82B0     		sub	sp, sp, #8
 117              	.LCFI5:
 118              		.cfi_def_cfa_offset 16
 119 0004 00AF     		add	r7, sp, #0
 120              		.cfi_offset 14, -4
 121              		.cfi_offset 7, -8
 122              	.LCFI6:
 123              		.cfi_def_cfa_register 7
 121:.\Generated_Source\PSoC5/SleepTimer.c ****     uint8 interruptState;
 122:.\Generated_Source\PSoC5/SleepTimer.c **** 
 123:.\Generated_Source\PSoC5/SleepTimer.c ****     /* If 1kHz ILO is disabled */
 124:.\Generated_Source\PSoC5/SleepTimer.c ****     if(0u == (SleepTimer_ILO_CFG_REG & SleepTimer_ILO_1KHZ_EN))
 124              		.loc 1 124 0
 125 0006 44F20033 		movw	r3, #:lower16:1073758976
 126 000a C4F20003 		movt	r3, #:upper16:1073758976
 127 000e 1B78     		ldrb	r3, [r3, #0]
 128 0010 DBB2     		uxtb	r3, r3
 129 0012 03F00203 		and	r3, r3, #2
 130 0016 002B     		cmp	r3, #0
 131 0018 24D1     		bne	.L7
 125:.\Generated_Source\PSoC5/SleepTimer.c ****     {
 126:.\Generated_Source\PSoC5/SleepTimer.c ****         /* Enter critical section */
 127:.\Generated_Source\PSoC5/SleepTimer.c ****         interruptState = CyEnterCriticalSection();
 132              		.loc 1 127 0
 133 001a FFF7FEFF 		bl	CyEnterCriticalSection
 134 001e 0346     		mov	r3, r0
 135 0020 FB71     		strb	r3, [r7, #7]
 128:.\Generated_Source\PSoC5/SleepTimer.c **** 
 129:.\Generated_Source\PSoC5/SleepTimer.c ****         /* Enable 1kHz ILO */
 130:.\Generated_Source\PSoC5/SleepTimer.c ****         SleepTimer_ILO_CFG_REG |=SleepTimer_ILO_1KHZ_EN;
 136              		.loc 1 130 0
 137 0022 44F20033 		movw	r3, #:lower16:1073758976
 138 0026 C4F20003 		movt	r3, #:upper16:1073758976
 139 002a 44F20032 		movw	r2, #:lower16:1073758976
 140 002e C4F20002 		movt	r2, #:upper16:1073758976
 141 0032 1278     		ldrb	r2, [r2, #0]
 142 0034 D2B2     		uxtb	r2, r2
 143 0036 42F00202 		orr	r2, r2, #2
 144 003a D2B2     		uxtb	r2, r2
 145 003c 1A70     		strb	r2, [r3, #0]
 131:.\Generated_Source\PSoC5/SleepTimer.c **** 
 132:.\Generated_Source\PSoC5/SleepTimer.c ****         /* Enable the CTW counter */
 133:.\Generated_Source\PSoC5/SleepTimer.c ****         SleepTimer_TW_CFG_REG |= SleepTimer_CTW_EN;
 146              		.loc 1 133 0
 147 003e 44F28233 		movw	r3, #:lower16:1073759106
 148 0042 C4F20003 		movt	r3, #:upper16:1073759106
ARM GAS  C:\Users\Geo\AppData\Local\Temp\ccRt48Or.s 			page 6


 149 0046 44F28232 		movw	r2, #:lower16:1073759106
 150 004a C4F20002 		movt	r2, #:upper16:1073759106
 151 004e 1278     		ldrb	r2, [r2, #0]
 152 0050 D2B2     		uxtb	r2, r2
 153 0052 42F00402 		orr	r2, r2, #4
 154 0056 D2B2     		uxtb	r2, r2
 155 0058 1A70     		strb	r2, [r3, #0]
 134:.\Generated_Source\PSoC5/SleepTimer.c **** 
 135:.\Generated_Source\PSoC5/SleepTimer.c ****         /* Exit critical section */
 136:.\Generated_Source\PSoC5/SleepTimer.c ****         CyExitCriticalSection(interruptState);
 156              		.loc 1 136 0
 157 005a FB79     		ldrb	r3, [r7, #7]	@ zero_extendqisi2
 158 005c 1846     		mov	r0, r3
 159 005e FFF7FEFF 		bl	CyExitCriticalSection
 160 0062 15E0     		b	.L9
 161              	.L7:
 137:.\Generated_Source\PSoC5/SleepTimer.c ****     }
 138:.\Generated_Source\PSoC5/SleepTimer.c ****     else /* If 1kHz ILO is enabled - enable CTW counter */
 139:.\Generated_Source\PSoC5/SleepTimer.c ****     {
 140:.\Generated_Source\PSoC5/SleepTimer.c ****         /* Enter critical section */
 141:.\Generated_Source\PSoC5/SleepTimer.c ****         interruptState = CyEnterCriticalSection();
 162              		.loc 1 141 0
 163 0064 FFF7FEFF 		bl	CyEnterCriticalSection
 164 0068 0346     		mov	r3, r0
 165 006a FB71     		strb	r3, [r7, #7]
 142:.\Generated_Source\PSoC5/SleepTimer.c **** 
 143:.\Generated_Source\PSoC5/SleepTimer.c ****         /* Enable the CTW counter */
 144:.\Generated_Source\PSoC5/SleepTimer.c ****         SleepTimer_TW_CFG_REG |= SleepTimer_CTW_EN;
 166              		.loc 1 144 0
 167 006c 44F28233 		movw	r3, #:lower16:1073759106
 168 0070 C4F20003 		movt	r3, #:upper16:1073759106
 169 0074 44F28232 		movw	r2, #:lower16:1073759106
 170 0078 C4F20002 		movt	r2, #:upper16:1073759106
 171 007c 1278     		ldrb	r2, [r2, #0]
 172 007e D2B2     		uxtb	r2, r2
 173 0080 42F00402 		orr	r2, r2, #4
 174 0084 D2B2     		uxtb	r2, r2
 175 0086 1A70     		strb	r2, [r3, #0]
 145:.\Generated_Source\PSoC5/SleepTimer.c **** 
 146:.\Generated_Source\PSoC5/SleepTimer.c ****         /* Exit critical section */
 147:.\Generated_Source\PSoC5/SleepTimer.c ****         CyExitCriticalSection(interruptState);
 176              		.loc 1 147 0
 177 0088 FB79     		ldrb	r3, [r7, #7]	@ zero_extendqisi2
 178 008a 1846     		mov	r0, r3
 179 008c FFF7FEFF 		bl	CyExitCriticalSection
 180              	.L9:
 148:.\Generated_Source\PSoC5/SleepTimer.c ****     }
 149:.\Generated_Source\PSoC5/SleepTimer.c **** }
 181              		.loc 1 149 0
 182 0090 07F10807 		add	r7, r7, #8
 183 0094 BD46     		mov	sp, r7
 184 0096 80BD     		pop	{r7, pc}
 185              		.cfi_endproc
 186              	.LFE2:
 187              		.size	SleepTimer_Enable, .-SleepTimer_Enable
 188              		.section	.text.SleepTimer_Stop,"ax",%progbits
 189              		.align	2
ARM GAS  C:\Users\Geo\AppData\Local\Temp\ccRt48Or.s 			page 7


 190              		.global	SleepTimer_Stop
 191              		.thumb
 192              		.thumb_func
 193              		.type	SleepTimer_Stop, %function
 194              	SleepTimer_Stop:
 195              	.LFB3:
 150:.\Generated_Source\PSoC5/SleepTimer.c **** 
 151:.\Generated_Source\PSoC5/SleepTimer.c **** 
 152:.\Generated_Source\PSoC5/SleepTimer.c **** /*******************************************************************************
 153:.\Generated_Source\PSoC5/SleepTimer.c **** * Function Name: SleepTimer_Stop
 154:.\Generated_Source\PSoC5/SleepTimer.c **** ********************************************************************************
 155:.\Generated_Source\PSoC5/SleepTimer.c **** *
 156:.\Generated_Source\PSoC5/SleepTimer.c **** * Summary:
 157:.\Generated_Source\PSoC5/SleepTimer.c **** *  Stops the Sleep Timer operation: disables wake up on the Central Time Wheel
 158:.\Generated_Source\PSoC5/SleepTimer.c **** *  (CTW) counter terminal count reached.
 159:.\Generated_Source\PSoC5/SleepTimer.c **** *
 160:.\Generated_Source\PSoC5/SleepTimer.c **** * Parameters:
 161:.\Generated_Source\PSoC5/SleepTimer.c **** *  None
 162:.\Generated_Source\PSoC5/SleepTimer.c **** *
 163:.\Generated_Source\PSoC5/SleepTimer.c **** * Return:
 164:.\Generated_Source\PSoC5/SleepTimer.c **** *  None
 165:.\Generated_Source\PSoC5/SleepTimer.c **** *
 166:.\Generated_Source\PSoC5/SleepTimer.c **** * Side Effects:
 167:.\Generated_Source\PSoC5/SleepTimer.c **** *  Leaves the 1 kHz ILO clock enabled after Sleep Time component is stopped.
 168:.\Generated_Source\PSoC5/SleepTimer.c **** *
 169:.\Generated_Source\PSoC5/SleepTimer.c **** *******************************************************************************/
 170:.\Generated_Source\PSoC5/SleepTimer.c **** void SleepTimer_Stop(void) 
 171:.\Generated_Source\PSoC5/SleepTimer.c **** {
 196              		.loc 1 171 0
 197              		.cfi_startproc
 198              		@ args = 0, pretend = 0, frame = 8
 199              		@ frame_needed = 1, uses_anonymous_args = 0
 200 0000 80B5     		push	{r7, lr}
 201              	.LCFI7:
 202              		.cfi_def_cfa_offset 8
 203 0002 82B0     		sub	sp, sp, #8
 204              	.LCFI8:
 205              		.cfi_def_cfa_offset 16
 206 0004 00AF     		add	r7, sp, #0
 207              		.cfi_offset 14, -4
 208              		.cfi_offset 7, -8
 209              	.LCFI9:
 210              		.cfi_def_cfa_register 7
 172:.\Generated_Source\PSoC5/SleepTimer.c ****     uint8 interruptState;
 173:.\Generated_Source\PSoC5/SleepTimer.c **** 
 174:.\Generated_Source\PSoC5/SleepTimer.c ****     /* Enter critical section */
 175:.\Generated_Source\PSoC5/SleepTimer.c ****     interruptState = CyEnterCriticalSection();
 211              		.loc 1 175 0
 212 0006 FFF7FEFF 		bl	CyEnterCriticalSection
 213 000a 0346     		mov	r3, r0
 214 000c FB71     		strb	r3, [r7, #7]
 176:.\Generated_Source\PSoC5/SleepTimer.c **** 
 177:.\Generated_Source\PSoC5/SleepTimer.c ****     /* Disable CTW counter */
 178:.\Generated_Source\PSoC5/SleepTimer.c ****     SleepTimer_TW_CFG_REG &= ~SleepTimer_CTW_EN;
 215              		.loc 1 178 0
 216 000e 44F28233 		movw	r3, #:lower16:1073759106
 217 0012 C4F20003 		movt	r3, #:upper16:1073759106
ARM GAS  C:\Users\Geo\AppData\Local\Temp\ccRt48Or.s 			page 8


 218 0016 44F28232 		movw	r2, #:lower16:1073759106
 219 001a C4F20002 		movt	r2, #:upper16:1073759106
 220 001e 1278     		ldrb	r2, [r2, #0]
 221 0020 D2B2     		uxtb	r2, r2
 222 0022 02F0FB02 		and	r2, r2, #251
 223 0026 1A70     		strb	r2, [r3, #0]
 179:.\Generated_Source\PSoC5/SleepTimer.c **** 
 180:.\Generated_Source\PSoC5/SleepTimer.c ****     /* Exit critical section */
 181:.\Generated_Source\PSoC5/SleepTimer.c ****     CyExitCriticalSection(interruptState);
 224              		.loc 1 181 0
 225 0028 FB79     		ldrb	r3, [r7, #7]	@ zero_extendqisi2
 226 002a 1846     		mov	r0, r3
 227 002c FFF7FEFF 		bl	CyExitCriticalSection
 182:.\Generated_Source\PSoC5/SleepTimer.c **** }
 228              		.loc 1 182 0
 229 0030 07F10807 		add	r7, r7, #8
 230 0034 BD46     		mov	sp, r7
 231 0036 80BD     		pop	{r7, pc}
 232              		.cfi_endproc
 233              	.LFE3:
 234              		.size	SleepTimer_Stop, .-SleepTimer_Stop
 235              		.section	.text.SleepTimer_EnableInt,"ax",%progbits
 236              		.align	2
 237              		.global	SleepTimer_EnableInt
 238              		.thumb
 239              		.thumb_func
 240              		.type	SleepTimer_EnableInt, %function
 241              	SleepTimer_EnableInt:
 242              	.LFB4:
 183:.\Generated_Source\PSoC5/SleepTimer.c **** 
 184:.\Generated_Source\PSoC5/SleepTimer.c **** 
 185:.\Generated_Source\PSoC5/SleepTimer.c **** /*******************************************************************************
 186:.\Generated_Source\PSoC5/SleepTimer.c **** * Function Name: SleepTimer_EnableInt
 187:.\Generated_Source\PSoC5/SleepTimer.c **** ********************************************************************************
 188:.\Generated_Source\PSoC5/SleepTimer.c **** *
 189:.\Generated_Source\PSoC5/SleepTimer.c **** * Summary:
 190:.\Generated_Source\PSoC5/SleepTimer.c **** *  Enables interrupt on the Central Time Wheel (CTW) terminal count reached.
 191:.\Generated_Source\PSoC5/SleepTimer.c **** *
 192:.\Generated_Source\PSoC5/SleepTimer.c **** * Parameters:
 193:.\Generated_Source\PSoC5/SleepTimer.c **** *  None
 194:.\Generated_Source\PSoC5/SleepTimer.c **** *
 195:.\Generated_Source\PSoC5/SleepTimer.c **** * Return:
 196:.\Generated_Source\PSoC5/SleepTimer.c **** *  None
 197:.\Generated_Source\PSoC5/SleepTimer.c **** *
 198:.\Generated_Source\PSoC5/SleepTimer.c **** *******************************************************************************/
 199:.\Generated_Source\PSoC5/SleepTimer.c **** void SleepTimer_EnableInt(void) 
 200:.\Generated_Source\PSoC5/SleepTimer.c **** {
 243              		.loc 1 200 0
 244              		.cfi_startproc
 245              		@ args = 0, pretend = 0, frame = 8
 246              		@ frame_needed = 1, uses_anonymous_args = 0
 247 0000 80B5     		push	{r7, lr}
 248              	.LCFI10:
 249              		.cfi_def_cfa_offset 8
 250 0002 82B0     		sub	sp, sp, #8
 251              	.LCFI11:
 252              		.cfi_def_cfa_offset 16
ARM GAS  C:\Users\Geo\AppData\Local\Temp\ccRt48Or.s 			page 9


 253 0004 00AF     		add	r7, sp, #0
 254              		.cfi_offset 14, -4
 255              		.cfi_offset 7, -8
 256              	.LCFI12:
 257              		.cfi_def_cfa_register 7
 201:.\Generated_Source\PSoC5/SleepTimer.c ****     uint8 interruptState;
 202:.\Generated_Source\PSoC5/SleepTimer.c **** 
 203:.\Generated_Source\PSoC5/SleepTimer.c ****     /* Enter critical section */
 204:.\Generated_Source\PSoC5/SleepTimer.c ****     interruptState = CyEnterCriticalSection();
 258              		.loc 1 204 0
 259 0006 FFF7FEFF 		bl	CyEnterCriticalSection
 260 000a 0346     		mov	r3, r0
 261 000c FB71     		strb	r3, [r7, #7]
 205:.\Generated_Source\PSoC5/SleepTimer.c **** 
 206:.\Generated_Source\PSoC5/SleepTimer.c ****      /* Enable interrupt on wake up */
 207:.\Generated_Source\PSoC5/SleepTimer.c ****     SleepTimer_TW_CFG_REG |= SleepTimer_CTW_IE;
 262              		.loc 1 207 0
 263 000e 44F28233 		movw	r3, #:lower16:1073759106
 264 0012 C4F20003 		movt	r3, #:upper16:1073759106
 265 0016 44F28232 		movw	r2, #:lower16:1073759106
 266 001a C4F20002 		movt	r2, #:upper16:1073759106
 267 001e 1278     		ldrb	r2, [r2, #0]
 268 0020 D2B2     		uxtb	r2, r2
 269 0022 42F00802 		orr	r2, r2, #8
 270 0026 D2B2     		uxtb	r2, r2
 271 0028 1A70     		strb	r2, [r3, #0]
 208:.\Generated_Source\PSoC5/SleepTimer.c **** 
 209:.\Generated_Source\PSoC5/SleepTimer.c ****     /* Exit critical section */
 210:.\Generated_Source\PSoC5/SleepTimer.c ****     CyExitCriticalSection(interruptState);
 272              		.loc 1 210 0
 273 002a FB79     		ldrb	r3, [r7, #7]	@ zero_extendqisi2
 274 002c 1846     		mov	r0, r3
 275 002e FFF7FEFF 		bl	CyExitCriticalSection
 211:.\Generated_Source\PSoC5/SleepTimer.c **** }
 276              		.loc 1 211 0
 277 0032 07F10807 		add	r7, r7, #8
 278 0036 BD46     		mov	sp, r7
 279 0038 80BD     		pop	{r7, pc}
 280              		.cfi_endproc
 281              	.LFE4:
 282              		.size	SleepTimer_EnableInt, .-SleepTimer_EnableInt
 283 003a 00BF     		.section	.text.SleepTimer_DisableInt,"ax",%progbits
 284              		.align	2
 285              		.global	SleepTimer_DisableInt
 286              		.thumb
 287              		.thumb_func
 288              		.type	SleepTimer_DisableInt, %function
 289              	SleepTimer_DisableInt:
 290              	.LFB5:
 212:.\Generated_Source\PSoC5/SleepTimer.c **** 
 213:.\Generated_Source\PSoC5/SleepTimer.c **** 
 214:.\Generated_Source\PSoC5/SleepTimer.c **** /*******************************************************************************
 215:.\Generated_Source\PSoC5/SleepTimer.c **** * Function Name: SleepTimer_DisableInt
 216:.\Generated_Source\PSoC5/SleepTimer.c **** ********************************************************************************
 217:.\Generated_Source\PSoC5/SleepTimer.c **** *
 218:.\Generated_Source\PSoC5/SleepTimer.c **** * Summary:
 219:.\Generated_Source\PSoC5/SleepTimer.c **** *  Disables interrupt on the Central Time Wheel (CTW) terminal count reached.
ARM GAS  C:\Users\Geo\AppData\Local\Temp\ccRt48Or.s 			page 10


 220:.\Generated_Source\PSoC5/SleepTimer.c **** *
 221:.\Generated_Source\PSoC5/SleepTimer.c **** * Parameters:
 222:.\Generated_Source\PSoC5/SleepTimer.c **** *  None
 223:.\Generated_Source\PSoC5/SleepTimer.c **** *
 224:.\Generated_Source\PSoC5/SleepTimer.c **** * Return:
 225:.\Generated_Source\PSoC5/SleepTimer.c **** *  None
 226:.\Generated_Source\PSoC5/SleepTimer.c **** *
 227:.\Generated_Source\PSoC5/SleepTimer.c **** *******************************************************************************/
 228:.\Generated_Source\PSoC5/SleepTimer.c **** void SleepTimer_DisableInt(void) 
 229:.\Generated_Source\PSoC5/SleepTimer.c **** {
 291              		.loc 1 229 0
 292              		.cfi_startproc
 293              		@ args = 0, pretend = 0, frame = 8
 294              		@ frame_needed = 1, uses_anonymous_args = 0
 295 0000 80B5     		push	{r7, lr}
 296              	.LCFI13:
 297              		.cfi_def_cfa_offset 8
 298 0002 82B0     		sub	sp, sp, #8
 299              	.LCFI14:
 300              		.cfi_def_cfa_offset 16
 301 0004 00AF     		add	r7, sp, #0
 302              		.cfi_offset 14, -4
 303              		.cfi_offset 7, -8
 304              	.LCFI15:
 305              		.cfi_def_cfa_register 7
 230:.\Generated_Source\PSoC5/SleepTimer.c ****     uint8 interruptState;
 231:.\Generated_Source\PSoC5/SleepTimer.c **** 
 232:.\Generated_Source\PSoC5/SleepTimer.c ****     /* Enter critical section */
 233:.\Generated_Source\PSoC5/SleepTimer.c ****     interruptState = CyEnterCriticalSection();
 306              		.loc 1 233 0
 307 0006 FFF7FEFF 		bl	CyEnterCriticalSection
 308 000a 0346     		mov	r3, r0
 309 000c FB71     		strb	r3, [r7, #7]
 234:.\Generated_Source\PSoC5/SleepTimer.c **** 
 235:.\Generated_Source\PSoC5/SleepTimer.c ****     /* Disable interrupt on wake up */
 236:.\Generated_Source\PSoC5/SleepTimer.c ****     SleepTimer_TW_CFG_REG &= ~SleepTimer_CTW_IE;
 310              		.loc 1 236 0
 311 000e 44F28233 		movw	r3, #:lower16:1073759106
 312 0012 C4F20003 		movt	r3, #:upper16:1073759106
 313 0016 44F28232 		movw	r2, #:lower16:1073759106
 314 001a C4F20002 		movt	r2, #:upper16:1073759106
 315 001e 1278     		ldrb	r2, [r2, #0]
 316 0020 D2B2     		uxtb	r2, r2
 317 0022 02F0F702 		and	r2, r2, #247
 318 0026 1A70     		strb	r2, [r3, #0]
 237:.\Generated_Source\PSoC5/SleepTimer.c **** 
 238:.\Generated_Source\PSoC5/SleepTimer.c ****     /* Exit critical section */
 239:.\Generated_Source\PSoC5/SleepTimer.c ****     CyExitCriticalSection(interruptState);
 319              		.loc 1 239 0
 320 0028 FB79     		ldrb	r3, [r7, #7]	@ zero_extendqisi2
 321 002a 1846     		mov	r0, r3
 322 002c FFF7FEFF 		bl	CyExitCriticalSection
 240:.\Generated_Source\PSoC5/SleepTimer.c **** }
 323              		.loc 1 240 0
 324 0030 07F10807 		add	r7, r7, #8
 325 0034 BD46     		mov	sp, r7
 326 0036 80BD     		pop	{r7, pc}
ARM GAS  C:\Users\Geo\AppData\Local\Temp\ccRt48Or.s 			page 11


 327              		.cfi_endproc
 328              	.LFE5:
 329              		.size	SleepTimer_DisableInt, .-SleepTimer_DisableInt
 330              		.section	.text.SleepTimer_SetInterval,"ax",%progbits
 331              		.align	2
 332              		.global	SleepTimer_SetInterval
 333              		.thumb
 334              		.thumb_func
 335              		.type	SleepTimer_SetInterval, %function
 336              	SleepTimer_SetInterval:
 337              	.LFB6:
 241:.\Generated_Source\PSoC5/SleepTimer.c **** 
 242:.\Generated_Source\PSoC5/SleepTimer.c **** 
 243:.\Generated_Source\PSoC5/SleepTimer.c **** /*******************************************************************************
 244:.\Generated_Source\PSoC5/SleepTimer.c **** * Function Name: SleepTimer_SetInterval
 245:.\Generated_Source\PSoC5/SleepTimer.c **** ********************************************************************************
 246:.\Generated_Source\PSoC5/SleepTimer.c **** *
 247:.\Generated_Source\PSoC5/SleepTimer.c **** * Summary:
 248:.\Generated_Source\PSoC5/SleepTimer.c **** *  Sets CTW interval period. The first interval can range from 1 to (period + 1)
 249:.\Generated_Source\PSoC5/SleepTimer.c **** *  milliseconds. Additional intervals occur at the nominal period.
 250:.\Generated_Source\PSoC5/SleepTimer.c **** *
 251:.\Generated_Source\PSoC5/SleepTimer.c **** * Parameters:
 252:.\Generated_Source\PSoC5/SleepTimer.c **** *  uint8 interval: interval?s value for the CTW.
 253:.\Generated_Source\PSoC5/SleepTimer.c **** *  PSoC 5: Only the 4, 8 and 16 ms selections are supported.
 254:.\Generated_Source\PSoC5/SleepTimer.c **** *
 255:.\Generated_Source\PSoC5/SleepTimer.c **** *           Name                    Value        Period
 256:.\Generated_Source\PSoC5/SleepTimer.c **** *   SleepTimer__CTW_2_MS      4'b0001        2 ms
 257:.\Generated_Source\PSoC5/SleepTimer.c **** *   SleepTimer__CTW_4_MS      4'b0010        4 ms
 258:.\Generated_Source\PSoC5/SleepTimer.c **** *   SleepTimer__CTW_8_MS      4'b0011        8 ms
 259:.\Generated_Source\PSoC5/SleepTimer.c **** *   SleepTimer__CTW_16_MS     4'b0100        16 ms
 260:.\Generated_Source\PSoC5/SleepTimer.c **** *   SleepTimer__CTW_32_MS     4'b0101        32 ms
 261:.\Generated_Source\PSoC5/SleepTimer.c **** *   SleepTimer__CTW_64_MS     4'b0110        64 ms
 262:.\Generated_Source\PSoC5/SleepTimer.c **** *   SleepTimer__CTW_128_MS    4'b0111        128 ms
 263:.\Generated_Source\PSoC5/SleepTimer.c **** *   SleepTimer__CTW_256_MS    4'b1000        256 ms
 264:.\Generated_Source\PSoC5/SleepTimer.c **** *   SleepTimer__CTW_512_MS    4'b1001        512 ms
 265:.\Generated_Source\PSoC5/SleepTimer.c **** *   SleepTimer__CTW_1024_MS   4'b1010        1024 ms
 266:.\Generated_Source\PSoC5/SleepTimer.c **** *   SleepTimer__CTW_2048_MS   4'b1011        2048 ms
 267:.\Generated_Source\PSoC5/SleepTimer.c **** *   SleepTimer__CTW_4096_MS   4'b1100        4096 ms
 268:.\Generated_Source\PSoC5/SleepTimer.c **** *
 269:.\Generated_Source\PSoC5/SleepTimer.c **** * Return:
 270:.\Generated_Source\PSoC5/SleepTimer.c **** *  None
 271:.\Generated_Source\PSoC5/SleepTimer.c **** *
 272:.\Generated_Source\PSoC5/SleepTimer.c **** * Side Effects:
 273:.\Generated_Source\PSoC5/SleepTimer.c **** *  Interval value can be only changed when component is stopped (CTW is
 274:.\Generated_Source\PSoC5/SleepTimer.c **** *  disabled).
 275:.\Generated_Source\PSoC5/SleepTimer.c **** *
 276:.\Generated_Source\PSoC5/SleepTimer.c **** *******************************************************************************/
 277:.\Generated_Source\PSoC5/SleepTimer.c **** void SleepTimer_SetInterval(uint8 interval) 
 278:.\Generated_Source\PSoC5/SleepTimer.c **** {
 338              		.loc 1 278 0
 339              		.cfi_startproc
 340              		@ args = 0, pretend = 0, frame = 8
 341              		@ frame_needed = 1, uses_anonymous_args = 0
 342 0000 80B5     		push	{r7, lr}
 343              	.LCFI16:
 344              		.cfi_def_cfa_offset 8
 345 0002 82B0     		sub	sp, sp, #8
ARM GAS  C:\Users\Geo\AppData\Local\Temp\ccRt48Or.s 			page 12


 346              	.LCFI17:
 347              		.cfi_def_cfa_offset 16
 348 0004 00AF     		add	r7, sp, #0
 349              		.cfi_offset 14, -4
 350              		.cfi_offset 7, -8
 351              	.LCFI18:
 352              		.cfi_def_cfa_register 7
 353 0006 0346     		mov	r3, r0
 354 0008 FB71     		strb	r3, [r7, #7]
 279:.\Generated_Source\PSoC5/SleepTimer.c ****     /* Check if CTW is disabled */
 280:.\Generated_Source\PSoC5/SleepTimer.c ****     if (0u == (SleepTimer_TW_CFG_REG & SleepTimer_CTW_EN))
 355              		.loc 1 280 0
 356 000a 44F28233 		movw	r3, #:lower16:1073759106
 357 000e C4F20003 		movt	r3, #:upper16:1073759106
 358 0012 1B78     		ldrb	r3, [r3, #0]
 359 0014 DBB2     		uxtb	r3, r3
 360 0016 03F00403 		and	r3, r3, #4
 361 001a 002B     		cmp	r3, #0
 362 001c 2ED1     		bne	.L22
 281:.\Generated_Source\PSoC5/SleepTimer.c ****     {
 282:.\Generated_Source\PSoC5/SleepTimer.c ****         /* Device is PSoC 5 and the revision is ES1 or earlier. */
 283:.\Generated_Source\PSoC5/SleepTimer.c ****         #if(CY_PSOC5_ES1)
 284:.\Generated_Source\PSoC5/SleepTimer.c **** 
 285:.\Generated_Source\PSoC5/SleepTimer.c ****             CYASSERT((SleepTimer__CTW_4_MS  == interval) ||
 363              		.loc 1 285 0
 364 001e FB79     		ldrb	r3, [r7, #7]	@ zero_extendqisi2
 365 0020 022B     		cmp	r3, #2
 366 0022 17D0     		beq	.L18
 367 0024 FB79     		ldrb	r3, [r7, #7]	@ zero_extendqisi2
 368 0026 032B     		cmp	r3, #3
 369 0028 14D0     		beq	.L18
 370 002a FB79     		ldrb	r3, [r7, #7]	@ zero_extendqisi2
 371 002c 042B     		cmp	r3, #4
 372 002e 11D0     		beq	.L18
 373 0030 FB79     		ldrb	r3, [r7, #7]	@ zero_extendqisi2
 374 0032 022B     		cmp	r3, #2
 375 0034 05D0     		beq	.L19
 376 0036 FB79     		ldrb	r3, [r7, #7]	@ zero_extendqisi2
 377 0038 032B     		cmp	r3, #3
 378 003a 02D0     		beq	.L19
 379 003c FB79     		ldrb	r3, [r7, #7]	@ zero_extendqisi2
 380 003e 042B     		cmp	r3, #4
 381 0040 02D1     		bne	.L20
 382              	.L19:
 383 0042 4FF00103 		mov	r3, #1
 384 0046 01E0     		b	.L21
 385              	.L20:
 386 0048 4FF00003 		mov	r3, #0
 387              	.L21:
 388 004c DBB2     		uxtb	r3, r3
 389 004e 1846     		mov	r0, r3
 390 0050 FFF7FEFF 		bl	CyHalt
 391              	.L18:
 286:.\Generated_Source\PSoC5/SleepTimer.c ****                      (SleepTimer__CTW_8_MS  == interval) ||
 287:.\Generated_Source\PSoC5/SleepTimer.c ****                      (SleepTimer__CTW_16_MS == interval));
 288:.\Generated_Source\PSoC5/SleepTimer.c **** 
 289:.\Generated_Source\PSoC5/SleepTimer.c ****         #endif  /* CY_PSOC5_ES1 */
ARM GAS  C:\Users\Geo\AppData\Local\Temp\ccRt48Or.s 			page 13


 290:.\Generated_Source\PSoC5/SleepTimer.c **** 
 291:.\Generated_Source\PSoC5/SleepTimer.c ****         /* Set CTW interval */
 292:.\Generated_Source\PSoC5/SleepTimer.c ****         SleepTimer_CTW_INTERVAL_REG = \
 392              		.loc 1 292 0
 393 0054 44F28133 		movw	r3, #:lower16:1073759105
 394 0058 C4F20003 		movt	r3, #:upper16:1073759105
 293:.\Generated_Source\PSoC5/SleepTimer.c ****             (SleepTimer_CTW_INTERVAL_REG & ~SleepTimer_INTERVAL_MASK) | \
 395              		.loc 1 293 0
 396 005c 44F28132 		movw	r2, #:lower16:1073759105
 397 0060 C4F20002 		movt	r2, #:upper16:1073759105
 398 0064 1278     		ldrb	r2, [r2, #0]
 399 0066 D2B2     		uxtb	r2, r2
 400              		.loc 1 292 0
 401 0068 1146     		mov	r1, r2
 402 006a 01F0F001 		and	r1, r1, #240
 403 006e FA79     		ldrb	r2, [r7, #7]	@ zero_extendqisi2
 404 0070 02F00F02 		and	r2, r2, #15
 405 0074 41EA0202 		orr	r2, r1, r2
 406 0078 D2B2     		uxtb	r2, r2
 407 007a 1A70     		strb	r2, [r3, #0]
 408              	.L22:
 294:.\Generated_Source\PSoC5/SleepTimer.c ****             (interval & SleepTimer_INTERVAL_MASK);
 295:.\Generated_Source\PSoC5/SleepTimer.c ****     }
 296:.\Generated_Source\PSoC5/SleepTimer.c ****     /* Do nothing if CTW is enabled. */
 297:.\Generated_Source\PSoC5/SleepTimer.c **** }
 409              		.loc 1 297 0
 410 007c 07F10807 		add	r7, r7, #8
 411 0080 BD46     		mov	sp, r7
 412 0082 80BD     		pop	{r7, pc}
 413              		.cfi_endproc
 414              	.LFE6:
 415              		.size	SleepTimer_SetInterval, .-SleepTimer_SetInterval
 416              		.section	.text.SleepTimer_GetStatus,"ax",%progbits
 417              		.align	2
 418              		.global	SleepTimer_GetStatus
 419              		.thumb
 420              		.thumb_func
 421              		.type	SleepTimer_GetStatus, %function
 422              	SleepTimer_GetStatus:
 423              	.LFB7:
 298:.\Generated_Source\PSoC5/SleepTimer.c **** 
 299:.\Generated_Source\PSoC5/SleepTimer.c **** 
 300:.\Generated_Source\PSoC5/SleepTimer.c **** /*******************************************************************************
 301:.\Generated_Source\PSoC5/SleepTimer.c **** * Function Name: SleepTimer_GetStatus
 302:.\Generated_Source\PSoC5/SleepTimer.c **** ********************************************************************************
 303:.\Generated_Source\PSoC5/SleepTimer.c **** *
 304:.\Generated_Source\PSoC5/SleepTimer.c **** * Summary:
 305:.\Generated_Source\PSoC5/SleepTimer.c **** *  This function should always be called (when the Sleep Timer?s interrupt is
 306:.\Generated_Source\PSoC5/SleepTimer.c **** *  disabled or enabled) after wake up to clear the ctw_int status bit.
 307:.\Generated_Source\PSoC5/SleepTimer.c **** *
 308:.\Generated_Source\PSoC5/SleepTimer.c **** * Parameters:
 309:.\Generated_Source\PSoC5/SleepTimer.c **** *  None
 310:.\Generated_Source\PSoC5/SleepTimer.c **** *
 311:.\Generated_Source\PSoC5/SleepTimer.c **** * Return:
 312:.\Generated_Source\PSoC5/SleepTimer.c **** *  uint8 with bits set if corresponding event has occurred
 313:.\Generated_Source\PSoC5/SleepTimer.c **** *            Name                             Description
 314:.\Generated_Source\PSoC5/SleepTimer.c **** *  SleepTimer_PM_INT_SR_ONEPPSP  A onepps event has occured
ARM GAS  C:\Users\Geo\AppData\Local\Temp\ccRt48Or.s 			page 14


 315:.\Generated_Source\PSoC5/SleepTimer.c **** *  SleepTimer_PM_INT_SR_CTW      A central timewheel event occured
 316:.\Generated_Source\PSoC5/SleepTimer.c **** *  SleepTimer_PM_INT_SR_FTW      A fast timewheel event occured
 317:.\Generated_Source\PSoC5/SleepTimer.c **** *
 318:.\Generated_Source\PSoC5/SleepTimer.c **** * Side Effects:
 319:.\Generated_Source\PSoC5/SleepTimer.c **** *  If an interrupt gets generated at the same time as a register read/clear,
 320:.\Generated_Source\PSoC5/SleepTimer.c **** *  the bit will remain set (which causes another interrupt). Reports and then
 321:.\Generated_Source\PSoC5/SleepTimer.c **** *  clears all interrupt status bits in the Power Manager Interrupt Status
 322:.\Generated_Source\PSoC5/SleepTimer.c **** *  Register. Some of the bits are not relevant to operation of this component.
 323:.\Generated_Source\PSoC5/SleepTimer.c **** *
 324:.\Generated_Source\PSoC5/SleepTimer.c **** *  If the GetStatus() function is not called in an interrupt associated with
 325:.\Generated_Source\PSoC5/SleepTimer.c **** *  the SleepTimer, the interrupt is not cleared and as soon as the interrupt is
 326:.\Generated_Source\PSoC5/SleepTimer.c **** *  exited it will be re-entered.
 327:.\Generated_Source\PSoC5/SleepTimer.c **** *
 328:.\Generated_Source\PSoC5/SleepTimer.c **** *  Once the Sleep timer has expired, until the GetStatus() function is called
 329:.\Generated_Source\PSoC5/SleepTimer.c **** *  the sleep interval is functionally 0 ms, since GetStatus clears the ctw_int
 330:.\Generated_Source\PSoC5/SleepTimer.c **** *  bit.
 331:.\Generated_Source\PSoC5/SleepTimer.c **** *
 332:.\Generated_Source\PSoC5/SleepTimer.c **** *  This function must always be called (when the Sleep Timer's interrupt is
 333:.\Generated_Source\PSoC5/SleepTimer.c **** *  disabled or enabled) after wakeup to clear the ctw_int status bit. It is
 334:.\Generated_Source\PSoC5/SleepTimer.c **** *  required to call SleepTimer_GetStatus() within 1 ms (1 clock cycle of the
 335:.\Generated_Source\PSoC5/SleepTimer.c **** *  ILO) after the CTW event occurred.
 336:.\Generated_Source\PSoC5/SleepTimer.c **** *
 337:.\Generated_Source\PSoC5/SleepTimer.c **** *******************************************************************************/
 338:.\Generated_Source\PSoC5/SleepTimer.c **** uint8 SleepTimer_GetStatus(void) 
 339:.\Generated_Source\PSoC5/SleepTimer.c **** {
 424              		.loc 1 339 0
 425              		.cfi_startproc
 426              		@ args = 0, pretend = 0, frame = 0
 427              		@ frame_needed = 1, uses_anonymous_args = 0
 428 0000 80B5     		push	{r7, lr}
 429              	.LCFI19:
 430              		.cfi_def_cfa_offset 8
 431 0002 00AF     		add	r7, sp, #0
 432              		.cfi_offset 14, -4
 433              		.cfi_offset 7, -8
 434              	.LCFI20:
 435              		.cfi_def_cfa_register 7
 340:.\Generated_Source\PSoC5/SleepTimer.c ****     /* Read to clear  */
 341:.\Generated_Source\PSoC5/SleepTimer.c ****     return CyPmReadStatus(CY_PM_CTW_INT);
 436              		.loc 1 341 0
 437 0004 4FF00200 		mov	r0, #2
 438 0008 FFF7FEFF 		bl	CyPmReadStatus
 439 000c 0346     		mov	r3, r0
 342:.\Generated_Source\PSoC5/SleepTimer.c **** }
 440              		.loc 1 342 0
 441 000e 1846     		mov	r0, r3
 442 0010 80BD     		pop	{r7, pc}
 443              		.cfi_endproc
 444              	.LFE7:
 445              		.size	SleepTimer_GetStatus, .-SleepTimer_GetStatus
 446 0012 00BF     		.text
 447              	.Letext0: