ARM GAS  C:\Users\Geo\AppData\Local\Temp\ccOHA31t.s 			page 1


   1              		.syntax unified
   2              		.cpu cortex-m3
   3              		.fpu softvfp
   4              		.eabi_attribute 20, 1
   5              		.eabi_attribute 21, 1
   6              		.eabi_attribute 23, 3
   7              		.eabi_attribute 24, 1
   8              		.eabi_attribute 25, 1
   9              		.eabi_attribute 26, 1
  10              		.eabi_attribute 30, 6
  11              		.eabi_attribute 18, 4
  12              		.thumb
  13              		.file	"UartDebug.c"
  20 0000 25020000 		.text
  20      02006200 
  20      00000201 
  20      FB0E0D00 
  20      01010101 
  21              	.Ltext0:
  22              		.cfi_sections	.debug_frame
  23              		.comm	UartDebug_txBuffer,50,4
  24              		.global	UartDebug_txBufferRead
  25              		.bss
  26              		.type	UartDebug_txBufferRead, %object
  27              		.size	UartDebug_txBufferRead, 1
  28              	UartDebug_txBufferRead:
  29 0000 00       		.space	1
  30              		.global	UartDebug_txBufferWrite
  31              		.type	UartDebug_txBufferWrite, %object
  32              		.size	UartDebug_txBufferWrite, 1
  33              	UartDebug_txBufferWrite:
  34 0001 00       		.space	1
  35              		.global	UartDebug_initVar
  36              		.type	UartDebug_initVar, %object
  37              		.size	UartDebug_initVar, 1
  38              	UartDebug_initVar:
  39 0002 00       		.space	1
  40              		.section	.text.UartDebug_Start,"ax",%progbits
  41              		.align	2
  42              		.global	UartDebug_Start
  43              		.thumb
  44              		.thumb_func
  45              		.type	UartDebug_Start, %function
  46              	UartDebug_Start:
  47              	.LFB0:
  48              		.file 1 ".\\Generated_Source\\PSoC5\\UartDebug.c"
   1:.\Generated_Source\PSoC5/UartDebug.c **** /*******************************************************************************
   2:.\Generated_Source\PSoC5/UartDebug.c **** * File Name: UartDebug.c
   3:.\Generated_Source\PSoC5/UartDebug.c **** * Version 2.10
   4:.\Generated_Source\PSoC5/UartDebug.c **** *
   5:.\Generated_Source\PSoC5/UartDebug.c **** * Description:
ARM GAS  C:\Users\Geo\AppData\Local\Temp\ccOHA31t.s 			page 2


   6:.\Generated_Source\PSoC5/UartDebug.c **** *  This file provides all API functionality of the UART component
   7:.\Generated_Source\PSoC5/UartDebug.c **** *
   8:.\Generated_Source\PSoC5/UartDebug.c **** * Note:
   9:.\Generated_Source\PSoC5/UartDebug.c **** *
  10:.\Generated_Source\PSoC5/UartDebug.c **** *******************************************************************************
  11:.\Generated_Source\PSoC5/UartDebug.c **** * Copyright 2008-2011, Cypress Semiconductor Corporation.  All rights reserved.
  12:.\Generated_Source\PSoC5/UartDebug.c **** * You may use this file only in accordance with the license, terms, conditions,
  13:.\Generated_Source\PSoC5/UartDebug.c **** * disclaimers, and limitations in the end user license agreement accompanying
  14:.\Generated_Source\PSoC5/UartDebug.c **** * the software package with which this file was provided.
  15:.\Generated_Source\PSoC5/UartDebug.c **** ********************************************************************************/
  16:.\Generated_Source\PSoC5/UartDebug.c **** 
  17:.\Generated_Source\PSoC5/UartDebug.c **** 
  18:.\Generated_Source\PSoC5/UartDebug.c **** #include "UartDebug.h"
  19:.\Generated_Source\PSoC5/UartDebug.c **** #include "CyLib.h"
  20:.\Generated_Source\PSoC5/UartDebug.c **** 
  21:.\Generated_Source\PSoC5/UartDebug.c **** 
  22:.\Generated_Source\PSoC5/UartDebug.c **** /***************************************
  23:.\Generated_Source\PSoC5/UartDebug.c **** * Global data allocation
  24:.\Generated_Source\PSoC5/UartDebug.c **** ***************************************/
  25:.\Generated_Source\PSoC5/UartDebug.c **** 
  26:.\Generated_Source\PSoC5/UartDebug.c **** #if( UartDebug_TX_ENABLED && (UartDebug_TXBUFFERSIZE > UartDebug_FIFO_LENGTH))
  27:.\Generated_Source\PSoC5/UartDebug.c ****     volatile uint8 UartDebug_txBuffer[UartDebug_TXBUFFERSIZE];
  28:.\Generated_Source\PSoC5/UartDebug.c ****     volatile uint8 UartDebug_txBufferRead = 0u;
  29:.\Generated_Source\PSoC5/UartDebug.c ****     uint8 UartDebug_txBufferWrite = 0u;
  30:.\Generated_Source\PSoC5/UartDebug.c **** #endif /* End UartDebug_TX_ENABLED */
  31:.\Generated_Source\PSoC5/UartDebug.c **** #if( ( UartDebug_RX_ENABLED || UartDebug_HD_ENABLED ) && \
  32:.\Generated_Source\PSoC5/UartDebug.c ****      (UartDebug_RXBUFFERSIZE > UartDebug_FIFO_LENGTH) )
  33:.\Generated_Source\PSoC5/UartDebug.c ****     volatile uint8 UartDebug_rxBuffer[UartDebug_RXBUFFERSIZE];
  34:.\Generated_Source\PSoC5/UartDebug.c ****     volatile uint8 UartDebug_rxBufferRead = 0u;
  35:.\Generated_Source\PSoC5/UartDebug.c ****     volatile uint8 UartDebug_rxBufferWrite = 0u;
  36:.\Generated_Source\PSoC5/UartDebug.c ****     volatile uint8 UartDebug_rxBufferLoopDetect = 0u;
  37:.\Generated_Source\PSoC5/UartDebug.c ****     volatile uint8 UartDebug_rxBufferOverflow = 0u;
  38:.\Generated_Source\PSoC5/UartDebug.c ****     #if (UartDebug_RXHW_ADDRESS_ENABLED)
  39:.\Generated_Source\PSoC5/UartDebug.c ****         volatile uint8 UartDebug_rxAddressMode = UartDebug_RXADDRESSMODE;
  40:.\Generated_Source\PSoC5/UartDebug.c ****         volatile uint8 UartDebug_rxAddressDetected = 0u;
  41:.\Generated_Source\PSoC5/UartDebug.c ****     #endif /* End EnableHWAddress */    
  42:.\Generated_Source\PSoC5/UartDebug.c **** #endif /* End UartDebug_RX_ENABLED */
  43:.\Generated_Source\PSoC5/UartDebug.c **** 
  44:.\Generated_Source\PSoC5/UartDebug.c **** 
  45:.\Generated_Source\PSoC5/UartDebug.c **** /***************************************
  46:.\Generated_Source\PSoC5/UartDebug.c **** * Local data allocation
  47:.\Generated_Source\PSoC5/UartDebug.c **** ***************************************/
  48:.\Generated_Source\PSoC5/UartDebug.c **** 
  49:.\Generated_Source\PSoC5/UartDebug.c **** uint8 UartDebug_initVar = 0u;
  50:.\Generated_Source\PSoC5/UartDebug.c **** 
  51:.\Generated_Source\PSoC5/UartDebug.c **** 
  52:.\Generated_Source\PSoC5/UartDebug.c **** /*******************************************************************************
  53:.\Generated_Source\PSoC5/UartDebug.c **** * Function Name: UartDebug_Start
  54:.\Generated_Source\PSoC5/UartDebug.c **** ********************************************************************************
  55:.\Generated_Source\PSoC5/UartDebug.c **** *
  56:.\Generated_Source\PSoC5/UartDebug.c **** * Summary:
  57:.\Generated_Source\PSoC5/UartDebug.c **** *  Initialize and Enable the UART component.
  58:.\Generated_Source\PSoC5/UartDebug.c **** *  Enable the clock input to enable operation.
  59:.\Generated_Source\PSoC5/UartDebug.c **** *
  60:.\Generated_Source\PSoC5/UartDebug.c **** * Parameters:
  61:.\Generated_Source\PSoC5/UartDebug.c **** *  None.
  62:.\Generated_Source\PSoC5/UartDebug.c **** *
ARM GAS  C:\Users\Geo\AppData\Local\Temp\ccOHA31t.s 			page 3


  63:.\Generated_Source\PSoC5/UartDebug.c **** * Return:
  64:.\Generated_Source\PSoC5/UartDebug.c **** *  None.
  65:.\Generated_Source\PSoC5/UartDebug.c **** *
  66:.\Generated_Source\PSoC5/UartDebug.c **** * Global variables:
  67:.\Generated_Source\PSoC5/UartDebug.c **** *  The UartDebug_intiVar variable is used to indicate initial 
  68:.\Generated_Source\PSoC5/UartDebug.c **** *  configuration of this component. The variable is initialized to zero (0u) 
  69:.\Generated_Source\PSoC5/UartDebug.c **** *  and set to one (1u) the first time UART_Start() is called. This allows for 
  70:.\Generated_Source\PSoC5/UartDebug.c **** *  component initialization without re-initialization in all subsequent calls 
  71:.\Generated_Source\PSoC5/UartDebug.c **** *  to the UartDebug_Start() routine. 
  72:.\Generated_Source\PSoC5/UartDebug.c **** *
  73:.\Generated_Source\PSoC5/UartDebug.c **** * Reentrant:
  74:.\Generated_Source\PSoC5/UartDebug.c **** *  No.
  75:.\Generated_Source\PSoC5/UartDebug.c **** *
  76:.\Generated_Source\PSoC5/UartDebug.c **** *******************************************************************************/
  77:.\Generated_Source\PSoC5/UartDebug.c **** void UartDebug_Start(void) 
  78:.\Generated_Source\PSoC5/UartDebug.c **** {
  49              		.loc 1 78 0
  50              		.cfi_startproc
  51              		@ args = 0, pretend = 0, frame = 0
  52              		@ frame_needed = 1, uses_anonymous_args = 0
  53 0000 80B5     		push	{r7, lr}
  54              	.LCFI0:
  55              		.cfi_def_cfa_offset 8
  56 0002 00AF     		add	r7, sp, #0
  57              		.cfi_offset 14, -4
  58              		.cfi_offset 7, -8
  59              	.LCFI1:
  60              		.cfi_def_cfa_register 7
  79:.\Generated_Source\PSoC5/UartDebug.c ****     /* If not Initialized then initialize all required hardware and software */
  80:.\Generated_Source\PSoC5/UartDebug.c ****     if(UartDebug_initVar == 0u)
  61              		.loc 1 80 0
  62 0004 40F20003 		movw	r3, #:lower16:UartDebug_initVar
  63 0008 C0F20003 		movt	r3, #:upper16:UartDebug_initVar
  64 000c 1B78     		ldrb	r3, [r3, #0]	@ zero_extendqisi2
  65 000e 002B     		cmp	r3, #0
  66 0010 08D1     		bne	.L2
  81:.\Generated_Source\PSoC5/UartDebug.c ****     {
  82:.\Generated_Source\PSoC5/UartDebug.c ****         UartDebug_Init();
  67              		.loc 1 82 0
  68 0012 FFF7FEFF 		bl	UartDebug_Init
  83:.\Generated_Source\PSoC5/UartDebug.c ****         UartDebug_initVar = 1u;
  69              		.loc 1 83 0
  70 0016 40F20003 		movw	r3, #:lower16:UartDebug_initVar
  71 001a C0F20003 		movt	r3, #:upper16:UartDebug_initVar
  72 001e 4FF00102 		mov	r2, #1
  73 0022 1A70     		strb	r2, [r3, #0]
  74              	.L2:
  84:.\Generated_Source\PSoC5/UartDebug.c ****     }
  85:.\Generated_Source\PSoC5/UartDebug.c ****     UartDebug_Enable();
  75              		.loc 1 85 0
  76 0024 FFF7FEFF 		bl	UartDebug_Enable
  86:.\Generated_Source\PSoC5/UartDebug.c **** }
  77              		.loc 1 86 0
  78 0028 80BD     		pop	{r7, pc}
  79              		.cfi_endproc
  80              	.LFE0:
  81              		.size	UartDebug_Start, .-UartDebug_Start
ARM GAS  C:\Users\Geo\AppData\Local\Temp\ccOHA31t.s 			page 4


  82 002a 00BF     		.section	.text.UartDebug_Init,"ax",%progbits
  83              		.align	2
  84              		.global	UartDebug_Init
  85              		.thumb
  86              		.thumb_func
  87              		.type	UartDebug_Init, %function
  88              	UartDebug_Init:
  89              	.LFB1:
  87:.\Generated_Source\PSoC5/UartDebug.c **** 
  88:.\Generated_Source\PSoC5/UartDebug.c **** 
  89:.\Generated_Source\PSoC5/UartDebug.c **** /*******************************************************************************
  90:.\Generated_Source\PSoC5/UartDebug.c **** * Function Name: UartDebug_Init
  91:.\Generated_Source\PSoC5/UartDebug.c **** ********************************************************************************
  92:.\Generated_Source\PSoC5/UartDebug.c **** *
  93:.\Generated_Source\PSoC5/UartDebug.c **** * Summary:
  94:.\Generated_Source\PSoC5/UartDebug.c **** *  Initialize component's parameters to the parameters set by user in the
  95:.\Generated_Source\PSoC5/UartDebug.c **** *  customizer of the component placed onto schematic. Usually called in
  96:.\Generated_Source\PSoC5/UartDebug.c **** *  UartDebug_Start().
  97:.\Generated_Source\PSoC5/UartDebug.c **** *
  98:.\Generated_Source\PSoC5/UartDebug.c **** * Parameters:
  99:.\Generated_Source\PSoC5/UartDebug.c **** *  None.
 100:.\Generated_Source\PSoC5/UartDebug.c **** *
 101:.\Generated_Source\PSoC5/UartDebug.c **** * Return:
 102:.\Generated_Source\PSoC5/UartDebug.c **** *  None.
 103:.\Generated_Source\PSoC5/UartDebug.c **** *
 104:.\Generated_Source\PSoC5/UartDebug.c **** *******************************************************************************/
 105:.\Generated_Source\PSoC5/UartDebug.c **** void UartDebug_Init(void) 
 106:.\Generated_Source\PSoC5/UartDebug.c **** {
  90              		.loc 1 106 0
  91              		.cfi_startproc
  92              		@ args = 0, pretend = 0, frame = 0
  93              		@ frame_needed = 1, uses_anonymous_args = 0
  94 0000 80B5     		push	{r7, lr}
  95              	.LCFI2:
  96              		.cfi_def_cfa_offset 8
  97 0002 00AF     		add	r7, sp, #0
  98              		.cfi_offset 14, -4
  99              		.cfi_offset 7, -8
 100              	.LCFI3:
 101              		.cfi_def_cfa_register 7
 107:.\Generated_Source\PSoC5/UartDebug.c ****     #if(UartDebug_RX_ENABLED || UartDebug_HD_ENABLED)
 108:.\Generated_Source\PSoC5/UartDebug.c **** 
 109:.\Generated_Source\PSoC5/UartDebug.c ****         #if(UartDebug_RX_INTERRUPT_ENABLED && (UartDebug_RXBUFFERSIZE > UartDebug_FIFO_LENGTH))
 110:.\Generated_Source\PSoC5/UartDebug.c ****             /* Set the RX Interrupt. */
 111:.\Generated_Source\PSoC5/UartDebug.c ****             CyIntSetVector(UartDebug_RX_VECT_NUM,   UartDebug_RXISR);
 112:.\Generated_Source\PSoC5/UartDebug.c ****             CyIntSetPriority(UartDebug_RX_VECT_NUM, UartDebug_RX_PRIOR_NUM);
 113:.\Generated_Source\PSoC5/UartDebug.c ****         #endif /* End UartDebug_RX_INTERRUPT_ENABLED */
 114:.\Generated_Source\PSoC5/UartDebug.c **** 
 115:.\Generated_Source\PSoC5/UartDebug.c ****         #if (UartDebug_RXHW_ADDRESS_ENABLED)
 116:.\Generated_Source\PSoC5/UartDebug.c ****             UartDebug_SetRxAddressMode(UartDebug_RXAddressMode);
 117:.\Generated_Source\PSoC5/UartDebug.c ****             UartDebug_SetRxAddress1(UartDebug_RXHWADDRESS1);
 118:.\Generated_Source\PSoC5/UartDebug.c ****             UartDebug_SetRxAddress2(UartDebug_RXHWADDRESS2);
 119:.\Generated_Source\PSoC5/UartDebug.c ****         #endif /* End UartDebug_RXHW_ADDRESS_ENABLED */
 120:.\Generated_Source\PSoC5/UartDebug.c **** 
 121:.\Generated_Source\PSoC5/UartDebug.c ****         /* Configure the Initial RX interrupt mask */
 122:.\Generated_Source\PSoC5/UartDebug.c ****         UartDebug_RXSTATUS_MASK_REG  = UartDebug_INIT_RX_INTERRUPTS_MASK;
 123:.\Generated_Source\PSoC5/UartDebug.c ****     #endif /* End UartDebug_RX_ENABLED || UartDebug_HD_ENABLED*/
ARM GAS  C:\Users\Geo\AppData\Local\Temp\ccOHA31t.s 			page 5


 124:.\Generated_Source\PSoC5/UartDebug.c **** 
 125:.\Generated_Source\PSoC5/UartDebug.c ****     #if(UartDebug_TX_ENABLED)
 126:.\Generated_Source\PSoC5/UartDebug.c ****         #if(UartDebug_TX_INTERRUPT_ENABLED && (UartDebug_TXBUFFERSIZE > UartDebug_FIFO_LENGTH))
 127:.\Generated_Source\PSoC5/UartDebug.c ****             /* Set the TX Interrupt. */
 128:.\Generated_Source\PSoC5/UartDebug.c ****             CyIntSetVector(UartDebug_TX_VECT_NUM,   UartDebug_TXISR);
 102              		.loc 1 128 0
 103 0004 4FF00C00 		mov	r0, #12
 104 0008 40F20001 		movw	r1, #:lower16:UartDebug_TXISR
 105 000c C0F20001 		movt	r1, #:upper16:UartDebug_TXISR
 106 0010 FFF7FEFF 		bl	CyIntSetVector
 129:.\Generated_Source\PSoC5/UartDebug.c ****             CyIntSetPriority(UartDebug_TX_VECT_NUM, UartDebug_TX_PRIOR_NUM);
 107              		.loc 1 129 0
 108 0014 4FF00C00 		mov	r0, #12
 109 0018 4FF00701 		mov	r1, #7
 110 001c FFF7FEFF 		bl	CyIntSetPriority
 130:.\Generated_Source\PSoC5/UartDebug.c ****         #endif /* End UartDebug_TX_INTERRUPT_ENABLED */
 131:.\Generated_Source\PSoC5/UartDebug.c **** 
 132:.\Generated_Source\PSoC5/UartDebug.c ****         /* Write Counter Value for TX Bit Clk Generator*/
 133:.\Generated_Source\PSoC5/UartDebug.c ****         #if(UartDebug_TXCLKGEN_DP)
 134:.\Generated_Source\PSoC5/UartDebug.c ****             UartDebug_TXBITCLKGEN_CTR_REG = UartDebug_BIT_CENTER;
 111              		.loc 1 134 0
 112 0020 46F22043 		movw	r3, #:lower16:1073767456
 113 0024 C4F20003 		movt	r3, #:upper16:1073767456
 114 0028 4FF00702 		mov	r2, #7
 115 002c 1A70     		strb	r2, [r3, #0]
 135:.\Generated_Source\PSoC5/UartDebug.c ****             UartDebug_TXBITCLKTX_COMPLETE_REG = (UartDebug_NUMBER_OF_DATA_BITS + \
 116              		.loc 1 135 0
 117 002e 46F23043 		movw	r3, #:lower16:1073767472
 118 0032 C4F20003 		movt	r3, #:upper16:1073767472
 119 0036 4FF04802 		mov	r2, #72
 120 003a 1A70     		strb	r2, [r3, #0]
 136:.\Generated_Source\PSoC5/UartDebug.c ****                                                     UartDebug_NUMBER_OF_START_BIT) * \
 137:.\Generated_Source\PSoC5/UartDebug.c ****                                                     UartDebug_OVER_SAMPLE_COUNT;
 138:.\Generated_Source\PSoC5/UartDebug.c ****         #else
 139:.\Generated_Source\PSoC5/UartDebug.c ****             UartDebug_TXBITCTR_COUNTER_REG = (UartDebug_NUMBER_OF_DATA_BITS + \
 140:.\Generated_Source\PSoC5/UartDebug.c ****                                                     UartDebug_NUMBER_OF_START_BIT) * \
 141:.\Generated_Source\PSoC5/UartDebug.c ****                                                     UartDebug_OVER_SAMPLE_8;
 142:.\Generated_Source\PSoC5/UartDebug.c ****         #endif /* End UartDebug_TXCLKGEN_DP */
 143:.\Generated_Source\PSoC5/UartDebug.c **** 
 144:.\Generated_Source\PSoC5/UartDebug.c ****         /* Configure the Initial TX interrupt mask */
 145:.\Generated_Source\PSoC5/UartDebug.c ****         #if(UartDebug_TX_INTERRUPT_ENABLED && (UartDebug_TXBUFFERSIZE > UartDebug_FIFO_LENGTH))
 146:.\Generated_Source\PSoC5/UartDebug.c ****             UartDebug_TXSTATUS_MASK_REG = UartDebug_TX_STS_FIFO_EMPTY;
 121              		.loc 1 146 0
 122 003c 46F28443 		movw	r3, #:lower16:1073767556
 123 0040 C4F20003 		movt	r3, #:upper16:1073767556
 124 0044 4FF00202 		mov	r2, #2
 125 0048 1A70     		strb	r2, [r3, #0]
 147:.\Generated_Source\PSoC5/UartDebug.c ****         #else
 148:.\Generated_Source\PSoC5/UartDebug.c ****             UartDebug_TXSTATUS_MASK_REG = UartDebug_INIT_TX_INTERRUPTS_MASK;
 149:.\Generated_Source\PSoC5/UartDebug.c ****         #endif /*End UartDebug_TX_INTERRUPT_ENABLED*/
 150:.\Generated_Source\PSoC5/UartDebug.c ****         
 151:.\Generated_Source\PSoC5/UartDebug.c ****     #endif /* End UartDebug_TX_ENABLED */
 152:.\Generated_Source\PSoC5/UartDebug.c **** 
 153:.\Generated_Source\PSoC5/UartDebug.c ****     #if(UartDebug_PARITY_TYPE_SW)  /* Write Parity to Control Register */
 154:.\Generated_Source\PSoC5/UartDebug.c ****         UartDebug_WriteControlRegister( \
 155:.\Generated_Source\PSoC5/UartDebug.c ****             (UartDebug_ReadControlRegister() & ~UartDebug_CTRL_PARITY_TYPE_MASK) | \
 156:.\Generated_Source\PSoC5/UartDebug.c ****             (UartDebug_PARITY_TYPE << UartDebug_CTRL_PARITY_TYPE0_SHIFT) );
ARM GAS  C:\Users\Geo\AppData\Local\Temp\ccOHA31t.s 			page 6


 157:.\Generated_Source\PSoC5/UartDebug.c ****     #endif /* End UartDebug_PARITY_TYPE_SW */
 158:.\Generated_Source\PSoC5/UartDebug.c **** }
 126              		.loc 1 158 0
 127 004a 80BD     		pop	{r7, pc}
 128              		.cfi_endproc
 129              	.LFE1:
 130              		.size	UartDebug_Init, .-UartDebug_Init
 131              		.section	.text.UartDebug_Enable,"ax",%progbits
 132              		.align	2
 133              		.global	UartDebug_Enable
 134              		.thumb
 135              		.thumb_func
 136              		.type	UartDebug_Enable, %function
 137              	UartDebug_Enable:
 138              	.LFB2:
 159:.\Generated_Source\PSoC5/UartDebug.c **** 
 160:.\Generated_Source\PSoC5/UartDebug.c **** 
 161:.\Generated_Source\PSoC5/UartDebug.c **** /*******************************************************************************
 162:.\Generated_Source\PSoC5/UartDebug.c **** * Function Name: UartDebug_Enable
 163:.\Generated_Source\PSoC5/UartDebug.c **** ********************************************************************************
 164:.\Generated_Source\PSoC5/UartDebug.c **** *
 165:.\Generated_Source\PSoC5/UartDebug.c **** * Summary:
 166:.\Generated_Source\PSoC5/UartDebug.c **** *  Enables the UART block operation
 167:.\Generated_Source\PSoC5/UartDebug.c **** *
 168:.\Generated_Source\PSoC5/UartDebug.c **** * Parameters:
 169:.\Generated_Source\PSoC5/UartDebug.c **** *  None.
 170:.\Generated_Source\PSoC5/UartDebug.c **** *
 171:.\Generated_Source\PSoC5/UartDebug.c **** * Return:
 172:.\Generated_Source\PSoC5/UartDebug.c **** *  None.
 173:.\Generated_Source\PSoC5/UartDebug.c **** *
 174:.\Generated_Source\PSoC5/UartDebug.c **** * Global Variables:
 175:.\Generated_Source\PSoC5/UartDebug.c **** *  UartDebug_rxAddressDetected - set to initial state (0).
 176:.\Generated_Source\PSoC5/UartDebug.c **** *
 177:.\Generated_Source\PSoC5/UartDebug.c **** *******************************************************************************/
 178:.\Generated_Source\PSoC5/UartDebug.c **** void UartDebug_Enable(void) 
 179:.\Generated_Source\PSoC5/UartDebug.c **** {
 139              		.loc 1 179 0
 140              		.cfi_startproc
 141              		@ args = 0, pretend = 0, frame = 8
 142              		@ frame_needed = 1, uses_anonymous_args = 0
 143 0000 80B5     		push	{r7, lr}
 144              	.LCFI4:
 145              		.cfi_def_cfa_offset 8
 146 0002 82B0     		sub	sp, sp, #8
 147              	.LCFI5:
 148              		.cfi_def_cfa_offset 16
 149 0004 00AF     		add	r7, sp, #0
 150              		.cfi_offset 14, -4
 151              		.cfi_offset 7, -8
 152              	.LCFI6:
 153              		.cfi_def_cfa_register 7
 180:.\Generated_Source\PSoC5/UartDebug.c ****     uint8 enableInterrupts;
 181:.\Generated_Source\PSoC5/UartDebug.c ****     enableInterrupts = CyEnterCriticalSection();
 154              		.loc 1 181 0
 155 0006 FFF7FEFF 		bl	CyEnterCriticalSection
 156 000a 0346     		mov	r3, r0
 157 000c FB71     		strb	r3, [r7, #7]
ARM GAS  C:\Users\Geo\AppData\Local\Temp\ccOHA31t.s 			page 7


 182:.\Generated_Source\PSoC5/UartDebug.c ****     
 183:.\Generated_Source\PSoC5/UartDebug.c ****     #if(UartDebug_RX_ENABLED || UartDebug_HD_ENABLED)
 184:.\Generated_Source\PSoC5/UartDebug.c ****         /*RX Counter (Count7) Enable */
 185:.\Generated_Source\PSoC5/UartDebug.c ****         UartDebug_RXBITCTR_CONTROL_REG |= UartDebug_CNTR_ENABLE;
 186:.\Generated_Source\PSoC5/UartDebug.c ****         /* Enable the RX Interrupt. */
 187:.\Generated_Source\PSoC5/UartDebug.c ****         UartDebug_RXSTATUS_ACTL_REG  |= UartDebug_INT_ENABLE;
 188:.\Generated_Source\PSoC5/UartDebug.c ****         #if(UartDebug_RX_INTERRUPT_ENABLED && (UartDebug_RXBUFFERSIZE > UartDebug_FIFO_LENGTH))
 189:.\Generated_Source\PSoC5/UartDebug.c ****             CyIntEnable(UartDebug_RX_VECT_NUM);
 190:.\Generated_Source\PSoC5/UartDebug.c ****             #if (UartDebug_RXHW_ADDRESS_ENABLED)
 191:.\Generated_Source\PSoC5/UartDebug.c ****                 UartDebug_rxAddressDetected = 0u;
 192:.\Generated_Source\PSoC5/UartDebug.c ****             #endif /* End UartDebug_RXHW_ADDRESS_ENABLED */
 193:.\Generated_Source\PSoC5/UartDebug.c ****         #endif /* End UartDebug_RX_INTERRUPT_ENABLED */
 194:.\Generated_Source\PSoC5/UartDebug.c ****     #endif /* End UartDebug_RX_ENABLED || UartDebug_HD_ENABLED*/
 195:.\Generated_Source\PSoC5/UartDebug.c **** 
 196:.\Generated_Source\PSoC5/UartDebug.c ****     #if(UartDebug_TX_ENABLED)
 197:.\Generated_Source\PSoC5/UartDebug.c ****         /*TX Counter (DP/Count7) Enable */
 198:.\Generated_Source\PSoC5/UartDebug.c ****         #if(!UartDebug_TXCLKGEN_DP)
 199:.\Generated_Source\PSoC5/UartDebug.c ****             UartDebug_TXBITCTR_CONTROL_REG |= UartDebug_CNTR_ENABLE;
 200:.\Generated_Source\PSoC5/UartDebug.c ****         #endif /* End UartDebug_TXCLKGEN_DP */
 201:.\Generated_Source\PSoC5/UartDebug.c ****         /* Enable the TX Interrupt. */
 202:.\Generated_Source\PSoC5/UartDebug.c ****         UartDebug_TXSTATUS_ACTL_REG |= UartDebug_INT_ENABLE;
 158              		.loc 1 202 0
 159 000e 46F29443 		movw	r3, #:lower16:1073767572
 160 0012 C4F20003 		movt	r3, #:upper16:1073767572
 161 0016 46F29442 		movw	r2, #:lower16:1073767572
 162 001a C4F20002 		movt	r2, #:upper16:1073767572
 163 001e 1278     		ldrb	r2, [r2, #0]
 164 0020 D2B2     		uxtb	r2, r2
 165 0022 42F01002 		orr	r2, r2, #16
 166 0026 D2B2     		uxtb	r2, r2
 167 0028 1A70     		strb	r2, [r3, #0]
 203:.\Generated_Source\PSoC5/UartDebug.c ****         #if(UartDebug_TX_INTERRUPT_ENABLED && (UartDebug_TXBUFFERSIZE > UartDebug_FIFO_LENGTH))
 204:.\Generated_Source\PSoC5/UartDebug.c ****             CyIntEnable(UartDebug_TX_VECT_NUM);
 168              		.loc 1 204 0
 169 002a 4FF00C00 		mov	r0, #12
 170 002e FFF7FEFF 		bl	CyIntEnable
 205:.\Generated_Source\PSoC5/UartDebug.c ****         #endif /* End UartDebug_TX_INTERRUPT_ENABLED*/
 206:.\Generated_Source\PSoC5/UartDebug.c ****      #endif /* End UartDebug_TX_ENABLED */
 207:.\Generated_Source\PSoC5/UartDebug.c **** 
 208:.\Generated_Source\PSoC5/UartDebug.c ****     #if(UartDebug_INTERNAL_CLOCK_USED)
 209:.\Generated_Source\PSoC5/UartDebug.c ****         /* Set the bit to enable the clock. */
 210:.\Generated_Source\PSoC5/UartDebug.c ****         UartDebug_INTCLOCK_CLKEN_REG |= UartDebug_INTCLOCK_CLKEN_MASK;
 171              		.loc 1 210 0
 172 0032 44F2A233 		movw	r3, #:lower16:1073759138
 173 0036 C4F20003 		movt	r3, #:upper16:1073759138
 174 003a 44F2A232 		movw	r2, #:lower16:1073759138
 175 003e C4F20002 		movt	r2, #:upper16:1073759138
 176 0042 1278     		ldrb	r2, [r2, #0]
 177 0044 D2B2     		uxtb	r2, r2
 178 0046 42F00202 		orr	r2, r2, #2
 179 004a D2B2     		uxtb	r2, r2
 180 004c 1A70     		strb	r2, [r3, #0]
 211:.\Generated_Source\PSoC5/UartDebug.c ****     #endif /* End UartDebug_INTERNAL_CLOCK_USED */
 212:.\Generated_Source\PSoC5/UartDebug.c ****     
 213:.\Generated_Source\PSoC5/UartDebug.c ****     CyExitCriticalSection(enableInterrupts);
 181              		.loc 1 213 0
 182 004e FB79     		ldrb	r3, [r7, #7]	@ zero_extendqisi2
ARM GAS  C:\Users\Geo\AppData\Local\Temp\ccOHA31t.s 			page 8


 183 0050 1846     		mov	r0, r3
 184 0052 FFF7FEFF 		bl	CyExitCriticalSection
 214:.\Generated_Source\PSoC5/UartDebug.c **** }
 185              		.loc 1 214 0
 186 0056 07F10807 		add	r7, r7, #8
 187 005a BD46     		mov	sp, r7
 188 005c 80BD     		pop	{r7, pc}
 189              		.cfi_endproc
 190              	.LFE2:
 191              		.size	UartDebug_Enable, .-UartDebug_Enable
 192 005e 00BF     		.section	.text.UartDebug_Stop,"ax",%progbits
 193              		.align	2
 194              		.global	UartDebug_Stop
 195              		.thumb
 196              		.thumb_func
 197              		.type	UartDebug_Stop, %function
 198              	UartDebug_Stop:
 199              	.LFB3:
 215:.\Generated_Source\PSoC5/UartDebug.c **** 
 216:.\Generated_Source\PSoC5/UartDebug.c **** 
 217:.\Generated_Source\PSoC5/UartDebug.c **** /*******************************************************************************
 218:.\Generated_Source\PSoC5/UartDebug.c **** * Function Name: UartDebug_Stop
 219:.\Generated_Source\PSoC5/UartDebug.c **** ********************************************************************************
 220:.\Generated_Source\PSoC5/UartDebug.c **** *
 221:.\Generated_Source\PSoC5/UartDebug.c **** * Summary:
 222:.\Generated_Source\PSoC5/UartDebug.c **** *  Disable the UART component
 223:.\Generated_Source\PSoC5/UartDebug.c **** *
 224:.\Generated_Source\PSoC5/UartDebug.c **** * Parameters:
 225:.\Generated_Source\PSoC5/UartDebug.c **** *  None.
 226:.\Generated_Source\PSoC5/UartDebug.c **** *
 227:.\Generated_Source\PSoC5/UartDebug.c **** * Return:
 228:.\Generated_Source\PSoC5/UartDebug.c **** *  None.
 229:.\Generated_Source\PSoC5/UartDebug.c **** *
 230:.\Generated_Source\PSoC5/UartDebug.c **** *******************************************************************************/
 231:.\Generated_Source\PSoC5/UartDebug.c **** void UartDebug_Stop(void) 
 232:.\Generated_Source\PSoC5/UartDebug.c **** {
 200              		.loc 1 232 0
 201              		.cfi_startproc
 202              		@ args = 0, pretend = 0, frame = 8
 203              		@ frame_needed = 1, uses_anonymous_args = 0
 204 0000 80B5     		push	{r7, lr}
 205              	.LCFI7:
 206              		.cfi_def_cfa_offset 8
 207 0002 82B0     		sub	sp, sp, #8
 208              	.LCFI8:
 209              		.cfi_def_cfa_offset 16
 210 0004 00AF     		add	r7, sp, #0
 211              		.cfi_offset 14, -4
 212              		.cfi_offset 7, -8
 213              	.LCFI9:
 214              		.cfi_def_cfa_register 7
 233:.\Generated_Source\PSoC5/UartDebug.c ****     uint8 enableInterrupts;
 234:.\Generated_Source\PSoC5/UartDebug.c ****     enableInterrupts = CyEnterCriticalSection();
 215              		.loc 1 234 0
 216 0006 FFF7FEFF 		bl	CyEnterCriticalSection
 217 000a 0346     		mov	r3, r0
 218 000c FB71     		strb	r3, [r7, #7]
ARM GAS  C:\Users\Geo\AppData\Local\Temp\ccOHA31t.s 			page 9


 235:.\Generated_Source\PSoC5/UartDebug.c **** 
 236:.\Generated_Source\PSoC5/UartDebug.c ****     /*Write Bit Counter Disable */
 237:.\Generated_Source\PSoC5/UartDebug.c ****     #if(UartDebug_RX_ENABLED || UartDebug_HD_ENABLED)
 238:.\Generated_Source\PSoC5/UartDebug.c ****         UartDebug_RXBITCTR_CONTROL_REG &= ~UartDebug_CNTR_ENABLE;
 239:.\Generated_Source\PSoC5/UartDebug.c ****     #endif /* End UartDebug_RX_ENABLED */
 240:.\Generated_Source\PSoC5/UartDebug.c **** 
 241:.\Generated_Source\PSoC5/UartDebug.c ****     #if(UartDebug_TX_ENABLED)
 242:.\Generated_Source\PSoC5/UartDebug.c ****         #if(!UartDebug_TXCLKGEN_DP)
 243:.\Generated_Source\PSoC5/UartDebug.c ****             UartDebug_TXBITCTR_CONTROL_REG &= ~UartDebug_CNTR_ENABLE;
 244:.\Generated_Source\PSoC5/UartDebug.c ****         #endif /* End UartDebug_TXCLKGEN_DP */
 245:.\Generated_Source\PSoC5/UartDebug.c ****     #endif /* UartDebug_TX_ENABLED */
 246:.\Generated_Source\PSoC5/UartDebug.c **** 
 247:.\Generated_Source\PSoC5/UartDebug.c ****     #if(UartDebug_INTERNAL_CLOCK_USED)
 248:.\Generated_Source\PSoC5/UartDebug.c ****         /* Clear the bit to enable the clock. */
 249:.\Generated_Source\PSoC5/UartDebug.c ****         UartDebug_INTCLOCK_CLKEN_REG &= ~UartDebug_INTCLOCK_CLKEN_MASK;
 219              		.loc 1 249 0
 220 000e 44F2A233 		movw	r3, #:lower16:1073759138
 221 0012 C4F20003 		movt	r3, #:upper16:1073759138
 222 0016 44F2A232 		movw	r2, #:lower16:1073759138
 223 001a C4F20002 		movt	r2, #:upper16:1073759138
 224 001e 1278     		ldrb	r2, [r2, #0]
 225 0020 D2B2     		uxtb	r2, r2
 226 0022 02F0FD02 		and	r2, r2, #253
 227 0026 1A70     		strb	r2, [r3, #0]
 250:.\Generated_Source\PSoC5/UartDebug.c ****     #endif /* End UartDebug_INTERNAL_CLOCK_USED */
 251:.\Generated_Source\PSoC5/UartDebug.c ****     
 252:.\Generated_Source\PSoC5/UartDebug.c ****     /*Disable internal interrupt component*/
 253:.\Generated_Source\PSoC5/UartDebug.c ****     #if(UartDebug_RX_ENABLED || UartDebug_HD_ENABLED)
 254:.\Generated_Source\PSoC5/UartDebug.c ****         UartDebug_RXSTATUS_ACTL_REG  &= ~UartDebug_INT_ENABLE;
 255:.\Generated_Source\PSoC5/UartDebug.c ****         #if(UartDebug_RX_INTERRUPT_ENABLED && (UartDebug_RXBUFFERSIZE > UartDebug_FIFO_LENGTH))
 256:.\Generated_Source\PSoC5/UartDebug.c ****             UartDebug_DisableRxInt();
 257:.\Generated_Source\PSoC5/UartDebug.c ****         #endif /* End UartDebug_RX_INTERRUPT_ENABLED */
 258:.\Generated_Source\PSoC5/UartDebug.c ****     #endif /* End UartDebug_RX_ENABLED */
 259:.\Generated_Source\PSoC5/UartDebug.c ****     
 260:.\Generated_Source\PSoC5/UartDebug.c ****     #if(UartDebug_TX_ENABLED)
 261:.\Generated_Source\PSoC5/UartDebug.c ****         UartDebug_TXSTATUS_ACTL_REG &= ~UartDebug_INT_ENABLE;
 228              		.loc 1 261 0
 229 0028 46F29443 		movw	r3, #:lower16:1073767572
 230 002c C4F20003 		movt	r3, #:upper16:1073767572
 231 0030 46F29442 		movw	r2, #:lower16:1073767572
 232 0034 C4F20002 		movt	r2, #:upper16:1073767572
 233 0038 1278     		ldrb	r2, [r2, #0]
 234 003a D2B2     		uxtb	r2, r2
 235 003c 02F0EF02 		and	r2, r2, #239
 236 0040 1A70     		strb	r2, [r3, #0]
 262:.\Generated_Source\PSoC5/UartDebug.c ****         #if(UartDebug_TX_INTERRUPT_ENABLED && (UartDebug_TXBUFFERSIZE > UartDebug_FIFO_LENGTH))
 263:.\Generated_Source\PSoC5/UartDebug.c ****             UartDebug_DisableTxInt();
 237              		.loc 1 263 0
 238 0042 FFF7FEFF 		bl	UartDebug_DisableTxInt
 264:.\Generated_Source\PSoC5/UartDebug.c ****         #endif /* End UartDebug_TX_INTERRUPT_ENABLED */
 265:.\Generated_Source\PSoC5/UartDebug.c ****     #endif /* End UartDebug_TX_ENABLED */
 266:.\Generated_Source\PSoC5/UartDebug.c **** 
 267:.\Generated_Source\PSoC5/UartDebug.c ****     CyExitCriticalSection(enableInterrupts);
 239              		.loc 1 267 0
 240 0046 FB79     		ldrb	r3, [r7, #7]	@ zero_extendqisi2
 241 0048 1846     		mov	r0, r3
 242 004a FFF7FEFF 		bl	CyExitCriticalSection
ARM GAS  C:\Users\Geo\AppData\Local\Temp\ccOHA31t.s 			page 10


 268:.\Generated_Source\PSoC5/UartDebug.c **** }
 243              		.loc 1 268 0
 244 004e 07F10807 		add	r7, r7, #8
 245 0052 BD46     		mov	sp, r7
 246 0054 80BD     		pop	{r7, pc}
 247              		.cfi_endproc
 248              	.LFE3:
 249              		.size	UartDebug_Stop, .-UartDebug_Stop
 250 0056 00BF     		.section	.text.UartDebug_ReadControlRegister,"ax",%progbits
 251              		.align	2
 252              		.global	UartDebug_ReadControlRegister
 253              		.thumb
 254              		.thumb_func
 255              		.type	UartDebug_ReadControlRegister, %function
 256              	UartDebug_ReadControlRegister:
 257              	.LFB4:
 269:.\Generated_Source\PSoC5/UartDebug.c **** 
 270:.\Generated_Source\PSoC5/UartDebug.c **** 
 271:.\Generated_Source\PSoC5/UartDebug.c **** /*******************************************************************************
 272:.\Generated_Source\PSoC5/UartDebug.c **** * Function Name: UartDebug_ReadControlRegister
 273:.\Generated_Source\PSoC5/UartDebug.c **** ********************************************************************************
 274:.\Generated_Source\PSoC5/UartDebug.c **** *
 275:.\Generated_Source\PSoC5/UartDebug.c **** * Summary:
 276:.\Generated_Source\PSoC5/UartDebug.c **** *  Read the current state of the control register
 277:.\Generated_Source\PSoC5/UartDebug.c **** *
 278:.\Generated_Source\PSoC5/UartDebug.c **** * Parameters:
 279:.\Generated_Source\PSoC5/UartDebug.c **** *  None.
 280:.\Generated_Source\PSoC5/UartDebug.c **** *
 281:.\Generated_Source\PSoC5/UartDebug.c **** * Return:
 282:.\Generated_Source\PSoC5/UartDebug.c **** *  Current state of the control register.
 283:.\Generated_Source\PSoC5/UartDebug.c **** *
 284:.\Generated_Source\PSoC5/UartDebug.c **** *******************************************************************************/
 285:.\Generated_Source\PSoC5/UartDebug.c **** uint8 UartDebug_ReadControlRegister(void) 
 286:.\Generated_Source\PSoC5/UartDebug.c **** {
 258              		.loc 1 286 0
 259              		.cfi_startproc
 260              		@ args = 0, pretend = 0, frame = 0
 261              		@ frame_needed = 1, uses_anonymous_args = 0
 262              		@ link register save eliminated.
 263 0000 80B4     		push	{r7}
 264              	.LCFI10:
 265              		.cfi_def_cfa_offset 4
 266 0002 00AF     		add	r7, sp, #0
 267              		.cfi_offset 7, -4
 268              	.LCFI11:
 269              		.cfi_def_cfa_register 7
 287:.\Generated_Source\PSoC5/UartDebug.c ****     #if( UartDebug_CONTROL_REG_REMOVED )
 288:.\Generated_Source\PSoC5/UartDebug.c ****         return(0u);
 270              		.loc 1 288 0
 271 0004 4FF00003 		mov	r3, #0
 289:.\Generated_Source\PSoC5/UartDebug.c ****     #else
 290:.\Generated_Source\PSoC5/UartDebug.c ****         return(UartDebug_CONTROL_REG);
 291:.\Generated_Source\PSoC5/UartDebug.c ****     #endif /* End UartDebug_CONTROL_REG_REMOVED */
 292:.\Generated_Source\PSoC5/UartDebug.c **** }
 272              		.loc 1 292 0
 273 0008 1846     		mov	r0, r3
 274 000a BD46     		mov	sp, r7
ARM GAS  C:\Users\Geo\AppData\Local\Temp\ccOHA31t.s 			page 11


 275 000c 80BC     		pop	{r7}
 276 000e 7047     		bx	lr
 277              		.cfi_endproc
 278              	.LFE4:
 279              		.size	UartDebug_ReadControlRegister, .-UartDebug_ReadControlRegister
 280              		.section	.text.UartDebug_WriteControlRegister,"ax",%progbits
 281              		.align	2
 282              		.global	UartDebug_WriteControlRegister
 283              		.thumb
 284              		.thumb_func
 285              		.type	UartDebug_WriteControlRegister, %function
 286              	UartDebug_WriteControlRegister:
 287              	.LFB5:
 293:.\Generated_Source\PSoC5/UartDebug.c **** 
 294:.\Generated_Source\PSoC5/UartDebug.c **** 
 295:.\Generated_Source\PSoC5/UartDebug.c **** /*******************************************************************************
 296:.\Generated_Source\PSoC5/UartDebug.c **** * Function Name: UartDebug_WriteControlRegister
 297:.\Generated_Source\PSoC5/UartDebug.c **** ********************************************************************************
 298:.\Generated_Source\PSoC5/UartDebug.c **** *
 299:.\Generated_Source\PSoC5/UartDebug.c **** * Summary:
 300:.\Generated_Source\PSoC5/UartDebug.c **** *  Writes an 8-bit value into the control register
 301:.\Generated_Source\PSoC5/UartDebug.c **** *
 302:.\Generated_Source\PSoC5/UartDebug.c **** * Parameters:
 303:.\Generated_Source\PSoC5/UartDebug.c **** *  control:  control register value
 304:.\Generated_Source\PSoC5/UartDebug.c **** *
 305:.\Generated_Source\PSoC5/UartDebug.c **** * Return:
 306:.\Generated_Source\PSoC5/UartDebug.c **** *  None.
 307:.\Generated_Source\PSoC5/UartDebug.c **** *
 308:.\Generated_Source\PSoC5/UartDebug.c **** *******************************************************************************/
 309:.\Generated_Source\PSoC5/UartDebug.c **** void  UartDebug_WriteControlRegister(uint8 control) 
 310:.\Generated_Source\PSoC5/UartDebug.c **** {
 288              		.loc 1 310 0
 289              		.cfi_startproc
 290              		@ args = 0, pretend = 0, frame = 8
 291              		@ frame_needed = 1, uses_anonymous_args = 0
 292              		@ link register save eliminated.
 293 0000 80B4     		push	{r7}
 294              	.LCFI12:
 295              		.cfi_def_cfa_offset 4
 296 0002 83B0     		sub	sp, sp, #12
 297              	.LCFI13:
 298              		.cfi_def_cfa_offset 16
 299 0004 00AF     		add	r7, sp, #0
 300              		.cfi_offset 7, -4
 301              	.LCFI14:
 302              		.cfi_def_cfa_register 7
 303 0006 0346     		mov	r3, r0
 304 0008 FB71     		strb	r3, [r7, #7]
 311:.\Generated_Source\PSoC5/UartDebug.c ****     #if( UartDebug_CONTROL_REG_REMOVED )
 312:.\Generated_Source\PSoC5/UartDebug.c ****         control = control;      /* Reassigning to release compiler warning */ 
 313:.\Generated_Source\PSoC5/UartDebug.c ****     #else
 314:.\Generated_Source\PSoC5/UartDebug.c ****        UartDebug_CONTROL_REG = control;
 315:.\Generated_Source\PSoC5/UartDebug.c ****     #endif /* End UartDebug_CONTROL_REG_REMOVED */
 316:.\Generated_Source\PSoC5/UartDebug.c **** }
 305              		.loc 1 316 0
 306 000a 07F10C07 		add	r7, r7, #12
 307 000e BD46     		mov	sp, r7
ARM GAS  C:\Users\Geo\AppData\Local\Temp\ccOHA31t.s 			page 12


 308 0010 80BC     		pop	{r7}
 309 0012 7047     		bx	lr
 310              		.cfi_endproc
 311              	.LFE5:
 312              		.size	UartDebug_WriteControlRegister, .-UartDebug_WriteControlRegister
 313              		.section	.text.UartDebug_EnableTxInt,"ax",%progbits
 314              		.align	2
 315              		.global	UartDebug_EnableTxInt
 316              		.thumb
 317              		.thumb_func
 318              		.type	UartDebug_EnableTxInt, %function
 319              	UartDebug_EnableTxInt:
 320              	.LFB6:
 317:.\Generated_Source\PSoC5/UartDebug.c **** 
 318:.\Generated_Source\PSoC5/UartDebug.c **** 
 319:.\Generated_Source\PSoC5/UartDebug.c **** #if(UartDebug_RX_ENABLED || UartDebug_HD_ENABLED)
 320:.\Generated_Source\PSoC5/UartDebug.c **** 
 321:.\Generated_Source\PSoC5/UartDebug.c ****     #if(UartDebug_RX_INTERRUPT_ENABLED)
 322:.\Generated_Source\PSoC5/UartDebug.c **** 
 323:.\Generated_Source\PSoC5/UartDebug.c ****         /*******************************************************************************
 324:.\Generated_Source\PSoC5/UartDebug.c ****         * Function Name: UartDebug_EnableRxInt
 325:.\Generated_Source\PSoC5/UartDebug.c ****         ********************************************************************************
 326:.\Generated_Source\PSoC5/UartDebug.c ****         *
 327:.\Generated_Source\PSoC5/UartDebug.c ****         * Summary:
 328:.\Generated_Source\PSoC5/UartDebug.c ****         *  Enable RX interrupt generation
 329:.\Generated_Source\PSoC5/UartDebug.c ****         *
 330:.\Generated_Source\PSoC5/UartDebug.c ****         * Parameters:
 331:.\Generated_Source\PSoC5/UartDebug.c ****         *  None.
 332:.\Generated_Source\PSoC5/UartDebug.c ****         *
 333:.\Generated_Source\PSoC5/UartDebug.c ****         * Return:
 334:.\Generated_Source\PSoC5/UartDebug.c ****         *  None.
 335:.\Generated_Source\PSoC5/UartDebug.c ****         *
 336:.\Generated_Source\PSoC5/UartDebug.c ****         * Theory:
 337:.\Generated_Source\PSoC5/UartDebug.c ****         *  Enable the interrupt output -or- the interrupt component itself
 338:.\Generated_Source\PSoC5/UartDebug.c ****         *
 339:.\Generated_Source\PSoC5/UartDebug.c ****         *******************************************************************************/
 340:.\Generated_Source\PSoC5/UartDebug.c ****         void UartDebug_EnableRxInt(void) 
 341:.\Generated_Source\PSoC5/UartDebug.c ****         {
 342:.\Generated_Source\PSoC5/UartDebug.c ****             CyIntEnable(UartDebug_RX_VECT_NUM);
 343:.\Generated_Source\PSoC5/UartDebug.c ****         }
 344:.\Generated_Source\PSoC5/UartDebug.c **** 
 345:.\Generated_Source\PSoC5/UartDebug.c **** 
 346:.\Generated_Source\PSoC5/UartDebug.c ****         /*******************************************************************************
 347:.\Generated_Source\PSoC5/UartDebug.c ****         * Function Name: UartDebug_DisableRxInt
 348:.\Generated_Source\PSoC5/UartDebug.c ****         ********************************************************************************
 349:.\Generated_Source\PSoC5/UartDebug.c ****         *
 350:.\Generated_Source\PSoC5/UartDebug.c ****         * Summary:
 351:.\Generated_Source\PSoC5/UartDebug.c ****         *  Disable RX interrupt generation
 352:.\Generated_Source\PSoC5/UartDebug.c ****         *
 353:.\Generated_Source\PSoC5/UartDebug.c ****         * Parameters:
 354:.\Generated_Source\PSoC5/UartDebug.c ****         *  None.
 355:.\Generated_Source\PSoC5/UartDebug.c ****         *
 356:.\Generated_Source\PSoC5/UartDebug.c ****         * Return:
 357:.\Generated_Source\PSoC5/UartDebug.c ****         *  None.
 358:.\Generated_Source\PSoC5/UartDebug.c ****         *
 359:.\Generated_Source\PSoC5/UartDebug.c ****         * Theory:
 360:.\Generated_Source\PSoC5/UartDebug.c ****         *  Disable the interrupt output -or- the interrupt component itself
ARM GAS  C:\Users\Geo\AppData\Local\Temp\ccOHA31t.s 			page 13


 361:.\Generated_Source\PSoC5/UartDebug.c ****         *
 362:.\Generated_Source\PSoC5/UartDebug.c ****         *******************************************************************************/
 363:.\Generated_Source\PSoC5/UartDebug.c ****         void UartDebug_DisableRxInt(void) 
 364:.\Generated_Source\PSoC5/UartDebug.c ****         {
 365:.\Generated_Source\PSoC5/UartDebug.c ****             CyIntDisable(UartDebug_RX_VECT_NUM);
 366:.\Generated_Source\PSoC5/UartDebug.c ****         }
 367:.\Generated_Source\PSoC5/UartDebug.c **** 
 368:.\Generated_Source\PSoC5/UartDebug.c ****     #endif /* UartDebug_RX_INTERRUPT_ENABLED */
 369:.\Generated_Source\PSoC5/UartDebug.c **** 
 370:.\Generated_Source\PSoC5/UartDebug.c **** 
 371:.\Generated_Source\PSoC5/UartDebug.c ****     /*******************************************************************************
 372:.\Generated_Source\PSoC5/UartDebug.c ****     * Function Name: UartDebug_SetRxInterruptMode
 373:.\Generated_Source\PSoC5/UartDebug.c ****     ********************************************************************************
 374:.\Generated_Source\PSoC5/UartDebug.c ****     *
 375:.\Generated_Source\PSoC5/UartDebug.c ****     * Summary:
 376:.\Generated_Source\PSoC5/UartDebug.c ****     *  Configure which status bits trigger an interrupt event
 377:.\Generated_Source\PSoC5/UartDebug.c ****     *
 378:.\Generated_Source\PSoC5/UartDebug.c ****     * Parameters:
 379:.\Generated_Source\PSoC5/UartDebug.c ****     *  IntSrc:  An or'd combination of the desired status bit masks (defined in
 380:.\Generated_Source\PSoC5/UartDebug.c ****     *           the header file)
 381:.\Generated_Source\PSoC5/UartDebug.c ****     *
 382:.\Generated_Source\PSoC5/UartDebug.c ****     * Return:
 383:.\Generated_Source\PSoC5/UartDebug.c ****     *  None.
 384:.\Generated_Source\PSoC5/UartDebug.c ****     *
 385:.\Generated_Source\PSoC5/UartDebug.c ****     * Theory:
 386:.\Generated_Source\PSoC5/UartDebug.c ****     *  Enables the output of specific status bits to the interrupt controller
 387:.\Generated_Source\PSoC5/UartDebug.c ****     *
 388:.\Generated_Source\PSoC5/UartDebug.c ****     *******************************************************************************/
 389:.\Generated_Source\PSoC5/UartDebug.c ****     void UartDebug_SetRxInterruptMode(uint8 intSrc) 
 390:.\Generated_Source\PSoC5/UartDebug.c ****     {
 391:.\Generated_Source\PSoC5/UartDebug.c ****         UartDebug_RXSTATUS_MASK_REG  = intSrc;
 392:.\Generated_Source\PSoC5/UartDebug.c ****     }
 393:.\Generated_Source\PSoC5/UartDebug.c **** 
 394:.\Generated_Source\PSoC5/UartDebug.c **** 
 395:.\Generated_Source\PSoC5/UartDebug.c ****     /*******************************************************************************
 396:.\Generated_Source\PSoC5/UartDebug.c ****     * Function Name: UartDebug_ReadRxData
 397:.\Generated_Source\PSoC5/UartDebug.c ****     ********************************************************************************
 398:.\Generated_Source\PSoC5/UartDebug.c ****     *
 399:.\Generated_Source\PSoC5/UartDebug.c ****     * Summary:
 400:.\Generated_Source\PSoC5/UartDebug.c ****     *  Returns data in RX Data register without checking status register to 
 401:.\Generated_Source\PSoC5/UartDebug.c ****     *  determine if data is valid
 402:.\Generated_Source\PSoC5/UartDebug.c ****     *
 403:.\Generated_Source\PSoC5/UartDebug.c ****     * Parameters:
 404:.\Generated_Source\PSoC5/UartDebug.c ****     *  None.
 405:.\Generated_Source\PSoC5/UartDebug.c ****     *
 406:.\Generated_Source\PSoC5/UartDebug.c ****     * Return:
 407:.\Generated_Source\PSoC5/UartDebug.c ****     *  Received data from RX register
 408:.\Generated_Source\PSoC5/UartDebug.c ****     *
 409:.\Generated_Source\PSoC5/UartDebug.c ****     * Global Variables:
 410:.\Generated_Source\PSoC5/UartDebug.c ****     *  UartDebug_rxBuffer - RAM buffer pointer for save received data.
 411:.\Generated_Source\PSoC5/UartDebug.c ****     *  UartDebug_rxBufferWrite - cyclic index for write to rxBuffer, 
 412:.\Generated_Source\PSoC5/UartDebug.c ****     *     checked to identify new data. 
 413:.\Generated_Source\PSoC5/UartDebug.c ****     *  UartDebug_rxBufferRead - cyclic index for read from rxBuffer, 
 414:.\Generated_Source\PSoC5/UartDebug.c ****     *     incremented after each byte has been read from buffer.
 415:.\Generated_Source\PSoC5/UartDebug.c ****     *  UartDebug_rxBufferLoopDetect - creared if loop condition was detected
 416:.\Generated_Source\PSoC5/UartDebug.c ****     *     in RX ISR. 
 417:.\Generated_Source\PSoC5/UartDebug.c ****     *
ARM GAS  C:\Users\Geo\AppData\Local\Temp\ccOHA31t.s 			page 14


 418:.\Generated_Source\PSoC5/UartDebug.c ****     * Reentrant:
 419:.\Generated_Source\PSoC5/UartDebug.c ****     *  No.
 420:.\Generated_Source\PSoC5/UartDebug.c ****     *
 421:.\Generated_Source\PSoC5/UartDebug.c ****     *******************************************************************************/
 422:.\Generated_Source\PSoC5/UartDebug.c ****     uint8 UartDebug_ReadRxData(void) 
 423:.\Generated_Source\PSoC5/UartDebug.c ****     {
 424:.\Generated_Source\PSoC5/UartDebug.c ****         uint8 rxData;
 425:.\Generated_Source\PSoC5/UartDebug.c **** 
 426:.\Generated_Source\PSoC5/UartDebug.c ****         #if(UartDebug_RXBUFFERSIZE > UartDebug_FIFO_LENGTH)
 427:.\Generated_Source\PSoC5/UartDebug.c **** 
 428:.\Generated_Source\PSoC5/UartDebug.c ****             /* Disable Rx interrupt. */
 429:.\Generated_Source\PSoC5/UartDebug.c ****             /* Protect variables that could change on interrupt. */
 430:.\Generated_Source\PSoC5/UartDebug.c ****             #if(UartDebug_RX_INTERRUPT_ENABLED)
 431:.\Generated_Source\PSoC5/UartDebug.c ****                 UartDebug_DisableRxInt();
 432:.\Generated_Source\PSoC5/UartDebug.c ****             #endif /* End UartDebug_RX_INTERRUPT_ENABLED */
 433:.\Generated_Source\PSoC5/UartDebug.c **** 
 434:.\Generated_Source\PSoC5/UartDebug.c ****             if( (UartDebug_rxBufferRead != UartDebug_rxBufferWrite) ||
 435:.\Generated_Source\PSoC5/UartDebug.c ****                 (UartDebug_rxBufferLoopDetect > 0u) )
 436:.\Generated_Source\PSoC5/UartDebug.c ****             {
 437:.\Generated_Source\PSoC5/UartDebug.c **** 
 438:.\Generated_Source\PSoC5/UartDebug.c ****                 rxData = UartDebug_rxBuffer[UartDebug_rxBufferRead];
 439:.\Generated_Source\PSoC5/UartDebug.c **** 
 440:.\Generated_Source\PSoC5/UartDebug.c ****                 UartDebug_rxBufferRead++;
 441:.\Generated_Source\PSoC5/UartDebug.c **** 
 442:.\Generated_Source\PSoC5/UartDebug.c ****                 if(UartDebug_rxBufferRead >= UartDebug_RXBUFFERSIZE)
 443:.\Generated_Source\PSoC5/UartDebug.c ****                 {
 444:.\Generated_Source\PSoC5/UartDebug.c ****                     UartDebug_rxBufferRead = 0u;
 445:.\Generated_Source\PSoC5/UartDebug.c ****                 }
 446:.\Generated_Source\PSoC5/UartDebug.c **** 
 447:.\Generated_Source\PSoC5/UartDebug.c ****                 if(UartDebug_rxBufferLoopDetect > 0u )
 448:.\Generated_Source\PSoC5/UartDebug.c ****                 {
 449:.\Generated_Source\PSoC5/UartDebug.c ****                     UartDebug_rxBufferLoopDetect = 0u;
 450:.\Generated_Source\PSoC5/UartDebug.c ****                     #if( (UartDebug_RX_INTERRUPT_ENABLED) && (UartDebug_FLOW_CONTROL != 0u) && \
 451:.\Generated_Source\PSoC5/UartDebug.c ****                          (UartDebug_RXBUFFERSIZE > UartDebug_FIFO_LENGTH) )
 452:.\Generated_Source\PSoC5/UartDebug.c ****                         /* When Hardware Flow Control selected - return RX mask */
 453:.\Generated_Source\PSoC5/UartDebug.c ****                         #if( UartDebug_HD_ENABLED )
 454:.\Generated_Source\PSoC5/UartDebug.c ****                             if((UartDebug_CONTROL_REG & UartDebug_CTRL_HD_SEND) == 0)
 455:.\Generated_Source\PSoC5/UartDebug.c ****                             {   /* In Half duplex mode return RX mask only in RX configuration set,
 456:.\Generated_Source\PSoC5/UartDebug.c ****                                 *  mask will be returned in LoadRxConfig() API. 
 457:.\Generated_Source\PSoC5/UartDebug.c ****                                 */
 458:.\Generated_Source\PSoC5/UartDebug.c ****                                 UartDebug_RXSTATUS_MASK_REG  |= UartDebug_RX_STS_FIFO_NOTEMPTY;
 459:.\Generated_Source\PSoC5/UartDebug.c ****                             }
 460:.\Generated_Source\PSoC5/UartDebug.c ****                         #else
 461:.\Generated_Source\PSoC5/UartDebug.c ****                             UartDebug_RXSTATUS_MASK_REG  |= UartDebug_RX_STS_FIFO_NOTEMPTY;
 462:.\Generated_Source\PSoC5/UartDebug.c ****                         #endif /* end UartDebug_HD_ENABLED */
 463:.\Generated_Source\PSoC5/UartDebug.c ****                     #endif /* UartDebug_RX_INTERRUPT_ENABLED and Hardware flow control*/
 464:.\Generated_Source\PSoC5/UartDebug.c ****                 }
 465:.\Generated_Source\PSoC5/UartDebug.c ****             }
 466:.\Generated_Source\PSoC5/UartDebug.c ****             else
 467:.\Generated_Source\PSoC5/UartDebug.c ****             {   /* Needs to check status for RX_STS_FIFO_NOTEMPTY bit*/
 468:.\Generated_Source\PSoC5/UartDebug.c ****                 rxData = UartDebug_RXDATA_REG;
 469:.\Generated_Source\PSoC5/UartDebug.c ****             }
 470:.\Generated_Source\PSoC5/UartDebug.c **** 
 471:.\Generated_Source\PSoC5/UartDebug.c ****             /* Enable Rx interrupt. */
 472:.\Generated_Source\PSoC5/UartDebug.c ****             #if(UartDebug_RX_INTERRUPT_ENABLED)
 473:.\Generated_Source\PSoC5/UartDebug.c ****                 UartDebug_EnableRxInt();
 474:.\Generated_Source\PSoC5/UartDebug.c ****             #endif /* End UartDebug_RX_INTERRUPT_ENABLED */
ARM GAS  C:\Users\Geo\AppData\Local\Temp\ccOHA31t.s 			page 15


 475:.\Generated_Source\PSoC5/UartDebug.c **** 
 476:.\Generated_Source\PSoC5/UartDebug.c ****         #else /* UartDebug_RXBUFFERSIZE > UartDebug_FIFO_LENGTH */
 477:.\Generated_Source\PSoC5/UartDebug.c **** 
 478:.\Generated_Source\PSoC5/UartDebug.c ****             /* Needs to check status for RX_STS_FIFO_NOTEMPTY bit*/
 479:.\Generated_Source\PSoC5/UartDebug.c ****             rxData = UartDebug_RXDATA_REG;
 480:.\Generated_Source\PSoC5/UartDebug.c **** 
 481:.\Generated_Source\PSoC5/UartDebug.c ****         #endif /* UartDebug_RXBUFFERSIZE > UartDebug_FIFO_LENGTH */
 482:.\Generated_Source\PSoC5/UartDebug.c **** 
 483:.\Generated_Source\PSoC5/UartDebug.c ****         return(rxData);
 484:.\Generated_Source\PSoC5/UartDebug.c ****     }
 485:.\Generated_Source\PSoC5/UartDebug.c **** 
 486:.\Generated_Source\PSoC5/UartDebug.c **** 
 487:.\Generated_Source\PSoC5/UartDebug.c ****     /*******************************************************************************
 488:.\Generated_Source\PSoC5/UartDebug.c ****     * Function Name: UartDebug_ReadRxStatus
 489:.\Generated_Source\PSoC5/UartDebug.c ****     ********************************************************************************
 490:.\Generated_Source\PSoC5/UartDebug.c ****     *
 491:.\Generated_Source\PSoC5/UartDebug.c ****     * Summary:
 492:.\Generated_Source\PSoC5/UartDebug.c ****     *  Read the current state of the status register
 493:.\Generated_Source\PSoC5/UartDebug.c ****     *  And detect software buffer overflow.
 494:.\Generated_Source\PSoC5/UartDebug.c ****     *
 495:.\Generated_Source\PSoC5/UartDebug.c ****     * Parameters:
 496:.\Generated_Source\PSoC5/UartDebug.c ****     *  None.
 497:.\Generated_Source\PSoC5/UartDebug.c ****     *
 498:.\Generated_Source\PSoC5/UartDebug.c ****     * Return:
 499:.\Generated_Source\PSoC5/UartDebug.c ****     *  Current state of the status register.
 500:.\Generated_Source\PSoC5/UartDebug.c ****     *
 501:.\Generated_Source\PSoC5/UartDebug.c ****     * Global Variables:
 502:.\Generated_Source\PSoC5/UartDebug.c ****     *  UartDebug_rxBufferOverflow - used to indicate overload condition. 
 503:.\Generated_Source\PSoC5/UartDebug.c ****     *   It set to one in RX interrupt when there isn?t free space in 
 504:.\Generated_Source\PSoC5/UartDebug.c ****     *   UartDebug_rxBufferRead to write new data. This condition returned 
 505:.\Generated_Source\PSoC5/UartDebug.c ****     *   and cleared to zero by this API as an 
 506:.\Generated_Source\PSoC5/UartDebug.c ****     *   UartDebug_RX_STS_SOFT_BUFF_OVER bit along with RX Status register 
 507:.\Generated_Source\PSoC5/UartDebug.c ****     *   bits.
 508:.\Generated_Source\PSoC5/UartDebug.c ****     *
 509:.\Generated_Source\PSoC5/UartDebug.c ****     *******************************************************************************/
 510:.\Generated_Source\PSoC5/UartDebug.c ****     uint8 UartDebug_ReadRxStatus(void) 
 511:.\Generated_Source\PSoC5/UartDebug.c ****     {
 512:.\Generated_Source\PSoC5/UartDebug.c ****         uint8 status;
 513:.\Generated_Source\PSoC5/UartDebug.c **** 
 514:.\Generated_Source\PSoC5/UartDebug.c ****         status = UartDebug_RXSTATUS_REG;
 515:.\Generated_Source\PSoC5/UartDebug.c ****         status &= UartDebug_RX_HW_MASK;
 516:.\Generated_Source\PSoC5/UartDebug.c **** 
 517:.\Generated_Source\PSoC5/UartDebug.c ****         #if(UartDebug_RXBUFFERSIZE > UartDebug_FIFO_LENGTH)
 518:.\Generated_Source\PSoC5/UartDebug.c ****             if( UartDebug_rxBufferOverflow )
 519:.\Generated_Source\PSoC5/UartDebug.c ****             {
 520:.\Generated_Source\PSoC5/UartDebug.c ****                 status |= UartDebug_RX_STS_SOFT_BUFF_OVER;
 521:.\Generated_Source\PSoC5/UartDebug.c ****                 UartDebug_rxBufferOverflow = 0u;
 522:.\Generated_Source\PSoC5/UartDebug.c ****             }
 523:.\Generated_Source\PSoC5/UartDebug.c ****         #endif /* UartDebug_RXBUFFERSIZE */
 524:.\Generated_Source\PSoC5/UartDebug.c **** 
 525:.\Generated_Source\PSoC5/UartDebug.c ****         return(status);
 526:.\Generated_Source\PSoC5/UartDebug.c ****     }
 527:.\Generated_Source\PSoC5/UartDebug.c **** 
 528:.\Generated_Source\PSoC5/UartDebug.c **** 
 529:.\Generated_Source\PSoC5/UartDebug.c ****     /*******************************************************************************
 530:.\Generated_Source\PSoC5/UartDebug.c ****     * Function Name: UartDebug_GetChar
 531:.\Generated_Source\PSoC5/UartDebug.c ****     ********************************************************************************
ARM GAS  C:\Users\Geo\AppData\Local\Temp\ccOHA31t.s 			page 16


 532:.\Generated_Source\PSoC5/UartDebug.c ****     *
 533:.\Generated_Source\PSoC5/UartDebug.c ****     * Summary:
 534:.\Generated_Source\PSoC5/UartDebug.c ****     *  Reads UART RX buffer immediately, if data is not available or an error 
 535:.\Generated_Source\PSoC5/UartDebug.c ****     *  condition exists, zero is returned; otherwise, character is read and 
 536:.\Generated_Source\PSoC5/UartDebug.c ****     *  returned.
 537:.\Generated_Source\PSoC5/UartDebug.c ****     *
 538:.\Generated_Source\PSoC5/UartDebug.c ****     * Parameters:
 539:.\Generated_Source\PSoC5/UartDebug.c ****     *  None.
 540:.\Generated_Source\PSoC5/UartDebug.c ****     *
 541:.\Generated_Source\PSoC5/UartDebug.c ****     * Return:
 542:.\Generated_Source\PSoC5/UartDebug.c ****     *  Character read from UART RX buffer. ASCII characters from 1 to 255 are valid.
 543:.\Generated_Source\PSoC5/UartDebug.c ****     *  A returned zero signifies an error condition or no data available.
 544:.\Generated_Source\PSoC5/UartDebug.c ****     *
 545:.\Generated_Source\PSoC5/UartDebug.c ****     * Global Variables:
 546:.\Generated_Source\PSoC5/UartDebug.c ****     *  UartDebug_rxBuffer - RAM buffer pointer for save received data.
 547:.\Generated_Source\PSoC5/UartDebug.c ****     *  UartDebug_rxBufferWrite - cyclic index for write to rxBuffer, 
 548:.\Generated_Source\PSoC5/UartDebug.c ****     *     checked to identify new data. 
 549:.\Generated_Source\PSoC5/UartDebug.c ****     *  UartDebug_rxBufferRead - cyclic index for read from rxBuffer, 
 550:.\Generated_Source\PSoC5/UartDebug.c ****     *     incremented after each byte has been read from buffer.
 551:.\Generated_Source\PSoC5/UartDebug.c ****     *  UartDebug_rxBufferLoopDetect - creared if loop condition was detected
 552:.\Generated_Source\PSoC5/UartDebug.c ****     *     in RX ISR. 
 553:.\Generated_Source\PSoC5/UartDebug.c ****     *
 554:.\Generated_Source\PSoC5/UartDebug.c ****     * Reentrant:
 555:.\Generated_Source\PSoC5/UartDebug.c ****     *  No.
 556:.\Generated_Source\PSoC5/UartDebug.c ****     *
 557:.\Generated_Source\PSoC5/UartDebug.c ****     *******************************************************************************/
 558:.\Generated_Source\PSoC5/UartDebug.c ****     uint8 UartDebug_GetChar(void) 
 559:.\Generated_Source\PSoC5/UartDebug.c ****     {
 560:.\Generated_Source\PSoC5/UartDebug.c ****         uint8 rxData = 0u;
 561:.\Generated_Source\PSoC5/UartDebug.c ****         uint8 rxStatus;
 562:.\Generated_Source\PSoC5/UartDebug.c **** 
 563:.\Generated_Source\PSoC5/UartDebug.c ****         #if(UartDebug_RXBUFFERSIZE > UartDebug_FIFO_LENGTH)
 564:.\Generated_Source\PSoC5/UartDebug.c **** 
 565:.\Generated_Source\PSoC5/UartDebug.c ****             /* Disable Rx interrupt. */
 566:.\Generated_Source\PSoC5/UartDebug.c ****             /* Protect variables that could change on interrupt. */
 567:.\Generated_Source\PSoC5/UartDebug.c ****             #if(UartDebug_RX_INTERRUPT_ENABLED)
 568:.\Generated_Source\PSoC5/UartDebug.c ****                 UartDebug_DisableRxInt();
 569:.\Generated_Source\PSoC5/UartDebug.c ****             #endif /* UartDebug_RX_INTERRUPT_ENABLED */
 570:.\Generated_Source\PSoC5/UartDebug.c **** 
 571:.\Generated_Source\PSoC5/UartDebug.c ****             if( (UartDebug_rxBufferRead != UartDebug_rxBufferWrite) ||
 572:.\Generated_Source\PSoC5/UartDebug.c ****                 (UartDebug_rxBufferLoopDetect > 0u) )
 573:.\Generated_Source\PSoC5/UartDebug.c ****             {
 574:.\Generated_Source\PSoC5/UartDebug.c ****                 rxData = UartDebug_rxBuffer[UartDebug_rxBufferRead];
 575:.\Generated_Source\PSoC5/UartDebug.c **** 
 576:.\Generated_Source\PSoC5/UartDebug.c ****                 UartDebug_rxBufferRead++;
 577:.\Generated_Source\PSoC5/UartDebug.c **** 
 578:.\Generated_Source\PSoC5/UartDebug.c ****                 if(UartDebug_rxBufferRead >= UartDebug_RXBUFFERSIZE)
 579:.\Generated_Source\PSoC5/UartDebug.c ****                 {
 580:.\Generated_Source\PSoC5/UartDebug.c ****                     UartDebug_rxBufferRead = 0u;
 581:.\Generated_Source\PSoC5/UartDebug.c ****                 }
 582:.\Generated_Source\PSoC5/UartDebug.c **** 
 583:.\Generated_Source\PSoC5/UartDebug.c ****                 if(UartDebug_rxBufferLoopDetect > 0u ) 
 584:.\Generated_Source\PSoC5/UartDebug.c ****                 {
 585:.\Generated_Source\PSoC5/UartDebug.c ****                     UartDebug_rxBufferLoopDetect = 0u;
 586:.\Generated_Source\PSoC5/UartDebug.c ****                     #if( (UartDebug_RX_INTERRUPT_ENABLED) && (UartDebug_FLOW_CONTROL != 0u) && \
 587:.\Generated_Source\PSoC5/UartDebug.c ****                          (UartDebug_RXBUFFERSIZE > UartDebug_FIFO_LENGTH) )
 588:.\Generated_Source\PSoC5/UartDebug.c ****                         /* When Hardware Flow Control selected - return RX mask */
ARM GAS  C:\Users\Geo\AppData\Local\Temp\ccOHA31t.s 			page 17


 589:.\Generated_Source\PSoC5/UartDebug.c ****                         #if( UartDebug_HD_ENABLED )
 590:.\Generated_Source\PSoC5/UartDebug.c ****                             if((UartDebug_CONTROL_REG & UartDebug_CTRL_HD_SEND) == 0)
 591:.\Generated_Source\PSoC5/UartDebug.c ****                             {   /* In Half duplex mode return RX mask only in RX configuration set,
 592:.\Generated_Source\PSoC5/UartDebug.c ****                                 *  mask will be returned in LoadRxConfig() API. 
 593:.\Generated_Source\PSoC5/UartDebug.c ****                                 */
 594:.\Generated_Source\PSoC5/UartDebug.c ****                                 UartDebug_RXSTATUS_MASK_REG  |= UartDebug_RX_STS_FIFO_NOTEMPTY;
 595:.\Generated_Source\PSoC5/UartDebug.c ****                             }
 596:.\Generated_Source\PSoC5/UartDebug.c ****                         #else
 597:.\Generated_Source\PSoC5/UartDebug.c ****                             UartDebug_RXSTATUS_MASK_REG  |= UartDebug_RX_STS_FIFO_NOTEMPTY;
 598:.\Generated_Source\PSoC5/UartDebug.c ****                         #endif /* end UartDebug_HD_ENABLED */
 599:.\Generated_Source\PSoC5/UartDebug.c ****                     #endif /* UartDebug_RX_INTERRUPT_ENABLED and Hardware flow control*/
 600:.\Generated_Source\PSoC5/UartDebug.c ****                 }
 601:.\Generated_Source\PSoC5/UartDebug.c **** 
 602:.\Generated_Source\PSoC5/UartDebug.c ****             }
 603:.\Generated_Source\PSoC5/UartDebug.c ****             else
 604:.\Generated_Source\PSoC5/UartDebug.c ****             {   rxStatus =UartDebug_RXSTATUS_REG;
 605:.\Generated_Source\PSoC5/UartDebug.c ****                 if(rxStatus & UartDebug_RX_STS_FIFO_NOTEMPTY)
 606:.\Generated_Source\PSoC5/UartDebug.c ****                 {   /* Read received data from FIFO*/
 607:.\Generated_Source\PSoC5/UartDebug.c ****                     rxData = UartDebug_RXDATA_REG;
 608:.\Generated_Source\PSoC5/UartDebug.c ****                     /*Check status on error*/
 609:.\Generated_Source\PSoC5/UartDebug.c ****                     if(rxStatus & (UartDebug_RX_STS_BREAK | UartDebug_RX_STS_PAR_ERROR |
 610:.\Generated_Source\PSoC5/UartDebug.c ****                                    UartDebug_RX_STS_STOP_ERROR | UartDebug_RX_STS_OVERRUN))
 611:.\Generated_Source\PSoC5/UartDebug.c ****                     {
 612:.\Generated_Source\PSoC5/UartDebug.c ****                         rxData = 0u;
 613:.\Generated_Source\PSoC5/UartDebug.c ****                     }    
 614:.\Generated_Source\PSoC5/UartDebug.c ****                 }
 615:.\Generated_Source\PSoC5/UartDebug.c ****             }
 616:.\Generated_Source\PSoC5/UartDebug.c **** 
 617:.\Generated_Source\PSoC5/UartDebug.c ****             /* Enable Rx interrupt. */
 618:.\Generated_Source\PSoC5/UartDebug.c ****             #if(UartDebug_RX_INTERRUPT_ENABLED)
 619:.\Generated_Source\PSoC5/UartDebug.c ****                 UartDebug_EnableRxInt();
 620:.\Generated_Source\PSoC5/UartDebug.c ****             #endif /* UartDebug_RX_INTERRUPT_ENABLED */
 621:.\Generated_Source\PSoC5/UartDebug.c **** 
 622:.\Generated_Source\PSoC5/UartDebug.c ****         #else /* UartDebug_RXBUFFERSIZE > UartDebug_FIFO_LENGTH */
 623:.\Generated_Source\PSoC5/UartDebug.c **** 
 624:.\Generated_Source\PSoC5/UartDebug.c ****             rxStatus =UartDebug_RXSTATUS_REG;
 625:.\Generated_Source\PSoC5/UartDebug.c ****             if(rxStatus & UartDebug_RX_STS_FIFO_NOTEMPTY)
 626:.\Generated_Source\PSoC5/UartDebug.c ****             {   /* Read received data from FIFO*/
 627:.\Generated_Source\PSoC5/UartDebug.c ****                 rxData = UartDebug_RXDATA_REG;
 628:.\Generated_Source\PSoC5/UartDebug.c ****                 /*Check status on error*/
 629:.\Generated_Source\PSoC5/UartDebug.c ****                 if(rxStatus & (UartDebug_RX_STS_BREAK | UartDebug_RX_STS_PAR_ERROR |
 630:.\Generated_Source\PSoC5/UartDebug.c ****                                UartDebug_RX_STS_STOP_ERROR | UartDebug_RX_STS_OVERRUN))
 631:.\Generated_Source\PSoC5/UartDebug.c ****                 {
 632:.\Generated_Source\PSoC5/UartDebug.c ****                     rxData = 0u;
 633:.\Generated_Source\PSoC5/UartDebug.c ****                 }
 634:.\Generated_Source\PSoC5/UartDebug.c ****             }
 635:.\Generated_Source\PSoC5/UartDebug.c ****         #endif /* UartDebug_RXBUFFERSIZE > UartDebug_FIFO_LENGTH */
 636:.\Generated_Source\PSoC5/UartDebug.c **** 
 637:.\Generated_Source\PSoC5/UartDebug.c ****         return(rxData);
 638:.\Generated_Source\PSoC5/UartDebug.c ****     }
 639:.\Generated_Source\PSoC5/UartDebug.c **** 
 640:.\Generated_Source\PSoC5/UartDebug.c **** 
 641:.\Generated_Source\PSoC5/UartDebug.c ****     /*******************************************************************************
 642:.\Generated_Source\PSoC5/UartDebug.c ****     * Function Name: UartDebug_GetByte
 643:.\Generated_Source\PSoC5/UartDebug.c ****     ********************************************************************************
 644:.\Generated_Source\PSoC5/UartDebug.c ****     *
 645:.\Generated_Source\PSoC5/UartDebug.c ****     * Summary:
ARM GAS  C:\Users\Geo\AppData\Local\Temp\ccOHA31t.s 			page 18


 646:.\Generated_Source\PSoC5/UartDebug.c ****     *  Grab the next available byte of data from the recieve FIFO
 647:.\Generated_Source\PSoC5/UartDebug.c ****     *
 648:.\Generated_Source\PSoC5/UartDebug.c ****     * Parameters:
 649:.\Generated_Source\PSoC5/UartDebug.c ****     *  None.
 650:.\Generated_Source\PSoC5/UartDebug.c ****     *
 651:.\Generated_Source\PSoC5/UartDebug.c ****     * Return:
 652:.\Generated_Source\PSoC5/UartDebug.c ****     *  MSB contains Status Register and LSB contains UART RX data
 653:.\Generated_Source\PSoC5/UartDebug.c ****     *
 654:.\Generated_Source\PSoC5/UartDebug.c ****     * Reentrant:
 655:.\Generated_Source\PSoC5/UartDebug.c ****     *  No.
 656:.\Generated_Source\PSoC5/UartDebug.c ****     *
 657:.\Generated_Source\PSoC5/UartDebug.c ****     *******************************************************************************/
 658:.\Generated_Source\PSoC5/UartDebug.c ****     uint16 UartDebug_GetByte(void) 
 659:.\Generated_Source\PSoC5/UartDebug.c ****     {
 660:.\Generated_Source\PSoC5/UartDebug.c ****         return ( ((uint16)UartDebug_ReadRxStatus() << 8u) | UartDebug_ReadRxData() );
 661:.\Generated_Source\PSoC5/UartDebug.c ****     }
 662:.\Generated_Source\PSoC5/UartDebug.c **** 
 663:.\Generated_Source\PSoC5/UartDebug.c **** 
 664:.\Generated_Source\PSoC5/UartDebug.c ****     /*******************************************************************************
 665:.\Generated_Source\PSoC5/UartDebug.c ****     * Function Name: UartDebug_GetRxBufferSize
 666:.\Generated_Source\PSoC5/UartDebug.c ****     ********************************************************************************
 667:.\Generated_Source\PSoC5/UartDebug.c ****     *
 668:.\Generated_Source\PSoC5/UartDebug.c ****     * Summary:
 669:.\Generated_Source\PSoC5/UartDebug.c ****     *  Determine the amount of bytes left in the RX buffer and return the count in
 670:.\Generated_Source\PSoC5/UartDebug.c ****     *  bytes
 671:.\Generated_Source\PSoC5/UartDebug.c ****     *
 672:.\Generated_Source\PSoC5/UartDebug.c ****     * Parameters:
 673:.\Generated_Source\PSoC5/UartDebug.c ****     *  None.
 674:.\Generated_Source\PSoC5/UartDebug.c ****     *
 675:.\Generated_Source\PSoC5/UartDebug.c ****     * Return:
 676:.\Generated_Source\PSoC5/UartDebug.c ****     *  uint8: Integer count of the number of bytes left 
 677:.\Generated_Source\PSoC5/UartDebug.c ****     *  in the RX buffer
 678:.\Generated_Source\PSoC5/UartDebug.c ****     *
 679:.\Generated_Source\PSoC5/UartDebug.c ****     * Global Variables:
 680:.\Generated_Source\PSoC5/UartDebug.c ****     *  UartDebug_rxBufferWrite - used to calculate left bytes. 
 681:.\Generated_Source\PSoC5/UartDebug.c ****     *  UartDebug_rxBufferRead - used to calculate left bytes.
 682:.\Generated_Source\PSoC5/UartDebug.c ****     *  UartDebug_rxBufferLoopDetect - checked to decide left bytes amount. 
 683:.\Generated_Source\PSoC5/UartDebug.c ****     *
 684:.\Generated_Source\PSoC5/UartDebug.c ****     * Reentrant:
 685:.\Generated_Source\PSoC5/UartDebug.c ****     *  No.
 686:.\Generated_Source\PSoC5/UartDebug.c ****     *
 687:.\Generated_Source\PSoC5/UartDebug.c ****     * Theory:
 688:.\Generated_Source\PSoC5/UartDebug.c ****     *  Allows the user to find out how full the RX Buffer is.
 689:.\Generated_Source\PSoC5/UartDebug.c ****     *
 690:.\Generated_Source\PSoC5/UartDebug.c ****     *******************************************************************************/
 691:.\Generated_Source\PSoC5/UartDebug.c ****     uint8 UartDebug_GetRxBufferSize(void) 
 692:.\Generated_Source\PSoC5/UartDebug.c ****                                                             
 693:.\Generated_Source\PSoC5/UartDebug.c ****     {
 694:.\Generated_Source\PSoC5/UartDebug.c ****         uint8 size;
 695:.\Generated_Source\PSoC5/UartDebug.c **** 
 696:.\Generated_Source\PSoC5/UartDebug.c ****         #if(UartDebug_RXBUFFERSIZE > UartDebug_FIFO_LENGTH)
 697:.\Generated_Source\PSoC5/UartDebug.c **** 
 698:.\Generated_Source\PSoC5/UartDebug.c ****             /* Disable Rx interrupt. */
 699:.\Generated_Source\PSoC5/UartDebug.c ****             /* Protect variables that could change on interrupt. */
 700:.\Generated_Source\PSoC5/UartDebug.c ****             #if(UartDebug_RX_INTERRUPT_ENABLED)
 701:.\Generated_Source\PSoC5/UartDebug.c ****                 UartDebug_DisableRxInt();
 702:.\Generated_Source\PSoC5/UartDebug.c ****             #endif /* UartDebug_RX_INTERRUPT_ENABLED */
ARM GAS  C:\Users\Geo\AppData\Local\Temp\ccOHA31t.s 			page 19


 703:.\Generated_Source\PSoC5/UartDebug.c **** 
 704:.\Generated_Source\PSoC5/UartDebug.c ****             if(UartDebug_rxBufferRead == UartDebug_rxBufferWrite)
 705:.\Generated_Source\PSoC5/UartDebug.c ****             {
 706:.\Generated_Source\PSoC5/UartDebug.c ****                 if(UartDebug_rxBufferLoopDetect > 0u)
 707:.\Generated_Source\PSoC5/UartDebug.c ****                 {
 708:.\Generated_Source\PSoC5/UartDebug.c ****                     size = UartDebug_RXBUFFERSIZE;
 709:.\Generated_Source\PSoC5/UartDebug.c ****                 }
 710:.\Generated_Source\PSoC5/UartDebug.c ****                 else
 711:.\Generated_Source\PSoC5/UartDebug.c ****                 {
 712:.\Generated_Source\PSoC5/UartDebug.c ****                     size = 0u;
 713:.\Generated_Source\PSoC5/UartDebug.c ****                 }
 714:.\Generated_Source\PSoC5/UartDebug.c ****             }
 715:.\Generated_Source\PSoC5/UartDebug.c ****             else if(UartDebug_rxBufferRead < UartDebug_rxBufferWrite)
 716:.\Generated_Source\PSoC5/UartDebug.c ****             {
 717:.\Generated_Source\PSoC5/UartDebug.c ****                 size = (UartDebug_rxBufferWrite - UartDebug_rxBufferRead);
 718:.\Generated_Source\PSoC5/UartDebug.c ****             }
 719:.\Generated_Source\PSoC5/UartDebug.c ****             else
 720:.\Generated_Source\PSoC5/UartDebug.c ****             {
 721:.\Generated_Source\PSoC5/UartDebug.c ****                 size = (UartDebug_RXBUFFERSIZE - UartDebug_rxBufferRead) + UartDebug_rxBufferWrite;
 722:.\Generated_Source\PSoC5/UartDebug.c ****             }
 723:.\Generated_Source\PSoC5/UartDebug.c **** 
 724:.\Generated_Source\PSoC5/UartDebug.c ****             /* Enable Rx interrupt. */
 725:.\Generated_Source\PSoC5/UartDebug.c ****             #if(UartDebug_RX_INTERRUPT_ENABLED)
 726:.\Generated_Source\PSoC5/UartDebug.c ****                 UartDebug_EnableRxInt();
 727:.\Generated_Source\PSoC5/UartDebug.c ****             #endif /* End UartDebug_RX_INTERRUPT_ENABLED */
 728:.\Generated_Source\PSoC5/UartDebug.c **** 
 729:.\Generated_Source\PSoC5/UartDebug.c ****         #else /* UartDebug_RXBUFFERSIZE > UartDebug_FIFO_LENGTH */
 730:.\Generated_Source\PSoC5/UartDebug.c **** 
 731:.\Generated_Source\PSoC5/UartDebug.c ****             /* We can only know if there is data in the fifo. */
 732:.\Generated_Source\PSoC5/UartDebug.c ****             size = (UartDebug_RXSTATUS_REG & UartDebug_RX_STS_FIFO_NOTEMPTY) ? 1u : 0u;
 733:.\Generated_Source\PSoC5/UartDebug.c **** 
 734:.\Generated_Source\PSoC5/UartDebug.c ****         #endif /* End UartDebug_RXBUFFERSIZE > UartDebug_FIFO_LENGTH */
 735:.\Generated_Source\PSoC5/UartDebug.c **** 
 736:.\Generated_Source\PSoC5/UartDebug.c ****         return(size);
 737:.\Generated_Source\PSoC5/UartDebug.c ****     }
 738:.\Generated_Source\PSoC5/UartDebug.c **** 
 739:.\Generated_Source\PSoC5/UartDebug.c **** 
 740:.\Generated_Source\PSoC5/UartDebug.c ****     /*******************************************************************************
 741:.\Generated_Source\PSoC5/UartDebug.c ****     * Function Name: UartDebug_ClearRxBuffer
 742:.\Generated_Source\PSoC5/UartDebug.c ****     ********************************************************************************
 743:.\Generated_Source\PSoC5/UartDebug.c ****     *
 744:.\Generated_Source\PSoC5/UartDebug.c ****     * Summary:
 745:.\Generated_Source\PSoC5/UartDebug.c ****     *  Clears the RX RAM buffer by setting the read and write pointers both to zero.
 746:.\Generated_Source\PSoC5/UartDebug.c ****     *  Clears hardware RX FIFO.
 747:.\Generated_Source\PSoC5/UartDebug.c ****     *
 748:.\Generated_Source\PSoC5/UartDebug.c ****     * Parameters:
 749:.\Generated_Source\PSoC5/UartDebug.c ****     *  None.
 750:.\Generated_Source\PSoC5/UartDebug.c ****     *
 751:.\Generated_Source\PSoC5/UartDebug.c ****     * Return:
 752:.\Generated_Source\PSoC5/UartDebug.c ****     *  None.
 753:.\Generated_Source\PSoC5/UartDebug.c ****     *
 754:.\Generated_Source\PSoC5/UartDebug.c ****     * Global Variables:
 755:.\Generated_Source\PSoC5/UartDebug.c ****     *  UartDebug_rxBufferWrite - cleared to zero. 
 756:.\Generated_Source\PSoC5/UartDebug.c ****     *  UartDebug_rxBufferRead - cleared to zero.
 757:.\Generated_Source\PSoC5/UartDebug.c ****     *  UartDebug_rxBufferLoopDetect - cleared to zero. 
 758:.\Generated_Source\PSoC5/UartDebug.c ****     *  UartDebug_rxBufferOverflow - cleared to zero. 
 759:.\Generated_Source\PSoC5/UartDebug.c ****     *
ARM GAS  C:\Users\Geo\AppData\Local\Temp\ccOHA31t.s 			page 20


 760:.\Generated_Source\PSoC5/UartDebug.c ****     * Reentrant:
 761:.\Generated_Source\PSoC5/UartDebug.c ****     *  No.
 762:.\Generated_Source\PSoC5/UartDebug.c ****     *
 763:.\Generated_Source\PSoC5/UartDebug.c ****     * Theory:
 764:.\Generated_Source\PSoC5/UartDebug.c ****     *  Setting the pointers to zero makes the system believe there is no data to 
 765:.\Generated_Source\PSoC5/UartDebug.c ****     *  read and writing will resume at address 0 overwriting any data that may 
 766:.\Generated_Source\PSoC5/UartDebug.c ****     *  have remained in the RAM.
 767:.\Generated_Source\PSoC5/UartDebug.c ****     *
 768:.\Generated_Source\PSoC5/UartDebug.c ****     * Side Effects:
 769:.\Generated_Source\PSoC5/UartDebug.c ****     *  Any received data not read from the RAM or FIFO buffer will be lost.
 770:.\Generated_Source\PSoC5/UartDebug.c ****     *******************************************************************************/
 771:.\Generated_Source\PSoC5/UartDebug.c ****     void UartDebug_ClearRxBuffer(void) 
 772:.\Generated_Source\PSoC5/UartDebug.c ****     {
 773:.\Generated_Source\PSoC5/UartDebug.c ****         uint8 enableInterrupts;
 774:.\Generated_Source\PSoC5/UartDebug.c ****         
 775:.\Generated_Source\PSoC5/UartDebug.c ****         /* clear the HW FIFO */
 776:.\Generated_Source\PSoC5/UartDebug.c ****         /* Enter critical section */
 777:.\Generated_Source\PSoC5/UartDebug.c ****         enableInterrupts = CyEnterCriticalSection();        
 778:.\Generated_Source\PSoC5/UartDebug.c ****         UartDebug_RXDATA_AUX_CTL_REG |=  UartDebug_RX_FIFO_CLR;
 779:.\Generated_Source\PSoC5/UartDebug.c ****         UartDebug_RXDATA_AUX_CTL_REG &= ~UartDebug_RX_FIFO_CLR;
 780:.\Generated_Source\PSoC5/UartDebug.c ****         /* Exit critical section */
 781:.\Generated_Source\PSoC5/UartDebug.c ****         CyExitCriticalSection(enableInterrupts);
 782:.\Generated_Source\PSoC5/UartDebug.c ****         
 783:.\Generated_Source\PSoC5/UartDebug.c ****         #if(UartDebug_RXBUFFERSIZE > UartDebug_FIFO_LENGTH)
 784:.\Generated_Source\PSoC5/UartDebug.c ****             /* Disable Rx interrupt. */
 785:.\Generated_Source\PSoC5/UartDebug.c ****             /* Protect variables that could change on interrupt. */
 786:.\Generated_Source\PSoC5/UartDebug.c ****             #if(UartDebug_RX_INTERRUPT_ENABLED)
 787:.\Generated_Source\PSoC5/UartDebug.c ****                 UartDebug_DisableRxInt();
 788:.\Generated_Source\PSoC5/UartDebug.c ****             #endif /* End UartDebug_RX_INTERRUPT_ENABLED */
 789:.\Generated_Source\PSoC5/UartDebug.c **** 
 790:.\Generated_Source\PSoC5/UartDebug.c ****             UartDebug_rxBufferRead = 0u;
 791:.\Generated_Source\PSoC5/UartDebug.c ****             UartDebug_rxBufferWrite = 0u;
 792:.\Generated_Source\PSoC5/UartDebug.c ****             UartDebug_rxBufferLoopDetect = 0u;
 793:.\Generated_Source\PSoC5/UartDebug.c ****             UartDebug_rxBufferOverflow = 0u;
 794:.\Generated_Source\PSoC5/UartDebug.c **** 
 795:.\Generated_Source\PSoC5/UartDebug.c ****             /* Enable Rx interrupt. */
 796:.\Generated_Source\PSoC5/UartDebug.c ****             #if(UartDebug_RX_INTERRUPT_ENABLED)
 797:.\Generated_Source\PSoC5/UartDebug.c ****                 UartDebug_EnableRxInt();
 798:.\Generated_Source\PSoC5/UartDebug.c ****             #endif /* End UartDebug_RX_INTERRUPT_ENABLED */
 799:.\Generated_Source\PSoC5/UartDebug.c ****         #endif /* End UartDebug_RXBUFFERSIZE > UartDebug_FIFO_LENGTH */
 800:.\Generated_Source\PSoC5/UartDebug.c ****         
 801:.\Generated_Source\PSoC5/UartDebug.c ****     }
 802:.\Generated_Source\PSoC5/UartDebug.c **** 
 803:.\Generated_Source\PSoC5/UartDebug.c **** 
 804:.\Generated_Source\PSoC5/UartDebug.c ****     /*******************************************************************************
 805:.\Generated_Source\PSoC5/UartDebug.c ****     * Function Name: UartDebug_SetRxAddressMode
 806:.\Generated_Source\PSoC5/UartDebug.c ****     ********************************************************************************
 807:.\Generated_Source\PSoC5/UartDebug.c ****     *
 808:.\Generated_Source\PSoC5/UartDebug.c ****     * Summary:
 809:.\Generated_Source\PSoC5/UartDebug.c ****     *  Set the receive addressing mode
 810:.\Generated_Source\PSoC5/UartDebug.c ****     *
 811:.\Generated_Source\PSoC5/UartDebug.c ****     * Parameters:
 812:.\Generated_Source\PSoC5/UartDebug.c ****     *  addressMode: Enumerated value indicating the mode of RX addressing
 813:.\Generated_Source\PSoC5/UartDebug.c ****     *  UartDebug__B_UART__AM_SW_BYTE_BYTE -  Software Byte-by-Byte address 
 814:.\Generated_Source\PSoC5/UartDebug.c ****     *                                               detection
 815:.\Generated_Source\PSoC5/UartDebug.c ****     *  UartDebug__B_UART__AM_SW_DETECT_TO_BUFFER - Software Detect to Buffer 
 816:.\Generated_Source\PSoC5/UartDebug.c ****     *                                               address detection
ARM GAS  C:\Users\Geo\AppData\Local\Temp\ccOHA31t.s 			page 21


 817:.\Generated_Source\PSoC5/UartDebug.c ****     *  UartDebug__B_UART__AM_HW_BYTE_BY_BYTE - Hardware Byte-by-Byte address 
 818:.\Generated_Source\PSoC5/UartDebug.c ****     *                                               detection
 819:.\Generated_Source\PSoC5/UartDebug.c ****     *  UartDebug__B_UART__AM_HW_DETECT_TO_BUFFER - Hardware Detect to Buffer 
 820:.\Generated_Source\PSoC5/UartDebug.c ****     *                                               address detection
 821:.\Generated_Source\PSoC5/UartDebug.c ****     *  UartDebug__B_UART__AM_NONE - No address detection
 822:.\Generated_Source\PSoC5/UartDebug.c ****     *
 823:.\Generated_Source\PSoC5/UartDebug.c ****     * Return:
 824:.\Generated_Source\PSoC5/UartDebug.c ****     *  None.
 825:.\Generated_Source\PSoC5/UartDebug.c ****     *
 826:.\Generated_Source\PSoC5/UartDebug.c ****     * Global Variables:
 827:.\Generated_Source\PSoC5/UartDebug.c ****     *  UartDebug_rxAddressMode - the parameter stored in this variable for 
 828:.\Generated_Source\PSoC5/UartDebug.c ****     *   the farther usage in RX ISR.
 829:.\Generated_Source\PSoC5/UartDebug.c ****     *  UartDebug_rxAddressDetected - set to initial state (0).
 830:.\Generated_Source\PSoC5/UartDebug.c ****     *
 831:.\Generated_Source\PSoC5/UartDebug.c ****     *******************************************************************************/
 832:.\Generated_Source\PSoC5/UartDebug.c ****     void UartDebug_SetRxAddressMode(uint8 addressMode)  
 833:.\Generated_Source\PSoC5/UartDebug.c ****                                                         
 834:.\Generated_Source\PSoC5/UartDebug.c ****     {
 835:.\Generated_Source\PSoC5/UartDebug.c ****         #if(UartDebug_RXHW_ADDRESS_ENABLED)
 836:.\Generated_Source\PSoC5/UartDebug.c ****             #if(UartDebug_CONTROL_REG_REMOVED)
 837:.\Generated_Source\PSoC5/UartDebug.c ****                 addressMode = addressMode;
 838:.\Generated_Source\PSoC5/UartDebug.c ****             #else /* UartDebug_CONTROL_REG_REMOVED */
 839:.\Generated_Source\PSoC5/UartDebug.c ****                 uint8 tmpCtrl = 0u;
 840:.\Generated_Source\PSoC5/UartDebug.c ****                 tmpCtrl = UartDebug_CONTROL_REG & ~UartDebug_CTRL_RXADDR_MODE_MASK;
 841:.\Generated_Source\PSoC5/UartDebug.c ****                 tmpCtrl |= ((addressMode << UartDebug_CTRL_RXADDR_MODE0_SHIFT) & 
 842:.\Generated_Source\PSoC5/UartDebug.c ****                            UartDebug_CTRL_RXADDR_MODE_MASK);
 843:.\Generated_Source\PSoC5/UartDebug.c ****                 UartDebug_CONTROL_REG = tmpCtrl;
 844:.\Generated_Source\PSoC5/UartDebug.c ****                 #if(UartDebug_RX_INTERRUPT_ENABLED && \
 845:.\Generated_Source\PSoC5/UartDebug.c ****                    (UartDebug_RXBUFFERSIZE > UartDebug_FIFO_LENGTH) )
 846:.\Generated_Source\PSoC5/UartDebug.c ****                     UartDebug_rxAddressMode = addressMode;
 847:.\Generated_Source\PSoC5/UartDebug.c ****                     UartDebug_rxAddressDetected = 0u;
 848:.\Generated_Source\PSoC5/UartDebug.c ****                 #endif /* End UartDebug_RXBUFFERSIZE > UartDebug_FIFO_LENGTH*/   
 849:.\Generated_Source\PSoC5/UartDebug.c ****             #endif /* End UartDebug_CONTROL_REG_REMOVED */
 850:.\Generated_Source\PSoC5/UartDebug.c ****         #else /* UartDebug_RXHW_ADDRESS_ENABLED */
 851:.\Generated_Source\PSoC5/UartDebug.c ****             addressMode = addressMode;
 852:.\Generated_Source\PSoC5/UartDebug.c ****         #endif /* End UartDebug_RXHW_ADDRESS_ENABLED */
 853:.\Generated_Source\PSoC5/UartDebug.c ****     }
 854:.\Generated_Source\PSoC5/UartDebug.c **** 
 855:.\Generated_Source\PSoC5/UartDebug.c **** 
 856:.\Generated_Source\PSoC5/UartDebug.c ****     /*******************************************************************************
 857:.\Generated_Source\PSoC5/UartDebug.c ****     * Function Name: UartDebug_SetRxAddress1
 858:.\Generated_Source\PSoC5/UartDebug.c ****     ********************************************************************************
 859:.\Generated_Source\PSoC5/UartDebug.c ****     *
 860:.\Generated_Source\PSoC5/UartDebug.c ****     * Summary:
 861:.\Generated_Source\PSoC5/UartDebug.c ****     *  Set the first hardware address compare value
 862:.\Generated_Source\PSoC5/UartDebug.c ****     *
 863:.\Generated_Source\PSoC5/UartDebug.c ****     * Parameters:
 864:.\Generated_Source\PSoC5/UartDebug.c ****     *  address
 865:.\Generated_Source\PSoC5/UartDebug.c ****     *
 866:.\Generated_Source\PSoC5/UartDebug.c ****     * Return:
 867:.\Generated_Source\PSoC5/UartDebug.c ****     *  None.
 868:.\Generated_Source\PSoC5/UartDebug.c ****     *
 869:.\Generated_Source\PSoC5/UartDebug.c ****     *******************************************************************************/
 870:.\Generated_Source\PSoC5/UartDebug.c ****     void UartDebug_SetRxAddress1(uint8 address) 
 871:.\Generated_Source\PSoC5/UartDebug.c **** 
 872:.\Generated_Source\PSoC5/UartDebug.c ****     {
 873:.\Generated_Source\PSoC5/UartDebug.c ****         UartDebug_RXADDRESS1_REG = address;
ARM GAS  C:\Users\Geo\AppData\Local\Temp\ccOHA31t.s 			page 22


 874:.\Generated_Source\PSoC5/UartDebug.c ****     }
 875:.\Generated_Source\PSoC5/UartDebug.c **** 
 876:.\Generated_Source\PSoC5/UartDebug.c **** 
 877:.\Generated_Source\PSoC5/UartDebug.c ****     /*******************************************************************************
 878:.\Generated_Source\PSoC5/UartDebug.c ****     * Function Name: UartDebug_SetRxAddress2
 879:.\Generated_Source\PSoC5/UartDebug.c ****     ********************************************************************************
 880:.\Generated_Source\PSoC5/UartDebug.c ****     *
 881:.\Generated_Source\PSoC5/UartDebug.c ****     * Summary:
 882:.\Generated_Source\PSoC5/UartDebug.c ****     *  Set the second hardware address compare value
 883:.\Generated_Source\PSoC5/UartDebug.c ****     *
 884:.\Generated_Source\PSoC5/UartDebug.c ****     * Parameters:
 885:.\Generated_Source\PSoC5/UartDebug.c ****     *  address
 886:.\Generated_Source\PSoC5/UartDebug.c ****     *
 887:.\Generated_Source\PSoC5/UartDebug.c ****     * Return:
 888:.\Generated_Source\PSoC5/UartDebug.c ****     *  None.
 889:.\Generated_Source\PSoC5/UartDebug.c ****     *
 890:.\Generated_Source\PSoC5/UartDebug.c ****     *******************************************************************************/
 891:.\Generated_Source\PSoC5/UartDebug.c ****     void UartDebug_SetRxAddress2(uint8 address) 
 892:.\Generated_Source\PSoC5/UartDebug.c ****     {
 893:.\Generated_Source\PSoC5/UartDebug.c ****         UartDebug_RXADDRESS2_REG = address;
 894:.\Generated_Source\PSoC5/UartDebug.c ****     }
 895:.\Generated_Source\PSoC5/UartDebug.c ****         
 896:.\Generated_Source\PSoC5/UartDebug.c **** #endif  /* UartDebug_RX_ENABLED || UartDebug_HD_ENABLED*/
 897:.\Generated_Source\PSoC5/UartDebug.c **** 
 898:.\Generated_Source\PSoC5/UartDebug.c **** 
 899:.\Generated_Source\PSoC5/UartDebug.c **** #if( (UartDebug_TX_ENABLED) || (UartDebug_HD_ENABLED) )
 900:.\Generated_Source\PSoC5/UartDebug.c **** 
 901:.\Generated_Source\PSoC5/UartDebug.c ****     #if(UartDebug_TX_INTERRUPT_ENABLED)
 902:.\Generated_Source\PSoC5/UartDebug.c **** 
 903:.\Generated_Source\PSoC5/UartDebug.c ****         /*******************************************************************************
 904:.\Generated_Source\PSoC5/UartDebug.c ****         * Function Name: UartDebug_EnableTxInt
 905:.\Generated_Source\PSoC5/UartDebug.c ****         ********************************************************************************
 906:.\Generated_Source\PSoC5/UartDebug.c ****         *
 907:.\Generated_Source\PSoC5/UartDebug.c ****         * Summary:
 908:.\Generated_Source\PSoC5/UartDebug.c ****         *  Enable TX interrupt generation
 909:.\Generated_Source\PSoC5/UartDebug.c ****         *
 910:.\Generated_Source\PSoC5/UartDebug.c ****         * Parameters:
 911:.\Generated_Source\PSoC5/UartDebug.c ****         *  None.
 912:.\Generated_Source\PSoC5/UartDebug.c ****         *
 913:.\Generated_Source\PSoC5/UartDebug.c ****         * Return:
 914:.\Generated_Source\PSoC5/UartDebug.c ****         *  None.
 915:.\Generated_Source\PSoC5/UartDebug.c ****         *
 916:.\Generated_Source\PSoC5/UartDebug.c ****         * Theory:
 917:.\Generated_Source\PSoC5/UartDebug.c ****         *  Enable the interrupt output -or- the interrupt component itself
 918:.\Generated_Source\PSoC5/UartDebug.c ****         *
 919:.\Generated_Source\PSoC5/UartDebug.c ****         *******************************************************************************/
 920:.\Generated_Source\PSoC5/UartDebug.c ****         void UartDebug_EnableTxInt(void) 
 921:.\Generated_Source\PSoC5/UartDebug.c ****         {
 321              		.loc 1 921 0
 322              		.cfi_startproc
 323              		@ args = 0, pretend = 0, frame = 0
 324              		@ frame_needed = 1, uses_anonymous_args = 0
 325 0000 80B5     		push	{r7, lr}
 326              	.LCFI15:
 327              		.cfi_def_cfa_offset 8
 328 0002 00AF     		add	r7, sp, #0
 329              		.cfi_offset 14, -4
ARM GAS  C:\Users\Geo\AppData\Local\Temp\ccOHA31t.s 			page 23


 330              		.cfi_offset 7, -8
 331              	.LCFI16:
 332              		.cfi_def_cfa_register 7
 922:.\Generated_Source\PSoC5/UartDebug.c ****             CyIntEnable(UartDebug_TX_VECT_NUM);
 333              		.loc 1 922 0
 334 0004 4FF00C00 		mov	r0, #12
 335 0008 FFF7FEFF 		bl	CyIntEnable
 923:.\Generated_Source\PSoC5/UartDebug.c ****         }
 336              		.loc 1 923 0
 337 000c 80BD     		pop	{r7, pc}
 338              		.cfi_endproc
 339              	.LFE6:
 340              		.size	UartDebug_EnableTxInt, .-UartDebug_EnableTxInt
 341 000e 00BF     		.section	.text.UartDebug_DisableTxInt,"ax",%progbits
 342              		.align	2
 343              		.global	UartDebug_DisableTxInt
 344              		.thumb
 345              		.thumb_func
 346              		.type	UartDebug_DisableTxInt, %function
 347              	UartDebug_DisableTxInt:
 348              	.LFB7:
 924:.\Generated_Source\PSoC5/UartDebug.c **** 
 925:.\Generated_Source\PSoC5/UartDebug.c **** 
 926:.\Generated_Source\PSoC5/UartDebug.c ****         /*******************************************************************************
 927:.\Generated_Source\PSoC5/UartDebug.c ****         * Function Name: UartDebug_DisableTxInt
 928:.\Generated_Source\PSoC5/UartDebug.c ****         ********************************************************************************
 929:.\Generated_Source\PSoC5/UartDebug.c ****         *
 930:.\Generated_Source\PSoC5/UartDebug.c ****         * Summary:
 931:.\Generated_Source\PSoC5/UartDebug.c ****         *  Disable TX interrupt generation
 932:.\Generated_Source\PSoC5/UartDebug.c ****         *
 933:.\Generated_Source\PSoC5/UartDebug.c ****         * Parameters:
 934:.\Generated_Source\PSoC5/UartDebug.c ****         *  None.
 935:.\Generated_Source\PSoC5/UartDebug.c ****         *
 936:.\Generated_Source\PSoC5/UartDebug.c ****         * Return:
 937:.\Generated_Source\PSoC5/UartDebug.c ****         *  None.
 938:.\Generated_Source\PSoC5/UartDebug.c ****         *
 939:.\Generated_Source\PSoC5/UartDebug.c ****         * Theory:
 940:.\Generated_Source\PSoC5/UartDebug.c ****         *  Disable the interrupt output -or- the interrupt component itself
 941:.\Generated_Source\PSoC5/UartDebug.c ****         *
 942:.\Generated_Source\PSoC5/UartDebug.c ****         *******************************************************************************/
 943:.\Generated_Source\PSoC5/UartDebug.c ****         void UartDebug_DisableTxInt(void) 
 944:.\Generated_Source\PSoC5/UartDebug.c ****         {
 349              		.loc 1 944 0
 350              		.cfi_startproc
 351              		@ args = 0, pretend = 0, frame = 0
 352              		@ frame_needed = 1, uses_anonymous_args = 0
 353 0000 80B5     		push	{r7, lr}
 354              	.LCFI17:
 355              		.cfi_def_cfa_offset 8
 356 0002 00AF     		add	r7, sp, #0
 357              		.cfi_offset 14, -4
 358              		.cfi_offset 7, -8
 359              	.LCFI18:
 360              		.cfi_def_cfa_register 7
 945:.\Generated_Source\PSoC5/UartDebug.c ****             CyIntDisable(UartDebug_TX_VECT_NUM);
 361              		.loc 1 945 0
 362 0004 4FF00C00 		mov	r0, #12
ARM GAS  C:\Users\Geo\AppData\Local\Temp\ccOHA31t.s 			page 24


 363 0008 FFF7FEFF 		bl	CyIntDisable
 946:.\Generated_Source\PSoC5/UartDebug.c ****         }
 364              		.loc 1 946 0
 365 000c 80BD     		pop	{r7, pc}
 366              		.cfi_endproc
 367              	.LFE7:
 368              		.size	UartDebug_DisableTxInt, .-UartDebug_DisableTxInt
 369 000e 00BF     		.section	.text.UartDebug_SetTxInterruptMode,"ax",%progbits
 370              		.align	2
 371              		.global	UartDebug_SetTxInterruptMode
 372              		.thumb
 373              		.thumb_func
 374              		.type	UartDebug_SetTxInterruptMode, %function
 375              	UartDebug_SetTxInterruptMode:
 376              	.LFB8:
 947:.\Generated_Source\PSoC5/UartDebug.c **** 
 948:.\Generated_Source\PSoC5/UartDebug.c ****     #endif /* UartDebug_TX_INTERRUPT_ENABLED */
 949:.\Generated_Source\PSoC5/UartDebug.c **** 
 950:.\Generated_Source\PSoC5/UartDebug.c **** 
 951:.\Generated_Source\PSoC5/UartDebug.c ****     /*******************************************************************************
 952:.\Generated_Source\PSoC5/UartDebug.c ****     * Function Name: UartDebug_SetTxInterruptMode
 953:.\Generated_Source\PSoC5/UartDebug.c ****     ********************************************************************************
 954:.\Generated_Source\PSoC5/UartDebug.c ****     *
 955:.\Generated_Source\PSoC5/UartDebug.c ****     * Summary:
 956:.\Generated_Source\PSoC5/UartDebug.c ****     *  Configure which status bits trigger an interrupt event
 957:.\Generated_Source\PSoC5/UartDebug.c ****     *
 958:.\Generated_Source\PSoC5/UartDebug.c ****     * Parameters:
 959:.\Generated_Source\PSoC5/UartDebug.c ****     *  intSrc: An or'd combination of the desired status bit masks (defined in
 960:.\Generated_Source\PSoC5/UartDebug.c ****     *          the header file)
 961:.\Generated_Source\PSoC5/UartDebug.c ****     *
 962:.\Generated_Source\PSoC5/UartDebug.c ****     * Return:
 963:.\Generated_Source\PSoC5/UartDebug.c ****     *  None.
 964:.\Generated_Source\PSoC5/UartDebug.c ****     *
 965:.\Generated_Source\PSoC5/UartDebug.c ****     * Theory:
 966:.\Generated_Source\PSoC5/UartDebug.c ****     *  Enables the output of specific status bits to the interrupt controller
 967:.\Generated_Source\PSoC5/UartDebug.c ****     *
 968:.\Generated_Source\PSoC5/UartDebug.c ****     *******************************************************************************/
 969:.\Generated_Source\PSoC5/UartDebug.c ****     void UartDebug_SetTxInterruptMode(uint8 intSrc) 
 970:.\Generated_Source\PSoC5/UartDebug.c ****     {
 377              		.loc 1 970 0
 378              		.cfi_startproc
 379              		@ args = 0, pretend = 0, frame = 8
 380              		@ frame_needed = 1, uses_anonymous_args = 0
 381              		@ link register save eliminated.
 382 0000 80B4     		push	{r7}
 383              	.LCFI19:
 384              		.cfi_def_cfa_offset 4
 385 0002 83B0     		sub	sp, sp, #12
 386              	.LCFI20:
 387              		.cfi_def_cfa_offset 16
 388 0004 00AF     		add	r7, sp, #0
 389              		.cfi_offset 7, -4
 390              	.LCFI21:
 391              		.cfi_def_cfa_register 7
 392 0006 0346     		mov	r3, r0
 393 0008 FB71     		strb	r3, [r7, #7]
 971:.\Generated_Source\PSoC5/UartDebug.c ****         UartDebug_TXSTATUS_MASK_REG = intSrc;
ARM GAS  C:\Users\Geo\AppData\Local\Temp\ccOHA31t.s 			page 25


 394              		.loc 1 971 0
 395 000a 46F28443 		movw	r3, #:lower16:1073767556
 396 000e C4F20003 		movt	r3, #:upper16:1073767556
 397 0012 FA79     		ldrb	r2, [r7, #7]
 398 0014 1A70     		strb	r2, [r3, #0]
 972:.\Generated_Source\PSoC5/UartDebug.c ****     }
 399              		.loc 1 972 0
 400 0016 07F10C07 		add	r7, r7, #12
 401 001a BD46     		mov	sp, r7
 402 001c 80BC     		pop	{r7}
 403 001e 7047     		bx	lr
 404              		.cfi_endproc
 405              	.LFE8:
 406              		.size	UartDebug_SetTxInterruptMode, .-UartDebug_SetTxInterruptMode
 407              		.section	.text.UartDebug_WriteTxData,"ax",%progbits
 408              		.align	2
 409              		.global	UartDebug_WriteTxData
 410              		.thumb
 411              		.thumb_func
 412              		.type	UartDebug_WriteTxData, %function
 413              	UartDebug_WriteTxData:
 414              	.LFB9:
 973:.\Generated_Source\PSoC5/UartDebug.c **** 
 974:.\Generated_Source\PSoC5/UartDebug.c **** 
 975:.\Generated_Source\PSoC5/UartDebug.c ****     /*******************************************************************************
 976:.\Generated_Source\PSoC5/UartDebug.c ****     * Function Name: UartDebug_WriteTxData
 977:.\Generated_Source\PSoC5/UartDebug.c ****     ********************************************************************************
 978:.\Generated_Source\PSoC5/UartDebug.c ****     *
 979:.\Generated_Source\PSoC5/UartDebug.c ****     * Summary:
 980:.\Generated_Source\PSoC5/UartDebug.c ****     *  Write a byte of data to the Transmit FIFO or TX buffer to be sent when the 
 981:.\Generated_Source\PSoC5/UartDebug.c ****     *  bus is available. WriteTxData sends a byte without checking for buffer room 
 982:.\Generated_Source\PSoC5/UartDebug.c ****     *  or status. It is up to the user to separately check status.    
 983:.\Generated_Source\PSoC5/UartDebug.c ****     *
 984:.\Generated_Source\PSoC5/UartDebug.c ****     * Parameters:
 985:.\Generated_Source\PSoC5/UartDebug.c ****     *  TXDataByte: byte of data to place in the transmit FIFO
 986:.\Generated_Source\PSoC5/UartDebug.c ****     *
 987:.\Generated_Source\PSoC5/UartDebug.c ****     * Return:
 988:.\Generated_Source\PSoC5/UartDebug.c ****     * void
 989:.\Generated_Source\PSoC5/UartDebug.c ****     *
 990:.\Generated_Source\PSoC5/UartDebug.c ****     * Global Variables:
 991:.\Generated_Source\PSoC5/UartDebug.c ****     *  UartDebug_txBuffer - RAM buffer pointer for save data for transmission
 992:.\Generated_Source\PSoC5/UartDebug.c ****     *  UartDebug_txBufferWrite - cyclic index for write to txBuffer, 
 993:.\Generated_Source\PSoC5/UartDebug.c ****     *    incremented after each byte saved to buffer.
 994:.\Generated_Source\PSoC5/UartDebug.c ****     *  UartDebug_txBufferRead - cyclic index for read from txBuffer, 
 995:.\Generated_Source\PSoC5/UartDebug.c ****     *    checked to identify the condition to write to FIFO directly or to TX buffer
 996:.\Generated_Source\PSoC5/UartDebug.c ****     *  UartDebug_initVar - checked to identify that the component has been  
 997:.\Generated_Source\PSoC5/UartDebug.c ****     *    initialized.
 998:.\Generated_Source\PSoC5/UartDebug.c ****     *
 999:.\Generated_Source\PSoC5/UartDebug.c ****     * Reentrant:
1000:.\Generated_Source\PSoC5/UartDebug.c ****     *  No.
1001:.\Generated_Source\PSoC5/UartDebug.c ****     *
1002:.\Generated_Source\PSoC5/UartDebug.c ****     *******************************************************************************/
1003:.\Generated_Source\PSoC5/UartDebug.c ****     void UartDebug_WriteTxData(uint8 txDataByte) 
1004:.\Generated_Source\PSoC5/UartDebug.c ****     {
 415              		.loc 1 1004 0
 416              		.cfi_startproc
 417              		@ args = 0, pretend = 0, frame = 8
ARM GAS  C:\Users\Geo\AppData\Local\Temp\ccOHA31t.s 			page 26


 418              		@ frame_needed = 1, uses_anonymous_args = 0
 419 0000 80B5     		push	{r7, lr}
 420              	.LCFI22:
 421              		.cfi_def_cfa_offset 8
 422 0002 82B0     		sub	sp, sp, #8
 423              	.LCFI23:
 424              		.cfi_def_cfa_offset 16
 425 0004 00AF     		add	r7, sp, #0
 426              		.cfi_offset 14, -4
 427              		.cfi_offset 7, -8
 428              	.LCFI24:
 429              		.cfi_def_cfa_register 7
 430 0006 0346     		mov	r3, r0
 431 0008 FB71     		strb	r3, [r7, #7]
1005:.\Generated_Source\PSoC5/UartDebug.c ****         /* If not Initialized then skip this function*/
1006:.\Generated_Source\PSoC5/UartDebug.c ****         if(UartDebug_initVar != 0u)
 432              		.loc 1 1006 0
 433 000a 40F20003 		movw	r3, #:lower16:UartDebug_initVar
 434 000e C0F20003 		movt	r3, #:upper16:UartDebug_initVar
 435 0012 1B78     		ldrb	r3, [r3, #0]	@ zero_extendqisi2
 436 0014 002B     		cmp	r3, #0
 437 0016 48D0     		beq	.L25
1007:.\Generated_Source\PSoC5/UartDebug.c ****         {
1008:.\Generated_Source\PSoC5/UartDebug.c ****             #if(UartDebug_TXBUFFERSIZE > UartDebug_FIFO_LENGTH)
1009:.\Generated_Source\PSoC5/UartDebug.c **** 
1010:.\Generated_Source\PSoC5/UartDebug.c ****                 /* Disable Tx interrupt. */
1011:.\Generated_Source\PSoC5/UartDebug.c ****                 /* Protect variables that could change on interrupt. */
1012:.\Generated_Source\PSoC5/UartDebug.c ****                 #if(UartDebug_TX_INTERRUPT_ENABLED)
1013:.\Generated_Source\PSoC5/UartDebug.c ****                     UartDebug_DisableTxInt();
 438              		.loc 1 1013 0
 439 0018 FFF7FEFF 		bl	UartDebug_DisableTxInt
1014:.\Generated_Source\PSoC5/UartDebug.c ****                 #endif /* End UartDebug_TX_INTERRUPT_ENABLED */
1015:.\Generated_Source\PSoC5/UartDebug.c **** 
1016:.\Generated_Source\PSoC5/UartDebug.c ****                 if( (UartDebug_txBufferRead == UartDebug_txBufferWrite) &&
 440              		.loc 1 1016 0
 441 001c 40F20003 		movw	r3, #:lower16:UartDebug_txBufferRead
 442 0020 C0F20003 		movt	r3, #:upper16:UartDebug_txBufferRead
 443 0024 1B78     		ldrb	r3, [r3, #0]
 444 0026 DAB2     		uxtb	r2, r3
 445 0028 40F20003 		movw	r3, #:lower16:UartDebug_txBufferWrite
 446 002c C0F20003 		movt	r3, #:upper16:UartDebug_txBufferWrite
 447 0030 1B78     		ldrb	r3, [r3, #0]	@ zero_extendqisi2
 448 0032 9A42     		cmp	r2, r3
 449 0034 10D1     		bne	.L22
1017:.\Generated_Source\PSoC5/UartDebug.c ****                    !(UartDebug_TXSTATUS_REG & UartDebug_TX_STS_FIFO_FULL) )
 450              		.loc 1 1017 0
 451 0036 46F26443 		movw	r3, #:lower16:1073767524
 452 003a C4F20003 		movt	r3, #:upper16:1073767524
 453 003e 1B78     		ldrb	r3, [r3, #0]
 454 0040 DBB2     		uxtb	r3, r3
 455 0042 03F00403 		and	r3, r3, #4
 456              		.loc 1 1016 0
 457 0046 002B     		cmp	r3, #0
 458 0048 06D1     		bne	.L22
1018:.\Generated_Source\PSoC5/UartDebug.c ****                 {
1019:.\Generated_Source\PSoC5/UartDebug.c ****                     /* Add directly to the FIFO. */
1020:.\Generated_Source\PSoC5/UartDebug.c ****                     UartDebug_TXDATA_REG = txDataByte;
ARM GAS  C:\Users\Geo\AppData\Local\Temp\ccOHA31t.s 			page 27


 459              		.loc 1 1020 0
 460 004a 46F24443 		movw	r3, #:lower16:1073767492
 461 004e C4F20003 		movt	r3, #:upper16:1073767492
 462 0052 FA79     		ldrb	r2, [r7, #7]
 463 0054 1A70     		strb	r2, [r3, #0]
 464              		.loc 1 1016 0
 465 0056 26E0     		b	.L23
 466              	.L22:
1021:.\Generated_Source\PSoC5/UartDebug.c ****                 }
1022:.\Generated_Source\PSoC5/UartDebug.c ****                 else
1023:.\Generated_Source\PSoC5/UartDebug.c ****                 {
1024:.\Generated_Source\PSoC5/UartDebug.c ****                     if(UartDebug_txBufferWrite >= UartDebug_TXBUFFERSIZE)
 467              		.loc 1 1024 0
 468 0058 40F20003 		movw	r3, #:lower16:UartDebug_txBufferWrite
 469 005c C0F20003 		movt	r3, #:upper16:UartDebug_txBufferWrite
 470 0060 1B78     		ldrb	r3, [r3, #0]	@ zero_extendqisi2
 471 0062 312B     		cmp	r3, #49
 472 0064 06D9     		bls	.L24
1025:.\Generated_Source\PSoC5/UartDebug.c ****                     {
1026:.\Generated_Source\PSoC5/UartDebug.c ****                         UartDebug_txBufferWrite = 0;
 473              		.loc 1 1026 0
 474 0066 40F20003 		movw	r3, #:lower16:UartDebug_txBufferWrite
 475 006a C0F20003 		movt	r3, #:upper16:UartDebug_txBufferWrite
 476 006e 4FF00002 		mov	r2, #0
 477 0072 1A70     		strb	r2, [r3, #0]
 478              	.L24:
1027:.\Generated_Source\PSoC5/UartDebug.c ****                     }
1028:.\Generated_Source\PSoC5/UartDebug.c **** 
1029:.\Generated_Source\PSoC5/UartDebug.c ****                     UartDebug_txBuffer[UartDebug_txBufferWrite] = txDataByte;
 479              		.loc 1 1029 0
 480 0074 40F20003 		movw	r3, #:lower16:UartDebug_txBufferWrite
 481 0078 C0F20003 		movt	r3, #:upper16:UartDebug_txBufferWrite
 482 007c 1B78     		ldrb	r3, [r3, #0]	@ zero_extendqisi2
 483 007e 1A46     		mov	r2, r3
 484 0080 40F20003 		movw	r3, #:lower16:UartDebug_txBuffer
 485 0084 C0F20003 		movt	r3, #:upper16:UartDebug_txBuffer
 486 0088 F979     		ldrb	r1, [r7, #7]
 487 008a 9954     		strb	r1, [r3, r2]
1030:.\Generated_Source\PSoC5/UartDebug.c **** 
1031:.\Generated_Source\PSoC5/UartDebug.c ****                     /* Add to the software buffer. */
1032:.\Generated_Source\PSoC5/UartDebug.c ****                     UartDebug_txBufferWrite++;
 488              		.loc 1 1032 0
 489 008c 40F20003 		movw	r3, #:lower16:UartDebug_txBufferWrite
 490 0090 C0F20003 		movt	r3, #:upper16:UartDebug_txBufferWrite
 491 0094 1B78     		ldrb	r3, [r3, #0]	@ zero_extendqisi2
 492 0096 03F10103 		add	r3, r3, #1
 493 009a DAB2     		uxtb	r2, r3
 494 009c 40F20003 		movw	r3, #:lower16:UartDebug_txBufferWrite
 495 00a0 C0F20003 		movt	r3, #:upper16:UartDebug_txBufferWrite
 496 00a4 1A70     		strb	r2, [r3, #0]
 497              	.L23:
1033:.\Generated_Source\PSoC5/UartDebug.c **** 
1034:.\Generated_Source\PSoC5/UartDebug.c ****                 }
1035:.\Generated_Source\PSoC5/UartDebug.c **** 
1036:.\Generated_Source\PSoC5/UartDebug.c ****                 /* Enable Tx interrupt. */
1037:.\Generated_Source\PSoC5/UartDebug.c ****                 #if(UartDebug_TX_INTERRUPT_ENABLED)
1038:.\Generated_Source\PSoC5/UartDebug.c ****                     UartDebug_EnableTxInt();
ARM GAS  C:\Users\Geo\AppData\Local\Temp\ccOHA31t.s 			page 28


 498              		.loc 1 1038 0
 499 00a6 FFF7FEFF 		bl	UartDebug_EnableTxInt
 500              	.L25:
1039:.\Generated_Source\PSoC5/UartDebug.c ****                 #endif /* End UartDebug_TX_INTERRUPT_ENABLED */
1040:.\Generated_Source\PSoC5/UartDebug.c **** 
1041:.\Generated_Source\PSoC5/UartDebug.c ****             #else /* UartDebug_TXBUFFERSIZE > UartDebug_FIFO_LENGTH */
1042:.\Generated_Source\PSoC5/UartDebug.c **** 
1043:.\Generated_Source\PSoC5/UartDebug.c ****                 /* Add directly to the FIFO. */
1044:.\Generated_Source\PSoC5/UartDebug.c ****                 UartDebug_TXDATA_REG = txDataByte;
1045:.\Generated_Source\PSoC5/UartDebug.c **** 
1046:.\Generated_Source\PSoC5/UartDebug.c ****             #endif /* End UartDebug_TXBUFFERSIZE > UartDebug_FIFO_LENGTH */
1047:.\Generated_Source\PSoC5/UartDebug.c ****         }
1048:.\Generated_Source\PSoC5/UartDebug.c ****     }
 501              		.loc 1 1048 0
 502 00aa 07F10807 		add	r7, r7, #8
 503 00ae BD46     		mov	sp, r7
 504 00b0 80BD     		pop	{r7, pc}
 505              		.cfi_endproc
 506              	.LFE9:
 507              		.size	UartDebug_WriteTxData, .-UartDebug_WriteTxData
 508 00b2 00BF     		.section	.text.UartDebug_ReadTxStatus,"ax",%progbits
 509              		.align	2
 510              		.global	UartDebug_ReadTxStatus
 511              		.thumb
 512              		.thumb_func
 513              		.type	UartDebug_ReadTxStatus, %function
 514              	UartDebug_ReadTxStatus:
 515              	.LFB10:
1049:.\Generated_Source\PSoC5/UartDebug.c **** 
1050:.\Generated_Source\PSoC5/UartDebug.c **** 
1051:.\Generated_Source\PSoC5/UartDebug.c ****     /*******************************************************************************
1052:.\Generated_Source\PSoC5/UartDebug.c ****     * Function Name: UartDebug_ReadTxStatus
1053:.\Generated_Source\PSoC5/UartDebug.c ****     ********************************************************************************
1054:.\Generated_Source\PSoC5/UartDebug.c ****     *
1055:.\Generated_Source\PSoC5/UartDebug.c ****     * Summary:
1056:.\Generated_Source\PSoC5/UartDebug.c ****     *  Read the status register for the component
1057:.\Generated_Source\PSoC5/UartDebug.c ****     *
1058:.\Generated_Source\PSoC5/UartDebug.c ****     * Parameters:
1059:.\Generated_Source\PSoC5/UartDebug.c ****     *  None.
1060:.\Generated_Source\PSoC5/UartDebug.c ****     *
1061:.\Generated_Source\PSoC5/UartDebug.c ****     * Return:
1062:.\Generated_Source\PSoC5/UartDebug.c ****     *  Contents of the status register
1063:.\Generated_Source\PSoC5/UartDebug.c ****     *
1064:.\Generated_Source\PSoC5/UartDebug.c ****     * Theory:
1065:.\Generated_Source\PSoC5/UartDebug.c ****     *  This function reads the status register which is clear on read. It is up to 
1066:.\Generated_Source\PSoC5/UartDebug.c ****     *  the user to handle all bits in this return value accordingly, even if the bit 
1067:.\Generated_Source\PSoC5/UartDebug.c ****     *  was not enabled as an interrupt source the event happened and must be handled
1068:.\Generated_Source\PSoC5/UartDebug.c ****     *  accordingly.    
1069:.\Generated_Source\PSoC5/UartDebug.c ****     *
1070:.\Generated_Source\PSoC5/UartDebug.c ****     *******************************************************************************/
1071:.\Generated_Source\PSoC5/UartDebug.c ****     uint8 UartDebug_ReadTxStatus(void) 
1072:.\Generated_Source\PSoC5/UartDebug.c ****     {
 516              		.loc 1 1072 0
 517              		.cfi_startproc
 518              		@ args = 0, pretend = 0, frame = 0
 519              		@ frame_needed = 1, uses_anonymous_args = 0
 520              		@ link register save eliminated.
ARM GAS  C:\Users\Geo\AppData\Local\Temp\ccOHA31t.s 			page 29


 521 0000 80B4     		push	{r7}
 522              	.LCFI25:
 523              		.cfi_def_cfa_offset 4
 524 0002 00AF     		add	r7, sp, #0
 525              		.cfi_offset 7, -4
 526              	.LCFI26:
 527              		.cfi_def_cfa_register 7
1073:.\Generated_Source\PSoC5/UartDebug.c ****         return(UartDebug_TXSTATUS_REG);
 528              		.loc 1 1073 0
 529 0004 46F26443 		movw	r3, #:lower16:1073767524
 530 0008 C4F20003 		movt	r3, #:upper16:1073767524
 531 000c 1B78     		ldrb	r3, [r3, #0]
 532 000e DBB2     		uxtb	r3, r3
1074:.\Generated_Source\PSoC5/UartDebug.c ****     }
 533              		.loc 1 1074 0
 534 0010 1846     		mov	r0, r3
 535 0012 BD46     		mov	sp, r7
 536 0014 80BC     		pop	{r7}
 537 0016 7047     		bx	lr
 538              		.cfi_endproc
 539              	.LFE10:
 540              		.size	UartDebug_ReadTxStatus, .-UartDebug_ReadTxStatus
 541              		.section	.text.UartDebug_PutChar,"ax",%progbits
 542              		.align	2
 543              		.global	UartDebug_PutChar
 544              		.thumb
 545              		.thumb_func
 546              		.type	UartDebug_PutChar, %function
 547              	UartDebug_PutChar:
 548              	.LFB11:
1075:.\Generated_Source\PSoC5/UartDebug.c **** 
1076:.\Generated_Source\PSoC5/UartDebug.c **** 
1077:.\Generated_Source\PSoC5/UartDebug.c ****     /*******************************************************************************
1078:.\Generated_Source\PSoC5/UartDebug.c ****     * Function Name: UartDebug_PutChar
1079:.\Generated_Source\PSoC5/UartDebug.c ****     ********************************************************************************
1080:.\Generated_Source\PSoC5/UartDebug.c ****     *
1081:.\Generated_Source\PSoC5/UartDebug.c ****     * Summary:
1082:.\Generated_Source\PSoC5/UartDebug.c ****     *  Wait to send byte until TX register or buffer has room.
1083:.\Generated_Source\PSoC5/UartDebug.c ****     *
1084:.\Generated_Source\PSoC5/UartDebug.c ****     * Parameters:
1085:.\Generated_Source\PSoC5/UartDebug.c ****     *  txDataByte: The 8-bit data value to send across the UART.
1086:.\Generated_Source\PSoC5/UartDebug.c ****     *
1087:.\Generated_Source\PSoC5/UartDebug.c ****     * Return:
1088:.\Generated_Source\PSoC5/UartDebug.c ****     *  None.
1089:.\Generated_Source\PSoC5/UartDebug.c ****     *
1090:.\Generated_Source\PSoC5/UartDebug.c ****     * Global Variables:
1091:.\Generated_Source\PSoC5/UartDebug.c ****     *  UartDebug_txBuffer - RAM buffer pointer for save data for transmission
1092:.\Generated_Source\PSoC5/UartDebug.c ****     *  UartDebug_txBufferWrite - cyclic index for write to txBuffer, 
1093:.\Generated_Source\PSoC5/UartDebug.c ****     *     checked to identify free space in txBuffer and incremented after each byte 
1094:.\Generated_Source\PSoC5/UartDebug.c ****     *     saved to buffer.
1095:.\Generated_Source\PSoC5/UartDebug.c ****     *  UartDebug_txBufferRead - cyclic index for read from txBuffer, 
1096:.\Generated_Source\PSoC5/UartDebug.c ****     *     checked to identify free space in txBuffer.
1097:.\Generated_Source\PSoC5/UartDebug.c ****     *  UartDebug_initVar - checked to identify that the component has been  
1098:.\Generated_Source\PSoC5/UartDebug.c ****     *     initialized.
1099:.\Generated_Source\PSoC5/UartDebug.c ****     *
1100:.\Generated_Source\PSoC5/UartDebug.c ****     * Reentrant:
1101:.\Generated_Source\PSoC5/UartDebug.c ****     *  No.
ARM GAS  C:\Users\Geo\AppData\Local\Temp\ccOHA31t.s 			page 30


1102:.\Generated_Source\PSoC5/UartDebug.c ****     *
1103:.\Generated_Source\PSoC5/UartDebug.c ****     * Theory:
1104:.\Generated_Source\PSoC5/UartDebug.c ****     *  Allows the user to transmit any byte of data in a single transfer
1105:.\Generated_Source\PSoC5/UartDebug.c ****     *
1106:.\Generated_Source\PSoC5/UartDebug.c ****     *******************************************************************************/
1107:.\Generated_Source\PSoC5/UartDebug.c ****     void UartDebug_PutChar(uint8 txDataByte) 
1108:.\Generated_Source\PSoC5/UartDebug.c ****     {
 549              		.loc 1 1108 0
 550              		.cfi_startproc
 551              		@ args = 0, pretend = 0, frame = 8
 552              		@ frame_needed = 1, uses_anonymous_args = 0
 553 0000 80B5     		push	{r7, lr}
 554              	.LCFI27:
 555              		.cfi_def_cfa_offset 8
 556 0002 82B0     		sub	sp, sp, #8
 557              	.LCFI28:
 558              		.cfi_def_cfa_offset 16
 559 0004 00AF     		add	r7, sp, #0
 560              		.cfi_offset 14, -4
 561              		.cfi_offset 7, -8
 562              	.LCFI29:
 563              		.cfi_def_cfa_register 7
 564 0006 0346     		mov	r3, r0
 565 0008 FB71     		strb	r3, [r7, #7]
 566              	.L29:
1109:.\Generated_Source\PSoC5/UartDebug.c ****             #if(UartDebug_TXBUFFERSIZE > UartDebug_FIFO_LENGTH)
1110:.\Generated_Source\PSoC5/UartDebug.c **** 
1111:.\Generated_Source\PSoC5/UartDebug.c ****                 /* Block if buffer is full, so we dont overwrite. */
1112:.\Generated_Source\PSoC5/UartDebug.c ****                 while( UartDebug_txBufferWrite == (UartDebug_txBufferRead - 1u) ||
 567              		.loc 1 1112 0
 568 000a 40F20003 		movw	r3, #:lower16:UartDebug_txBufferWrite
 569 000e C0F20003 		movt	r3, #:upper16:UartDebug_txBufferWrite
 570 0012 1B78     		ldrb	r3, [r3, #0]	@ zero_extendqisi2
 571 0014 1A46     		mov	r2, r3
 572 0016 40F20003 		movw	r3, #:lower16:UartDebug_txBufferRead
 573 001a C0F20003 		movt	r3, #:upper16:UartDebug_txBufferRead
 574 001e 1B78     		ldrb	r3, [r3, #0]
 575 0020 DBB2     		uxtb	r3, r3
 576 0022 03F1FF33 		add	r3, r3, #-1
 577 0026 9A42     		cmp	r2, r3
 578 0028 EFD0     		beq	.L29
1113:.\Generated_Source\PSoC5/UartDebug.c ****                     (uint8)(UartDebug_txBufferWrite - UartDebug_txBufferRead) ==
 579              		.loc 1 1113 0
 580 002a 40F20003 		movw	r3, #:lower16:UartDebug_txBufferWrite
 581 002e C0F20003 		movt	r3, #:upper16:UartDebug_txBufferWrite
 582 0032 1A78     		ldrb	r2, [r3, #0]	@ zero_extendqisi2
 583 0034 40F20003 		movw	r3, #:lower16:UartDebug_txBufferRead
 584 0038 C0F20003 		movt	r3, #:upper16:UartDebug_txBufferRead
 585 003c 1B78     		ldrb	r3, [r3, #0]
 586 003e DBB2     		uxtb	r3, r3
 587 0040 C3EB0203 		rsb	r3, r3, r2
 588 0044 DBB2     		uxtb	r3, r3
 589              		.loc 1 1112 0
 590 0046 312B     		cmp	r3, #49
 591 0048 DFD0     		beq	.L29
1114:.\Generated_Source\PSoC5/UartDebug.c ****                     (uint8)(UartDebug_TXBUFFERSIZE - 1u) )
1115:.\Generated_Source\PSoC5/UartDebug.c ****                 {
ARM GAS  C:\Users\Geo\AppData\Local\Temp\ccOHA31t.s 			page 31


1116:.\Generated_Source\PSoC5/UartDebug.c ****                     /* Software buffer is full. */
1117:.\Generated_Source\PSoC5/UartDebug.c ****                 }
1118:.\Generated_Source\PSoC5/UartDebug.c ****                 /* Disable Tx interrupt. */
1119:.\Generated_Source\PSoC5/UartDebug.c ****                 /* Protect variables that could change on interrupt. */
1120:.\Generated_Source\PSoC5/UartDebug.c ****                 #if(UartDebug_TX_INTERRUPT_ENABLED)
1121:.\Generated_Source\PSoC5/UartDebug.c ****                     UartDebug_DisableTxInt();
 592              		.loc 1 1121 0
 593 004a FFF7FEFF 		bl	UartDebug_DisableTxInt
1122:.\Generated_Source\PSoC5/UartDebug.c ****                 #endif /* End UartDebug_TX_INTERRUPT_ENABLED */
1123:.\Generated_Source\PSoC5/UartDebug.c **** 
1124:.\Generated_Source\PSoC5/UartDebug.c ****                 if( (UartDebug_txBufferRead == UartDebug_txBufferWrite) &&
 594              		.loc 1 1124 0
 595 004e 40F20003 		movw	r3, #:lower16:UartDebug_txBufferRead
 596 0052 C0F20003 		movt	r3, #:upper16:UartDebug_txBufferRead
 597 0056 1B78     		ldrb	r3, [r3, #0]
 598 0058 DAB2     		uxtb	r2, r3
 599 005a 40F20003 		movw	r3, #:lower16:UartDebug_txBufferWrite
 600 005e C0F20003 		movt	r3, #:upper16:UartDebug_txBufferWrite
 601 0062 1B78     		ldrb	r3, [r3, #0]	@ zero_extendqisi2
 602 0064 9A42     		cmp	r2, r3
 603 0066 10D1     		bne	.L30
1125:.\Generated_Source\PSoC5/UartDebug.c ****                    !(UartDebug_TXSTATUS_REG & UartDebug_TX_STS_FIFO_FULL) )
 604              		.loc 1 1125 0
 605 0068 46F26443 		movw	r3, #:lower16:1073767524
 606 006c C4F20003 		movt	r3, #:upper16:1073767524
 607 0070 1B78     		ldrb	r3, [r3, #0]
 608 0072 DBB2     		uxtb	r3, r3
 609 0074 03F00403 		and	r3, r3, #4
 610              		.loc 1 1124 0
 611 0078 002B     		cmp	r3, #0
 612 007a 06D1     		bne	.L30
1126:.\Generated_Source\PSoC5/UartDebug.c ****                 {
1127:.\Generated_Source\PSoC5/UartDebug.c ****                     /* Add directly to the FIFO. */
1128:.\Generated_Source\PSoC5/UartDebug.c ****                     UartDebug_TXDATA_REG = txDataByte;
 613              		.loc 1 1128 0
 614 007c 46F24443 		movw	r3, #:lower16:1073767492
 615 0080 C4F20003 		movt	r3, #:upper16:1073767492
 616 0084 FA79     		ldrb	r2, [r7, #7]
 617 0086 1A70     		strb	r2, [r3, #0]
 618              		.loc 1 1124 0
 619 0088 26E0     		b	.L31
 620              	.L30:
1129:.\Generated_Source\PSoC5/UartDebug.c ****                 }
1130:.\Generated_Source\PSoC5/UartDebug.c ****                 else
1131:.\Generated_Source\PSoC5/UartDebug.c ****                 {
1132:.\Generated_Source\PSoC5/UartDebug.c ****                     if(UartDebug_txBufferWrite >= UartDebug_TXBUFFERSIZE)
 621              		.loc 1 1132 0
 622 008a 40F20003 		movw	r3, #:lower16:UartDebug_txBufferWrite
 623 008e C0F20003 		movt	r3, #:upper16:UartDebug_txBufferWrite
 624 0092 1B78     		ldrb	r3, [r3, #0]	@ zero_extendqisi2
 625 0094 312B     		cmp	r3, #49
 626 0096 06D9     		bls	.L32
1133:.\Generated_Source\PSoC5/UartDebug.c ****                     {
1134:.\Generated_Source\PSoC5/UartDebug.c ****                         UartDebug_txBufferWrite = 0;
 627              		.loc 1 1134 0
 628 0098 40F20003 		movw	r3, #:lower16:UartDebug_txBufferWrite
 629 009c C0F20003 		movt	r3, #:upper16:UartDebug_txBufferWrite
ARM GAS  C:\Users\Geo\AppData\Local\Temp\ccOHA31t.s 			page 32


 630 00a0 4FF00002 		mov	r2, #0
 631 00a4 1A70     		strb	r2, [r3, #0]
 632              	.L32:
1135:.\Generated_Source\PSoC5/UartDebug.c ****                     }
1136:.\Generated_Source\PSoC5/UartDebug.c **** 
1137:.\Generated_Source\PSoC5/UartDebug.c ****                     UartDebug_txBuffer[UartDebug_txBufferWrite] = txDataByte;
 633              		.loc 1 1137 0
 634 00a6 40F20003 		movw	r3, #:lower16:UartDebug_txBufferWrite
 635 00aa C0F20003 		movt	r3, #:upper16:UartDebug_txBufferWrite
 636 00ae 1B78     		ldrb	r3, [r3, #0]	@ zero_extendqisi2
 637 00b0 1A46     		mov	r2, r3
 638 00b2 40F20003 		movw	r3, #:lower16:UartDebug_txBuffer
 639 00b6 C0F20003 		movt	r3, #:upper16:UartDebug_txBuffer
 640 00ba F979     		ldrb	r1, [r7, #7]
 641 00bc 9954     		strb	r1, [r3, r2]
1138:.\Generated_Source\PSoC5/UartDebug.c **** 
1139:.\Generated_Source\PSoC5/UartDebug.c ****                     /* Add to the software buffer. */
1140:.\Generated_Source\PSoC5/UartDebug.c ****                     UartDebug_txBufferWrite++;
 642              		.loc 1 1140 0
 643 00be 40F20003 		movw	r3, #:lower16:UartDebug_txBufferWrite
 644 00c2 C0F20003 		movt	r3, #:upper16:UartDebug_txBufferWrite
 645 00c6 1B78     		ldrb	r3, [r3, #0]	@ zero_extendqisi2
 646 00c8 03F10103 		add	r3, r3, #1
 647 00cc DAB2     		uxtb	r2, r3
 648 00ce 40F20003 		movw	r3, #:lower16:UartDebug_txBufferWrite
 649 00d2 C0F20003 		movt	r3, #:upper16:UartDebug_txBufferWrite
 650 00d6 1A70     		strb	r2, [r3, #0]
 651              	.L31:
1141:.\Generated_Source\PSoC5/UartDebug.c **** 
1142:.\Generated_Source\PSoC5/UartDebug.c ****                 }
1143:.\Generated_Source\PSoC5/UartDebug.c **** 
1144:.\Generated_Source\PSoC5/UartDebug.c ****                 /* Enable Rx interrupt. */
1145:.\Generated_Source\PSoC5/UartDebug.c ****                 #if(UartDebug_TX_INTERRUPT_ENABLED)
1146:.\Generated_Source\PSoC5/UartDebug.c ****                     UartDebug_EnableTxInt();
 652              		.loc 1 1146 0
 653 00d8 FFF7FEFF 		bl	UartDebug_EnableTxInt
1147:.\Generated_Source\PSoC5/UartDebug.c ****                 #endif /* End UartDebug_TX_INTERRUPT_ENABLED */
1148:.\Generated_Source\PSoC5/UartDebug.c **** 
1149:.\Generated_Source\PSoC5/UartDebug.c ****             #else /* UartDebug_TXBUFFERSIZE > UartDebug_FIFO_LENGTH */
1150:.\Generated_Source\PSoC5/UartDebug.c **** 
1151:.\Generated_Source\PSoC5/UartDebug.c ****                 /* Block if there isnt room. */
1152:.\Generated_Source\PSoC5/UartDebug.c ****                 while(UartDebug_TXSTATUS_REG & UartDebug_TX_STS_FIFO_FULL);
1153:.\Generated_Source\PSoC5/UartDebug.c **** 
1154:.\Generated_Source\PSoC5/UartDebug.c ****                 /* Add directly to the FIFO. */
1155:.\Generated_Source\PSoC5/UartDebug.c ****                 UartDebug_TXDATA_REG = txDataByte;
1156:.\Generated_Source\PSoC5/UartDebug.c **** 
1157:.\Generated_Source\PSoC5/UartDebug.c ****             #endif /* End UartDebug_TXBUFFERSIZE > UartDebug_FIFO_LENGTH */
1158:.\Generated_Source\PSoC5/UartDebug.c ****     }
 654              		.loc 1 1158 0
 655 00dc 07F10807 		add	r7, r7, #8
 656 00e0 BD46     		mov	sp, r7
 657 00e2 80BD     		pop	{r7, pc}
 658              		.cfi_endproc
 659              	.LFE11:
 660              		.size	UartDebug_PutChar, .-UartDebug_PutChar
 661              		.section	.text.UartDebug_PutString,"ax",%progbits
 662              		.align	2
ARM GAS  C:\Users\Geo\AppData\Local\Temp\ccOHA31t.s 			page 33


 663              		.global	UartDebug_PutString
 664              		.thumb
 665              		.thumb_func
 666              		.type	UartDebug_PutString, %function
 667              	UartDebug_PutString:
 668              	.LFB12:
1159:.\Generated_Source\PSoC5/UartDebug.c **** 
1160:.\Generated_Source\PSoC5/UartDebug.c **** 
1161:.\Generated_Source\PSoC5/UartDebug.c ****     /*******************************************************************************
1162:.\Generated_Source\PSoC5/UartDebug.c ****     * Function Name: UartDebug_PutString
1163:.\Generated_Source\PSoC5/UartDebug.c ****     ********************************************************************************
1164:.\Generated_Source\PSoC5/UartDebug.c ****     *
1165:.\Generated_Source\PSoC5/UartDebug.c ****     * Summary:
1166:.\Generated_Source\PSoC5/UartDebug.c ****     *  Write a Sequence of bytes on the Transmit line. Data comes from RAM or ROM.
1167:.\Generated_Source\PSoC5/UartDebug.c ****     *
1168:.\Generated_Source\PSoC5/UartDebug.c ****     * Parameters:
1169:.\Generated_Source\PSoC5/UartDebug.c ****     *  string: char pointer to character string of Data to Send.
1170:.\Generated_Source\PSoC5/UartDebug.c ****     *
1171:.\Generated_Source\PSoC5/UartDebug.c ****     * Return:
1172:.\Generated_Source\PSoC5/UartDebug.c ****     *  None.
1173:.\Generated_Source\PSoC5/UartDebug.c ****     *
1174:.\Generated_Source\PSoC5/UartDebug.c ****     * Global Variables:
1175:.\Generated_Source\PSoC5/UartDebug.c ****     *  UartDebug_initVar - checked to identify that the component has been  
1176:.\Generated_Source\PSoC5/UartDebug.c ****     *     initialized.
1177:.\Generated_Source\PSoC5/UartDebug.c ****     *
1178:.\Generated_Source\PSoC5/UartDebug.c ****     * Reentrant:
1179:.\Generated_Source\PSoC5/UartDebug.c ****     *  No.
1180:.\Generated_Source\PSoC5/UartDebug.c ****     *
1181:.\Generated_Source\PSoC5/UartDebug.c ****     * Theory:
1182:.\Generated_Source\PSoC5/UartDebug.c ****     *  This function will block if there is not enough memory to place the whole 
1183:.\Generated_Source\PSoC5/UartDebug.c ****     *  string, it will block until the entire string has been written to the 
1184:.\Generated_Source\PSoC5/UartDebug.c ****     *  transmit buffer.
1185:.\Generated_Source\PSoC5/UartDebug.c ****     *
1186:.\Generated_Source\PSoC5/UartDebug.c ****     *******************************************************************************/
1187:.\Generated_Source\PSoC5/UartDebug.c ****     void UartDebug_PutString(char* string) 
1188:.\Generated_Source\PSoC5/UartDebug.c ****     {
 669              		.loc 1 1188 0
 670              		.cfi_startproc
 671              		@ args = 0, pretend = 0, frame = 8
 672              		@ frame_needed = 1, uses_anonymous_args = 0
 673 0000 80B5     		push	{r7, lr}
 674              	.LCFI30:
 675              		.cfi_def_cfa_offset 8
 676 0002 82B0     		sub	sp, sp, #8
 677              	.LCFI31:
 678              		.cfi_def_cfa_offset 16
 679 0004 00AF     		add	r7, sp, #0
 680              		.cfi_offset 14, -4
 681              		.cfi_offset 7, -8
 682              	.LCFI32:
 683              		.cfi_def_cfa_register 7
 684 0006 7860     		str	r0, [r7, #4]
1189:.\Generated_Source\PSoC5/UartDebug.c ****         /* If not Initialized then skip this function*/
1190:.\Generated_Source\PSoC5/UartDebug.c ****         if(UartDebug_initVar != 0u)
 685              		.loc 1 1190 0
 686 0008 40F20003 		movw	r3, #:lower16:UartDebug_initVar
 687 000c C0F20003 		movt	r3, #:upper16:UartDebug_initVar
ARM GAS  C:\Users\Geo\AppData\Local\Temp\ccOHA31t.s 			page 34


 688 0010 1B78     		ldrb	r3, [r3, #0]	@ zero_extendqisi2
 689 0012 002B     		cmp	r3, #0
 690 0014 0DD0     		beq	.L38
1191:.\Generated_Source\PSoC5/UartDebug.c ****         {
1192:.\Generated_Source\PSoC5/UartDebug.c ****             /* This is a blocking function, it will not exit until all data is sent*/
1193:.\Generated_Source\PSoC5/UartDebug.c ****             while(*string != 0u)
 691              		.loc 1 1193 0
 692 0016 08E0     		b	.L36
 693              	.L37:
1194:.\Generated_Source\PSoC5/UartDebug.c ****             {
1195:.\Generated_Source\PSoC5/UartDebug.c ****                 UartDebug_PutChar(*string++);
 694              		.loc 1 1195 0
 695 0018 7B68     		ldr	r3, [r7, #4]
 696 001a 1B78     		ldrb	r3, [r3, #0]	@ zero_extendqisi2
 697 001c 7A68     		ldr	r2, [r7, #4]
 698 001e 02F10102 		add	r2, r2, #1
 699 0022 7A60     		str	r2, [r7, #4]
 700 0024 1846     		mov	r0, r3
 701 0026 FFF7FEFF 		bl	UartDebug_PutChar
 702              	.L36:
 703              		.loc 1 1193 0
 704 002a 7B68     		ldr	r3, [r7, #4]
 705 002c 1B78     		ldrb	r3, [r3, #0]	@ zero_extendqisi2
 706 002e 002B     		cmp	r3, #0
 707 0030 F2D1     		bne	.L37
 708              	.L38:
1196:.\Generated_Source\PSoC5/UartDebug.c ****             }
1197:.\Generated_Source\PSoC5/UartDebug.c ****         }
1198:.\Generated_Source\PSoC5/UartDebug.c ****     }
 709              		.loc 1 1198 0
 710 0032 07F10807 		add	r7, r7, #8
 711 0036 BD46     		mov	sp, r7
 712 0038 80BD     		pop	{r7, pc}
 713              		.cfi_endproc
 714              	.LFE12:
 715              		.size	UartDebug_PutString, .-UartDebug_PutString
 716 003a 00BF     		.section	.text.UartDebug_PutArray,"ax",%progbits
 717              		.align	2
 718              		.global	UartDebug_PutArray
 719              		.thumb
 720              		.thumb_func
 721              		.type	UartDebug_PutArray, %function
 722              	UartDebug_PutArray:
 723              	.LFB13:
1199:.\Generated_Source\PSoC5/UartDebug.c **** 
1200:.\Generated_Source\PSoC5/UartDebug.c **** 
1201:.\Generated_Source\PSoC5/UartDebug.c ****     /*******************************************************************************
1202:.\Generated_Source\PSoC5/UartDebug.c ****     * Function Name: UartDebug_PutArray
1203:.\Generated_Source\PSoC5/UartDebug.c ****     ********************************************************************************
1204:.\Generated_Source\PSoC5/UartDebug.c ****     *
1205:.\Generated_Source\PSoC5/UartDebug.c ****     * Summary:
1206:.\Generated_Source\PSoC5/UartDebug.c ****     *  Write a Sequence of bytes on the Transmit line. Data comes from RAM or ROM.
1207:.\Generated_Source\PSoC5/UartDebug.c ****     *
1208:.\Generated_Source\PSoC5/UartDebug.c ****     * Parameters:
1209:.\Generated_Source\PSoC5/UartDebug.c ****     *  string: Address of the memory array residing in RAM or ROM.
1210:.\Generated_Source\PSoC5/UartDebug.c ****     *  byteCount: Number of Bytes to be transmitted.
1211:.\Generated_Source\PSoC5/UartDebug.c ****     *
ARM GAS  C:\Users\Geo\AppData\Local\Temp\ccOHA31t.s 			page 35


1212:.\Generated_Source\PSoC5/UartDebug.c ****     * Return:
1213:.\Generated_Source\PSoC5/UartDebug.c ****     *  None.
1214:.\Generated_Source\PSoC5/UartDebug.c ****     *
1215:.\Generated_Source\PSoC5/UartDebug.c ****     * Global Variables:
1216:.\Generated_Source\PSoC5/UartDebug.c ****     *  UartDebug_initVar - checked to identify that the component has been  
1217:.\Generated_Source\PSoC5/UartDebug.c ****     *     initialized.
1218:.\Generated_Source\PSoC5/UartDebug.c ****     *
1219:.\Generated_Source\PSoC5/UartDebug.c ****     * Reentrant:
1220:.\Generated_Source\PSoC5/UartDebug.c ****     *  No.
1221:.\Generated_Source\PSoC5/UartDebug.c ****     *
1222:.\Generated_Source\PSoC5/UartDebug.c ****     *******************************************************************************/
1223:.\Generated_Source\PSoC5/UartDebug.c ****     void UartDebug_PutArray(uint8* string, uint8 byteCount) 
1224:.\Generated_Source\PSoC5/UartDebug.c ****                                                                     
1225:.\Generated_Source\PSoC5/UartDebug.c ****     {
 724              		.loc 1 1225 0
 725              		.cfi_startproc
 726              		@ args = 0, pretend = 0, frame = 8
 727              		@ frame_needed = 1, uses_anonymous_args = 0
 728 0000 80B5     		push	{r7, lr}
 729              	.LCFI33:
 730              		.cfi_def_cfa_offset 8
 731 0002 82B0     		sub	sp, sp, #8
 732              	.LCFI34:
 733              		.cfi_def_cfa_offset 16
 734 0004 00AF     		add	r7, sp, #0
 735              		.cfi_offset 14, -4
 736              		.cfi_offset 7, -8
 737              	.LCFI35:
 738              		.cfi_def_cfa_register 7
 739 0006 7860     		str	r0, [r7, #4]
 740 0008 0B46     		mov	r3, r1
 741 000a FB70     		strb	r3, [r7, #3]
1226:.\Generated_Source\PSoC5/UartDebug.c ****         /* If not Initialized then skip this function*/
1227:.\Generated_Source\PSoC5/UartDebug.c ****         if(UartDebug_initVar != 0u)
 742              		.loc 1 1227 0
 743 000c 40F20003 		movw	r3, #:lower16:UartDebug_initVar
 744 0010 C0F20003 		movt	r3, #:upper16:UartDebug_initVar
 745 0014 1B78     		ldrb	r3, [r3, #0]	@ zero_extendqisi2
 746 0016 002B     		cmp	r3, #0
 747 0018 10D0     		beq	.L43
1228:.\Generated_Source\PSoC5/UartDebug.c ****         {
1229:.\Generated_Source\PSoC5/UartDebug.c ****             while(byteCount > 0u)
 748              		.loc 1 1229 0
 749 001a 0CE0     		b	.L41
 750              	.L42:
1230:.\Generated_Source\PSoC5/UartDebug.c ****             {
1231:.\Generated_Source\PSoC5/UartDebug.c ****                 UartDebug_PutChar(*string++);
 751              		.loc 1 1231 0
 752 001c 7B68     		ldr	r3, [r7, #4]
 753 001e 1B78     		ldrb	r3, [r3, #0]	@ zero_extendqisi2
 754 0020 7A68     		ldr	r2, [r7, #4]
 755 0022 02F10102 		add	r2, r2, #1
 756 0026 7A60     		str	r2, [r7, #4]
 757 0028 1846     		mov	r0, r3
 758 002a FFF7FEFF 		bl	UartDebug_PutChar
1232:.\Generated_Source\PSoC5/UartDebug.c ****                 byteCount--;
 759              		.loc 1 1232 0
ARM GAS  C:\Users\Geo\AppData\Local\Temp\ccOHA31t.s 			page 36


 760 002e FB78     		ldrb	r3, [r7, #3]
 761 0030 03F1FF33 		add	r3, r3, #-1
 762 0034 FB70     		strb	r3, [r7, #3]
 763              	.L41:
 764              		.loc 1 1229 0
 765 0036 FB78     		ldrb	r3, [r7, #3]	@ zero_extendqisi2
 766 0038 002B     		cmp	r3, #0
 767 003a EFD1     		bne	.L42
 768              	.L43:
1233:.\Generated_Source\PSoC5/UartDebug.c ****             }
1234:.\Generated_Source\PSoC5/UartDebug.c ****         }
1235:.\Generated_Source\PSoC5/UartDebug.c ****     }
 769              		.loc 1 1235 0
 770 003c 07F10807 		add	r7, r7, #8
 771 0040 BD46     		mov	sp, r7
 772 0042 80BD     		pop	{r7, pc}
 773              		.cfi_endproc
 774              	.LFE13:
 775              		.size	UartDebug_PutArray, .-UartDebug_PutArray
 776              		.section	.text.UartDebug_PutCRLF,"ax",%progbits
 777              		.align	2
 778              		.global	UartDebug_PutCRLF
 779              		.thumb
 780              		.thumb_func
 781              		.type	UartDebug_PutCRLF, %function
 782              	UartDebug_PutCRLF:
 783              	.LFB14:
1236:.\Generated_Source\PSoC5/UartDebug.c **** 
1237:.\Generated_Source\PSoC5/UartDebug.c **** 
1238:.\Generated_Source\PSoC5/UartDebug.c ****     /*******************************************************************************
1239:.\Generated_Source\PSoC5/UartDebug.c ****     * Function Name: UartDebug_PutCRLF
1240:.\Generated_Source\PSoC5/UartDebug.c ****     ********************************************************************************
1241:.\Generated_Source\PSoC5/UartDebug.c ****     *
1242:.\Generated_Source\PSoC5/UartDebug.c ****     * Summary:
1243:.\Generated_Source\PSoC5/UartDebug.c ****     *  Write a character and then carriage return and line feed.
1244:.\Generated_Source\PSoC5/UartDebug.c ****     *
1245:.\Generated_Source\PSoC5/UartDebug.c ****     * Parameters:
1246:.\Generated_Source\PSoC5/UartDebug.c ****     *  txDataByte: uint8 Character to send.
1247:.\Generated_Source\PSoC5/UartDebug.c ****     *
1248:.\Generated_Source\PSoC5/UartDebug.c ****     * Return:
1249:.\Generated_Source\PSoC5/UartDebug.c ****     *  None.
1250:.\Generated_Source\PSoC5/UartDebug.c ****     *
1251:.\Generated_Source\PSoC5/UartDebug.c ****     * Global Variables:
1252:.\Generated_Source\PSoC5/UartDebug.c ****     *  UartDebug_initVar - checked to identify that the component has been  
1253:.\Generated_Source\PSoC5/UartDebug.c ****     *     initialized.
1254:.\Generated_Source\PSoC5/UartDebug.c ****     *
1255:.\Generated_Source\PSoC5/UartDebug.c ****     * Reentrant:
1256:.\Generated_Source\PSoC5/UartDebug.c ****     *  No.
1257:.\Generated_Source\PSoC5/UartDebug.c ****     *
1258:.\Generated_Source\PSoC5/UartDebug.c ****     *******************************************************************************/
1259:.\Generated_Source\PSoC5/UartDebug.c ****     void UartDebug_PutCRLF(uint8 txDataByte) 
1260:.\Generated_Source\PSoC5/UartDebug.c ****     {
 784              		.loc 1 1260 0
 785              		.cfi_startproc
 786              		@ args = 0, pretend = 0, frame = 8
 787              		@ frame_needed = 1, uses_anonymous_args = 0
 788 0000 80B5     		push	{r7, lr}
ARM GAS  C:\Users\Geo\AppData\Local\Temp\ccOHA31t.s 			page 37


 789              	.LCFI36:
 790              		.cfi_def_cfa_offset 8
 791 0002 82B0     		sub	sp, sp, #8
 792              	.LCFI37:
 793              		.cfi_def_cfa_offset 16
 794 0004 00AF     		add	r7, sp, #0
 795              		.cfi_offset 14, -4
 796              		.cfi_offset 7, -8
 797              	.LCFI38:
 798              		.cfi_def_cfa_register 7
 799 0006 0346     		mov	r3, r0
 800 0008 FB71     		strb	r3, [r7, #7]
1261:.\Generated_Source\PSoC5/UartDebug.c ****         /* If not Initialized then skip this function*/
1262:.\Generated_Source\PSoC5/UartDebug.c ****         if(UartDebug_initVar != 0u)
 801              		.loc 1 1262 0
 802 000a 40F20003 		movw	r3, #:lower16:UartDebug_initVar
 803 000e C0F20003 		movt	r3, #:upper16:UartDebug_initVar
 804 0012 1B78     		ldrb	r3, [r3, #0]	@ zero_extendqisi2
 805 0014 002B     		cmp	r3, #0
 806 0016 0BD0     		beq	.L46
1263:.\Generated_Source\PSoC5/UartDebug.c ****         {
1264:.\Generated_Source\PSoC5/UartDebug.c ****             UartDebug_PutChar(txDataByte);
 807              		.loc 1 1264 0
 808 0018 FB79     		ldrb	r3, [r7, #7]	@ zero_extendqisi2
 809 001a 1846     		mov	r0, r3
 810 001c FFF7FEFF 		bl	UartDebug_PutChar
1265:.\Generated_Source\PSoC5/UartDebug.c ****             UartDebug_PutChar(0x0Du);
 811              		.loc 1 1265 0
 812 0020 4FF00D00 		mov	r0, #13
 813 0024 FFF7FEFF 		bl	UartDebug_PutChar
1266:.\Generated_Source\PSoC5/UartDebug.c ****             UartDebug_PutChar(0x0Au);
 814              		.loc 1 1266 0
 815 0028 4FF00A00 		mov	r0, #10
 816 002c FFF7FEFF 		bl	UartDebug_PutChar
 817              	.L46:
1267:.\Generated_Source\PSoC5/UartDebug.c ****         }
1268:.\Generated_Source\PSoC5/UartDebug.c ****     }
 818              		.loc 1 1268 0
 819 0030 07F10807 		add	r7, r7, #8
 820 0034 BD46     		mov	sp, r7
 821 0036 80BD     		pop	{r7, pc}
 822              		.cfi_endproc
 823              	.LFE14:
 824              		.size	UartDebug_PutCRLF, .-UartDebug_PutCRLF
 825              		.section	.text.UartDebug_GetTxBufferSize,"ax",%progbits
 826              		.align	2
 827              		.global	UartDebug_GetTxBufferSize
 828              		.thumb
 829              		.thumb_func
 830              		.type	UartDebug_GetTxBufferSize, %function
 831              	UartDebug_GetTxBufferSize:
 832              	.LFB15:
1269:.\Generated_Source\PSoC5/UartDebug.c **** 
1270:.\Generated_Source\PSoC5/UartDebug.c **** 
1271:.\Generated_Source\PSoC5/UartDebug.c ****     /*******************************************************************************
1272:.\Generated_Source\PSoC5/UartDebug.c ****     * Function Name: UartDebug_GetTxBufferSize
1273:.\Generated_Source\PSoC5/UartDebug.c ****     ********************************************************************************
ARM GAS  C:\Users\Geo\AppData\Local\Temp\ccOHA31t.s 			page 38


1274:.\Generated_Source\PSoC5/UartDebug.c ****     *
1275:.\Generated_Source\PSoC5/UartDebug.c ****     * Summary:
1276:.\Generated_Source\PSoC5/UartDebug.c ****     *  Determine the amount of space left in the TX buffer and return the count in
1277:.\Generated_Source\PSoC5/UartDebug.c ****     *  bytes
1278:.\Generated_Source\PSoC5/UartDebug.c ****     *
1279:.\Generated_Source\PSoC5/UartDebug.c ****     * Parameters:
1280:.\Generated_Source\PSoC5/UartDebug.c ****     *  None.
1281:.\Generated_Source\PSoC5/UartDebug.c ****     *
1282:.\Generated_Source\PSoC5/UartDebug.c ****     * Return:
1283:.\Generated_Source\PSoC5/UartDebug.c ****     *  Integer count of the number of bytes left in the TX buffer
1284:.\Generated_Source\PSoC5/UartDebug.c ****     *
1285:.\Generated_Source\PSoC5/UartDebug.c ****     * Global Variables:
1286:.\Generated_Source\PSoC5/UartDebug.c ****     *  UartDebug_txBufferWrite - used to calculate left space. 
1287:.\Generated_Source\PSoC5/UartDebug.c ****     *  UartDebug_txBufferRead - used to calculate left space.
1288:.\Generated_Source\PSoC5/UartDebug.c ****     *
1289:.\Generated_Source\PSoC5/UartDebug.c ****     * Reentrant:
1290:.\Generated_Source\PSoC5/UartDebug.c ****     *  No.
1291:.\Generated_Source\PSoC5/UartDebug.c ****     *
1292:.\Generated_Source\PSoC5/UartDebug.c ****     * Theory:
1293:.\Generated_Source\PSoC5/UartDebug.c ****     *  Allows the user to find out how full the TX Buffer is.
1294:.\Generated_Source\PSoC5/UartDebug.c ****     *
1295:.\Generated_Source\PSoC5/UartDebug.c ****     *******************************************************************************/
1296:.\Generated_Source\PSoC5/UartDebug.c ****     uint8 UartDebug_GetTxBufferSize(void) 
1297:.\Generated_Source\PSoC5/UartDebug.c ****                                                             
1298:.\Generated_Source\PSoC5/UartDebug.c ****     {
 833              		.loc 1 1298 0
 834              		.cfi_startproc
 835              		@ args = 0, pretend = 0, frame = 8
 836              		@ frame_needed = 1, uses_anonymous_args = 0
 837 0000 80B5     		push	{r7, lr}
 838              	.LCFI39:
 839              		.cfi_def_cfa_offset 8
 840 0002 82B0     		sub	sp, sp, #8
 841              	.LCFI40:
 842              		.cfi_def_cfa_offset 16
 843 0004 00AF     		add	r7, sp, #0
 844              		.cfi_offset 14, -4
 845              		.cfi_offset 7, -8
 846              	.LCFI41:
 847              		.cfi_def_cfa_register 7
1299:.\Generated_Source\PSoC5/UartDebug.c ****         uint8 size;
1300:.\Generated_Source\PSoC5/UartDebug.c **** 
1301:.\Generated_Source\PSoC5/UartDebug.c ****         #if(UartDebug_TXBUFFERSIZE > UartDebug_FIFO_LENGTH)
1302:.\Generated_Source\PSoC5/UartDebug.c **** 
1303:.\Generated_Source\PSoC5/UartDebug.c ****             /* Disable Tx interrupt. */
1304:.\Generated_Source\PSoC5/UartDebug.c ****             /* Protect variables that could change on interrupt. */
1305:.\Generated_Source\PSoC5/UartDebug.c ****             #if(UartDebug_TX_INTERRUPT_ENABLED)
1306:.\Generated_Source\PSoC5/UartDebug.c ****                 UartDebug_DisableTxInt();
 848              		.loc 1 1306 0
 849 0006 FFF7FEFF 		bl	UartDebug_DisableTxInt
1307:.\Generated_Source\PSoC5/UartDebug.c ****             #endif /* End UartDebug_TX_INTERRUPT_ENABLED */
1308:.\Generated_Source\PSoC5/UartDebug.c **** 
1309:.\Generated_Source\PSoC5/UartDebug.c ****             if(UartDebug_txBufferRead == UartDebug_txBufferWrite)
 850              		.loc 1 1309 0
 851 000a 40F20003 		movw	r3, #:lower16:UartDebug_txBufferRead
 852 000e C0F20003 		movt	r3, #:upper16:UartDebug_txBufferRead
 853 0012 1B78     		ldrb	r3, [r3, #0]
ARM GAS  C:\Users\Geo\AppData\Local\Temp\ccOHA31t.s 			page 39


 854 0014 DAB2     		uxtb	r2, r3
 855 0016 40F20003 		movw	r3, #:lower16:UartDebug_txBufferWrite
 856 001a C0F20003 		movt	r3, #:upper16:UartDebug_txBufferWrite
 857 001e 1B78     		ldrb	r3, [r3, #0]	@ zero_extendqisi2
 858 0020 9A42     		cmp	r2, r3
 859 0022 03D1     		bne	.L48
1310:.\Generated_Source\PSoC5/UartDebug.c ****             {
1311:.\Generated_Source\PSoC5/UartDebug.c ****                 size = 0u;
 860              		.loc 1 1311 0
 861 0024 4FF00003 		mov	r3, #0
 862 0028 FB71     		strb	r3, [r7, #7]
 863 002a 2CE0     		b	.L49
 864              	.L48:
1312:.\Generated_Source\PSoC5/UartDebug.c ****             }
1313:.\Generated_Source\PSoC5/UartDebug.c ****             else if(UartDebug_txBufferRead < UartDebug_txBufferWrite)
 865              		.loc 1 1313 0
 866 002c 40F20003 		movw	r3, #:lower16:UartDebug_txBufferRead
 867 0030 C0F20003 		movt	r3, #:upper16:UartDebug_txBufferRead
 868 0034 1B78     		ldrb	r3, [r3, #0]
 869 0036 DAB2     		uxtb	r2, r3
 870 0038 40F20003 		movw	r3, #:lower16:UartDebug_txBufferWrite
 871 003c C0F20003 		movt	r3, #:upper16:UartDebug_txBufferWrite
 872 0040 1B78     		ldrb	r3, [r3, #0]	@ zero_extendqisi2
 873 0042 9A42     		cmp	r2, r3
 874 0044 0ED2     		bcs	.L50
1314:.\Generated_Source\PSoC5/UartDebug.c ****             {
1315:.\Generated_Source\PSoC5/UartDebug.c ****                 size = (UartDebug_txBufferWrite - UartDebug_txBufferRead);
 875              		.loc 1 1315 0
 876 0046 40F20003 		movw	r3, #:lower16:UartDebug_txBufferWrite
 877 004a C0F20003 		movt	r3, #:upper16:UartDebug_txBufferWrite
 878 004e 1A78     		ldrb	r2, [r3, #0]	@ zero_extendqisi2
 879 0050 40F20003 		movw	r3, #:lower16:UartDebug_txBufferRead
 880 0054 C0F20003 		movt	r3, #:upper16:UartDebug_txBufferRead
 881 0058 1B78     		ldrb	r3, [r3, #0]
 882 005a DBB2     		uxtb	r3, r3
 883 005c C3EB0203 		rsb	r3, r3, r2
 884 0060 FB71     		strb	r3, [r7, #7]
 885 0062 10E0     		b	.L49
 886              	.L50:
1316:.\Generated_Source\PSoC5/UartDebug.c ****             }
1317:.\Generated_Source\PSoC5/UartDebug.c ****             else
1318:.\Generated_Source\PSoC5/UartDebug.c ****             {
1319:.\Generated_Source\PSoC5/UartDebug.c ****                 size = (UartDebug_TXBUFFERSIZE - UartDebug_txBufferRead) + UartDebug_txBufferWrite;
 887              		.loc 1 1319 0
 888 0064 40F20003 		movw	r3, #:lower16:UartDebug_txBufferWrite
 889 0068 C0F20003 		movt	r3, #:upper16:UartDebug_txBufferWrite
 890 006c 1A78     		ldrb	r2, [r3, #0]	@ zero_extendqisi2
 891 006e 40F20003 		movw	r3, #:lower16:UartDebug_txBufferRead
 892 0072 C0F20003 		movt	r3, #:upper16:UartDebug_txBufferRead
 893 0076 1B78     		ldrb	r3, [r3, #0]
 894 0078 DBB2     		uxtb	r3, r3
 895 007a C3EB0203 		rsb	r3, r3, r2
 896 007e DBB2     		uxtb	r3, r3
 897 0080 03F13203 		add	r3, r3, #50
 898 0084 FB71     		strb	r3, [r7, #7]
 899              	.L49:
1320:.\Generated_Source\PSoC5/UartDebug.c ****             }
ARM GAS  C:\Users\Geo\AppData\Local\Temp\ccOHA31t.s 			page 40


1321:.\Generated_Source\PSoC5/UartDebug.c **** 
1322:.\Generated_Source\PSoC5/UartDebug.c ****             /* Enable Tx interrupt. */
1323:.\Generated_Source\PSoC5/UartDebug.c ****             #if(UartDebug_TX_INTERRUPT_ENABLED)
1324:.\Generated_Source\PSoC5/UartDebug.c ****                 UartDebug_EnableTxInt();
 900              		.loc 1 1324 0
 901 0086 FFF7FEFF 		bl	UartDebug_EnableTxInt
1325:.\Generated_Source\PSoC5/UartDebug.c ****             #endif /* End UartDebug_TX_INTERRUPT_ENABLED */
1326:.\Generated_Source\PSoC5/UartDebug.c **** 
1327:.\Generated_Source\PSoC5/UartDebug.c ****         #else /* UartDebug_TXBUFFERSIZE > UartDebug_FIFO_LENGTH */
1328:.\Generated_Source\PSoC5/UartDebug.c **** 
1329:.\Generated_Source\PSoC5/UartDebug.c ****             size = UartDebug_TXSTATUS_REG;
1330:.\Generated_Source\PSoC5/UartDebug.c **** 
1331:.\Generated_Source\PSoC5/UartDebug.c ****             /* Is the fifo is full. */
1332:.\Generated_Source\PSoC5/UartDebug.c ****             if(size & UartDebug_TX_STS_FIFO_FULL)
1333:.\Generated_Source\PSoC5/UartDebug.c ****             {
1334:.\Generated_Source\PSoC5/UartDebug.c ****                 size = UartDebug_FIFO_LENGTH;
1335:.\Generated_Source\PSoC5/UartDebug.c ****             }
1336:.\Generated_Source\PSoC5/UartDebug.c ****             else if(size & UartDebug_TX_STS_FIFO_EMPTY)
1337:.\Generated_Source\PSoC5/UartDebug.c ****             {
1338:.\Generated_Source\PSoC5/UartDebug.c ****                 size = 0u;
1339:.\Generated_Source\PSoC5/UartDebug.c ****             }
1340:.\Generated_Source\PSoC5/UartDebug.c ****             else
1341:.\Generated_Source\PSoC5/UartDebug.c ****             {
1342:.\Generated_Source\PSoC5/UartDebug.c ****                 /* We only know there is data in the fifo. */
1343:.\Generated_Source\PSoC5/UartDebug.c ****                 size = 1u;
1344:.\Generated_Source\PSoC5/UartDebug.c ****             }
1345:.\Generated_Source\PSoC5/UartDebug.c **** 
1346:.\Generated_Source\PSoC5/UartDebug.c ****         #endif /* End UartDebug_TXBUFFERSIZE > UartDebug_FIFO_LENGTH */
1347:.\Generated_Source\PSoC5/UartDebug.c **** 
1348:.\Generated_Source\PSoC5/UartDebug.c ****         return(size);
 902              		.loc 1 1348 0
 903 008a FB79     		ldrb	r3, [r7, #7]	@ zero_extendqisi2
1349:.\Generated_Source\PSoC5/UartDebug.c ****     }
 904              		.loc 1 1349 0
 905 008c 1846     		mov	r0, r3
 906 008e 07F10807 		add	r7, r7, #8
 907 0092 BD46     		mov	sp, r7
 908 0094 80BD     		pop	{r7, pc}
 909              		.cfi_endproc
 910              	.LFE15:
 911              		.size	UartDebug_GetTxBufferSize, .-UartDebug_GetTxBufferSize
 912 0096 00BF     		.section	.text.UartDebug_ClearTxBuffer,"ax",%progbits
 913              		.align	2
 914              		.global	UartDebug_ClearTxBuffer
 915              		.thumb
 916              		.thumb_func
 917              		.type	UartDebug_ClearTxBuffer, %function
 918              	UartDebug_ClearTxBuffer:
 919              	.LFB16:
1350:.\Generated_Source\PSoC5/UartDebug.c **** 
1351:.\Generated_Source\PSoC5/UartDebug.c **** 
1352:.\Generated_Source\PSoC5/UartDebug.c ****     /*******************************************************************************
1353:.\Generated_Source\PSoC5/UartDebug.c ****     * Function Name: UartDebug_ClearTxBuffer
1354:.\Generated_Source\PSoC5/UartDebug.c ****     ********************************************************************************
1355:.\Generated_Source\PSoC5/UartDebug.c ****     *
1356:.\Generated_Source\PSoC5/UartDebug.c ****     * Summary:
1357:.\Generated_Source\PSoC5/UartDebug.c ****     *  Clears the TX RAM buffer by setting the read and write pointers both to zero.
ARM GAS  C:\Users\Geo\AppData\Local\Temp\ccOHA31t.s 			page 41


1358:.\Generated_Source\PSoC5/UartDebug.c ****     *  Clears the hardware TX FIFO.  Any data present in the FIFO will not be sent.
1359:.\Generated_Source\PSoC5/UartDebug.c ****     *
1360:.\Generated_Source\PSoC5/UartDebug.c ****     * Parameters:
1361:.\Generated_Source\PSoC5/UartDebug.c ****     *  None.
1362:.\Generated_Source\PSoC5/UartDebug.c ****     *
1363:.\Generated_Source\PSoC5/UartDebug.c ****     * Return:
1364:.\Generated_Source\PSoC5/UartDebug.c ****     *  None.
1365:.\Generated_Source\PSoC5/UartDebug.c ****     *
1366:.\Generated_Source\PSoC5/UartDebug.c ****     * Global Variables:
1367:.\Generated_Source\PSoC5/UartDebug.c ****     *  UartDebug_txBufferWrite - cleared to zero. 
1368:.\Generated_Source\PSoC5/UartDebug.c ****     *  UartDebug_txBufferRead - cleared to zero.
1369:.\Generated_Source\PSoC5/UartDebug.c ****     *
1370:.\Generated_Source\PSoC5/UartDebug.c ****     * Reentrant:
1371:.\Generated_Source\PSoC5/UartDebug.c ****     *  No.
1372:.\Generated_Source\PSoC5/UartDebug.c ****     *
1373:.\Generated_Source\PSoC5/UartDebug.c ****     * Theory:
1374:.\Generated_Source\PSoC5/UartDebug.c ****     *  Setting the pointers to zero makes the system believe there is no data to 
1375:.\Generated_Source\PSoC5/UartDebug.c ****     *  read and writing will resume at address 0 overwriting any data that may have
1376:.\Generated_Source\PSoC5/UartDebug.c ****     *  remained in the RAM.
1377:.\Generated_Source\PSoC5/UartDebug.c ****     *
1378:.\Generated_Source\PSoC5/UartDebug.c ****     * Side Effects:
1379:.\Generated_Source\PSoC5/UartDebug.c ****     *  Any received data not read from the RAM buffer will be lost when overwritten.
1380:.\Generated_Source\PSoC5/UartDebug.c ****     *
1381:.\Generated_Source\PSoC5/UartDebug.c ****     *******************************************************************************/
1382:.\Generated_Source\PSoC5/UartDebug.c ****     void UartDebug_ClearTxBuffer(void) 
1383:.\Generated_Source\PSoC5/UartDebug.c ****     {
 920              		.loc 1 1383 0
 921              		.cfi_startproc
 922              		@ args = 0, pretend = 0, frame = 8
 923              		@ frame_needed = 1, uses_anonymous_args = 0
 924 0000 80B5     		push	{r7, lr}
 925              	.LCFI42:
 926              		.cfi_def_cfa_offset 8
 927 0002 82B0     		sub	sp, sp, #8
 928              	.LCFI43:
 929              		.cfi_def_cfa_offset 16
 930 0004 00AF     		add	r7, sp, #0
 931              		.cfi_offset 14, -4
 932              		.cfi_offset 7, -8
 933              	.LCFI44:
 934              		.cfi_def_cfa_register 7
1384:.\Generated_Source\PSoC5/UartDebug.c ****         uint8 enableInterrupts;
1385:.\Generated_Source\PSoC5/UartDebug.c ****         
1386:.\Generated_Source\PSoC5/UartDebug.c ****         /* Enter critical section */
1387:.\Generated_Source\PSoC5/UartDebug.c ****         enableInterrupts = CyEnterCriticalSection();        
 935              		.loc 1 1387 0
 936 0006 FFF7FEFF 		bl	CyEnterCriticalSection
 937 000a 0346     		mov	r3, r0
 938 000c FB71     		strb	r3, [r7, #7]
1388:.\Generated_Source\PSoC5/UartDebug.c ****         /* clear the HW FIFO */
1389:.\Generated_Source\PSoC5/UartDebug.c ****         UartDebug_TXDATA_AUX_CTL_REG |=  UartDebug_TX_FIFO_CLR;
 939              		.loc 1 1389 0
 940 000e 46F29443 		movw	r3, #:lower16:1073767572
 941 0012 C4F20003 		movt	r3, #:upper16:1073767572
 942 0016 46F29442 		movw	r2, #:lower16:1073767572
 943 001a C4F20002 		movt	r2, #:upper16:1073767572
 944 001e 1278     		ldrb	r2, [r2, #0]
ARM GAS  C:\Users\Geo\AppData\Local\Temp\ccOHA31t.s 			page 42


 945 0020 D2B2     		uxtb	r2, r2
 946 0022 42F00102 		orr	r2, r2, #1
 947 0026 D2B2     		uxtb	r2, r2
 948 0028 1A70     		strb	r2, [r3, #0]
1390:.\Generated_Source\PSoC5/UartDebug.c ****         UartDebug_TXDATA_AUX_CTL_REG &= ~UartDebug_TX_FIFO_CLR;
 949              		.loc 1 1390 0
 950 002a 46F29443 		movw	r3, #:lower16:1073767572
 951 002e C4F20003 		movt	r3, #:upper16:1073767572
 952 0032 46F29442 		movw	r2, #:lower16:1073767572
 953 0036 C4F20002 		movt	r2, #:upper16:1073767572
 954 003a 1278     		ldrb	r2, [r2, #0]
 955 003c D2B2     		uxtb	r2, r2
 956 003e 02F0FE02 		and	r2, r2, #254
 957 0042 1A70     		strb	r2, [r3, #0]
1391:.\Generated_Source\PSoC5/UartDebug.c ****         /* Exit critical section */
1392:.\Generated_Source\PSoC5/UartDebug.c ****         CyExitCriticalSection(enableInterrupts);
 958              		.loc 1 1392 0
 959 0044 FB79     		ldrb	r3, [r7, #7]	@ zero_extendqisi2
 960 0046 1846     		mov	r0, r3
 961 0048 FFF7FEFF 		bl	CyExitCriticalSection
1393:.\Generated_Source\PSoC5/UartDebug.c **** 
1394:.\Generated_Source\PSoC5/UartDebug.c ****         #if(UartDebug_TXBUFFERSIZE > UartDebug_FIFO_LENGTH)
1395:.\Generated_Source\PSoC5/UartDebug.c **** 
1396:.\Generated_Source\PSoC5/UartDebug.c ****             /* Disable Tx interrupt. */
1397:.\Generated_Source\PSoC5/UartDebug.c ****             /* Protect variables that could change on interrupt. */
1398:.\Generated_Source\PSoC5/UartDebug.c ****             #if(UartDebug_TX_INTERRUPT_ENABLED)
1399:.\Generated_Source\PSoC5/UartDebug.c ****                 UartDebug_DisableTxInt();
 962              		.loc 1 1399 0
 963 004c FFF7FEFF 		bl	UartDebug_DisableTxInt
1400:.\Generated_Source\PSoC5/UartDebug.c ****             #endif /* End UartDebug_TX_INTERRUPT_ENABLED */
1401:.\Generated_Source\PSoC5/UartDebug.c **** 
1402:.\Generated_Source\PSoC5/UartDebug.c ****             UartDebug_txBufferRead = 0u;
 964              		.loc 1 1402 0
 965 0050 40F20003 		movw	r3, #:lower16:UartDebug_txBufferRead
 966 0054 C0F20003 		movt	r3, #:upper16:UartDebug_txBufferRead
 967 0058 4FF00002 		mov	r2, #0
 968 005c 1A70     		strb	r2, [r3, #0]
1403:.\Generated_Source\PSoC5/UartDebug.c ****             UartDebug_txBufferWrite = 0u;
 969              		.loc 1 1403 0
 970 005e 40F20003 		movw	r3, #:lower16:UartDebug_txBufferWrite
 971 0062 C0F20003 		movt	r3, #:upper16:UartDebug_txBufferWrite
 972 0066 4FF00002 		mov	r2, #0
 973 006a 1A70     		strb	r2, [r3, #0]
1404:.\Generated_Source\PSoC5/UartDebug.c **** 
1405:.\Generated_Source\PSoC5/UartDebug.c ****             /* Enable Tx interrupt. */
1406:.\Generated_Source\PSoC5/UartDebug.c ****             #if(UartDebug_TX_INTERRUPT_ENABLED)
1407:.\Generated_Source\PSoC5/UartDebug.c ****                 UartDebug_EnableTxInt();
 974              		.loc 1 1407 0
 975 006c FFF7FEFF 		bl	UartDebug_EnableTxInt
1408:.\Generated_Source\PSoC5/UartDebug.c ****             #endif /* End UartDebug_TX_INTERRUPT_ENABLED */
1409:.\Generated_Source\PSoC5/UartDebug.c **** 
1410:.\Generated_Source\PSoC5/UartDebug.c ****         #endif /* End UartDebug_TXBUFFERSIZE > UartDebug_FIFO_LENGTH */
1411:.\Generated_Source\PSoC5/UartDebug.c ****     }
 976              		.loc 1 1411 0
 977 0070 07F10807 		add	r7, r7, #8
 978 0074 BD46     		mov	sp, r7
 979 0076 80BD     		pop	{r7, pc}
ARM GAS  C:\Users\Geo\AppData\Local\Temp\ccOHA31t.s 			page 43


 980              		.cfi_endproc
 981              	.LFE16:
 982              		.size	UartDebug_ClearTxBuffer, .-UartDebug_ClearTxBuffer
 983              		.section	.text.UartDebug_SendBreak,"ax",%progbits
 984              		.align	2
 985              		.global	UartDebug_SendBreak
 986              		.thumb
 987              		.thumb_func
 988              		.type	UartDebug_SendBreak, %function
 989              	UartDebug_SendBreak:
 990              	.LFB17:
1412:.\Generated_Source\PSoC5/UartDebug.c **** 
1413:.\Generated_Source\PSoC5/UartDebug.c **** 
1414:.\Generated_Source\PSoC5/UartDebug.c ****     /*******************************************************************************
1415:.\Generated_Source\PSoC5/UartDebug.c ****     * Function Name: UartDebug_SendBreak
1416:.\Generated_Source\PSoC5/UartDebug.c ****     ********************************************************************************
1417:.\Generated_Source\PSoC5/UartDebug.c ****     *
1418:.\Generated_Source\PSoC5/UartDebug.c ****     * Summary:
1419:.\Generated_Source\PSoC5/UartDebug.c ****     *  Write a Break command to the UART
1420:.\Generated_Source\PSoC5/UartDebug.c ****     *
1421:.\Generated_Source\PSoC5/UartDebug.c ****     * Parameters:
1422:.\Generated_Source\PSoC5/UartDebug.c ****     *  uint8 retMode:  Wait mode,
1423:.\Generated_Source\PSoC5/UartDebug.c ****     *   0 - Initialize registers for Break, sends the Break signal and return 
1424:.\Generated_Source\PSoC5/UartDebug.c ****     *       imediately.
1425:.\Generated_Source\PSoC5/UartDebug.c ****     *   1 - Wait until Break sending is complete, reinitialize registers to normal
1426:.\Generated_Source\PSoC5/UartDebug.c ****     *       transmission mode then return.
1427:.\Generated_Source\PSoC5/UartDebug.c ****     *   2 - Reinitialize registers to normal transmission mode then return.
1428:.\Generated_Source\PSoC5/UartDebug.c ****     *   3 - both steps: 0 and 1
1429:.\Generated_Source\PSoC5/UartDebug.c ****     *       init registers for Break, send Break signal
1430:.\Generated_Source\PSoC5/UartDebug.c ****     *       wait until Break sending is complete, reinit registers to normal
1431:.\Generated_Source\PSoC5/UartDebug.c ****     *       transmission mode then return.
1432:.\Generated_Source\PSoC5/UartDebug.c ****     *
1433:.\Generated_Source\PSoC5/UartDebug.c ****     * Return:
1434:.\Generated_Source\PSoC5/UartDebug.c ****     *  None.
1435:.\Generated_Source\PSoC5/UartDebug.c ****     *
1436:.\Generated_Source\PSoC5/UartDebug.c ****     * Global Variables:
1437:.\Generated_Source\PSoC5/UartDebug.c ****     *  UartDebug_initVar - checked to identify that the component has been  
1438:.\Generated_Source\PSoC5/UartDebug.c ****     *     initialized.
1439:.\Generated_Source\PSoC5/UartDebug.c ****     *  tx_period - static variable, used for keeping TX period configuration.
1440:.\Generated_Source\PSoC5/UartDebug.c ****     *
1441:.\Generated_Source\PSoC5/UartDebug.c ****     * Reentrant:
1442:.\Generated_Source\PSoC5/UartDebug.c ****     *  No.
1443:.\Generated_Source\PSoC5/UartDebug.c ****     *
1444:.\Generated_Source\PSoC5/UartDebug.c ****     * Theory:
1445:.\Generated_Source\PSoC5/UartDebug.c ****     *  SendBreak function initializes registers to send 13-bit break signal. It is
1446:.\Generated_Source\PSoC5/UartDebug.c ****     *  important to return the registers configuration to normal for continue 8-bit
1447:.\Generated_Source\PSoC5/UartDebug.c ****     *  operation.
1448:.\Generated_Source\PSoC5/UartDebug.c ****     *  Trere are 3 variants for this API usage:
1449:.\Generated_Source\PSoC5/UartDebug.c ****     *  1) SendBreak(3) - function will send the Break signal and take care on the
1450:.\Generated_Source\PSoC5/UartDebug.c ****     *     configuration returning. Funcition will block CPU untill transmition 
1451:.\Generated_Source\PSoC5/UartDebug.c ****     *     complete.
1452:.\Generated_Source\PSoC5/UartDebug.c ****     *  2) User may want to use bloking time if UART configured to the low speed 
1453:.\Generated_Source\PSoC5/UartDebug.c ****     *     operation
1454:.\Generated_Source\PSoC5/UartDebug.c ****     *     Emample for this case:
1455:.\Generated_Source\PSoC5/UartDebug.c ****     *     SendBreak(0);     - init Break signal transmition
1456:.\Generated_Source\PSoC5/UartDebug.c ****     *         Add your code here to use CPU time
1457:.\Generated_Source\PSoC5/UartDebug.c ****     *     SendBreak(1);     - complete Break operation
ARM GAS  C:\Users\Geo\AppData\Local\Temp\ccOHA31t.s 			page 44


1458:.\Generated_Source\PSoC5/UartDebug.c ****     *  3) Same to 2) but user may want to init and use the interrupt for complete 
1459:.\Generated_Source\PSoC5/UartDebug.c ****     *     break operation.
1460:.\Generated_Source\PSoC5/UartDebug.c ****     *     Example for this case:
1461:.\Generated_Source\PSoC5/UartDebug.c ****     *     Init TX interrupt whith "TX - On TX Complete" parameter
1462:.\Generated_Source\PSoC5/UartDebug.c ****     *     SendBreak(0);     - init Break signal transmition
1463:.\Generated_Source\PSoC5/UartDebug.c ****     *         Add your code here to use CPU time
1464:.\Generated_Source\PSoC5/UartDebug.c ****     *     When interrupt appear with UART_TX_STS_COMPLETE status:
1465:.\Generated_Source\PSoC5/UartDebug.c ****     *     SendBreak(2);     - complete Break operation
1466:.\Generated_Source\PSoC5/UartDebug.c ****     *
1467:.\Generated_Source\PSoC5/UartDebug.c ****     * Side Effects:
1468:.\Generated_Source\PSoC5/UartDebug.c ****     *   Uses static variable to keep registers configuration.
1469:.\Generated_Source\PSoC5/UartDebug.c ****     *
1470:.\Generated_Source\PSoC5/UartDebug.c ****     *******************************************************************************/
1471:.\Generated_Source\PSoC5/UartDebug.c ****     void UartDebug_SendBreak(uint8 retMode) 
1472:.\Generated_Source\PSoC5/UartDebug.c ****     {
 991              		.loc 1 1472 0
 992              		.cfi_startproc
 993              		@ args = 0, pretend = 0, frame = 16
 994              		@ frame_needed = 1, uses_anonymous_args = 0
 995              		@ link register save eliminated.
 996 0000 80B4     		push	{r7}
 997              	.LCFI45:
 998              		.cfi_def_cfa_offset 4
 999 0002 85B0     		sub	sp, sp, #20
 1000              	.LCFI46:
 1001              		.cfi_def_cfa_offset 24
 1002 0004 00AF     		add	r7, sp, #0
 1003              		.cfi_offset 7, -4
 1004              	.LCFI47:
 1005              		.cfi_def_cfa_register 7
 1006 0006 0346     		mov	r3, r0
 1007 0008 FB71     		strb	r3, [r7, #7]
1473:.\Generated_Source\PSoC5/UartDebug.c **** 
1474:.\Generated_Source\PSoC5/UartDebug.c ****         /* If not Initialized then skip this function*/
1475:.\Generated_Source\PSoC5/UartDebug.c ****         if(UartDebug_initVar != 0u)
 1008              		.loc 1 1475 0
 1009 000a 40F20003 		movw	r3, #:lower16:UartDebug_initVar
 1010 000e C0F20003 		movt	r3, #:upper16:UartDebug_initVar
 1011 0012 1B78     		ldrb	r3, [r3, #0]	@ zero_extendqisi2
 1012 0014 002B     		cmp	r3, #0
 1013 0016 4ED0     		beq	.L62
 1014              	.LBB2:
1476:.\Generated_Source\PSoC5/UartDebug.c ****         {
1477:.\Generated_Source\PSoC5/UartDebug.c ****             /*Set the Counter to 13-bits and transmit a 00 byte*/
1478:.\Generated_Source\PSoC5/UartDebug.c ****             /*When that is done then reset the counter value back*/
1479:.\Generated_Source\PSoC5/UartDebug.c ****             uint8 tmpStat;
1480:.\Generated_Source\PSoC5/UartDebug.c **** 
1481:.\Generated_Source\PSoC5/UartDebug.c ****             #if(UartDebug_HD_ENABLED) /* Half Duplex mode*/
1482:.\Generated_Source\PSoC5/UartDebug.c **** 
1483:.\Generated_Source\PSoC5/UartDebug.c ****                 if( (retMode == UartDebug_SEND_BREAK) ||
1484:.\Generated_Source\PSoC5/UartDebug.c ****                     (retMode == UartDebug_SEND_WAIT_REINIT ) )
1485:.\Generated_Source\PSoC5/UartDebug.c ****                 {
1486:.\Generated_Source\PSoC5/UartDebug.c ****                     /* CTRL_HD_SEND_BREAK - sends break bits in HD mode*/
1487:.\Generated_Source\PSoC5/UartDebug.c ****                     UartDebug_WriteControlRegister(UartDebug_ReadControlRegister() |
1488:.\Generated_Source\PSoC5/UartDebug.c ****                                                           UartDebug_CTRL_HD_SEND_BREAK);
1489:.\Generated_Source\PSoC5/UartDebug.c ****                     /* Send zeros*/
1490:.\Generated_Source\PSoC5/UartDebug.c ****                     UartDebug_TXDATA_REG = 0u;
ARM GAS  C:\Users\Geo\AppData\Local\Temp\ccOHA31t.s 			page 45


1491:.\Generated_Source\PSoC5/UartDebug.c **** 
1492:.\Generated_Source\PSoC5/UartDebug.c ****                     do /*wait until transmit starts*/
1493:.\Generated_Source\PSoC5/UartDebug.c ****                     {
1494:.\Generated_Source\PSoC5/UartDebug.c ****                         tmpStat = UartDebug_TXSTATUS_REG;
1495:.\Generated_Source\PSoC5/UartDebug.c ****                     }while(tmpStat & UartDebug_TX_STS_FIFO_EMPTY);
1496:.\Generated_Source\PSoC5/UartDebug.c ****                 }
1497:.\Generated_Source\PSoC5/UartDebug.c **** 
1498:.\Generated_Source\PSoC5/UartDebug.c ****                 if( (retMode == UartDebug_WAIT_FOR_COMPLETE_REINIT) ||
1499:.\Generated_Source\PSoC5/UartDebug.c ****                     (retMode == UartDebug_SEND_WAIT_REINIT) )
1500:.\Generated_Source\PSoC5/UartDebug.c ****                 {
1501:.\Generated_Source\PSoC5/UartDebug.c ****                     do /*wait until transmit complete*/
1502:.\Generated_Source\PSoC5/UartDebug.c ****                     {
1503:.\Generated_Source\PSoC5/UartDebug.c ****                         tmpStat = UartDebug_TXSTATUS_REG;
1504:.\Generated_Source\PSoC5/UartDebug.c ****                     }while(~tmpStat & UartDebug_TX_STS_COMPLETE);
1505:.\Generated_Source\PSoC5/UartDebug.c ****                 }
1506:.\Generated_Source\PSoC5/UartDebug.c **** 
1507:.\Generated_Source\PSoC5/UartDebug.c ****                 if( (retMode == UartDebug_WAIT_FOR_COMPLETE_REINIT) ||
1508:.\Generated_Source\PSoC5/UartDebug.c ****                     (retMode == UartDebug_REINIT) ||
1509:.\Generated_Source\PSoC5/UartDebug.c ****                     (retMode == UartDebug_SEND_WAIT_REINIT) )
1510:.\Generated_Source\PSoC5/UartDebug.c ****                 {
1511:.\Generated_Source\PSoC5/UartDebug.c ****                     UartDebug_WriteControlRegister(UartDebug_ReadControlRegister() &
1512:.\Generated_Source\PSoC5/UartDebug.c ****                                                          ~UartDebug_CTRL_HD_SEND_BREAK);
1513:.\Generated_Source\PSoC5/UartDebug.c ****                 }
1514:.\Generated_Source\PSoC5/UartDebug.c **** 
1515:.\Generated_Source\PSoC5/UartDebug.c ****             #else /* UartDebug_HD_ENABLED Full Duplex mode */
1516:.\Generated_Source\PSoC5/UartDebug.c **** 
1517:.\Generated_Source\PSoC5/UartDebug.c ****                 static uint8 tx_period; 
1518:.\Generated_Source\PSoC5/UartDebug.c ****                 
1519:.\Generated_Source\PSoC5/UartDebug.c ****                 if( (retMode == UartDebug_SEND_BREAK) ||
 1015              		.loc 1 1519 0
 1016 0018 FB79     		ldrb	r3, [r7, #7]	@ zero_extendqisi2
 1017 001a 002B     		cmp	r3, #0
 1018 001c 02D0     		beq	.L56
 1019 001e FB79     		ldrb	r3, [r7, #7]	@ zero_extendqisi2
 1020 0020 032B     		cmp	r3, #3
 1021 0022 23D1     		bne	.L57
 1022              	.L56:
1520:.\Generated_Source\PSoC5/UartDebug.c ****                     (retMode == UartDebug_SEND_WAIT_REINIT) )
1521:.\Generated_Source\PSoC5/UartDebug.c ****                 {
1522:.\Generated_Source\PSoC5/UartDebug.c ****                     /* CTRL_HD_SEND_BREAK - skip to send parity bit @ Break signal in Full Duplex m
1523:.\Generated_Source\PSoC5/UartDebug.c ****                     if( (UartDebug_PARITY_TYPE != UartDebug__B_UART__NONE_REVB) ||
1524:.\Generated_Source\PSoC5/UartDebug.c ****                          UartDebug_PARITY_TYPE_SW )
1525:.\Generated_Source\PSoC5/UartDebug.c ****                     {
1526:.\Generated_Source\PSoC5/UartDebug.c ****                         UartDebug_WriteControlRegister(UartDebug_ReadControlRegister() |
1527:.\Generated_Source\PSoC5/UartDebug.c ****                                                               UartDebug_CTRL_HD_SEND_BREAK);
1528:.\Generated_Source\PSoC5/UartDebug.c ****                     }                                                          
1529:.\Generated_Source\PSoC5/UartDebug.c **** 
1530:.\Generated_Source\PSoC5/UartDebug.c ****                     #if(UartDebug_TXCLKGEN_DP)
1531:.\Generated_Source\PSoC5/UartDebug.c ****                         tx_period = UartDebug_TXBITCLKTX_COMPLETE_REG;
 1023              		.loc 1 1531 0
 1024 0024 46F23043 		movw	r3, #:lower16:1073767472
 1025 0028 C4F20003 		movt	r3, #:upper16:1073767472
 1026 002c 1B78     		ldrb	r3, [r3, #0]
 1027 002e DAB2     		uxtb	r2, r3
 1028 0030 40F20003 		movw	r3, #:lower16:tx_period.2161
 1029 0034 C0F20003 		movt	r3, #:upper16:tx_period.2161
 1030 0038 1A70     		strb	r2, [r3, #0]
ARM GAS  C:\Users\Geo\AppData\Local\Temp\ccOHA31t.s 			page 46


1532:.\Generated_Source\PSoC5/UartDebug.c ****                         UartDebug_TXBITCLKTX_COMPLETE_REG = UartDebug_TXBITCTR_BREAKBITS;
 1031              		.loc 1 1532 0
 1032 003a 46F23043 		movw	r3, #:lower16:1073767472
 1033 003e C4F20003 		movt	r3, #:upper16:1073767472
 1034 0042 4FF06702 		mov	r2, #103
 1035 0046 1A70     		strb	r2, [r3, #0]
1533:.\Generated_Source\PSoC5/UartDebug.c ****                     #else
1534:.\Generated_Source\PSoC5/UartDebug.c ****                         tx_period = UartDebug_TXBITCTR_PERIOD_REG;
1535:.\Generated_Source\PSoC5/UartDebug.c ****                         UartDebug_TXBITCTR_PERIOD_REG = UartDebug_TXBITCTR_BREAKBITS8X;
1536:.\Generated_Source\PSoC5/UartDebug.c ****                     #endif /* End UartDebug_TXCLKGEN_DP */
1537:.\Generated_Source\PSoC5/UartDebug.c **** 
1538:.\Generated_Source\PSoC5/UartDebug.c ****                     /* Send zeros*/
1539:.\Generated_Source\PSoC5/UartDebug.c ****                     UartDebug_TXDATA_REG = 0u;
 1036              		.loc 1 1539 0
 1037 0048 46F24443 		movw	r3, #:lower16:1073767492
 1038 004c C4F20003 		movt	r3, #:upper16:1073767492
 1039 0050 4FF00002 		mov	r2, #0
 1040 0054 1A70     		strb	r2, [r3, #0]
 1041              	.L58:
1540:.\Generated_Source\PSoC5/UartDebug.c **** 
1541:.\Generated_Source\PSoC5/UartDebug.c ****                     do /*wait until transmit starts*/
1542:.\Generated_Source\PSoC5/UartDebug.c ****                     {
1543:.\Generated_Source\PSoC5/UartDebug.c ****                         tmpStat = UartDebug_TXSTATUS_REG;
 1042              		.loc 1 1543 0
 1043 0056 46F26443 		movw	r3, #:lower16:1073767524
 1044 005a C4F20003 		movt	r3, #:upper16:1073767524
 1045 005e 1B78     		ldrb	r3, [r3, #0]
 1046 0060 FB73     		strb	r3, [r7, #15]
1544:.\Generated_Source\PSoC5/UartDebug.c ****                     }while(tmpStat & UartDebug_TX_STS_FIFO_EMPTY);
 1047              		.loc 1 1544 0
 1048 0062 FB7B     		ldrb	r3, [r7, #15]	@ zero_extendqisi2
 1049 0064 03F00203 		and	r3, r3, #2
 1050 0068 002B     		cmp	r3, #0
 1051 006a F4D1     		bne	.L58
 1052              	.L57:
1545:.\Generated_Source\PSoC5/UartDebug.c ****                 }
1546:.\Generated_Source\PSoC5/UartDebug.c **** 
1547:.\Generated_Source\PSoC5/UartDebug.c ****                 if( (retMode == UartDebug_WAIT_FOR_COMPLETE_REINIT) ||
 1053              		.loc 1 1547 0
 1054 006c FB79     		ldrb	r3, [r7, #7]	@ zero_extendqisi2
 1055 006e 012B     		cmp	r3, #1
 1056 0070 02D0     		beq	.L59
 1057 0072 FB79     		ldrb	r3, [r7, #7]	@ zero_extendqisi2
 1058 0074 032B     		cmp	r3, #3
 1059 0076 0AD1     		bne	.L60
 1060              	.L59:
1548:.\Generated_Source\PSoC5/UartDebug.c ****                     (retMode == UartDebug_SEND_WAIT_REINIT) )
1549:.\Generated_Source\PSoC5/UartDebug.c ****                 {
1550:.\Generated_Source\PSoC5/UartDebug.c ****                     do /*wait until transmit complete*/
1551:.\Generated_Source\PSoC5/UartDebug.c ****                     {
1552:.\Generated_Source\PSoC5/UartDebug.c ****                         tmpStat = UartDebug_TXSTATUS_REG;
 1061              		.loc 1 1552 0
 1062 0078 46F26443 		movw	r3, #:lower16:1073767524
 1063 007c C4F20003 		movt	r3, #:upper16:1073767524
 1064 0080 1B78     		ldrb	r3, [r3, #0]
 1065 0082 FB73     		strb	r3, [r7, #15]
1553:.\Generated_Source\PSoC5/UartDebug.c ****                     }while(~tmpStat & UartDebug_TX_STS_COMPLETE);
ARM GAS  C:\Users\Geo\AppData\Local\Temp\ccOHA31t.s 			page 47


 1066              		.loc 1 1553 0
 1067 0084 FB7B     		ldrb	r3, [r7, #15]	@ zero_extendqisi2
 1068 0086 03F00103 		and	r3, r3, #1
 1069 008a 002B     		cmp	r3, #0
 1070 008c F4D0     		beq	.L59
 1071              	.L60:
1554:.\Generated_Source\PSoC5/UartDebug.c ****                 }
1555:.\Generated_Source\PSoC5/UartDebug.c **** 
1556:.\Generated_Source\PSoC5/UartDebug.c ****                 if( (retMode == UartDebug_WAIT_FOR_COMPLETE_REINIT) ||
 1072              		.loc 1 1556 0
 1073 008e FB79     		ldrb	r3, [r7, #7]	@ zero_extendqisi2
 1074 0090 012B     		cmp	r3, #1
 1075 0092 05D0     		beq	.L61
 1076 0094 FB79     		ldrb	r3, [r7, #7]	@ zero_extendqisi2
 1077 0096 022B     		cmp	r3, #2
 1078 0098 02D0     		beq	.L61
 1079 009a FB79     		ldrb	r3, [r7, #7]	@ zero_extendqisi2
 1080 009c 032B     		cmp	r3, #3
 1081 009e 0AD1     		bne	.L62
 1082              	.L61:
1557:.\Generated_Source\PSoC5/UartDebug.c ****                     (retMode == UartDebug_REINIT) ||
1558:.\Generated_Source\PSoC5/UartDebug.c ****                     (retMode == UartDebug_SEND_WAIT_REINIT) )
1559:.\Generated_Source\PSoC5/UartDebug.c ****                 {
1560:.\Generated_Source\PSoC5/UartDebug.c **** 
1561:.\Generated_Source\PSoC5/UartDebug.c ****                     #if(UartDebug_TXCLKGEN_DP)
1562:.\Generated_Source\PSoC5/UartDebug.c ****                         UartDebug_TXBITCLKTX_COMPLETE_REG = tx_period;
 1083              		.loc 1 1562 0
 1084 00a0 46F23043 		movw	r3, #:lower16:1073767472
 1085 00a4 C4F20003 		movt	r3, #:upper16:1073767472
 1086 00a8 40F20002 		movw	r2, #:lower16:tx_period.2161
 1087 00ac C0F20002 		movt	r2, #:upper16:tx_period.2161
 1088 00b0 1278     		ldrb	r2, [r2, #0]	@ zero_extendqisi2
 1089 00b2 1A70     		strb	r2, [r3, #0]
1563:.\Generated_Source\PSoC5/UartDebug.c ****                     #else
1564:.\Generated_Source\PSoC5/UartDebug.c ****                         UartDebug_TXBITCTR_PERIOD_REG = tx_period;
1565:.\Generated_Source\PSoC5/UartDebug.c ****                     #endif /* End UartDebug_TXCLKGEN_DP */
1566:.\Generated_Source\PSoC5/UartDebug.c **** 
1567:.\Generated_Source\PSoC5/UartDebug.c ****                     if( (UartDebug_PARITY_TYPE != UartDebug__B_UART__NONE_REVB) || 
 1090              		.loc 1 1567 0
 1091 00b4 00BF     		nop
 1092              	.L62:
 1093              	.LBE2:
1568:.\Generated_Source\PSoC5/UartDebug.c ****                          UartDebug_PARITY_TYPE_SW )
1569:.\Generated_Source\PSoC5/UartDebug.c ****                     {
1570:.\Generated_Source\PSoC5/UartDebug.c ****                         UartDebug_WriteControlRegister(UartDebug_ReadControlRegister() &
1571:.\Generated_Source\PSoC5/UartDebug.c ****                                                              ~UartDebug_CTRL_HD_SEND_BREAK);
1572:.\Generated_Source\PSoC5/UartDebug.c ****                     }                                     
1573:.\Generated_Source\PSoC5/UartDebug.c ****                 }
1574:.\Generated_Source\PSoC5/UartDebug.c ****             #endif    /* End UartDebug_HD_ENABLED */
1575:.\Generated_Source\PSoC5/UartDebug.c ****         }
1576:.\Generated_Source\PSoC5/UartDebug.c ****     }
 1094              		.loc 1 1576 0
 1095 00b6 07F11407 		add	r7, r7, #20
 1096 00ba BD46     		mov	sp, r7
 1097 00bc 80BC     		pop	{r7}
 1098 00be 7047     		bx	lr
 1099              		.cfi_endproc
ARM GAS  C:\Users\Geo\AppData\Local\Temp\ccOHA31t.s 			page 48


 1100              	.LFE17:
 1101              		.size	UartDebug_SendBreak, .-UartDebug_SendBreak
 1102              		.section	.text.UartDebug_SetTxAddressMode,"ax",%progbits
 1103              		.align	2
 1104              		.global	UartDebug_SetTxAddressMode
 1105              		.thumb
 1106              		.thumb_func
 1107              		.type	UartDebug_SetTxAddressMode, %function
 1108              	UartDebug_SetTxAddressMode:
 1109              	.LFB18:
1577:.\Generated_Source\PSoC5/UartDebug.c **** 
1578:.\Generated_Source\PSoC5/UartDebug.c **** 
1579:.\Generated_Source\PSoC5/UartDebug.c ****     /*******************************************************************************
1580:.\Generated_Source\PSoC5/UartDebug.c ****     * Function Name: UartDebug_SetTxAddressMode
1581:.\Generated_Source\PSoC5/UartDebug.c ****     ********************************************************************************
1582:.\Generated_Source\PSoC5/UartDebug.c ****     *
1583:.\Generated_Source\PSoC5/UartDebug.c ****     * Summary:
1584:.\Generated_Source\PSoC5/UartDebug.c ****     *  Set the transmit addressing mode
1585:.\Generated_Source\PSoC5/UartDebug.c ****     *
1586:.\Generated_Source\PSoC5/UartDebug.c ****     * Parameters:
1587:.\Generated_Source\PSoC5/UartDebug.c ****     *  addressMode: 0 -> Space
1588:.\Generated_Source\PSoC5/UartDebug.c ****     *               1 -> Mark
1589:.\Generated_Source\PSoC5/UartDebug.c ****     *
1590:.\Generated_Source\PSoC5/UartDebug.c ****     * Return:
1591:.\Generated_Source\PSoC5/UartDebug.c ****     *  None.
1592:.\Generated_Source\PSoC5/UartDebug.c ****     *
1593:.\Generated_Source\PSoC5/UartDebug.c ****     *******************************************************************************/
1594:.\Generated_Source\PSoC5/UartDebug.c ****     void UartDebug_SetTxAddressMode(uint8 addressMode) 
1595:.\Generated_Source\PSoC5/UartDebug.c ****     {
 1110              		.loc 1 1595 0
 1111              		.cfi_startproc
 1112              		@ args = 0, pretend = 0, frame = 8
 1113              		@ frame_needed = 1, uses_anonymous_args = 0
 1114 0000 80B5     		push	{r7, lr}
 1115              	.LCFI48:
 1116              		.cfi_def_cfa_offset 8
 1117 0002 82B0     		sub	sp, sp, #8
 1118              	.LCFI49:
 1119              		.cfi_def_cfa_offset 16
 1120 0004 00AF     		add	r7, sp, #0
 1121              		.cfi_offset 14, -4
 1122              		.cfi_offset 7, -8
 1123              	.LCFI50:
 1124              		.cfi_def_cfa_register 7
 1125 0006 0346     		mov	r3, r0
 1126 0008 FB71     		strb	r3, [r7, #7]
1596:.\Generated_Source\PSoC5/UartDebug.c ****         /* Mark/Space sending enable*/
1597:.\Generated_Source\PSoC5/UartDebug.c ****         if(addressMode != 0)
 1127              		.loc 1 1597 0
 1128 000a FB79     		ldrb	r3, [r7, #7]	@ zero_extendqisi2
 1129 000c 002B     		cmp	r3, #0
 1130 000e 09D0     		beq	.L64
1598:.\Generated_Source\PSoC5/UartDebug.c ****         {
1599:.\Generated_Source\PSoC5/UartDebug.c ****             UartDebug_WriteControlRegister(UartDebug_ReadControlRegister() | UartDebug_CTRL_MARK);
 1131              		.loc 1 1599 0
 1132 0010 FFF7FEFF 		bl	UartDebug_ReadControlRegister
 1133 0014 0346     		mov	r3, r0
ARM GAS  C:\Users\Geo\AppData\Local\Temp\ccOHA31t.s 			page 49


 1134 0016 43F00403 		orr	r3, r3, #4
 1135 001a DBB2     		uxtb	r3, r3
 1136 001c 1846     		mov	r0, r3
 1137 001e FFF7FEFF 		bl	UartDebug_WriteControlRegister
 1138 0022 07E0     		b	.L66
 1139              	.L64:
1600:.\Generated_Source\PSoC5/UartDebug.c ****         }
1601:.\Generated_Source\PSoC5/UartDebug.c ****         else
1602:.\Generated_Source\PSoC5/UartDebug.c ****         {
1603:.\Generated_Source\PSoC5/UartDebug.c ****             UartDebug_WriteControlRegister(UartDebug_ReadControlRegister() & ~UartDebug_CTRL_MARK);
 1140              		.loc 1 1603 0
 1141 0024 FFF7FEFF 		bl	UartDebug_ReadControlRegister
 1142 0028 0346     		mov	r3, r0
 1143 002a 03F0FB03 		and	r3, r3, #251
 1144 002e 1846     		mov	r0, r3
 1145 0030 FFF7FEFF 		bl	UartDebug_WriteControlRegister
 1146              	.L66:
1604:.\Generated_Source\PSoC5/UartDebug.c ****         }
1605:.\Generated_Source\PSoC5/UartDebug.c ****     }
 1147              		.loc 1 1605 0
 1148 0034 07F10807 		add	r7, r7, #8
 1149 0038 BD46     		mov	sp, r7
 1150 003a 80BD     		pop	{r7, pc}
 1151              		.cfi_endproc
 1152              	.LFE18:
 1153              		.size	UartDebug_SetTxAddressMode, .-UartDebug_SetTxAddressMode
 1154              		.bss
 1155              	tx_period.2161:
 1156 0003 00       		.space	1
 1157              		.text
 1158              	.Letext0: