ARM GAS  C:\Users\Geo\AppData\Local\Temp\cc2yGlhJ.s 			page 1


   1              		.syntax unified
   2              		.cpu cortex-m3
   3              		.fpu softvfp
   4              		.eabi_attribute 20, 1
   5              		.eabi_attribute 21, 1
   6              		.eabi_attribute 23, 3
   7              		.eabi_attribute 24, 1
   8              		.eabi_attribute 25, 1
   9              		.eabi_attribute 26, 1
  10              		.eabi_attribute 30, 6
  11              		.eabi_attribute 18, 4
  12              		.thumb
  13              		.file	"UartDebug_PM.c"
  20 0000 D6000000 		.text
  20      02007400 
  20      00000201 
  20      FB0E0D00 
  20      01010101 
  21              	.Ltext0:
  22              		.cfi_sections	.debug_frame
  23              		.bss
  24              		.align	2
  25              	UartDebug_backup:
  26 0000 00000000 		.space	4
  27              		.section	.text.UartDebug_SaveConfig,"ax",%progbits
  28              		.align	2
  29              		.global	UartDebug_SaveConfig
  30              		.thumb
  31              		.thumb_func
  32              		.type	UartDebug_SaveConfig, %function
  33              	UartDebug_SaveConfig:
  34              	.LFB0:
  35              		.file 1 ".\\Generated_Source\\PSoC5\\UartDebug_PM.c"
   1:.\Generated_Source\PSoC5/UartDebug_PM.c **** /*******************************************************************************
   2:.\Generated_Source\PSoC5/UartDebug_PM.c **** * File Name: UartDebug.c
   3:.\Generated_Source\PSoC5/UartDebug_PM.c **** * Version 2.10
   4:.\Generated_Source\PSoC5/UartDebug_PM.c **** *
   5:.\Generated_Source\PSoC5/UartDebug_PM.c **** * Description:
   6:.\Generated_Source\PSoC5/UartDebug_PM.c **** *  This file provides Sleep/WakeUp APIs functionality.
   7:.\Generated_Source\PSoC5/UartDebug_PM.c **** *
   8:.\Generated_Source\PSoC5/UartDebug_PM.c **** * Note:
   9:.\Generated_Source\PSoC5/UartDebug_PM.c **** *
  10:.\Generated_Source\PSoC5/UartDebug_PM.c **** *******************************************************************************
  11:.\Generated_Source\PSoC5/UartDebug_PM.c **** * Copyright 2008-2011, Cypress Semiconductor Corporation.  All rights reserved.
  12:.\Generated_Source\PSoC5/UartDebug_PM.c **** * You may use this file only in accordance with the license, terms, conditions,
  13:.\Generated_Source\PSoC5/UartDebug_PM.c **** * disclaimers, and limitations in the end user license agreement accompanying
  14:.\Generated_Source\PSoC5/UartDebug_PM.c **** * the software package with which this file was provided.
  15:.\Generated_Source\PSoC5/UartDebug_PM.c **** ********************************************************************************/
  16:.\Generated_Source\PSoC5/UartDebug_PM.c **** 
  17:.\Generated_Source\PSoC5/UartDebug_PM.c **** #include "UartDebug.h"
  18:.\Generated_Source\PSoC5/UartDebug_PM.c **** 
ARM GAS  C:\Users\Geo\AppData\Local\Temp\cc2yGlhJ.s 			page 2


  19:.\Generated_Source\PSoC5/UartDebug_PM.c **** 
  20:.\Generated_Source\PSoC5/UartDebug_PM.c **** /***************************************
  21:.\Generated_Source\PSoC5/UartDebug_PM.c **** * Local data allocation
  22:.\Generated_Source\PSoC5/UartDebug_PM.c **** ***************************************/
  23:.\Generated_Source\PSoC5/UartDebug_PM.c **** 
  24:.\Generated_Source\PSoC5/UartDebug_PM.c **** static UartDebug_BACKUP_STRUCT  UartDebug_backup =
  25:.\Generated_Source\PSoC5/UartDebug_PM.c **** {
  26:.\Generated_Source\PSoC5/UartDebug_PM.c ****     /* enableState - disabled */
  27:.\Generated_Source\PSoC5/UartDebug_PM.c ****     0u,
  28:.\Generated_Source\PSoC5/UartDebug_PM.c **** };        
  29:.\Generated_Source\PSoC5/UartDebug_PM.c **** 
  30:.\Generated_Source\PSoC5/UartDebug_PM.c **** 
  31:.\Generated_Source\PSoC5/UartDebug_PM.c **** 
  32:.\Generated_Source\PSoC5/UartDebug_PM.c **** /*******************************************************************************
  33:.\Generated_Source\PSoC5/UartDebug_PM.c **** * Function Name: UartDebug_SaveConfig
  34:.\Generated_Source\PSoC5/UartDebug_PM.c **** ********************************************************************************
  35:.\Generated_Source\PSoC5/UartDebug_PM.c **** *
  36:.\Generated_Source\PSoC5/UartDebug_PM.c **** * Summary:
  37:.\Generated_Source\PSoC5/UartDebug_PM.c **** *  Saves the current user configuration.
  38:.\Generated_Source\PSoC5/UartDebug_PM.c **** *
  39:.\Generated_Source\PSoC5/UartDebug_PM.c **** * Parameters:
  40:.\Generated_Source\PSoC5/UartDebug_PM.c **** *  None.
  41:.\Generated_Source\PSoC5/UartDebug_PM.c **** *
  42:.\Generated_Source\PSoC5/UartDebug_PM.c **** * Return:
  43:.\Generated_Source\PSoC5/UartDebug_PM.c **** *  None.
  44:.\Generated_Source\PSoC5/UartDebug_PM.c **** *
  45:.\Generated_Source\PSoC5/UartDebug_PM.c **** * Global Variables:
  46:.\Generated_Source\PSoC5/UartDebug_PM.c **** *  UartDebug_backup - modified when non-retention registers are saved.
  47:.\Generated_Source\PSoC5/UartDebug_PM.c **** *
  48:.\Generated_Source\PSoC5/UartDebug_PM.c **** * Reentrant:
  49:.\Generated_Source\PSoC5/UartDebug_PM.c **** *  No.
  50:.\Generated_Source\PSoC5/UartDebug_PM.c **** *
  51:.\Generated_Source\PSoC5/UartDebug_PM.c **** *******************************************************************************/
  52:.\Generated_Source\PSoC5/UartDebug_PM.c **** void UartDebug_SaveConfig(void)
  53:.\Generated_Source\PSoC5/UartDebug_PM.c **** {
  36              		.loc 1 53 0
  37              		.cfi_startproc
  38              		@ args = 0, pretend = 0, frame = 0
  39              		@ frame_needed = 1, uses_anonymous_args = 0
  40              		@ link register save eliminated.
  41 0000 80B4     		push	{r7}
  42              	.LCFI0:
  43              		.cfi_def_cfa_offset 4
  44 0002 00AF     		add	r7, sp, #0
  45              		.cfi_offset 7, -4
  46              	.LCFI1:
  47              		.cfi_def_cfa_register 7
  54:.\Generated_Source\PSoC5/UartDebug_PM.c ****     /* PSoC3 ES2 or early, PSoC5 ES1*/
  55:.\Generated_Source\PSoC5/UartDebug_PM.c ****     #if (CY_PSOC3_ES2 || CY_PSOC5_ES1)
  56:.\Generated_Source\PSoC5/UartDebug_PM.c **** 
  57:.\Generated_Source\PSoC5/UartDebug_PM.c ****         #if(UartDebug_CONTROL_REG_REMOVED == 0u)
  58:.\Generated_Source\PSoC5/UartDebug_PM.c ****             UartDebug_backup.cr = UartDebug_CONTROL_REG;
  59:.\Generated_Source\PSoC5/UartDebug_PM.c ****         #endif /* End UartDebug_CONTROL_REG_REMOVED */
  60:.\Generated_Source\PSoC5/UartDebug_PM.c **** 
  61:.\Generated_Source\PSoC5/UartDebug_PM.c ****         #if( (UartDebug_RX_ENABLED) || (UartDebug_HD_ENABLED) )
  62:.\Generated_Source\PSoC5/UartDebug_PM.c ****             UartDebug_backup.rx_period = UartDebug_RXBITCTR_PERIOD_REG;
  63:.\Generated_Source\PSoC5/UartDebug_PM.c ****             UartDebug_backup.rx_mask = UartDebug_RXSTATUS_MASK_REG;
ARM GAS  C:\Users\Geo\AppData\Local\Temp\cc2yGlhJ.s 			page 3


  64:.\Generated_Source\PSoC5/UartDebug_PM.c ****             #if (UartDebug_RXHW_ADDRESS_ENABLED)
  65:.\Generated_Source\PSoC5/UartDebug_PM.c ****                 UartDebug_backup.rx_addr1 = UartDebug_RXADDRESS1_REG;
  66:.\Generated_Source\PSoC5/UartDebug_PM.c ****                 UartDebug_backup.rx_addr2 = UartDebug_RXADDRESS2_REG;
  67:.\Generated_Source\PSoC5/UartDebug_PM.c ****             #endif /* End UartDebug_RXHW_ADDRESS_ENABLED */
  68:.\Generated_Source\PSoC5/UartDebug_PM.c ****         #endif /* End UartDebug_RX_ENABLED | UartDebug_HD_ENABLED*/
  69:.\Generated_Source\PSoC5/UartDebug_PM.c **** 
  70:.\Generated_Source\PSoC5/UartDebug_PM.c ****         #if(UartDebug_TX_ENABLED)
  71:.\Generated_Source\PSoC5/UartDebug_PM.c ****             #if(UartDebug_TXCLKGEN_DP)
  72:.\Generated_Source\PSoC5/UartDebug_PM.c ****                 UartDebug_backup.tx_clk_ctr = UartDebug_TXBITCLKGEN_CTR_REG;
  48              		.loc 1 72 0
  49 0004 46F22043 		movw	r3, #:lower16:1073767456
  50 0008 C4F20003 		movt	r3, #:upper16:1073767456
  51 000c 1B78     		ldrb	r3, [r3, #0]
  52 000e DAB2     		uxtb	r2, r3
  53 0010 40F20003 		movw	r3, #:lower16:UartDebug_backup
  54 0014 C0F20003 		movt	r3, #:upper16:UartDebug_backup
  55 0018 5A70     		strb	r2, [r3, #1]
  73:.\Generated_Source\PSoC5/UartDebug_PM.c ****                 UartDebug_backup.tx_clk_compl = UartDebug_TXBITCLKTX_COMPLETE_REG;
  56              		.loc 1 73 0
  57 001a 46F23043 		movw	r3, #:lower16:1073767472
  58 001e C4F20003 		movt	r3, #:upper16:1073767472
  59 0022 1B78     		ldrb	r3, [r3, #0]
  60 0024 DAB2     		uxtb	r2, r3
  61 0026 40F20003 		movw	r3, #:lower16:UartDebug_backup
  62 002a C0F20003 		movt	r3, #:upper16:UartDebug_backup
  63 002e 9A70     		strb	r2, [r3, #2]
  74:.\Generated_Source\PSoC5/UartDebug_PM.c ****             #else
  75:.\Generated_Source\PSoC5/UartDebug_PM.c ****                 UartDebug_backup.tx_period = UartDebug_TXBITCTR_PERIOD_REG;
  76:.\Generated_Source\PSoC5/UartDebug_PM.c ****             #endif /*End UartDebug_TXCLKGEN_DP */
  77:.\Generated_Source\PSoC5/UartDebug_PM.c ****             UartDebug_backup.tx_mask = UartDebug_TXSTATUS_MASK_REG;
  64              		.loc 1 77 0
  65 0030 46F28443 		movw	r3, #:lower16:1073767556
  66 0034 C4F20003 		movt	r3, #:upper16:1073767556
  67 0038 1B78     		ldrb	r3, [r3, #0]
  68 003a DAB2     		uxtb	r2, r3
  69 003c 40F20003 		movw	r3, #:lower16:UartDebug_backup
  70 0040 C0F20003 		movt	r3, #:upper16:UartDebug_backup
  71 0044 DA70     		strb	r2, [r3, #3]
  78:.\Generated_Source\PSoC5/UartDebug_PM.c ****         #endif /*End UartDebug_TX_ENABLED */
  79:.\Generated_Source\PSoC5/UartDebug_PM.c **** 
  80:.\Generated_Source\PSoC5/UartDebug_PM.c ****     /* PSoC3 ES3 or later, PSoC5 ES2 or later*/
  81:.\Generated_Source\PSoC5/UartDebug_PM.c ****     #elif (CY_PSOC3_ES3 || CY_PSOC5_ES2)
  82:.\Generated_Source\PSoC5/UartDebug_PM.c **** 
  83:.\Generated_Source\PSoC5/UartDebug_PM.c ****         #if(UartDebug_CONTROL_REG_REMOVED == 0u)
  84:.\Generated_Source\PSoC5/UartDebug_PM.c ****             UartDebug_backup.cr = UartDebug_CONTROL_REG;
  85:.\Generated_Source\PSoC5/UartDebug_PM.c ****         #endif /* End UartDebug_CONTROL_REG_REMOVED */
  86:.\Generated_Source\PSoC5/UartDebug_PM.c **** 
  87:.\Generated_Source\PSoC5/UartDebug_PM.c ****     #endif  /* End PSOC3_ES3 || PSOC5_ES2 */
  88:.\Generated_Source\PSoC5/UartDebug_PM.c **** }
  72              		.loc 1 88 0
  73 0046 BD46     		mov	sp, r7
  74 0048 80BC     		pop	{r7}
  75 004a 7047     		bx	lr
  76              		.cfi_endproc
  77              	.LFE0:
  78              		.size	UartDebug_SaveConfig, .-UartDebug_SaveConfig
  79              		.section	.text.UartDebug_RestoreConfig,"ax",%progbits
ARM GAS  C:\Users\Geo\AppData\Local\Temp\cc2yGlhJ.s 			page 4


  80              		.align	2
  81              		.global	UartDebug_RestoreConfig
  82              		.thumb
  83              		.thumb_func
  84              		.type	UartDebug_RestoreConfig, %function
  85              	UartDebug_RestoreConfig:
  86              	.LFB1:
  89:.\Generated_Source\PSoC5/UartDebug_PM.c **** 
  90:.\Generated_Source\PSoC5/UartDebug_PM.c **** 
  91:.\Generated_Source\PSoC5/UartDebug_PM.c **** /*******************************************************************************
  92:.\Generated_Source\PSoC5/UartDebug_PM.c **** * Function Name: UartDebug_RestoreConfig
  93:.\Generated_Source\PSoC5/UartDebug_PM.c **** ********************************************************************************
  94:.\Generated_Source\PSoC5/UartDebug_PM.c **** *
  95:.\Generated_Source\PSoC5/UartDebug_PM.c **** * Summary:
  96:.\Generated_Source\PSoC5/UartDebug_PM.c **** *  Restores the current user configuration.
  97:.\Generated_Source\PSoC5/UartDebug_PM.c **** *
  98:.\Generated_Source\PSoC5/UartDebug_PM.c **** * Parameters:
  99:.\Generated_Source\PSoC5/UartDebug_PM.c **** *  None.
 100:.\Generated_Source\PSoC5/UartDebug_PM.c **** *
 101:.\Generated_Source\PSoC5/UartDebug_PM.c **** * Return:
 102:.\Generated_Source\PSoC5/UartDebug_PM.c **** *  None.
 103:.\Generated_Source\PSoC5/UartDebug_PM.c **** *
 104:.\Generated_Source\PSoC5/UartDebug_PM.c **** * Global Variables:
 105:.\Generated_Source\PSoC5/UartDebug_PM.c **** *  UartDebug_backup - used when non-retention registers are restored.
 106:.\Generated_Source\PSoC5/UartDebug_PM.c **** *
 107:.\Generated_Source\PSoC5/UartDebug_PM.c **** * Reentrant:
 108:.\Generated_Source\PSoC5/UartDebug_PM.c **** *  No.
 109:.\Generated_Source\PSoC5/UartDebug_PM.c **** *
 110:.\Generated_Source\PSoC5/UartDebug_PM.c **** *******************************************************************************/
 111:.\Generated_Source\PSoC5/UartDebug_PM.c **** void UartDebug_RestoreConfig(void)
 112:.\Generated_Source\PSoC5/UartDebug_PM.c **** {
  87              		.loc 1 112 0
  88              		.cfi_startproc
  89              		@ args = 0, pretend = 0, frame = 0
  90              		@ frame_needed = 1, uses_anonymous_args = 0
  91              		@ link register save eliminated.
  92 0000 80B4     		push	{r7}
  93              	.LCFI2:
  94              		.cfi_def_cfa_offset 4
  95 0002 00AF     		add	r7, sp, #0
  96              		.cfi_offset 7, -4
  97              	.LCFI3:
  98              		.cfi_def_cfa_register 7
 113:.\Generated_Source\PSoC5/UartDebug_PM.c ****     /* PSoC3 ES2 or early, PSoC5 ES1*/
 114:.\Generated_Source\PSoC5/UartDebug_PM.c ****     #if (CY_PSOC3_ES2 || CY_PSOC5_ES1)
 115:.\Generated_Source\PSoC5/UartDebug_PM.c **** 
 116:.\Generated_Source\PSoC5/UartDebug_PM.c ****         #if(UartDebug_CONTROL_REG_REMOVED == 0u)
 117:.\Generated_Source\PSoC5/UartDebug_PM.c ****             UartDebug_CONTROL_REG = UartDebug_backup.cr;
 118:.\Generated_Source\PSoC5/UartDebug_PM.c ****         #endif /* End UartDebug_CONTROL_REG_REMOVED */
 119:.\Generated_Source\PSoC5/UartDebug_PM.c **** 
 120:.\Generated_Source\PSoC5/UartDebug_PM.c ****         #if( (UartDebug_RX_ENABLED) || (UartDebug_HD_ENABLED) )
 121:.\Generated_Source\PSoC5/UartDebug_PM.c ****             UartDebug_RXBITCTR_PERIOD_REG = UartDebug_backup.rx_period;
 122:.\Generated_Source\PSoC5/UartDebug_PM.c ****             UartDebug_RXSTATUS_MASK_REG = UartDebug_backup.rx_mask;
 123:.\Generated_Source\PSoC5/UartDebug_PM.c ****             #if (UartDebug_RXHW_ADDRESS_ENABLED)
 124:.\Generated_Source\PSoC5/UartDebug_PM.c ****                 UartDebug_RXADDRESS1_REG = UartDebug_backup.rx_addr1;
 125:.\Generated_Source\PSoC5/UartDebug_PM.c ****                 UartDebug_RXADDRESS2_REG = UartDebug_backup.rx_addr2;
 126:.\Generated_Source\PSoC5/UartDebug_PM.c ****             #endif /* End UartDebug_RXHW_ADDRESS_ENABLED */
ARM GAS  C:\Users\Geo\AppData\Local\Temp\cc2yGlhJ.s 			page 5


 127:.\Generated_Source\PSoC5/UartDebug_PM.c ****         #endif  /* End (UartDebug_RX_ENABLED) || (UartDebug_HD_ENABLED) */
 128:.\Generated_Source\PSoC5/UartDebug_PM.c **** 
 129:.\Generated_Source\PSoC5/UartDebug_PM.c ****         #if(UartDebug_TX_ENABLED)
 130:.\Generated_Source\PSoC5/UartDebug_PM.c ****             #if(UartDebug_TXCLKGEN_DP)
 131:.\Generated_Source\PSoC5/UartDebug_PM.c ****                 UartDebug_TXBITCLKGEN_CTR_REG = UartDebug_backup.tx_clk_ctr;
  99              		.loc 1 131 0
 100 0004 46F22043 		movw	r3, #:lower16:1073767456
 101 0008 C4F20003 		movt	r3, #:upper16:1073767456
 102 000c 40F20002 		movw	r2, #:lower16:UartDebug_backup
 103 0010 C0F20002 		movt	r2, #:upper16:UartDebug_backup
 104 0014 5278     		ldrb	r2, [r2, #1]	@ zero_extendqisi2
 105 0016 1A70     		strb	r2, [r3, #0]
 132:.\Generated_Source\PSoC5/UartDebug_PM.c ****                 UartDebug_TXBITCLKTX_COMPLETE_REG = UartDebug_backup.tx_clk_compl;
 106              		.loc 1 132 0
 107 0018 46F23043 		movw	r3, #:lower16:1073767472
 108 001c C4F20003 		movt	r3, #:upper16:1073767472
 109 0020 40F20002 		movw	r2, #:lower16:UartDebug_backup
 110 0024 C0F20002 		movt	r2, #:upper16:UartDebug_backup
 111 0028 9278     		ldrb	r2, [r2, #2]	@ zero_extendqisi2
 112 002a 1A70     		strb	r2, [r3, #0]
 133:.\Generated_Source\PSoC5/UartDebug_PM.c ****             #else
 134:.\Generated_Source\PSoC5/UartDebug_PM.c ****                 UartDebug_TXBITCTR_PERIOD_REG = UartDebug_backup.tx_period;
 135:.\Generated_Source\PSoC5/UartDebug_PM.c ****             #endif /*End UartDebug_TXCLKGEN_DP */
 136:.\Generated_Source\PSoC5/UartDebug_PM.c ****             UartDebug_TXSTATUS_MASK_REG = UartDebug_backup.tx_mask;
 113              		.loc 1 136 0
 114 002c 46F28443 		movw	r3, #:lower16:1073767556
 115 0030 C4F20003 		movt	r3, #:upper16:1073767556
 116 0034 40F20002 		movw	r2, #:lower16:UartDebug_backup
 117 0038 C0F20002 		movt	r2, #:upper16:UartDebug_backup
 118 003c D278     		ldrb	r2, [r2, #3]	@ zero_extendqisi2
 119 003e 1A70     		strb	r2, [r3, #0]
 137:.\Generated_Source\PSoC5/UartDebug_PM.c ****         #endif /*End UartDebug_TX_ENABLED */
 138:.\Generated_Source\PSoC5/UartDebug_PM.c **** 
 139:.\Generated_Source\PSoC5/UartDebug_PM.c ****     /* PSoC3 ES3 or later, PSoC5 ES2 or later*/
 140:.\Generated_Source\PSoC5/UartDebug_PM.c ****     #elif (CY_PSOC3_ES3 || CY_PSOC5_ES2)
 141:.\Generated_Source\PSoC5/UartDebug_PM.c **** 
 142:.\Generated_Source\PSoC5/UartDebug_PM.c ****         #if(UartDebug_CONTROL_REG_REMOVED == 0u)
 143:.\Generated_Source\PSoC5/UartDebug_PM.c ****             UartDebug_CONTROL_REG = UartDebug_backup.cr;
 144:.\Generated_Source\PSoC5/UartDebug_PM.c ****         #endif /* End UartDebug_CONTROL_REG_REMOVED */
 145:.\Generated_Source\PSoC5/UartDebug_PM.c **** 
 146:.\Generated_Source\PSoC5/UartDebug_PM.c ****     #endif  /* End PSOC3_ES3 || PSOC5_ES2 */
 147:.\Generated_Source\PSoC5/UartDebug_PM.c **** }
 120              		.loc 1 147 0
 121 0040 BD46     		mov	sp, r7
 122 0042 80BC     		pop	{r7}
 123 0044 7047     		bx	lr
 124              		.cfi_endproc
 125              	.LFE1:
 126              		.size	UartDebug_RestoreConfig, .-UartDebug_RestoreConfig
 127 0046 00BF     		.section	.text.UartDebug_Sleep,"ax",%progbits
 128              		.align	2
 129              		.global	UartDebug_Sleep
 130              		.thumb
 131              		.thumb_func
 132              		.type	UartDebug_Sleep, %function
 133              	UartDebug_Sleep:
 134              	.LFB2:
ARM GAS  C:\Users\Geo\AppData\Local\Temp\cc2yGlhJ.s 			page 6


 148:.\Generated_Source\PSoC5/UartDebug_PM.c **** 
 149:.\Generated_Source\PSoC5/UartDebug_PM.c **** 
 150:.\Generated_Source\PSoC5/UartDebug_PM.c **** /*******************************************************************************
 151:.\Generated_Source\PSoC5/UartDebug_PM.c **** * Function Name: UartDebug_Sleep
 152:.\Generated_Source\PSoC5/UartDebug_PM.c **** ********************************************************************************
 153:.\Generated_Source\PSoC5/UartDebug_PM.c **** *
 154:.\Generated_Source\PSoC5/UartDebug_PM.c **** * Summary:
 155:.\Generated_Source\PSoC5/UartDebug_PM.c **** *  Stops and saves the user configuration. Should be called 
 156:.\Generated_Source\PSoC5/UartDebug_PM.c **** *  just prior to entering sleep.
 157:.\Generated_Source\PSoC5/UartDebug_PM.c **** *  
 158:.\Generated_Source\PSoC5/UartDebug_PM.c **** *
 159:.\Generated_Source\PSoC5/UartDebug_PM.c **** * Parameters:
 160:.\Generated_Source\PSoC5/UartDebug_PM.c **** *  None.
 161:.\Generated_Source\PSoC5/UartDebug_PM.c **** *
 162:.\Generated_Source\PSoC5/UartDebug_PM.c **** * Return:
 163:.\Generated_Source\PSoC5/UartDebug_PM.c **** *  None.
 164:.\Generated_Source\PSoC5/UartDebug_PM.c **** *
 165:.\Generated_Source\PSoC5/UartDebug_PM.c **** * Global Variables:
 166:.\Generated_Source\PSoC5/UartDebug_PM.c **** *  UartDebug_backup - modified when non-retention registers are saved.
 167:.\Generated_Source\PSoC5/UartDebug_PM.c **** *
 168:.\Generated_Source\PSoC5/UartDebug_PM.c **** * Reentrant:
 169:.\Generated_Source\PSoC5/UartDebug_PM.c **** *  No.
 170:.\Generated_Source\PSoC5/UartDebug_PM.c **** *
 171:.\Generated_Source\PSoC5/UartDebug_PM.c **** *******************************************************************************/
 172:.\Generated_Source\PSoC5/UartDebug_PM.c **** void UartDebug_Sleep(void)
 173:.\Generated_Source\PSoC5/UartDebug_PM.c **** {
 135              		.loc 1 173 0
 136              		.cfi_startproc
 137              		@ args = 0, pretend = 0, frame = 0
 138              		@ frame_needed = 1, uses_anonymous_args = 0
 139 0000 80B5     		push	{r7, lr}
 140              	.LCFI4:
 141              		.cfi_def_cfa_offset 8
 142 0002 00AF     		add	r7, sp, #0
 143              		.cfi_offset 14, -4
 144              		.cfi_offset 7, -8
 145              	.LCFI5:
 146              		.cfi_def_cfa_register 7
 174:.\Generated_Source\PSoC5/UartDebug_PM.c **** 
 175:.\Generated_Source\PSoC5/UartDebug_PM.c ****     #if(UartDebug_RX_ENABLED || UartDebug_HD_ENABLED)
 176:.\Generated_Source\PSoC5/UartDebug_PM.c ****         if((UartDebug_RXSTATUS_ACTL_REG  & UartDebug_INT_ENABLE) != 0u) 
 177:.\Generated_Source\PSoC5/UartDebug_PM.c ****         {
 178:.\Generated_Source\PSoC5/UartDebug_PM.c ****             UartDebug_backup.enableState = 1u;
 179:.\Generated_Source\PSoC5/UartDebug_PM.c ****         }
 180:.\Generated_Source\PSoC5/UartDebug_PM.c ****         else
 181:.\Generated_Source\PSoC5/UartDebug_PM.c ****         {
 182:.\Generated_Source\PSoC5/UartDebug_PM.c ****             UartDebug_backup.enableState = 0u;
 183:.\Generated_Source\PSoC5/UartDebug_PM.c ****         }
 184:.\Generated_Source\PSoC5/UartDebug_PM.c ****     #else
 185:.\Generated_Source\PSoC5/UartDebug_PM.c ****         if((UartDebug_TXSTATUS_ACTL_REG  & UartDebug_INT_ENABLE) !=0u)
 147              		.loc 1 185 0
 148 0004 46F29443 		movw	r3, #:lower16:1073767572
 149 0008 C4F20003 		movt	r3, #:upper16:1073767572
 150 000c 1B78     		ldrb	r3, [r3, #0]
 151 000e DBB2     		uxtb	r3, r3
 152 0010 03F01003 		and	r3, r3, #16
 153 0014 002B     		cmp	r3, #0
ARM GAS  C:\Users\Geo\AppData\Local\Temp\cc2yGlhJ.s 			page 7


 154 0016 07D0     		beq	.L6
 186:.\Generated_Source\PSoC5/UartDebug_PM.c ****         {
 187:.\Generated_Source\PSoC5/UartDebug_PM.c ****             UartDebug_backup.enableState = 1u;
 155              		.loc 1 187 0
 156 0018 40F20003 		movw	r3, #:lower16:UartDebug_backup
 157 001c C0F20003 		movt	r3, #:upper16:UartDebug_backup
 158 0020 4FF00102 		mov	r2, #1
 159 0024 1A70     		strb	r2, [r3, #0]
 160 0026 06E0     		b	.L7
 161              	.L6:
 188:.\Generated_Source\PSoC5/UartDebug_PM.c ****         }
 189:.\Generated_Source\PSoC5/UartDebug_PM.c ****         else
 190:.\Generated_Source\PSoC5/UartDebug_PM.c ****         {
 191:.\Generated_Source\PSoC5/UartDebug_PM.c ****             UartDebug_backup.enableState = 0u;
 162              		.loc 1 191 0
 163 0028 40F20003 		movw	r3, #:lower16:UartDebug_backup
 164 002c C0F20003 		movt	r3, #:upper16:UartDebug_backup
 165 0030 4FF00002 		mov	r2, #0
 166 0034 1A70     		strb	r2, [r3, #0]
 167              	.L7:
 192:.\Generated_Source\PSoC5/UartDebug_PM.c ****         }
 193:.\Generated_Source\PSoC5/UartDebug_PM.c ****     #endif /* End UartDebug_RX_ENABLED || UartDebug_HD_ENABLED*/
 194:.\Generated_Source\PSoC5/UartDebug_PM.c **** 
 195:.\Generated_Source\PSoC5/UartDebug_PM.c ****     UartDebug_Stop();
 168              		.loc 1 195 0
 169 0036 FFF7FEFF 		bl	UartDebug_Stop
 196:.\Generated_Source\PSoC5/UartDebug_PM.c ****     UartDebug_SaveConfig();
 170              		.loc 1 196 0
 171 003a FFF7FEFF 		bl	UartDebug_SaveConfig
 197:.\Generated_Source\PSoC5/UartDebug_PM.c **** }
 172              		.loc 1 197 0
 173 003e 80BD     		pop	{r7, pc}
 174              		.cfi_endproc
 175              	.LFE2:
 176              		.size	UartDebug_Sleep, .-UartDebug_Sleep
 177              		.section	.text.UartDebug_Wakeup,"ax",%progbits
 178              		.align	2
 179              		.global	UartDebug_Wakeup
 180              		.thumb
 181              		.thumb_func
 182              		.type	UartDebug_Wakeup, %function
 183              	UartDebug_Wakeup:
 184              	.LFB3:
 198:.\Generated_Source\PSoC5/UartDebug_PM.c **** 
 199:.\Generated_Source\PSoC5/UartDebug_PM.c **** 
 200:.\Generated_Source\PSoC5/UartDebug_PM.c **** /*******************************************************************************
 201:.\Generated_Source\PSoC5/UartDebug_PM.c **** * Function Name: UartDebug_Wakeup
 202:.\Generated_Source\PSoC5/UartDebug_PM.c **** ********************************************************************************
 203:.\Generated_Source\PSoC5/UartDebug_PM.c **** *
 204:.\Generated_Source\PSoC5/UartDebug_PM.c **** * Summary:
 205:.\Generated_Source\PSoC5/UartDebug_PM.c **** *  Restores and enables the user configuration. Should be called
 206:.\Generated_Source\PSoC5/UartDebug_PM.c **** *  just after awaking from sleep.
 207:.\Generated_Source\PSoC5/UartDebug_PM.c **** *
 208:.\Generated_Source\PSoC5/UartDebug_PM.c **** * Parameters:
 209:.\Generated_Source\PSoC5/UartDebug_PM.c **** *  None.
 210:.\Generated_Source\PSoC5/UartDebug_PM.c **** *
 211:.\Generated_Source\PSoC5/UartDebug_PM.c **** * Return:
ARM GAS  C:\Users\Geo\AppData\Local\Temp\cc2yGlhJ.s 			page 8


 212:.\Generated_Source\PSoC5/UartDebug_PM.c **** *  None.
 213:.\Generated_Source\PSoC5/UartDebug_PM.c **** *
 214:.\Generated_Source\PSoC5/UartDebug_PM.c **** * Global Variables:
 215:.\Generated_Source\PSoC5/UartDebug_PM.c **** *  UartDebug_backup - used when non-retention registers are restored.
 216:.\Generated_Source\PSoC5/UartDebug_PM.c **** *
 217:.\Generated_Source\PSoC5/UartDebug_PM.c **** * Reentrant:
 218:.\Generated_Source\PSoC5/UartDebug_PM.c **** *  No.
 219:.\Generated_Source\PSoC5/UartDebug_PM.c **** *
 220:.\Generated_Source\PSoC5/UartDebug_PM.c **** *******************************************************************************/
 221:.\Generated_Source\PSoC5/UartDebug_PM.c **** void UartDebug_Wakeup(void)
 222:.\Generated_Source\PSoC5/UartDebug_PM.c **** {
 185              		.loc 1 222 0
 186              		.cfi_startproc
 187              		@ args = 0, pretend = 0, frame = 0
 188              		@ frame_needed = 1, uses_anonymous_args = 0
 189 0000 80B5     		push	{r7, lr}
 190              	.LCFI6:
 191              		.cfi_def_cfa_offset 8
 192 0002 00AF     		add	r7, sp, #0
 193              		.cfi_offset 14, -4
 194              		.cfi_offset 7, -8
 195              	.LCFI7:
 196              		.cfi_def_cfa_register 7
 223:.\Generated_Source\PSoC5/UartDebug_PM.c ****     UartDebug_RestoreConfig();
 197              		.loc 1 223 0
 198 0004 FFF7FEFF 		bl	UartDebug_RestoreConfig
 224:.\Generated_Source\PSoC5/UartDebug_PM.c ****     #if( (UartDebug_RX_ENABLED) || (UartDebug_HD_ENABLED) )
 225:.\Generated_Source\PSoC5/UartDebug_PM.c ****         UartDebug_ClearRxBuffer();
 226:.\Generated_Source\PSoC5/UartDebug_PM.c ****     #endif /* End (UartDebug_RX_ENABLED) || (UartDebug_HD_ENABLED) */
 227:.\Generated_Source\PSoC5/UartDebug_PM.c ****     #if(UartDebug_TX_ENABLED || UartDebug_HD_ENABLED)
 228:.\Generated_Source\PSoC5/UartDebug_PM.c ****         UartDebug_ClearTxBuffer();
 199              		.loc 1 228 0
 200 0008 FFF7FEFF 		bl	UartDebug_ClearTxBuffer
 229:.\Generated_Source\PSoC5/UartDebug_PM.c ****     #endif /* End UartDebug_TX_ENABLED || UartDebug_HD_ENABLED */
 230:.\Generated_Source\PSoC5/UartDebug_PM.c **** 
 231:.\Generated_Source\PSoC5/UartDebug_PM.c ****     if(UartDebug_backup.enableState != 0u)
 201              		.loc 1 231 0
 202 000c 40F20003 		movw	r3, #:lower16:UartDebug_backup
 203 0010 C0F20003 		movt	r3, #:upper16:UartDebug_backup
 204 0014 1B78     		ldrb	r3, [r3, #0]	@ zero_extendqisi2
 205 0016 002B     		cmp	r3, #0
 206 0018 01D0     		beq	.L11
 232:.\Generated_Source\PSoC5/UartDebug_PM.c ****     {
 233:.\Generated_Source\PSoC5/UartDebug_PM.c ****         UartDebug_Enable();
 207              		.loc 1 233 0
 208 001a FFF7FEFF 		bl	UartDebug_Enable
 209              	.L11:
 234:.\Generated_Source\PSoC5/UartDebug_PM.c ****     } 
 235:.\Generated_Source\PSoC5/UartDebug_PM.c **** }
 210              		.loc 1 235 0
 211 001e 80BD     		pop	{r7, pc}
 212              		.cfi_endproc
 213              	.LFE3:
 214              		.size	UartDebug_Wakeup, .-UartDebug_Wakeup
 215              		.text
 216              	.Letext0: