ARM GAS  C:\Users\Geo\AppData\Local\Temp\ccsHgdp4.s 			page 1


   1              		.syntax unified
   2              		.cpu cortex-m3
   3              		.fpu softvfp
   4              		.eabi_attribute 20, 1
   5              		.eabi_attribute 21, 1
   6              		.eabi_attribute 23, 3
   7              		.eabi_attribute 24, 1
   8              		.eabi_attribute 25, 1
   9              		.eabi_attribute 26, 1
  10              		.eabi_attribute 30, 6
  11              		.eabi_attribute 18, 4
  12              		.thumb
  13              		.file	"Adc.c"
  20 0000 9B010000 		.text
  20      02002701 
  20      00000201 
  20      FB0E0D00 
  20      01010101 
  21              	.Ltext0:
  22              		.cfi_sections	.debug_frame
  23              		.comm	debugBuff,200,4
  24              		.bss
  25              		.align	3
  26              	_battVoltage:
  27 0000 00000000 		.space	8
  27      00000000 
  28              		.align	3
  29              	_throttleVoltage:
  30 0008 00000000 		.space	8
  30      00000000 
  31              	_enableThrottleVoltMeasFlag:
  32 0010 00       		.space	1
  33              		.global	__aeabi_ui2d
  34              		.global	__aeabi_dmul
  35              		.global	__aeabi_dsub
  36              		.section	.text.Adc_Run,"ax",%progbits
  37              		.align	2
  38              		.global	Adc_Run
  39              		.thumb
  40              		.thumb_func
  41              		.type	Adc_Run, %function
  42              	Adc_Run:
  43              	.LFB29:
  44              		.file 1 ".\\Adc.c"
   1:.\Adc.c       **** //!
   2:.\Adc.c       **** //! @file 		Adc.c
   3:.\Adc.c       **** //! @author 	Geoffrey Hunter (gbmhunter@gmail.com)
   4:.\Adc.c       **** //! @date 		14/05/2011
   5:.\Adc.c       **** //! @brief 		Driver file for the ADC.
   6:.\Adc.c       **** //! @details
   7:.\Adc.c       **** //!		<b>Last Modified:			</b> 21/05/2011								\n
ARM GAS  C:\Users\Geo\AppData\Local\Temp\ccsHgdp4.s 			page 2


   8:.\Adc.c       **** //!		<b>Version:					</b> v1.0									\n
   9:.\Adc.c       **** //!		<b>Company:					</b> CladLabs								\n
  10:.\Adc.c       **** //!		<b>Project:					</b> Electric Skateboard - Skateboard Remote\n
  11:.\Adc.c       **** //!		<b>Computer Architecture:	</b> ARM									\n
  12:.\Adc.c       **** //!		<b>Compiler:				</b> GCC									\n
  13:.\Adc.c       **** //! 	<b>uC Model:				</b> PSoC5									\n
  14:.\Adc.c       **** //!		<b>Documentation Format:	</b> Doxygen								\n
  15:.\Adc.c       **** //!		
  16:.\Adc.c       **** //!		Initializes and receives values from the ADC, as well as controlling the adc input mux
  17:.\Adc.c       **** //!
  18:.\Adc.c       **** 
  19:.\Adc.c       **** //=================================================================================================
  20:.\Adc.c       **** //============================================ INFO ===============================================
  21:.\Adc.c       **** //=================================================================================================
  22:.\Adc.c       **** 
  23:.\Adc.c       **** //=================================================================================================
  24:.\Adc.c       **** //======================================= FILE INCLUSIONS =========================================
  25:.\Adc.c       **** //=================================================================================================
  26:.\Adc.c       **** 
  27:.\Adc.c       **** #include <device.h>
  28:.\Adc.c       **** #include <stdio.h>
  29:.\Adc.c       **** 
  30:.\Adc.c       **** #include "../common/PublicObjects.h"
  31:.\Adc.c       **** #include "Config.h"
  32:.\Adc.c       **** #include "Adc.h"
  33:.\Adc.c       **** 
  34:.\Adc.c       **** typedef enum
  35:.\Adc.c       **** {
  36:.\Adc.c       **** 	adcInit,
  37:.\Adc.c       **** 	adcIdle,
  38:.\Adc.c       **** 	adcGetBattVolt
  39:.\Adc.c       **** } adcStates_t;
  40:.\Adc.c       **** 
  41:.\Adc.c       **** static double _battVoltage = 0;
  42:.\Adc.c       **** static double _throttleVoltage = 0;
  43:.\Adc.c       **** static bool_t _enableThrottleVoltMeasFlag = FALSE;
  44:.\Adc.c       **** 
  45:.\Adc.c       **** 
  46:.\Adc.c       **** void Adc_Run(void)
  47:.\Adc.c       **** {
  45              		.loc 1 47 0
  46              		.cfi_startproc
  47              		@ args = 0, pretend = 0, frame = 16
  48              		@ frame_needed = 1, uses_anonymous_args = 0
  49 0000 80B5     		push	{r7, lr}
  50              	.LCFI0:
  51              		.cfi_def_cfa_offset 8
  52 0002 84B0     		sub	sp, sp, #16
  53              	.LCFI1:
  54              		.cfi_def_cfa_offset 24
  55 0004 00AF     		add	r7, sp, #0
  56              		.cfi_offset 14, -4
  57              		.cfi_offset 7, -8
  58              	.LCFI2:
  59              		.cfi_def_cfa_register 7
  48:.\Adc.c       **** 	static uint32_t stateCounter = 0;
  49:.\Adc.c       **** 	
ARM GAS  C:\Users\Geo\AppData\Local\Temp\ccsHgdp4.s 			page 3


  50:.\Adc.c       **** 	static uint32_t lastBattVoltMeasureCount = 0;
  51:.\Adc.c       **** 	static uint32_t battVoltMeasurePeriod = (uint32_t)configBATT_MEASURE_PERIOD_MS/configMAIN_TICK_PER
  52:.\Adc.c       **** 	
  53:.\Adc.c       **** 	static bool_t turnOn = TRUE;
  54:.\Adc.c       **** 	
  55:.\Adc.c       **** 	static adcStates_t adcState = adcInit;
  56:.\Adc.c       **** 	static adcStates_t prevAdcState = adcInit;
  57:.\Adc.c       **** 
  58:.\Adc.c       **** 	switch(adcState)
  60              		.loc 1 58 0
  61 0006 40F20003 		movw	r3, #:lower16:adcState.3706
  62 000a C0F20003 		movt	r3, #:upper16:adcState.3706
  63 000e 1B78     		ldrb	r3, [r3, #0]	@ zero_extendqisi2
  64 0010 012B     		cmp	r3, #1
  65 0012 0ED0     		beq	.L4
  66 0014 022B     		cmp	r3, #2
  67 0016 51D0     		beq	.L5
  68 0018 002B     		cmp	r3, #0
  69 001a 40F0BB80 		bne	.L2
  70              	.L3:
  59:.\Adc.c       **** 	{
  60:.\Adc.c       **** 		case adcInit:
  61:.\Adc.c       **** 			// Power up the ADC and reset all states
  62:.\Adc.c       **** 			AdcSar_Start();
  71              		.loc 1 62 0
  72 001e FFF7FEFF 		bl	AdcSar_Start
  63:.\Adc.c       **** 			adcState = adcIdle;
  73              		.loc 1 63 0
  74 0022 40F20003 		movw	r3, #:lower16:adcState.3706
  75 0026 C0F20003 		movt	r3, #:upper16:adcState.3706
  76 002a 4FF00102 		mov	r2, #1
  77 002e 1A70     		strb	r2, [r3, #0]
  64:.\Adc.c       **** 			break;
  78              		.loc 1 64 0
  79 0030 B0E0     		b	.L2
  80              	.L4:
  65:.\Adc.c       **** 			
  66:.\Adc.c       **** 		case adcIdle:
  67:.\Adc.c       **** 			if(prevAdcState != adcState)
  81              		.loc 1 67 0
  82 0032 40F20003 		movw	r3, #:lower16:prevAdcState.3707
  83 0036 C0F20003 		movt	r3, #:upper16:prevAdcState.3707
  84 003a 1A78     		ldrb	r2, [r3, #0]	@ zero_extendqisi2
  85 003c 40F20003 		movw	r3, #:lower16:adcState.3706
  86 0040 C0F20003 		movt	r3, #:upper16:adcState.3706
  87 0044 1B78     		ldrb	r3, [r3, #0]	@ zero_extendqisi2
  88 0046 9A42     		cmp	r2, r3
  89 0048 09D0     		beq	.L6
  68:.\Adc.c       **** 			{
  69:.\Adc.c       **** 				#if(configDEBUG_ADC == 1) 
  70:.\Adc.c       **** 						UartDebug_PutString("ADC: Entering idle state.\r\n");
  71:.\Adc.c       **** 				#endif
  72:.\Adc.c       **** 				prevAdcState = adcState;
  90              		.loc 1 72 0
  91 004a 40F20003 		movw	r3, #:lower16:adcState.3706
  92 004e C0F20003 		movt	r3, #:upper16:adcState.3706
  93 0052 1A78     		ldrb	r2, [r3, #0]	@ zero_extendqisi2
ARM GAS  C:\Users\Geo\AppData\Local\Temp\ccsHgdp4.s 			page 4


  94 0054 40F20003 		movw	r3, #:lower16:prevAdcState.3707
  95 0058 C0F20003 		movt	r3, #:upper16:prevAdcState.3707
  96 005c 1A70     		strb	r2, [r3, #0]
  97              	.L6:
  73:.\Adc.c       **** 			}
  74:.\Adc.c       **** 				
  75:.\Adc.c       **** 			if(stateCounter >= lastBattVoltMeasureCount + battVoltMeasurePeriod)
  98              		.loc 1 75 0
  99 005e 40F20003 		movw	r3, #:lower16:lastBattVoltMeasureCount.3703
 100 0062 C0F20003 		movt	r3, #:upper16:lastBattVoltMeasureCount.3703
 101 0066 1A68     		ldr	r2, [r3, #0]
 102 0068 40F20003 		movw	r3, #:lower16:battVoltMeasurePeriod.3704
 103 006c C0F20003 		movt	r3, #:upper16:battVoltMeasurePeriod.3704
 104 0070 1B68     		ldr	r3, [r3, #0]
 105 0072 1A44     		add	r2, r2, r3
 106 0074 40F20003 		movw	r3, #:lower16:stateCounter.3702
 107 0078 C0F20003 		movt	r3, #:upper16:stateCounter.3702
 108 007c 1B68     		ldr	r3, [r3, #0]
 109 007e 9A42     		cmp	r2, r3
 110 0080 06D8     		bhi	.L7
  76:.\Adc.c       **** 				adcState = adcGetBattVolt;
 111              		.loc 1 76 0
 112 0082 40F20003 		movw	r3, #:lower16:adcState.3706
 113 0086 C0F20003 		movt	r3, #:upper16:adcState.3706
 114 008a 4FF00202 		mov	r2, #2
 115 008e 1A70     		strb	r2, [r3, #0]
 116              	.L7:
  77:.\Adc.c       **** 			
  78:.\Adc.c       **** 			
  79:.\Adc.c       **** 			if(turnOn)
 117              		.loc 1 79 0
 118 0090 40F20003 		movw	r3, #:lower16:turnOn.3705
 119 0094 C0F20003 		movt	r3, #:upper16:turnOn.3705
 120 0098 1B78     		ldrb	r3, [r3, #0]	@ zero_extendqisi2
 121 009a 002B     		cmp	r3, #0
 122 009c 79D0     		beq	.L11
  80:.\Adc.c       **** 			{
  81:.\Adc.c       **** 				adcState = adcGetBattVolt;
 123              		.loc 1 81 0
 124 009e 40F20003 		movw	r3, #:lower16:adcState.3706
 125 00a2 C0F20003 		movt	r3, #:upper16:adcState.3706
 126 00a6 4FF00202 		mov	r2, #2
 127 00aa 1A70     		strb	r2, [r3, #0]
  82:.\Adc.c       **** 				turnOn = FALSE;
 128              		.loc 1 82 0
 129 00ac 40F20003 		movw	r3, #:lower16:turnOn.3705
 130 00b0 C0F20003 		movt	r3, #:upper16:turnOn.3705
 131 00b4 4FF00002 		mov	r2, #0
 132 00b8 1A70     		strb	r2, [r3, #0]
  83:.\Adc.c       **** 				break;
 133              		.loc 1 83 0
 134 00ba 6BE0     		b	.L2
 135              	.L5:
  84:.\Adc.c       **** 			}
  85:.\Adc.c       **** 			break;
  86:.\Adc.c       **** 			
  87:.\Adc.c       **** 		case adcGetBattVolt:
ARM GAS  C:\Users\Geo\AppData\Local\Temp\ccsHgdp4.s 			page 5


  88:.\Adc.c       **** 			if(prevAdcState != adcState)
 136              		.loc 1 88 0
 137 00bc 40F20003 		movw	r3, #:lower16:prevAdcState.3707
 138 00c0 C0F20003 		movt	r3, #:upper16:prevAdcState.3707
 139 00c4 1A78     		ldrb	r2, [r3, #0]	@ zero_extendqisi2
 140 00c6 40F20003 		movw	r3, #:lower16:adcState.3706
 141 00ca C0F20003 		movt	r3, #:upper16:adcState.3706
 142 00ce 1B78     		ldrb	r3, [r3, #0]	@ zero_extendqisi2
 143 00d0 9A42     		cmp	r2, r3
 144 00d2 15D0     		beq	.L9
  89:.\Adc.c       **** 			{
  90:.\Adc.c       **** 				#if(configDEBUG_ADC == 1) 
  91:.\Adc.c       **** 						UartDebug_PutString("ADC: Entering adcGetBattVolt state.\r\n");
  92:.\Adc.c       **** 				#endif
  93:.\Adc.c       **** 				
  94:.\Adc.c       **** 				// Start ADC conversion
  95:.\Adc.c       **** 				AdcSar_StartConvert();
 145              		.loc 1 95 0
 146 00d4 FFF7FEFF 		bl	AdcSar_StartConvert
  96:.\Adc.c       **** 				
  97:.\Adc.c       **** 				lastBattVoltMeasureCount = stateCounter;
 147              		.loc 1 97 0
 148 00d8 40F20003 		movw	r3, #:lower16:stateCounter.3702
 149 00dc C0F20003 		movt	r3, #:upper16:stateCounter.3702
 150 00e0 1A68     		ldr	r2, [r3, #0]
 151 00e2 40F20003 		movw	r3, #:lower16:lastBattVoltMeasureCount.3703
 152 00e6 C0F20003 		movt	r3, #:upper16:lastBattVoltMeasureCount.3703
 153 00ea 1A60     		str	r2, [r3, #0]
  98:.\Adc.c       **** 				prevAdcState = adcState;
 154              		.loc 1 98 0
 155 00ec 40F20003 		movw	r3, #:lower16:adcState.3706
 156 00f0 C0F20003 		movt	r3, #:upper16:adcState.3706
 157 00f4 1A78     		ldrb	r2, [r3, #0]	@ zero_extendqisi2
 158 00f6 40F20003 		movw	r3, #:lower16:prevAdcState.3707
 159 00fa C0F20003 		movt	r3, #:upper16:prevAdcState.3707
 160 00fe 1A70     		strb	r2, [r3, #0]
 161              	.L9:
  99:.\Adc.c       **** 			}
 100:.\Adc.c       **** 
 101:.\Adc.c       **** 			// Wait for end of conversion
 102:.\Adc.c       **** 			// Accepts either ADC_WAIT_FOR_RESULT or ADC_RETURN_STATUS
 103:.\Adc.c       **** 			if(AdcSar_IsEndConversion(AdcSar_RETURN_STATUS))
 162              		.loc 1 103 0
 163 0100 4FF00100 		mov	r0, #1
 164 0104 FFF7FEFF 		bl	AdcSar_IsEndConversion
 165 0108 0346     		mov	r3, r0
 166 010a 002B     		cmp	r3, #0
 167 010c 42D0     		beq	.L2
 168              	.LBB2:
 104:.\Adc.c       **** 			{
 105:.\Adc.c       **** 					// Get and return adc value
 106:.\Adc.c       **** 				uint16 adcVal = AdcSar_GetResult16();
 169              		.loc 1 106 0
 170 010e FFF7FEFF 		bl	AdcSar_GetResult16
 171 0112 0346     		mov	r3, r0
 172 0114 9BB2     		uxth	r3, r3
 173 0116 FB80     		strh	r3, [r7, #6]	@ movhi
ARM GAS  C:\Users\Geo\AppData\Local\Temp\ccsHgdp4.s 			page 6


 107:.\Adc.c       **** 				
 108:.\Adc.c       **** 				// Wait for end of conversion
 109:.\Adc.c       **** 				// Accepts either ADC_WAIT_FOR_RESULT or ADC_RETURN_STATUS
 110:.\Adc.c       **** 				AdcSar_IsEndConversion(AdcSar_WAIT_FOR_RESULT);
 174              		.loc 1 110 0
 175 0118 4FF00000 		mov	r0, #0
 176 011c FFF7FEFF 		bl	AdcSar_IsEndConversion
 111:.\Adc.c       **** 				
 112:.\Adc.c       **** 				// Get and return adc value
 113:.\Adc.c       **** 				adcVal = AdcSar_GetResult16();
 177              		.loc 1 113 0
 178 0120 FFF7FEFF 		bl	AdcSar_GetResult16
 179 0124 0346     		mov	r3, r0
 180 0126 9BB2     		uxth	r3, r3
 181 0128 FB80     		strh	r3, [r7, #6]	@ movhi
 114:.\Adc.c       **** 				
 115:.\Adc.c       **** 				adcVal = AdcSar_CountsTo_mVolts(adcVal);
 182              		.loc 1 115 0
 183 012a FB88     		ldrh	r3, [r7, #6]
 184 012c 1BB2     		sxth	r3, r3
 185 012e 1846     		mov	r0, r3
 186 0130 FFF7FEFF 		bl	AdcSar_CountsTo_mVolts
 187 0134 0346     		mov	r3, r0
 188 0136 9BB2     		uxth	r3, r3
 189 0138 FB80     		strh	r3, [r7, #6]	@ movhi
 116:.\Adc.c       **** 				
 117:.\Adc.c       **** 				double tempVar;
 118:.\Adc.c       **** 				
 119:.\Adc.c       **** 				// Convert 16-bit int to double
 120:.\Adc.c       **** 				tempVar = (double)adcVal;
 190              		.loc 1 120 0
 191 013a FB88     		ldrh	r3, [r7, #6]
 192 013c 1846     		mov	r0, r3
 193 013e FFF7FEFF 		bl	__aeabi_ui2d
 194 0142 0246     		mov	r2, r0
 195 0144 0B46     		mov	r3, r1
 196 0146 C7E90223 		strd	r2, [r7, #8]
 121:.\Adc.c       **** 				
 122:.\Adc.c       **** 				#if(configDEBUG_ADC == 1)
 123:.\Adc.c       **** 					char tempBuff1[50];
 124:.\Adc.c       **** 					snprintf(tempBuff1, sizeof(tempBuff1), "ADC: Adc voltage = %f\r\n", tempVar);
 125:.\Adc.c       **** 					UartDebug_PutString(tempBuff1);
 126:.\Adc.c       **** 				#endif
 127:.\Adc.c       **** 				
 128:.\Adc.c       **** 				// Scale by resistor divider to find input voltage
 129:.\Adc.c       **** 				tempVar = ((configBATT_VOLT_R1_KOHM + configBATT_VOLT_R2_KOHM)/configBATT_VOLT_R2_KOHM)*tempVar
 197              		.loc 1 129 0
 198 014a D7E90201 		ldrd	r0, [r7, #8]
 199 014e 1AA3     		adr	r3, .L12
 200 0150 D3E90023 		ldrd	r2, [r3]
 201 0154 FFF7FEFF 		bl	__aeabi_dmul
 202 0158 0246     		mov	r2, r0
 203 015a 0B46     		mov	r3, r1
 204 015c 1046     		mov	r0, r2
 205 015e 1946     		mov	r1, r3
 206 0160 17A3     		adr	r3, .L12+8
 207 0162 D3E90023 		ldrd	r2, [r3]
ARM GAS  C:\Users\Geo\AppData\Local\Temp\ccsHgdp4.s 			page 7


 208 0166 FFF7FEFF 		bl	__aeabi_dsub
 209 016a 0246     		mov	r2, r0
 210 016c 0B46     		mov	r3, r1
 211 016e C7E90223 		strd	r2, [r7, #8]
 130:.\Adc.c       **** 				//tempVar = tempVar*configBATT_VOLT_R_RATIO;
 131:.\Adc.c       **** 				// Return battery voltage
 132:.\Adc.c       **** 				_battVoltage = tempVar;
 212              		.loc 1 132 0
 213 0172 40F20003 		movw	r3, #:lower16:_battVoltage
 214 0176 C0F20003 		movt	r3, #:upper16:_battVoltage
 215 017a D7E90201 		ldrd	r0, [r7, #8]
 216 017e C3E90001 		strd	r0, [r3]
 133:.\Adc.c       **** 				
 134:.\Adc.c       **** 				#if(configDEBUG_ADC == 1)
 135:.\Adc.c       **** 					char tempBuff2[50];
 136:.\Adc.c       **** 					snprintf(tempBuff2, sizeof(tempBuff2), "ADC: Batt voltage = %f\r\n", _battVoltage);
 137:.\Adc.c       **** 					UartDebug_PutString(tempBuff2);
 138:.\Adc.c       **** 				#endif
 139:.\Adc.c       **** 				
 140:.\Adc.c       **** 				// Go back to idle state
 141:.\Adc.c       **** 				adcState = adcIdle;
 217              		.loc 1 141 0
 218 0182 40F20003 		movw	r3, #:lower16:adcState.3706
 219 0186 C0F20003 		movt	r3, #:upper16:adcState.3706
 220 018a 4FF00102 		mov	r2, #1
 221 018e 1A70     		strb	r2, [r3, #0]
 222 0190 00E0     		b	.L2
 223              	.L11:
 224              	.LBE2:
 225              		.loc 1 85 0
 226 0192 00BF     		nop
 227              	.L2:
 142:.\Adc.c       **** 				
 143:.\Adc.c       **** 				break;
 144:.\Adc.c       **** 			}
 145:.\Adc.c       **** 			
 146:.\Adc.c       **** 		
 147:.\Adc.c       **** 			break;
 148:.\Adc.c       **** 			
 149:.\Adc.c       **** 	}
 150:.\Adc.c       **** 	
 151:.\Adc.c       **** 	// Increment state counter
 152:.\Adc.c       **** 	stateCounter++;
 228              		.loc 1 152 0
 229 0194 40F20003 		movw	r3, #:lower16:stateCounter.3702
 230 0198 C0F20003 		movt	r3, #:upper16:stateCounter.3702
 231 019c 1B68     		ldr	r3, [r3, #0]
 232 019e 03F10102 		add	r2, r3, #1
 233 01a2 40F20003 		movw	r3, #:lower16:stateCounter.3702
 234 01a6 C0F20003 		movt	r3, #:upper16:stateCounter.3702
 235 01aa 1A60     		str	r2, [r3, #0]
 153:.\Adc.c       **** }
 236              		.loc 1 153 0
 237 01ac 07F11007 		add	r7, r7, #16
 238 01b0 BD46     		mov	sp, r7
 239 01b2 80BD     		pop	{r7, pc}
 240              	.L13:
ARM GAS  C:\Users\Geo\AppData\Local\Temp\ccsHgdp4.s 			page 8


 241 01b4 AFF30080 		.align	3
 242              	.L12:
 243 01b8 00000000 		.word	0
 244 01bc 00C04F40 		.word	1078968320
 245 01c0 00000000 		.word	0
 246 01c4 00407F40 		.word	1082081280
 247              		.cfi_endproc
 248              	.LFE29:
 249              		.size	Adc_Run, .-Adc_Run
 250              		.section	.text.Adc_EnableThrottleVoltMeas,"ax",%progbits
 251              		.align	2
 252              		.global	Adc_EnableThrottleVoltMeas
 253              		.thumb
 254              		.thumb_func
 255              		.type	Adc_EnableThrottleVoltMeas, %function
 256              	Adc_EnableThrottleVoltMeas:
 257              	.LFB30:
 154:.\Adc.c       **** 
 155:.\Adc.c       **** //! @brief		Enables or disables the throttle voltage measurement. Only needed in the mainMotorOn st
 156:.\Adc.c       **** void Adc_EnableThrottleVoltMeas(bool_t enable)
 157:.\Adc.c       **** {
 258              		.loc 1 157 0
 259              		.cfi_startproc
 260              		@ args = 0, pretend = 0, frame = 8
 261              		@ frame_needed = 1, uses_anonymous_args = 0
 262              		@ link register save eliminated.
 263 0000 80B4     		push	{r7}
 264              	.LCFI3:
 265              		.cfi_def_cfa_offset 4
 266 0002 83B0     		sub	sp, sp, #12
 267              	.LCFI4:
 268              		.cfi_def_cfa_offset 16
 269 0004 00AF     		add	r7, sp, #0
 270              		.cfi_offset 7, -4
 271              	.LCFI5:
 272              		.cfi_def_cfa_register 7
 273 0006 0346     		mov	r3, r0
 274 0008 FB71     		strb	r3, [r7, #7]
 158:.\Adc.c       **** 		_enableThrottleVoltMeasFlag = enable;
 275              		.loc 1 158 0
 276 000a 40F20003 		movw	r3, #:lower16:_enableThrottleVoltMeasFlag
 277 000e C0F20003 		movt	r3, #:upper16:_enableThrottleVoltMeasFlag
 278 0012 FA79     		ldrb	r2, [r7, #7]
 279 0014 1A70     		strb	r2, [r3, #0]
 159:.\Adc.c       **** }
 280              		.loc 1 159 0
 281 0016 07F10C07 		add	r7, r7, #12
 282 001a BD46     		mov	sp, r7
 283 001c 80BC     		pop	{r7}
 284 001e 7047     		bx	lr
 285              		.cfi_endproc
 286              	.LFE30:
 287              		.size	Adc_EnableThrottleVoltMeas, .-Adc_EnableThrottleVoltMeas
 288              		.section	.text.Adc_GetBattVolt,"ax",%progbits
 289              		.align	2
 290              		.global	Adc_GetBattVolt
 291              		.thumb
ARM GAS  C:\Users\Geo\AppData\Local\Temp\ccsHgdp4.s 			page 9


 292              		.thumb_func
 293              		.type	Adc_GetBattVolt, %function
 294              	Adc_GetBattVolt:
 295              	.LFB31:
 160:.\Adc.c       **** 
 161:.\Adc.c       **** //! @brief		Returns the battery voltage
 162:.\Adc.c       **** //! @returns 	Battery voltage as double, scaled appropriately due to voltage divider
 163:.\Adc.c       **** double Adc_GetBattVolt(void)
 164:.\Adc.c       **** {
 296              		.loc 1 164 0
 297              		.cfi_startproc
 298              		@ args = 0, pretend = 0, frame = 0
 299              		@ frame_needed = 1, uses_anonymous_args = 0
 300              		@ link register save eliminated.
 301 0000 80B4     		push	{r7}
 302              	.LCFI6:
 303              		.cfi_def_cfa_offset 4
 304 0002 00AF     		add	r7, sp, #0
 305              		.cfi_offset 7, -4
 306              	.LCFI7:
 307              		.cfi_def_cfa_register 7
 165:.\Adc.c       **** 	return _battVoltage;
 308              		.loc 1 165 0
 309 0004 40F20003 		movw	r3, #:lower16:_battVoltage
 310 0008 C0F20003 		movt	r3, #:upper16:_battVoltage
 311 000c D3E90023 		ldrd	r2, [r3]
 166:.\Adc.c       **** }
 312              		.loc 1 166 0
 313 0010 1046     		mov	r0, r2
 314 0012 1946     		mov	r1, r3
 315 0014 BD46     		mov	sp, r7
 316 0016 80BC     		pop	{r7}
 317 0018 7047     		bx	lr
 318              		.cfi_endproc
 319              	.LFE31:
 320              		.size	Adc_GetBattVolt, .-Adc_GetBattVolt
 321 001a 00BF     		.section	.text.Adc_GetThrottleVolt,"ax",%progbits
 322              		.align	2
 323              		.global	Adc_GetThrottleVolt
 324              		.thumb
 325              		.thumb_func
 326              		.type	Adc_GetThrottleVolt, %function
 327              	Adc_GetThrottleVolt:
 328              	.LFB32:
 167:.\Adc.c       **** 
 168:.\Adc.c       **** //! @brief		Returns the throttle voltage
 169:.\Adc.c       **** //! @returns 	Throttle voltage as double, scaled appropriately due to voltage divider
 170:.\Adc.c       **** double Adc_GetThrottleVolt(void)
 171:.\Adc.c       **** {
 329              		.loc 1 171 0
 330              		.cfi_startproc
 331              		@ args = 0, pretend = 0, frame = 0
 332              		@ frame_needed = 1, uses_anonymous_args = 0
 333              		@ link register save eliminated.
 334 0000 80B4     		push	{r7}
 335              	.LCFI8:
 336              		.cfi_def_cfa_offset 4
ARM GAS  C:\Users\Geo\AppData\Local\Temp\ccsHgdp4.s 			page 10


 337 0002 00AF     		add	r7, sp, #0
 338              		.cfi_offset 7, -4
 339              	.LCFI9:
 340              		.cfi_def_cfa_register 7
 172:.\Adc.c       **** 	return _throttleVoltage;
 341              		.loc 1 172 0
 342 0004 40F20003 		movw	r3, #:lower16:_throttleVoltage
 343 0008 C0F20003 		movt	r3, #:upper16:_throttleVoltage
 344 000c D3E90023 		ldrd	r2, [r3]
 173:.\Adc.c       **** }	
 345              		.loc 1 173 0
 346 0010 1046     		mov	r0, r2
 347 0012 1946     		mov	r1, r3
 348 0014 BD46     		mov	sp, r7
 349 0016 80BC     		pop	{r7}
 350 0018 7047     		bx	lr
 351              		.cfi_endproc
 352              	.LFE32:
 353              		.size	Adc_GetThrottleVolt, .-Adc_GetThrottleVolt
 354 001a 00BF     		.bss
 355              	adcState.3706:
 356 0011 00       		.space	1
 357              	prevAdcState.3707:
 358 0012 00       		.space	1
 359 0013 00       		.align	2
 360              	lastBattVoltMeasureCount.3703:
 361 0014 00000000 		.space	4
 362              		.data
 363              		.align	2
 364              		.type	battVoltMeasurePeriod.3704, %object
 365              		.size	battVoltMeasurePeriod.3704, 4
 366              	battVoltMeasurePeriod.3704:
 367 0000 32000000 		.word	50
 368              		.bss
 369              		.align	2
 370              	stateCounter.3702:
 371 0018 00000000 		.space	4
 372 001c 00000000 		.data
 373              		.type	turnOn.3705, %object
 374              		.size	turnOn.3705, 1
 375              	turnOn.3705:
 376 0004 01       		.byte	1
 377 0005 000000   		.text
 378              	.Letext0: