ARM GAS  C:\Users\Geo\AppData\Local\Temp\ccJcx0AO.s 			page 1


   1              		.syntax unified
   2              		.cpu cortex-m3
   3              		.fpu softvfp
   4              		.eabi_attribute 20, 1
   5              		.eabi_attribute 21, 1
   6              		.eabi_attribute 23, 3
   7              		.eabi_attribute 24, 1
   8              		.eabi_attribute 25, 1
   9              		.eabi_attribute 26, 1
  10              		.eabi_attribute 30, 6
  11              		.eabi_attribute 18, 4
  12              		.thumb
  13              		.file	"AdcSar.c"
  20 0000 29020000 		.text
  20      02005E00 
  20      00000201 
  20      FB0E0D00 
  20      01010101 
  21              	.Ltext0:
  22              		.cfi_sections	.debug_frame
  23              		.global	AdcSar_initVar
  24              		.bss
  25              		.type	AdcSar_initVar, %object
  26              		.size	AdcSar_initVar, 1
  27              	AdcSar_initVar:
  28 0000 00       		.space	1
  29              		.comm	AdcSar_offset,2,2
  30              		.comm	AdcSar_countsPerVolt,2,2
  31              		.comm	AdcSar_shift,2,2
  32              		.comm	AdcSar_resolution,1,1
  33              		.section	.text.AdcSar_Start,"ax",%progbits
  34              		.align	2
  35              		.global	AdcSar_Start
  36              		.thumb
  37              		.thumb_func
  38              		.type	AdcSar_Start, %function
  39              	AdcSar_Start:
  40              	.LFB0:
  41              		.file 1 ".\\Generated_Source\\PSoC5\\AdcSar.c"
   1:.\Generated_Source\PSoC5/AdcSar.c **** /*******************************************************************************
   2:.\Generated_Source\PSoC5/AdcSar.c **** * File Name: AdcSar.c
   3:.\Generated_Source\PSoC5/AdcSar.c **** * Version 1.71
   4:.\Generated_Source\PSoC5/AdcSar.c **** *
   5:.\Generated_Source\PSoC5/AdcSar.c **** * Description:
   6:.\Generated_Source\PSoC5/AdcSar.c **** *  This file provides the source code to the API for the Successive
   7:.\Generated_Source\PSoC5/AdcSar.c **** *  approximation ADC Component.
   8:.\Generated_Source\PSoC5/AdcSar.c **** *
   9:.\Generated_Source\PSoC5/AdcSar.c **** * Note:
  10:.\Generated_Source\PSoC5/AdcSar.c **** *
  11:.\Generated_Source\PSoC5/AdcSar.c **** *******************************************************************************
  12:.\Generated_Source\PSoC5/AdcSar.c **** * Copyright 2008-2012, Cypress Semiconductor Corporation.  All rights reserved.
ARM GAS  C:\Users\Geo\AppData\Local\Temp\ccJcx0AO.s 			page 2


  13:.\Generated_Source\PSoC5/AdcSar.c **** * You may use this file only in accordance with the license, terms, conditions,
  14:.\Generated_Source\PSoC5/AdcSar.c **** * disclaimers, and limitations in the end user license agreement accompanying
  15:.\Generated_Source\PSoC5/AdcSar.c **** * the software package with which this file was provided.
  16:.\Generated_Source\PSoC5/AdcSar.c **** *******************************************************************************/
  17:.\Generated_Source\PSoC5/AdcSar.c **** 
  18:.\Generated_Source\PSoC5/AdcSar.c **** #include "CyLib.h"
  19:.\Generated_Source\PSoC5/AdcSar.c **** #include "AdcSar.h"
  20:.\Generated_Source\PSoC5/AdcSar.c **** 
  21:.\Generated_Source\PSoC5/AdcSar.c **** #if(AdcSar_DEFAULT_INTERNAL_CLK)
  22:.\Generated_Source\PSoC5/AdcSar.c ****     #include "AdcSar_theACLK.h"
  23:.\Generated_Source\PSoC5/AdcSar.c **** #endif /* End AdcSar_DEFAULT_INTERNAL_CLK */
  24:.\Generated_Source\PSoC5/AdcSar.c **** 
  25:.\Generated_Source\PSoC5/AdcSar.c **** 
  26:.\Generated_Source\PSoC5/AdcSar.c **** /***************************************
  27:.\Generated_Source\PSoC5/AdcSar.c **** * Forward function references
  28:.\Generated_Source\PSoC5/AdcSar.c **** ***************************************/
  29:.\Generated_Source\PSoC5/AdcSar.c **** void AdcSar_SetRef(int8 refMode);
  30:.\Generated_Source\PSoC5/AdcSar.c **** void AdcSar_CalcGain(uint8 resolution);
  31:.\Generated_Source\PSoC5/AdcSar.c **** 
  32:.\Generated_Source\PSoC5/AdcSar.c **** 
  33:.\Generated_Source\PSoC5/AdcSar.c **** /***************************************
  34:.\Generated_Source\PSoC5/AdcSar.c **** * Global data allocation
  35:.\Generated_Source\PSoC5/AdcSar.c **** ***************************************/
  36:.\Generated_Source\PSoC5/AdcSar.c **** uint8 AdcSar_initVar = 0u;
  37:.\Generated_Source\PSoC5/AdcSar.c **** volatile int16 AdcSar_offset;
  38:.\Generated_Source\PSoC5/AdcSar.c **** volatile int16 AdcSar_countsPerVolt;   /* Gain compensation */
  39:.\Generated_Source\PSoC5/AdcSar.c **** volatile int16 AdcSar_shift;
  40:.\Generated_Source\PSoC5/AdcSar.c **** #if(CY_PSOC5_ES1)
  41:.\Generated_Source\PSoC5/AdcSar.c ****     uint8 AdcSar_resolution;
  42:.\Generated_Source\PSoC5/AdcSar.c **** #endif /* End CY_PSOC5_ES1 */
  43:.\Generated_Source\PSoC5/AdcSar.c **** 
  44:.\Generated_Source\PSoC5/AdcSar.c **** 
  45:.\Generated_Source\PSoC5/AdcSar.c **** /*******************************************************************************
  46:.\Generated_Source\PSoC5/AdcSar.c **** * Function Name: AdcSar_Start
  47:.\Generated_Source\PSoC5/AdcSar.c **** ********************************************************************************
  48:.\Generated_Source\PSoC5/AdcSar.c **** *
  49:.\Generated_Source\PSoC5/AdcSar.c **** * Summary:
  50:.\Generated_Source\PSoC5/AdcSar.c **** *  Performs all required initialization for this component and enables the
  51:.\Generated_Source\PSoC5/AdcSar.c **** *  power.
  52:.\Generated_Source\PSoC5/AdcSar.c **** *
  53:.\Generated_Source\PSoC5/AdcSar.c **** * Parameters:
  54:.\Generated_Source\PSoC5/AdcSar.c **** *  None.
  55:.\Generated_Source\PSoC5/AdcSar.c **** *
  56:.\Generated_Source\PSoC5/AdcSar.c **** * Return:
  57:.\Generated_Source\PSoC5/AdcSar.c **** *  None.
  58:.\Generated_Source\PSoC5/AdcSar.c **** *
  59:.\Generated_Source\PSoC5/AdcSar.c **** * Global variables:
  60:.\Generated_Source\PSoC5/AdcSar.c **** *  The AdcSar_initVar variable is used to indicate when/if initial 
  61:.\Generated_Source\PSoC5/AdcSar.c **** *  configuration of this component has happened. The variable is initialized to 
  62:.\Generated_Source\PSoC5/AdcSar.c **** *  zero and set to 1 the first time ADC_Start() is called. This allows for 
  63:.\Generated_Source\PSoC5/AdcSar.c **** *  component Re-Start without re-initialization in all subsequent calls to the 
  64:.\Generated_Source\PSoC5/AdcSar.c **** *  AdcSar_Start() routine.
  65:.\Generated_Source\PSoC5/AdcSar.c **** *  If re-initialization of the component is required the variable should be set 
  66:.\Generated_Source\PSoC5/AdcSar.c **** *  to zero before call of AdcSar_Start() routine, or the user may call 
  67:.\Generated_Source\PSoC5/AdcSar.c **** *  AdcSar_Init() and AdcSar_Enable() as done in the 
  68:.\Generated_Source\PSoC5/AdcSar.c **** *  AdcSar_Start() routine.
  69:.\Generated_Source\PSoC5/AdcSar.c **** *
ARM GAS  C:\Users\Geo\AppData\Local\Temp\ccJcx0AO.s 			page 3


  70:.\Generated_Source\PSoC5/AdcSar.c **** *******************************************************************************/
  71:.\Generated_Source\PSoC5/AdcSar.c **** void AdcSar_Start(void)
  72:.\Generated_Source\PSoC5/AdcSar.c **** {
  42              		.loc 1 72 0
  43              		.cfi_startproc
  44              		@ args = 0, pretend = 0, frame = 0
  45              		@ frame_needed = 1, uses_anonymous_args = 0
  46 0000 80B5     		push	{r7, lr}
  47              	.LCFI0:
  48              		.cfi_def_cfa_offset 8
  49 0002 00AF     		add	r7, sp, #0
  50              		.cfi_offset 14, -4
  51              		.cfi_offset 7, -8
  52              	.LCFI1:
  53              		.cfi_def_cfa_register 7
  73:.\Generated_Source\PSoC5/AdcSar.c **** 
  74:.\Generated_Source\PSoC5/AdcSar.c ****     /* If not Initialized then initialize all required hardware and software */
  75:.\Generated_Source\PSoC5/AdcSar.c ****     if(AdcSar_initVar == 0u)
  54              		.loc 1 75 0
  55 0004 40F20003 		movw	r3, #:lower16:AdcSar_initVar
  56 0008 C0F20003 		movt	r3, #:upper16:AdcSar_initVar
  57 000c 1B78     		ldrb	r3, [r3, #0]	@ zero_extendqisi2
  58 000e 002B     		cmp	r3, #0
  59 0010 08D1     		bne	.L2
  76:.\Generated_Source\PSoC5/AdcSar.c ****     {
  77:.\Generated_Source\PSoC5/AdcSar.c ****         AdcSar_Init();
  60              		.loc 1 77 0
  61 0012 FFF7FEFF 		bl	AdcSar_Init
  78:.\Generated_Source\PSoC5/AdcSar.c ****         AdcSar_initVar = 1u;
  62              		.loc 1 78 0
  63 0016 40F20003 		movw	r3, #:lower16:AdcSar_initVar
  64 001a C0F20003 		movt	r3, #:upper16:AdcSar_initVar
  65 001e 4FF00102 		mov	r2, #1
  66 0022 1A70     		strb	r2, [r3, #0]
  67              	.L2:
  79:.\Generated_Source\PSoC5/AdcSar.c ****     }
  80:.\Generated_Source\PSoC5/AdcSar.c ****     AdcSar_Enable();
  68              		.loc 1 80 0
  69 0024 FFF7FEFF 		bl	AdcSar_Enable
  81:.\Generated_Source\PSoC5/AdcSar.c **** }
  70              		.loc 1 81 0
  71 0028 80BD     		pop	{r7, pc}
  72              		.cfi_endproc
  73              	.LFE0:
  74              		.size	AdcSar_Start, .-AdcSar_Start
  75 002a 00BF     		.section	.text.AdcSar_Init,"ax",%progbits
  76              		.align	2
  77              		.global	AdcSar_Init
  78              		.thumb
  79              		.thumb_func
  80              		.type	AdcSar_Init, %function
  81              	AdcSar_Init:
  82              	.LFB1:
  82:.\Generated_Source\PSoC5/AdcSar.c **** 
  83:.\Generated_Source\PSoC5/AdcSar.c **** 
  84:.\Generated_Source\PSoC5/AdcSar.c **** /*******************************************************************************
  85:.\Generated_Source\PSoC5/AdcSar.c **** * Function Name: AdcSar_Init
ARM GAS  C:\Users\Geo\AppData\Local\Temp\ccJcx0AO.s 			page 4


  86:.\Generated_Source\PSoC5/AdcSar.c **** ********************************************************************************
  87:.\Generated_Source\PSoC5/AdcSar.c **** *
  88:.\Generated_Source\PSoC5/AdcSar.c **** * Summary:
  89:.\Generated_Source\PSoC5/AdcSar.c **** *  Initialize component's parameters to the parameters set by user in the 
  90:.\Generated_Source\PSoC5/AdcSar.c **** *  customizer of the component placed onto schematic. Usually called in 
  91:.\Generated_Source\PSoC5/AdcSar.c **** *  AdcSar_Start().
  92:.\Generated_Source\PSoC5/AdcSar.c **** *
  93:.\Generated_Source\PSoC5/AdcSar.c **** * Parameters:  
  94:.\Generated_Source\PSoC5/AdcSar.c **** *  None.
  95:.\Generated_Source\PSoC5/AdcSar.c **** *
  96:.\Generated_Source\PSoC5/AdcSar.c **** * Return: 
  97:.\Generated_Source\PSoC5/AdcSar.c **** *  None.
  98:.\Generated_Source\PSoC5/AdcSar.c **** *
  99:.\Generated_Source\PSoC5/AdcSar.c **** * Global variables:
 100:.\Generated_Source\PSoC5/AdcSar.c **** *  The AdcSar_offset variable is initialized to 0.
 101:.\Generated_Source\PSoC5/AdcSar.c **** *
 102:.\Generated_Source\PSoC5/AdcSar.c **** *******************************************************************************/
 103:.\Generated_Source\PSoC5/AdcSar.c **** void AdcSar_Init(void)
 104:.\Generated_Source\PSoC5/AdcSar.c **** {
  83              		.loc 1 104 0
  84              		.cfi_startproc
  85              		@ args = 0, pretend = 0, frame = 0
  86              		@ frame_needed = 1, uses_anonymous_args = 0
  87 0000 80B5     		push	{r7, lr}
  88              	.LCFI2:
  89              		.cfi_def_cfa_offset 8
  90 0002 00AF     		add	r7, sp, #0
  91              		.cfi_offset 14, -4
  92              		.cfi_offset 7, -8
  93              	.LCFI3:
  94              		.cfi_def_cfa_register 7
 105:.\Generated_Source\PSoC5/AdcSar.c **** 
 106:.\Generated_Source\PSoC5/AdcSar.c ****     /* This is only valid if there is an internal clock */
 107:.\Generated_Source\PSoC5/AdcSar.c ****     #if(AdcSar_DEFAULT_INTERNAL_CLK)
 108:.\Generated_Source\PSoC5/AdcSar.c ****         AdcSar_theACLK_SetMode(CYCLK_DUTY);
  95              		.loc 1 108 0
  96 0004 4FF01000 		mov	r0, #16
  97 0008 FFF7FEFF 		bl	AdcSar_theACLK_SetModeRegister
 109:.\Generated_Source\PSoC5/AdcSar.c ****     #endif /* End AdcSar_DEFAULT_INTERNAL_CLK */
 110:.\Generated_Source\PSoC5/AdcSar.c **** 
 111:.\Generated_Source\PSoC5/AdcSar.c ****     /* Start and set interrupt vector */
 112:.\Generated_Source\PSoC5/AdcSar.c ****     CyIntSetPriority(AdcSar_INTC_NUMBER, AdcSar_INTC_PRIOR_NUMBER);
  98              		.loc 1 112 0
  99 000c 4FF00C00 		mov	r0, #12
 100 0010 4FF00701 		mov	r1, #7
 101 0014 FFF7FEFF 		bl	CyIntSetPriority
 113:.\Generated_Source\PSoC5/AdcSar.c ****     CyIntSetVector(AdcSar_INTC_NUMBER, AdcSar_ISR );
 102              		.loc 1 113 0
 103 0018 4FF00C00 		mov	r0, #12
 104 001c 40F20001 		movw	r1, #:lower16:AdcSar_ISR
 105 0020 C0F20001 		movt	r1, #:upper16:AdcSar_ISR
 106 0024 FFF7FEFF 		bl	CyIntSetVector
 114:.\Generated_Source\PSoC5/AdcSar.c **** 
 115:.\Generated_Source\PSoC5/AdcSar.c ****     /* Enable IRQ mode*/
 116:.\Generated_Source\PSoC5/AdcSar.c ****     AdcSar_SAR_CSR1_REG |= AdcSar_SAR_IRQ_MASK_EN | AdcSar_SAR_IRQ_MODE_EDGE;
 107              		.loc 1 116 0
 108 0028 45F60113 		movw	r3, #:lower16:1073764609
ARM GAS  C:\Users\Geo\AppData\Local\Temp\ccJcx0AO.s 			page 5


 109 002c C4F20003 		movt	r3, #:upper16:1073764609
 110 0030 45F60112 		movw	r2, #:lower16:1073764609
 111 0034 C4F20002 		movt	r2, #:upper16:1073764609
 112 0038 1278     		ldrb	r2, [r2, #0]
 113 003a D2B2     		uxtb	r2, r2
 114 003c 42F00602 		orr	r2, r2, #6
 115 0040 D2B2     		uxtb	r2, r2
 116 0042 1A70     		strb	r2, [r3, #0]
 117:.\Generated_Source\PSoC5/AdcSar.c ****     
 118:.\Generated_Source\PSoC5/AdcSar.c ****     /*Set SAR ADC resolution ADC */
 119:.\Generated_Source\PSoC5/AdcSar.c ****     AdcSar_SetResolution(AdcSar_DEFAULT_RESOLUTION);
 117              		.loc 1 119 0
 118 0044 4FF00C00 		mov	r0, #12
 119 0048 FFF7FEFF 		bl	AdcSar_SetResolution
 120:.\Generated_Source\PSoC5/AdcSar.c ****     AdcSar_offset = 0;
 120              		.loc 1 120 0
 121 004c 40F20003 		movw	r3, #:lower16:AdcSar_offset
 122 0050 C0F20003 		movt	r3, #:upper16:AdcSar_offset
 123 0054 4FF00002 		mov	r2, #0
 124 0058 1A80     		strh	r2, [r3, #0]	@ movhi
 121:.\Generated_Source\PSoC5/AdcSar.c **** }
 125              		.loc 1 121 0
 126 005a 80BD     		pop	{r7, pc}
 127              		.cfi_endproc
 128              	.LFE1:
 129              		.size	AdcSar_Init, .-AdcSar_Init
 130              		.section	.text.AdcSar_Enable,"ax",%progbits
 131              		.align	2
 132              		.global	AdcSar_Enable
 133              		.thumb
 134              		.thumb_func
 135              		.type	AdcSar_Enable, %function
 136              	AdcSar_Enable:
 137              	.LFB2:
 122:.\Generated_Source\PSoC5/AdcSar.c **** 
 123:.\Generated_Source\PSoC5/AdcSar.c **** 
 124:.\Generated_Source\PSoC5/AdcSar.c **** /*******************************************************************************
 125:.\Generated_Source\PSoC5/AdcSar.c **** * Function Name: AdcSar_Enable
 126:.\Generated_Source\PSoC5/AdcSar.c **** ********************************************************************************
 127:.\Generated_Source\PSoC5/AdcSar.c **** *  
 128:.\Generated_Source\PSoC5/AdcSar.c **** * Summary: 
 129:.\Generated_Source\PSoC5/AdcSar.c **** *  Enables the reference, clock and power for SAR ADC.
 130:.\Generated_Source\PSoC5/AdcSar.c **** *
 131:.\Generated_Source\PSoC5/AdcSar.c **** * Parameters:  
 132:.\Generated_Source\PSoC5/AdcSar.c **** *  None.
 133:.\Generated_Source\PSoC5/AdcSar.c **** *
 134:.\Generated_Source\PSoC5/AdcSar.c **** * Return: 
 135:.\Generated_Source\PSoC5/AdcSar.c **** *  None.
 136:.\Generated_Source\PSoC5/AdcSar.c **** *
 137:.\Generated_Source\PSoC5/AdcSar.c **** *******************************************************************************/
 138:.\Generated_Source\PSoC5/AdcSar.c **** void AdcSar_Enable(void)
 139:.\Generated_Source\PSoC5/AdcSar.c **** {
 138              		.loc 1 139 0
 139              		.cfi_startproc
 140              		@ args = 0, pretend = 0, frame = 8
 141              		@ frame_needed = 1, uses_anonymous_args = 0
 142 0000 80B5     		push	{r7, lr}
ARM GAS  C:\Users\Geo\AppData\Local\Temp\ccJcx0AO.s 			page 6


 143              	.LCFI4:
 144              		.cfi_def_cfa_offset 8
 145 0002 82B0     		sub	sp, sp, #8
 146              	.LCFI5:
 147              		.cfi_def_cfa_offset 16
 148 0004 00AF     		add	r7, sp, #0
 149              		.cfi_offset 14, -4
 150              		.cfi_offset 7, -8
 151              	.LCFI6:
 152              		.cfi_def_cfa_register 7
 140:.\Generated_Source\PSoC5/AdcSar.c ****     uint8 tmpReg;
 141:.\Generated_Source\PSoC5/AdcSar.c ****     uint8 enableInterrupts;
 142:.\Generated_Source\PSoC5/AdcSar.c ****     enableInterrupts = CyEnterCriticalSection();
 153              		.loc 1 142 0
 154 0006 FFF7FEFF 		bl	CyEnterCriticalSection
 155 000a 0346     		mov	r3, r0
 156 000c FB71     		strb	r3, [r7, #7]
 143:.\Generated_Source\PSoC5/AdcSar.c **** 
 144:.\Generated_Source\PSoC5/AdcSar.c ****      /* Enable the SAR ADC block in Active Power Mode */
 145:.\Generated_Source\PSoC5/AdcSar.c ****     AdcSar_PWRMGR_SAR_REG |= AdcSar_ACT_PWR_SAR_EN;
 157              		.loc 1 145 0
 158 000e 44F2AB33 		movw	r3, #:lower16:1073759147
 159 0012 C4F20003 		movt	r3, #:upper16:1073759147
 160 0016 44F2AB32 		movw	r2, #:lower16:1073759147
 161 001a C4F20002 		movt	r2, #:upper16:1073759147
 162 001e 1278     		ldrb	r2, [r2, #0]
 163 0020 D2B2     		uxtb	r2, r2
 164 0022 42F00102 		orr	r2, r2, #1
 165 0026 D2B2     		uxtb	r2, r2
 166 0028 1A70     		strb	r2, [r3, #0]
 146:.\Generated_Source\PSoC5/AdcSar.c **** 
 147:.\Generated_Source\PSoC5/AdcSar.c ****      /* Enable the SAR ADC in Standby Power Mode*/
 148:.\Generated_Source\PSoC5/AdcSar.c ****     AdcSar_STBY_PWRMGR_SAR_REG |= AdcSar_STBY_PWR_SAR_EN;
 167              		.loc 1 148 0
 168 002a 44F2BB33 		movw	r3, #:lower16:1073759163
 169 002e C4F20003 		movt	r3, #:upper16:1073759163
 170 0032 44F2BB32 		movw	r2, #:lower16:1073759163
 171 0036 C4F20002 		movt	r2, #:upper16:1073759163
 172 003a 1278     		ldrb	r2, [r2, #0]
 173 003c D2B2     		uxtb	r2, r2
 174 003e 42F00102 		orr	r2, r2, #1
 175 0042 D2B2     		uxtb	r2, r2
 176 0044 1A70     		strb	r2, [r3, #0]
 149:.\Generated_Source\PSoC5/AdcSar.c **** 
 150:.\Generated_Source\PSoC5/AdcSar.c ****     /* This is only valid if there is an internal clock */
 151:.\Generated_Source\PSoC5/AdcSar.c ****     #if(AdcSar_DEFAULT_INTERNAL_CLK)
 152:.\Generated_Source\PSoC5/AdcSar.c ****         AdcSar_PWRMGR_CLK_REG |= AdcSar_ACT_PWR_CLK_EN;
 177              		.loc 1 152 0
 178 0046 44F2A133 		movw	r3, #:lower16:1073759137
 179 004a C4F20003 		movt	r3, #:upper16:1073759137
 180 004e 44F2A132 		movw	r2, #:lower16:1073759137
 181 0052 C4F20002 		movt	r2, #:upper16:1073759137
 182 0056 1278     		ldrb	r2, [r2, #0]
 183 0058 D2B2     		uxtb	r2, r2
 184 005a 42F00102 		orr	r2, r2, #1
 185 005e D2B2     		uxtb	r2, r2
 186 0060 1A70     		strb	r2, [r3, #0]
ARM GAS  C:\Users\Geo\AppData\Local\Temp\ccJcx0AO.s 			page 7


 153:.\Generated_Source\PSoC5/AdcSar.c ****         AdcSar_STBY_PWRMGR_CLK_REG |= AdcSar_STBY_PWR_CLK_EN;
 187              		.loc 1 153 0
 188 0062 44F2B133 		movw	r3, #:lower16:1073759153
 189 0066 C4F20003 		movt	r3, #:upper16:1073759153
 190 006a 44F2B132 		movw	r2, #:lower16:1073759153
 191 006e C4F20002 		movt	r2, #:upper16:1073759153
 192 0072 1278     		ldrb	r2, [r2, #0]
 193 0074 D2B2     		uxtb	r2, r2
 194 0076 42F00102 		orr	r2, r2, #1
 195 007a D2B2     		uxtb	r2, r2
 196 007c 1A70     		strb	r2, [r3, #0]
 154:.\Generated_Source\PSoC5/AdcSar.c ****     #endif /* End AdcSar_DEFAULT_INTERNAL_CLK */
 155:.\Generated_Source\PSoC5/AdcSar.c **** 
 156:.\Generated_Source\PSoC5/AdcSar.c ****     /*Sets input range of the ADC*/
 157:.\Generated_Source\PSoC5/AdcSar.c ****     #if(AdcSar_DEFAULT_RANGE == AdcSar__VSS_TO_VREF)
 158:.\Generated_Source\PSoC5/AdcSar.c ****         AdcSar_SetRef(AdcSar_DEFAULT_RANGE);
 159:.\Generated_Source\PSoC5/AdcSar.c ****     #elif(AdcSar_DEFAULT_RANGE == AdcSar__VSSA_TO_VDDA)
 160:.\Generated_Source\PSoC5/AdcSar.c ****         AdcSar_SAR_CSR3_REG = AdcSar_SAR_EN_RESVDA_EN;     /* Set bit for VDD/2 mode */
 197              		.loc 1 160 0
 198 007e 45F60313 		movw	r3, #:lower16:1073764611
 199 0082 C4F20003 		movt	r3, #:upper16:1073764611
 200 0086 4FF04002 		mov	r2, #64
 201 008a 1A70     		strb	r2, [r3, #0]
 161:.\Generated_Source\PSoC5/AdcSar.c ****         AdcSar_SetRef(AdcSar__VSSA_TO_VDDA);
 202              		.loc 1 161 0
 203 008c 4FF00100 		mov	r0, #1
 204 0090 FFF7FEFF 		bl	AdcSar_SetRef
 162:.\Generated_Source\PSoC5/AdcSar.c ****     #elif(AdcSar_DEFAULT_RANGE == AdcSar__VSSA_TO_VDAC)
 163:.\Generated_Source\PSoC5/AdcSar.c ****         AdcSar_SetRef(AdcSar_DEFAULT_RANGE);
 164:.\Generated_Source\PSoC5/AdcSar.c ****     #elif(AdcSar_DEFAULT_RANGE == AdcSar__VNEG_VREF_DIFF)
 165:.\Generated_Source\PSoC5/AdcSar.c ****         AdcSar_SAR_CSR3_REG = AdcSar_SAR_EN_CP_EN;         /* Enable charge pump*/
 166:.\Generated_Source\PSoC5/AdcSar.c ****         AdcSar_SetRef(AdcSar_DEFAULT_RANGE);
 167:.\Generated_Source\PSoC5/AdcSar.c ****     #elif(AdcSar_DEFAULT_RANGE == AdcSar__VNEG_VDDA_DIFF)
 168:.\Generated_Source\PSoC5/AdcSar.c ****         AdcSar_SAR_CSR3_REG = AdcSar_SAR_EN_CP_EN;         /* Enable charge pump*/
 169:.\Generated_Source\PSoC5/AdcSar.c ****         AdcSar_SetRef(AdcSar__VSSA_TO_VDDA);
 170:.\Generated_Source\PSoC5/AdcSar.c ****     #elif(AdcSar_DEFAULT_RANGE == AdcSar__VNEG_VDDA_2_DIFF)
 171:.\Generated_Source\PSoC5/AdcSar.c ****         AdcSar_SAR_CSR3_REG = AdcSar_SAR_EN_RESVDA_EN |    /* Set bit for VDD/2 mode*/
 172:.\Generated_Source\PSoC5/AdcSar.c ****                                         AdcSar_SAR_EN_CP_EN;         /* Enable charge pump*/
 173:.\Generated_Source\PSoC5/AdcSar.c ****         AdcSar_SetRef(AdcSar__VSSA_TO_VDDA);
 174:.\Generated_Source\PSoC5/AdcSar.c ****     #elif(AdcSar_DEFAULT_RANGE == AdcSar__VNEG_VDAC_DIFF)
 175:.\Generated_Source\PSoC5/AdcSar.c ****         AdcSar_SetRef(AdcSar_DEFAULT_RANGE);
 176:.\Generated_Source\PSoC5/AdcSar.c ****     #endif /* end AdcSar_DEFAULT_RANGE */
 177:.\Generated_Source\PSoC5/AdcSar.c **** 
 178:.\Generated_Source\PSoC5/AdcSar.c ****     /* Set default power */
 179:.\Generated_Source\PSoC5/AdcSar.c ****     tmpReg = (AdcSar_DEFAULT_POWER << AdcSar_SAR_POWER_SHIFT);
 205              		.loc 1 179 0
 206 0094 6FF03F03 		mvn	r3, #63
 207 0098 BB71     		strb	r3, [r7, #6]
 180:.\Generated_Source\PSoC5/AdcSar.c ****     /* Clear DAC value at beginning of sampling when internal reference used */
 181:.\Generated_Source\PSoC5/AdcSar.c ****     #if(AdcSar_DEFAULT_REFERENCE != AdcSar__EXT_REF)
 182:.\Generated_Source\PSoC5/AdcSar.c ****         tmpReg |= AdcSar_SAR_HIZ_CLEAR;
 208              		.loc 1 182 0
 209 009a BB79     		ldrb	r3, [r7, #6]
 210 009c 43F00803 		orr	r3, r3, #8
 211 00a0 BB71     		strb	r3, [r7, #6]
 183:.\Generated_Source\PSoC5/AdcSar.c ****     #endif /* End AdcSar_DEFAULT_REFERENCE != AdcSar__EXT_REF */    
 184:.\Generated_Source\PSoC5/AdcSar.c ****     /*Set Convertion mode */
ARM GAS  C:\Users\Geo\AppData\Local\Temp\ccJcx0AO.s 			page 8


 185:.\Generated_Source\PSoC5/AdcSar.c ****     #if(AdcSar_DEFAULT_CONV_MODE == AdcSar__TRIGGERED)      /* If triggered mode */
 186:.\Generated_Source\PSoC5/AdcSar.c ****         tmpReg |= AdcSar_SAR_MX_SOF_UDB |          /* source: UDB */
 187:.\Generated_Source\PSoC5/AdcSar.c ****                   AdcSar_SAR_SOF_MODE_EDGE;        /* Set edge-sensitive sof source */
 188:.\Generated_Source\PSoC5/AdcSar.c ****     #endif /* AdcSar_DEFAULT_CONV_MODE */
 189:.\Generated_Source\PSoC5/AdcSar.c ****     AdcSar_SAR_CSR0_REG = tmpReg;
 212              		.loc 1 189 0
 213 00a2 45F60013 		movw	r3, #:lower16:1073764608
 214 00a6 C4F20003 		movt	r3, #:upper16:1073764608
 215 00aa BA79     		ldrb	r2, [r7, #6]
 216 00ac 1A70     		strb	r2, [r3, #0]
 190:.\Generated_Source\PSoC5/AdcSar.c **** 
 191:.\Generated_Source\PSoC5/AdcSar.c ****     /* Enable clock for SAR ADC*/
 192:.\Generated_Source\PSoC5/AdcSar.c ****     AdcSar_SAR_CLK_REG |= AdcSar_SAR_MX_CLK_EN;
 217              		.loc 1 192 0
 218 00ae 45F62733 		movw	r3, #:lower16:1073765159
 219 00b2 C4F20003 		movt	r3, #:upper16:1073765159
 220 00b6 45F62732 		movw	r2, #:lower16:1073765159
 221 00ba C4F20002 		movt	r2, #:upper16:1073765159
 222 00be 1278     		ldrb	r2, [r2, #0]
 223 00c0 D2B2     		uxtb	r2, r2
 224 00c2 42F00802 		orr	r2, r2, #8
 225 00c6 D2B2     		uxtb	r2, r2
 226 00c8 1A70     		strb	r2, [r3, #0]
 193:.\Generated_Source\PSoC5/AdcSar.c ****    
 194:.\Generated_Source\PSoC5/AdcSar.c ****     #if(CY_PSOC5_ES1)
 195:.\Generated_Source\PSoC5/AdcSar.c ****         /* Software Reset */
 196:.\Generated_Source\PSoC5/AdcSar.c ****         AdcSar_SAR_CSR0_REG |= AdcSar_SAR_RESET_SOFT_ACTIVE;
 227              		.loc 1 196 0
 228 00ca 45F60013 		movw	r3, #:lower16:1073764608
 229 00ce C4F20003 		movt	r3, #:upper16:1073764608
 230 00d2 45F60012 		movw	r2, #:lower16:1073764608
 231 00d6 C4F20002 		movt	r2, #:upper16:1073764608
 232 00da 1278     		ldrb	r2, [r2, #0]
 233 00dc D2B2     		uxtb	r2, r2
 234 00de 42F02002 		orr	r2, r2, #32
 235 00e2 D2B2     		uxtb	r2, r2
 236 00e4 1A70     		strb	r2, [r3, #0]
 197:.\Generated_Source\PSoC5/AdcSar.c ****         CyDelayUs(2); /* 2us delay is required for the lowest 1Mhz clock connected to SAR */
 237              		.loc 1 197 0
 238 00e6 4FF00200 		mov	r0, #2
 239 00ea FFF7FEFF 		bl	CyDelayUs
 198:.\Generated_Source\PSoC5/AdcSar.c ****         AdcSar_SAR_CSR0_REG &= ~AdcSar_SAR_RESET_SOFT_ACTIVE;
 240              		.loc 1 198 0
 241 00ee 45F60013 		movw	r3, #:lower16:1073764608
 242 00f2 C4F20003 		movt	r3, #:upper16:1073764608
 243 00f6 45F60012 		movw	r2, #:lower16:1073764608
 244 00fa C4F20002 		movt	r2, #:upper16:1073764608
 245 00fe 1278     		ldrb	r2, [r2, #0]
 246 0100 D2B2     		uxtb	r2, r2
 247 0102 02F0DF02 		and	r2, r2, #223
 248 0106 1A70     		strb	r2, [r3, #0]
 199:.\Generated_Source\PSoC5/AdcSar.c ****     #endif /* End CY_PSOC5_ES1 */
 200:.\Generated_Source\PSoC5/AdcSar.c **** 
 201:.\Generated_Source\PSoC5/AdcSar.c ****     /* Clear a pending interrupt */
 202:.\Generated_Source\PSoC5/AdcSar.c ****     CyIntClearPending(AdcSar_INTC_NUMBER);
 249              		.loc 1 202 0
 250 0108 4FF00C00 		mov	r0, #12
ARM GAS  C:\Users\Geo\AppData\Local\Temp\ccJcx0AO.s 			page 9


 251 010c FFF7FEFF 		bl	CyIntClearPending
 203:.\Generated_Source\PSoC5/AdcSar.c ****     
 204:.\Generated_Source\PSoC5/AdcSar.c ****     CyExitCriticalSection(enableInterrupts);
 252              		.loc 1 204 0
 253 0110 FB79     		ldrb	r3, [r7, #7]	@ zero_extendqisi2
 254 0112 1846     		mov	r0, r3
 255 0114 FFF7FEFF 		bl	CyExitCriticalSection
 205:.\Generated_Source\PSoC5/AdcSar.c **** }
 256              		.loc 1 205 0
 257 0118 07F10807 		add	r7, r7, #8
 258 011c BD46     		mov	sp, r7
 259 011e 80BD     		pop	{r7, pc}
 260              		.cfi_endproc
 261              	.LFE2:
 262              		.size	AdcSar_Enable, .-AdcSar_Enable
 263              		.section	.text.AdcSar_SetRef,"ax",%progbits
 264              		.align	2
 265              		.global	AdcSar_SetRef
 266              		.thumb
 267              		.thumb_func
 268              		.type	AdcSar_SetRef, %function
 269              	AdcSar_SetRef:
 270              	.LFB3:
 206:.\Generated_Source\PSoC5/AdcSar.c **** 
 207:.\Generated_Source\PSoC5/AdcSar.c **** 
 208:.\Generated_Source\PSoC5/AdcSar.c **** /*******************************************************************************
 209:.\Generated_Source\PSoC5/AdcSar.c **** * Function Name: AdcSar_SetRef
 210:.\Generated_Source\PSoC5/AdcSar.c **** ********************************************************************************
 211:.\Generated_Source\PSoC5/AdcSar.c **** *
 212:.\Generated_Source\PSoC5/AdcSar.c **** * Summary:
 213:.\Generated_Source\PSoC5/AdcSar.c **** *   Sets reference for ADC
 214:.\Generated_Source\PSoC5/AdcSar.c **** *
 215:.\Generated_Source\PSoC5/AdcSar.c **** * Parameters:
 216:.\Generated_Source\PSoC5/AdcSar.c **** *  refMode: Reference configuration.
 217:.\Generated_Source\PSoC5/AdcSar.c **** *
 218:.\Generated_Source\PSoC5/AdcSar.c **** * Return:
 219:.\Generated_Source\PSoC5/AdcSar.c **** *  None.
 220:.\Generated_Source\PSoC5/AdcSar.c **** *
 221:.\Generated_Source\PSoC5/AdcSar.c **** *******************************************************************************/
 222:.\Generated_Source\PSoC5/AdcSar.c **** void AdcSar_SetRef(int8 refMode)
 223:.\Generated_Source\PSoC5/AdcSar.c **** {
 271              		.loc 1 223 0
 272              		.cfi_startproc
 273              		@ args = 0, pretend = 0, frame = 16
 274              		@ frame_needed = 1, uses_anonymous_args = 0
 275              		@ link register save eliminated.
 276 0000 80B4     		push	{r7}
 277              	.LCFI7:
 278              		.cfi_def_cfa_offset 4
 279 0002 85B0     		sub	sp, sp, #20
 280              	.LCFI8:
 281              		.cfi_def_cfa_offset 24
 282 0004 00AF     		add	r7, sp, #0
 283              		.cfi_offset 7, -4
 284              	.LCFI9:
 285              		.cfi_def_cfa_register 7
 286 0006 0346     		mov	r3, r0
ARM GAS  C:\Users\Geo\AppData\Local\Temp\ccJcx0AO.s 			page 10


 287 0008 FB71     		strb	r3, [r7, #7]
 224:.\Generated_Source\PSoC5/AdcSar.c ****     uint8 tmpReg;
 225:.\Generated_Source\PSoC5/AdcSar.c ****     if(refMode == AdcSar__VSSA_TO_VDDA)
 288              		.loc 1 225 0
 289 000a 97F90730 		ldrsb	r3, [r7, #7]
 290 000e 012B     		cmp	r3, #1
 291 0010 11D1     		bne	.L9
 226:.\Generated_Source\PSoC5/AdcSar.c ****     {
 227:.\Generated_Source\PSoC5/AdcSar.c ****         #if(AdcSar_DEFAULT_REFERENCE == AdcSar__INT_REF_NOT_BYPASSED)
 228:.\Generated_Source\PSoC5/AdcSar.c ****             tmpReg = AdcSar_SAR_REF_S3_LSB_EN | AdcSar_SAR_REF_S4_LSB_EN;
 292              		.loc 1 228 0
 293 0012 4FF01803 		mov	r3, #24
 294 0016 FB73     		strb	r3, [r7, #15]
 229:.\Generated_Source\PSoC5/AdcSar.c ****             AdcSar_SAR_CSR3_REG |= AdcSar_SAR_EN_BUF_VREF_EN; /* Enable Int Ref Amp*/
 295              		.loc 1 229 0
 296 0018 45F60313 		movw	r3, #:lower16:1073764611
 297 001c C4F20003 		movt	r3, #:upper16:1073764611
 298 0020 45F60312 		movw	r2, #:lower16:1073764611
 299 0024 C4F20002 		movt	r2, #:upper16:1073764611
 300 0028 1278     		ldrb	r2, [r2, #0]
 301 002a D2B2     		uxtb	r2, r2
 302 002c 42F00102 		orr	r2, r2, #1
 303 0030 D2B2     		uxtb	r2, r2
 304 0032 1A70     		strb	r2, [r3, #0]
 305 0034 10E0     		b	.L10
 306              	.L9:
 230:.\Generated_Source\PSoC5/AdcSar.c ****         #elif(AdcSar_DEFAULT_REFERENCE == AdcSar__INT_REF_BYPASS)
 231:.\Generated_Source\PSoC5/AdcSar.c ****             tmpReg = AdcSar_SAR_REF_S2_LSB_EN | AdcSar_SAR_REF_S3_LSB_EN | 
 232:.\Generated_Source\PSoC5/AdcSar.c ****                      AdcSar_SAR_REF_S4_LSB_EN;
 233:.\Generated_Source\PSoC5/AdcSar.c ****             AdcSar_SAR_CSR3_REG |= AdcSar_SAR_EN_BUF_VREF_EN; /* Enable Int Ref Amp*/
 234:.\Generated_Source\PSoC5/AdcSar.c ****         #elif(AdcSar_DEFAULT_REFERENCE == AdcSar__EXT_REF)
 235:.\Generated_Source\PSoC5/AdcSar.c ****             tmpReg = AdcSar_SAR_REF_S2_LSB_EN;
 236:.\Generated_Source\PSoC5/AdcSar.c ****             AdcSar_SAR_CSR3_REG &= ~AdcSar_SAR_EN_BUF_VREF_EN; /* Disable Int Ref Amp*/
 237:.\Generated_Source\PSoC5/AdcSar.c ****         #endif /*  End AdcSar_DEFAULT_REFERENCE */
 238:.\Generated_Source\PSoC5/AdcSar.c ****     }
 239:.\Generated_Source\PSoC5/AdcSar.c ****     else
 240:.\Generated_Source\PSoC5/AdcSar.c ****     {
 241:.\Generated_Source\PSoC5/AdcSar.c ****         #if(AdcSar_DEFAULT_REFERENCE == AdcSar__INT_REF_NOT_BYPASSED)
 242:.\Generated_Source\PSoC5/AdcSar.c ****             tmpReg = AdcSar_SAR_REF_S3_LSB_EN | AdcSar_SAR_REF_S4_LSB_EN;
 307              		.loc 1 242 0
 308 0036 4FF01803 		mov	r3, #24
 309 003a FB73     		strb	r3, [r7, #15]
 243:.\Generated_Source\PSoC5/AdcSar.c ****             AdcSar_SAR_CSR3_REG |= AdcSar_SAR_EN_BUF_VREF_EN; /* Enable Int Ref Amp*/
 310              		.loc 1 243 0
 311 003c 45F60313 		movw	r3, #:lower16:1073764611
 312 0040 C4F20003 		movt	r3, #:upper16:1073764611
 313 0044 45F60312 		movw	r2, #:lower16:1073764611
 314 0048 C4F20002 		movt	r2, #:upper16:1073764611
 315 004c 1278     		ldrb	r2, [r2, #0]
 316 004e D2B2     		uxtb	r2, r2
 317 0050 42F00102 		orr	r2, r2, #1
 318 0054 D2B2     		uxtb	r2, r2
 319 0056 1A70     		strb	r2, [r3, #0]
 320              	.L10:
 244:.\Generated_Source\PSoC5/AdcSar.c ****         #elif(AdcSar_DEFAULT_REFERENCE == AdcSar__INT_REF_BYPASS)
 245:.\Generated_Source\PSoC5/AdcSar.c ****             tmpReg = AdcSar_SAR_REF_S2_LSB_EN | AdcSar_SAR_REF_S3_LSB_EN | 
 246:.\Generated_Source\PSoC5/AdcSar.c ****                      AdcSar_SAR_REF_S4_LSB_EN;
ARM GAS  C:\Users\Geo\AppData\Local\Temp\ccJcx0AO.s 			page 11


 247:.\Generated_Source\PSoC5/AdcSar.c ****             AdcSar_SAR_CSR3_REG |= AdcSar_SAR_EN_BUF_VREF_EN; /* Enable Int Ref Amp*/
 248:.\Generated_Source\PSoC5/AdcSar.c ****         #elif(AdcSar_DEFAULT_REFERENCE == AdcSar__EXT_REF)
 249:.\Generated_Source\PSoC5/AdcSar.c ****             tmpReg = AdcSar_SAR_REF_S2_LSB_EN;
 250:.\Generated_Source\PSoC5/AdcSar.c ****             AdcSar_SAR_CSR3_REG &= ~AdcSar_SAR_EN_BUF_VREF_EN; /* Disable Int Ref Amp*/
 251:.\Generated_Source\PSoC5/AdcSar.c ****         #endif /*  End AdcSar_DEFAULT_REFERENCE */
 252:.\Generated_Source\PSoC5/AdcSar.c ****     }
 253:.\Generated_Source\PSoC5/AdcSar.c ****     AdcSar_SAR_CSR6_REG = tmpReg;
 321              		.loc 1 253 0
 322 0058 45F60613 		movw	r3, #:lower16:1073764614
 323 005c C4F20003 		movt	r3, #:upper16:1073764614
 324 0060 FA7B     		ldrb	r2, [r7, #15]
 325 0062 1A70     		strb	r2, [r3, #0]
 254:.\Generated_Source\PSoC5/AdcSar.c ****     AdcSar_SAR_CSR7_REG = AdcSar_SAR_REF_S_MSB_DIS;
 326              		.loc 1 254 0
 327 0064 45F60713 		movw	r3, #:lower16:1073764615
 328 0068 C4F20003 		movt	r3, #:upper16:1073764615
 329 006c 4FF00002 		mov	r2, #0
 330 0070 1A70     		strb	r2, [r3, #0]
 255:.\Generated_Source\PSoC5/AdcSar.c **** }
 331              		.loc 1 255 0
 332 0072 07F11407 		add	r7, r7, #20
 333 0076 BD46     		mov	sp, r7
 334 0078 80BC     		pop	{r7}
 335 007a 7047     		bx	lr
 336              		.cfi_endproc
 337              	.LFE3:
 338              		.size	AdcSar_SetRef, .-AdcSar_SetRef
 339              		.section	.text.AdcSar_Stop,"ax",%progbits
 340              		.align	2
 341              		.global	AdcSar_Stop
 342              		.thumb
 343              		.thumb_func
 344              		.type	AdcSar_Stop, %function
 345              	AdcSar_Stop:
 346              	.LFB4:
 256:.\Generated_Source\PSoC5/AdcSar.c **** 
 257:.\Generated_Source\PSoC5/AdcSar.c **** 
 258:.\Generated_Source\PSoC5/AdcSar.c **** /*******************************************************************************
 259:.\Generated_Source\PSoC5/AdcSar.c **** * Function Name: AdcSar_Stop
 260:.\Generated_Source\PSoC5/AdcSar.c **** ********************************************************************************
 261:.\Generated_Source\PSoC5/AdcSar.c **** *
 262:.\Generated_Source\PSoC5/AdcSar.c **** * Summary:
 263:.\Generated_Source\PSoC5/AdcSar.c **** *  Stops convertion and reduce the power to the minimum.
 264:.\Generated_Source\PSoC5/AdcSar.c **** *
 265:.\Generated_Source\PSoC5/AdcSar.c **** * Parameters:
 266:.\Generated_Source\PSoC5/AdcSar.c **** *  None.
 267:.\Generated_Source\PSoC5/AdcSar.c **** *
 268:.\Generated_Source\PSoC5/AdcSar.c **** * Return:
 269:.\Generated_Source\PSoC5/AdcSar.c **** *  None.
 270:.\Generated_Source\PSoC5/AdcSar.c **** *
 271:.\Generated_Source\PSoC5/AdcSar.c **** *******************************************************************************/
 272:.\Generated_Source\PSoC5/AdcSar.c **** void AdcSar_Stop(void)
 273:.\Generated_Source\PSoC5/AdcSar.c **** {
 347              		.loc 1 273 0
 348              		.cfi_startproc
 349              		@ args = 0, pretend = 0, frame = 8
 350              		@ frame_needed = 1, uses_anonymous_args = 0
ARM GAS  C:\Users\Geo\AppData\Local\Temp\ccJcx0AO.s 			page 12


 351 0000 80B5     		push	{r7, lr}
 352              	.LCFI10:
 353              		.cfi_def_cfa_offset 8
 354 0002 82B0     		sub	sp, sp, #8
 355              	.LCFI11:
 356              		.cfi_def_cfa_offset 16
 357 0004 00AF     		add	r7, sp, #0
 358              		.cfi_offset 14, -4
 359              		.cfi_offset 7, -8
 360              	.LCFI12:
 361              		.cfi_def_cfa_register 7
 274:.\Generated_Source\PSoC5/AdcSar.c ****     uint8 enableInterrupts;
 275:.\Generated_Source\PSoC5/AdcSar.c ****     enableInterrupts = CyEnterCriticalSection();
 362              		.loc 1 275 0
 363 0006 FFF7FEFF 		bl	CyEnterCriticalSection
 364 000a 0346     		mov	r3, r0
 365 000c FB71     		strb	r3, [r7, #7]
 276:.\Generated_Source\PSoC5/AdcSar.c **** 
 277:.\Generated_Source\PSoC5/AdcSar.c ****     /* Stop all conversions */
 278:.\Generated_Source\PSoC5/AdcSar.c ****     AdcSar_SAR_CSR0_REG &= ~AdcSar_SAR_SOF_START_CONV;
 366              		.loc 1 278 0
 367 000e 45F60013 		movw	r3, #:lower16:1073764608
 368 0012 C4F20003 		movt	r3, #:upper16:1073764608
 369 0016 45F60012 		movw	r2, #:lower16:1073764608
 370 001a C4F20002 		movt	r2, #:upper16:1073764608
 371 001e 1278     		ldrb	r2, [r2, #0]
 372 0020 D2B2     		uxtb	r2, r2
 373 0022 02F0FE02 		and	r2, r2, #254
 374 0026 1A70     		strb	r2, [r3, #0]
 279:.\Generated_Source\PSoC5/AdcSar.c ****     
 280:.\Generated_Source\PSoC5/AdcSar.c ****     #if(CY_PSOC5_ES1)
 281:.\Generated_Source\PSoC5/AdcSar.c ****         /* Leave the SAR block powered and reduce the power to the minimum */
 282:.\Generated_Source\PSoC5/AdcSar.c ****         AdcSar_SAR_CSR0_REG |= AdcSar_ICONT_LV_3;
 375              		.loc 1 282 0
 376 0028 45F60013 		movw	r3, #:lower16:1073764608
 377 002c C4F20003 		movt	r3, #:upper16:1073764608
 378 0030 45F60012 		movw	r2, #:lower16:1073764608
 379 0034 C4F20002 		movt	r2, #:upper16:1073764608
 380 0038 1278     		ldrb	r2, [r2, #0]
 381 003a D2B2     		uxtb	r2, r2
 382 003c 6FEA8262 		mvn	r2, r2, lsl #26
 383 0040 6FEA9262 		mvn	r2, r2, lsr #26
 384 0044 D2B2     		uxtb	r2, r2
 385 0046 1A70     		strb	r2, [r3, #0]
 283:.\Generated_Source\PSoC5/AdcSar.c ****         /* Disable reference buffer and reduce the reference power to the minimum */
 284:.\Generated_Source\PSoC5/AdcSar.c ****         AdcSar_SAR_CSR3_REG = AdcSar_SAR_PWR_CTRL_VREF_DIV_BY4;    
 386              		.loc 1 284 0
 387 0048 45F60313 		movw	r3, #:lower16:1073764611
 388 004c C4F20003 		movt	r3, #:upper16:1073764611
 389 0050 4FF00C02 		mov	r2, #12
 390 0054 1A70     		strb	r2, [r3, #0]
 285:.\Generated_Source\PSoC5/AdcSar.c ****     #else    
 286:.\Generated_Source\PSoC5/AdcSar.c ****         /* Disable the SAR ADC block in Active Power Mode */
 287:.\Generated_Source\PSoC5/AdcSar.c ****         AdcSar_PWRMGR_SAR_REG &= ~AdcSar_ACT_PWR_SAR_EN;
 288:.\Generated_Source\PSoC5/AdcSar.c ****         /* Disable the SAR ADC in Standby Power Mode */
 289:.\Generated_Source\PSoC5/AdcSar.c ****         AdcSar_STBY_PWRMGR_SAR_REG &= ~AdcSar_STBY_PWR_SAR_EN;
 290:.\Generated_Source\PSoC5/AdcSar.c ****         /* Disable power for reference buffer and charge pump*/
ARM GAS  C:\Users\Geo\AppData\Local\Temp\ccJcx0AO.s 			page 13


 291:.\Generated_Source\PSoC5/AdcSar.c ****         AdcSar_SAR_CSR3_REG = AdcSar_SAR_EN_BUF_VREF_DIS;    
 292:.\Generated_Source\PSoC5/AdcSar.c ****     #endif /* End CY_PSOC5_ES1 */
 293:.\Generated_Source\PSoC5/AdcSar.c ****     
 294:.\Generated_Source\PSoC5/AdcSar.c **** 
 295:.\Generated_Source\PSoC5/AdcSar.c ****     /* This is only valid if there is an internal clock */
 296:.\Generated_Source\PSoC5/AdcSar.c ****     #if(AdcSar_DEFAULT_INTERNAL_CLK)
 297:.\Generated_Source\PSoC5/AdcSar.c ****         AdcSar_PWRMGR_CLK_REG &= ~AdcSar_ACT_PWR_CLK_EN;
 391              		.loc 1 297 0
 392 0056 44F2A133 		movw	r3, #:lower16:1073759137
 393 005a C4F20003 		movt	r3, #:upper16:1073759137
 394 005e 44F2A132 		movw	r2, #:lower16:1073759137
 395 0062 C4F20002 		movt	r2, #:upper16:1073759137
 396 0066 1278     		ldrb	r2, [r2, #0]
 397 0068 D2B2     		uxtb	r2, r2
 398 006a 02F0FE02 		and	r2, r2, #254
 399 006e 1A70     		strb	r2, [r3, #0]
 298:.\Generated_Source\PSoC5/AdcSar.c ****         AdcSar_STBY_PWRMGR_CLK_REG &= ~AdcSar_STBY_PWR_CLK_EN;
 400              		.loc 1 298 0
 401 0070 44F2B133 		movw	r3, #:lower16:1073759153
 402 0074 C4F20003 		movt	r3, #:upper16:1073759153
 403 0078 44F2B132 		movw	r2, #:lower16:1073759153
 404 007c C4F20002 		movt	r2, #:upper16:1073759153
 405 0080 1278     		ldrb	r2, [r2, #0]
 406 0082 D2B2     		uxtb	r2, r2
 407 0084 02F0FE02 		and	r2, r2, #254
 408 0088 1A70     		strb	r2, [r3, #0]
 299:.\Generated_Source\PSoC5/AdcSar.c ****     #endif /* End AdcSar_DEFAULT_INTERNAL_CLK */
 300:.\Generated_Source\PSoC5/AdcSar.c **** 
 301:.\Generated_Source\PSoC5/AdcSar.c ****     CyExitCriticalSection(enableInterrupts);
 409              		.loc 1 301 0
 410 008a FB79     		ldrb	r3, [r7, #7]	@ zero_extendqisi2
 411 008c 1846     		mov	r0, r3
 412 008e FFF7FEFF 		bl	CyExitCriticalSection
 302:.\Generated_Source\PSoC5/AdcSar.c ****     
 303:.\Generated_Source\PSoC5/AdcSar.c **** }
 413              		.loc 1 303 0
 414 0092 07F10807 		add	r7, r7, #8
 415 0096 BD46     		mov	sp, r7
 416 0098 80BD     		pop	{r7, pc}
 417              		.cfi_endproc
 418              	.LFE4:
 419              		.size	AdcSar_Stop, .-AdcSar_Stop
 420 009a 00BF     		.section	.text.AdcSar_IRQ_Enable,"ax",%progbits
 421              		.align	2
 422              		.global	AdcSar_IRQ_Enable
 423              		.thumb
 424              		.thumb_func
 425              		.type	AdcSar_IRQ_Enable, %function
 426              	AdcSar_IRQ_Enable:
 427              	.LFB5:
 304:.\Generated_Source\PSoC5/AdcSar.c **** 
 305:.\Generated_Source\PSoC5/AdcSar.c **** 
 306:.\Generated_Source\PSoC5/AdcSar.c **** /*******************************************************************************
 307:.\Generated_Source\PSoC5/AdcSar.c **** * Function Name: AdcSar_IRQ_Enable
 308:.\Generated_Source\PSoC5/AdcSar.c **** ********************************************************************************
 309:.\Generated_Source\PSoC5/AdcSar.c **** * Summary:
 310:.\Generated_Source\PSoC5/AdcSar.c **** *  Enables the interrupt.
ARM GAS  C:\Users\Geo\AppData\Local\Temp\ccJcx0AO.s 			page 14


 311:.\Generated_Source\PSoC5/AdcSar.c **** *
 312:.\Generated_Source\PSoC5/AdcSar.c **** * Parameters:
 313:.\Generated_Source\PSoC5/AdcSar.c **** *  None.
 314:.\Generated_Source\PSoC5/AdcSar.c **** *
 315:.\Generated_Source\PSoC5/AdcSar.c **** * Return:
 316:.\Generated_Source\PSoC5/AdcSar.c **** *  None.
 317:.\Generated_Source\PSoC5/AdcSar.c **** *
 318:.\Generated_Source\PSoC5/AdcSar.c **** *******************************************************************************/
 319:.\Generated_Source\PSoC5/AdcSar.c **** void AdcSar_IRQ_Enable(void)
 320:.\Generated_Source\PSoC5/AdcSar.c **** {
 428              		.loc 1 320 0
 429              		.cfi_startproc
 430              		@ args = 0, pretend = 0, frame = 0
 431              		@ frame_needed = 1, uses_anonymous_args = 0
 432 0000 80B5     		push	{r7, lr}
 433              	.LCFI13:
 434              		.cfi_def_cfa_offset 8
 435 0002 00AF     		add	r7, sp, #0
 436              		.cfi_offset 14, -4
 437              		.cfi_offset 7, -8
 438              	.LCFI14:
 439              		.cfi_def_cfa_register 7
 321:.\Generated_Source\PSoC5/AdcSar.c ****     /* Enable the general interrupt. */
 322:.\Generated_Source\PSoC5/AdcSar.c ****     CyIntEnable(AdcSar_INTC_NUMBER);
 440              		.loc 1 322 0
 441 0004 4FF00C00 		mov	r0, #12
 442 0008 FFF7FEFF 		bl	CyIntEnable
 323:.\Generated_Source\PSoC5/AdcSar.c **** }
 443              		.loc 1 323 0
 444 000c 80BD     		pop	{r7, pc}
 445              		.cfi_endproc
 446              	.LFE5:
 447              		.size	AdcSar_IRQ_Enable, .-AdcSar_IRQ_Enable
 448 000e 00BF     		.section	.text.AdcSar_IRQ_Disable,"ax",%progbits
 449              		.align	2
 450              		.global	AdcSar_IRQ_Disable
 451              		.thumb
 452              		.thumb_func
 453              		.type	AdcSar_IRQ_Disable, %function
 454              	AdcSar_IRQ_Disable:
 455              	.LFB6:
 324:.\Generated_Source\PSoC5/AdcSar.c **** 
 325:.\Generated_Source\PSoC5/AdcSar.c **** 
 326:.\Generated_Source\PSoC5/AdcSar.c **** /*******************************************************************************
 327:.\Generated_Source\PSoC5/AdcSar.c **** * Function Name: AdcSar_IRQ_Disable
 328:.\Generated_Source\PSoC5/AdcSar.c **** ********************************************************************************
 329:.\Generated_Source\PSoC5/AdcSar.c **** *
 330:.\Generated_Source\PSoC5/AdcSar.c **** * Summary:
 331:.\Generated_Source\PSoC5/AdcSar.c **** *  Disables the Interrupt.
 332:.\Generated_Source\PSoC5/AdcSar.c **** *
 333:.\Generated_Source\PSoC5/AdcSar.c **** * Parameters:
 334:.\Generated_Source\PSoC5/AdcSar.c **** *  None.
 335:.\Generated_Source\PSoC5/AdcSar.c **** *
 336:.\Generated_Source\PSoC5/AdcSar.c **** * Return:
 337:.\Generated_Source\PSoC5/AdcSar.c **** *  None.
 338:.\Generated_Source\PSoC5/AdcSar.c **** *
 339:.\Generated_Source\PSoC5/AdcSar.c **** *******************************************************************************/
ARM GAS  C:\Users\Geo\AppData\Local\Temp\ccJcx0AO.s 			page 15


 340:.\Generated_Source\PSoC5/AdcSar.c **** void AdcSar_IRQ_Disable(void)
 341:.\Generated_Source\PSoC5/AdcSar.c **** {
 456              		.loc 1 341 0
 457              		.cfi_startproc
 458              		@ args = 0, pretend = 0, frame = 0
 459              		@ frame_needed = 1, uses_anonymous_args = 0
 460 0000 80B5     		push	{r7, lr}
 461              	.LCFI15:
 462              		.cfi_def_cfa_offset 8
 463 0002 00AF     		add	r7, sp, #0
 464              		.cfi_offset 14, -4
 465              		.cfi_offset 7, -8
 466              	.LCFI16:
 467              		.cfi_def_cfa_register 7
 342:.\Generated_Source\PSoC5/AdcSar.c ****     /* Disable the general interrupt. */
 343:.\Generated_Source\PSoC5/AdcSar.c ****     CyIntDisable(AdcSar_INTC_NUMBER);
 468              		.loc 1 343 0
 469 0004 4FF00C00 		mov	r0, #12
 470 0008 FFF7FEFF 		bl	CyIntDisable
 344:.\Generated_Source\PSoC5/AdcSar.c **** }
 471              		.loc 1 344 0
 472 000c 80BD     		pop	{r7, pc}
 473              		.cfi_endproc
 474              	.LFE6:
 475              		.size	AdcSar_IRQ_Disable, .-AdcSar_IRQ_Disable
 476 000e 00BF     		.section	.text.AdcSar_SetPower,"ax",%progbits
 477              		.align	2
 478              		.global	AdcSar_SetPower
 479              		.thumb
 480              		.thumb_func
 481              		.type	AdcSar_SetPower, %function
 482              	AdcSar_SetPower:
 483              	.LFB7:
 345:.\Generated_Source\PSoC5/AdcSar.c **** 
 346:.\Generated_Source\PSoC5/AdcSar.c **** 
 347:.\Generated_Source\PSoC5/AdcSar.c **** /*******************************************************************************
 348:.\Generated_Source\PSoC5/AdcSar.c **** * Function Name: AdcSar_SetPower
 349:.\Generated_Source\PSoC5/AdcSar.c **** ********************************************************************************
 350:.\Generated_Source\PSoC5/AdcSar.c **** *
 351:.\Generated_Source\PSoC5/AdcSar.c **** * Summary:
 352:.\Generated_Source\PSoC5/AdcSar.c **** *  Sets the Power mode.
 353:.\Generated_Source\PSoC5/AdcSar.c **** *
 354:.\Generated_Source\PSoC5/AdcSar.c **** * Parameters:
 355:.\Generated_Source\PSoC5/AdcSar.c **** *  power:  Power setting for ADC
 356:.\Generated_Source\PSoC5/AdcSar.c **** *  0 ->    Normal
 357:.\Generated_Source\PSoC5/AdcSar.c **** *  1 ->    Half power
 358:.\Generated_Source\PSoC5/AdcSar.c **** *  2 ->    1/3rd power
 359:.\Generated_Source\PSoC5/AdcSar.c **** *  3 ->    Quarter power.
 360:.\Generated_Source\PSoC5/AdcSar.c **** *
 361:.\Generated_Source\PSoC5/AdcSar.c **** * Return:
 362:.\Generated_Source\PSoC5/AdcSar.c **** *  None.
 363:.\Generated_Source\PSoC5/AdcSar.c **** *
 364:.\Generated_Source\PSoC5/AdcSar.c **** *******************************************************************************/
 365:.\Generated_Source\PSoC5/AdcSar.c **** void AdcSar_SetPower(uint8 power)
 366:.\Generated_Source\PSoC5/AdcSar.c **** {
 484              		.loc 1 366 0
 485              		.cfi_startproc
ARM GAS  C:\Users\Geo\AppData\Local\Temp\ccJcx0AO.s 			page 16


 486              		@ args = 0, pretend = 0, frame = 16
 487              		@ frame_needed = 1, uses_anonymous_args = 0
 488              		@ link register save eliminated.
 489 0000 80B4     		push	{r7}
 490              	.LCFI17:
 491              		.cfi_def_cfa_offset 4
 492 0002 85B0     		sub	sp, sp, #20
 493              	.LCFI18:
 494              		.cfi_def_cfa_offset 24
 495 0004 00AF     		add	r7, sp, #0
 496              		.cfi_offset 7, -4
 497              	.LCFI19:
 498              		.cfi_def_cfa_register 7
 499 0006 0346     		mov	r3, r0
 500 0008 FB71     		strb	r3, [r7, #7]
 367:.\Generated_Source\PSoC5/AdcSar.c ****     uint8 tmpReg;
 368:.\Generated_Source\PSoC5/AdcSar.c **** 
 369:.\Generated_Source\PSoC5/AdcSar.c ****     /* mask off invalid power settings */
 370:.\Generated_Source\PSoC5/AdcSar.c ****     power &= AdcSar_SAR_API_POWER_MASK;
 501              		.loc 1 370 0
 502 000a FB79     		ldrb	r3, [r7, #7]
 503 000c 03F00303 		and	r3, r3, #3
 504 0010 FB71     		strb	r3, [r7, #7]
 371:.\Generated_Source\PSoC5/AdcSar.c **** 
 372:.\Generated_Source\PSoC5/AdcSar.c ****     /* Set Power parameter  */
 373:.\Generated_Source\PSoC5/AdcSar.c ****     tmpReg = AdcSar_SAR_CSR0_REG & ~AdcSar_SAR_POWER_MASK;
 505              		.loc 1 373 0
 506 0012 45F60013 		movw	r3, #:lower16:1073764608
 507 0016 C4F20003 		movt	r3, #:upper16:1073764608
 508 001a 1B78     		ldrb	r3, [r3, #0]
 509 001c DBB2     		uxtb	r3, r3
 510 001e 03F03F03 		and	r3, r3, #63
 511 0022 FB73     		strb	r3, [r7, #15]
 374:.\Generated_Source\PSoC5/AdcSar.c ****     tmpReg |= (power << AdcSar_SAR_POWER_SHIFT);
 512              		.loc 1 374 0
 513 0024 FB79     		ldrb	r3, [r7, #7]	@ zero_extendqisi2
 514 0026 4FEA8313 		lsl	r3, r3, #6
 515 002a DAB2     		uxtb	r2, r3
 516 002c FB7B     		ldrb	r3, [r7, #15]	@ zero_extendqisi2
 517 002e 42EA0303 		orr	r3, r2, r3
 518 0032 DBB2     		uxtb	r3, r3
 519 0034 FB73     		strb	r3, [r7, #15]
 375:.\Generated_Source\PSoC5/AdcSar.c ****     AdcSar_SAR_CSR0_REG = tmpReg;
 520              		.loc 1 375 0
 521 0036 45F60013 		movw	r3, #:lower16:1073764608
 522 003a C4F20003 		movt	r3, #:upper16:1073764608
 523 003e FA7B     		ldrb	r2, [r7, #15]
 524 0040 1A70     		strb	r2, [r3, #0]
 376:.\Generated_Source\PSoC5/AdcSar.c **** }
 525              		.loc 1 376 0
 526 0042 07F11407 		add	r7, r7, #20
 527 0046 BD46     		mov	sp, r7
 528 0048 80BC     		pop	{r7}
 529 004a 7047     		bx	lr
 530              		.cfi_endproc
 531              	.LFE7:
 532              		.size	AdcSar_SetPower, .-AdcSar_SetPower
ARM GAS  C:\Users\Geo\AppData\Local\Temp\ccJcx0AO.s 			page 17


 533              		.section	.text.AdcSar_SetResolution,"ax",%progbits
 534              		.align	2
 535              		.global	AdcSar_SetResolution
 536              		.thumb
 537              		.thumb_func
 538              		.type	AdcSar_SetResolution, %function
 539              	AdcSar_SetResolution:
 540              	.LFB8:
 377:.\Generated_Source\PSoC5/AdcSar.c **** 
 378:.\Generated_Source\PSoC5/AdcSar.c **** 
 379:.\Generated_Source\PSoC5/AdcSar.c **** /*******************************************************************************
 380:.\Generated_Source\PSoC5/AdcSar.c **** * Function Name: AdcSar_SetResolution
 381:.\Generated_Source\PSoC5/AdcSar.c **** ********************************************************************************
 382:.\Generated_Source\PSoC5/AdcSar.c **** *
 383:.\Generated_Source\PSoC5/AdcSar.c **** * Summary:
 384:.\Generated_Source\PSoC5/AdcSar.c **** *  Sets the Relution of the SAR.
 385:.\Generated_Source\PSoC5/AdcSar.c **** *  This function does not affect the actual conversion with PSoC5 ES1 silicon.
 386:.\Generated_Source\PSoC5/AdcSar.c **** *
 387:.\Generated_Source\PSoC5/AdcSar.c **** * Parameters:
 388:.\Generated_Source\PSoC5/AdcSar.c **** *  resolution:
 389:.\Generated_Source\PSoC5/AdcSar.c **** *  12 ->    RES12
 390:.\Generated_Source\PSoC5/AdcSar.c **** *  10 ->    RES10
 391:.\Generated_Source\PSoC5/AdcSar.c **** *  8  ->    RES8
 392:.\Generated_Source\PSoC5/AdcSar.c **** *
 393:.\Generated_Source\PSoC5/AdcSar.c **** * Return:
 394:.\Generated_Source\PSoC5/AdcSar.c **** *  None.
 395:.\Generated_Source\PSoC5/AdcSar.c **** *
 396:.\Generated_Source\PSoC5/AdcSar.c **** * Side Effects:
 397:.\Generated_Source\PSoC5/AdcSar.c **** *  The ADC resolution cannot be changed during a conversion cycle. The recommended
 398:.\Generated_Source\PSoC5/AdcSar.c **** *  best practice is to stop conversions with ADC_StopConvert(), change the 
 399:.\Generated_Source\PSoC5/AdcSar.c **** *  resolution, then restart the conversions with ADC_StartConvert().
 400:.\Generated_Source\PSoC5/AdcSar.c **** *  If you decide not to stop conversions before calling this API, you should use 
 401:.\Generated_Source\PSoC5/AdcSar.c **** *  ADC_IsEndConversion() to wait until conversion is complete before changing the 
 402:.\Generated_Source\PSoC5/AdcSar.c **** *  resolution.
 403:.\Generated_Source\PSoC5/AdcSar.c **** *  If you call ADC_SetResolution() during a conversion, the resolution will not 
 404:.\Generated_Source\PSoC5/AdcSar.c **** *  be changed until the current conversion is complete. Data will not be available 
 405:.\Generated_Source\PSoC5/AdcSar.c **** *  in the new resolution for another 6 + New Resolution(in bits) clock cycles. 
 406:.\Generated_Source\PSoC5/AdcSar.c **** *  You may need add a delay of this number of clock cycles after ADC_SetResolution()
 407:.\Generated_Source\PSoC5/AdcSar.c **** *  is called before data is valid again.
 408:.\Generated_Source\PSoC5/AdcSar.c **** *  Affects ADC_CountsTo_Volts(), ADC_CountsTo_mVolts(), and ADC_CountsTo_uVolts() 
 409:.\Generated_Source\PSoC5/AdcSar.c **** *  by calculating the correct conversion between ADC counts and the applied input 
 410:.\Generated_Source\PSoC5/AdcSar.c **** *  voltage. Calculation depends on resolution, input range, and voltage reference.
 411:.\Generated_Source\PSoC5/AdcSar.c **** *
 412:.\Generated_Source\PSoC5/AdcSar.c **** *******************************************************************************/
 413:.\Generated_Source\PSoC5/AdcSar.c **** void AdcSar_SetResolution(uint8 resolution)
 414:.\Generated_Source\PSoC5/AdcSar.c **** {
 541              		.loc 1 414 0
 542              		.cfi_startproc
 543              		@ args = 0, pretend = 0, frame = 16
 544              		@ frame_needed = 1, uses_anonymous_args = 0
 545 0000 80B5     		push	{r7, lr}
 546              	.LCFI20:
 547              		.cfi_def_cfa_offset 8
 548 0002 84B0     		sub	sp, sp, #16
 549              	.LCFI21:
 550              		.cfi_def_cfa_offset 24
 551 0004 00AF     		add	r7, sp, #0
ARM GAS  C:\Users\Geo\AppData\Local\Temp\ccJcx0AO.s 			page 18


 552              		.cfi_offset 14, -4
 553              		.cfi_offset 7, -8
 554              	.LCFI22:
 555              		.cfi_def_cfa_register 7
 556 0006 0346     		mov	r3, r0
 557 0008 FB71     		strb	r3, [r7, #7]
 415:.\Generated_Source\PSoC5/AdcSar.c ****     uint8 tmpReg;
 416:.\Generated_Source\PSoC5/AdcSar.c **** 
 417:.\Generated_Source\PSoC5/AdcSar.c ****     /* remember resolution for the GetResult APIs */
 418:.\Generated_Source\PSoC5/AdcSar.c ****     #if(CY_PSOC5_ES1)
 419:.\Generated_Source\PSoC5/AdcSar.c ****         AdcSar_resolution = resolution;
 558              		.loc 1 419 0
 559 000a 40F20003 		movw	r3, #:lower16:AdcSar_resolution
 560 000e C0F20003 		movt	r3, #:upper16:AdcSar_resolution
 561 0012 FA79     		ldrb	r2, [r7, #7]
 562 0014 1A70     		strb	r2, [r3, #0]
 420:.\Generated_Source\PSoC5/AdcSar.c ****     #endif /* End CY_PSOC5_ES1 */
 421:.\Generated_Source\PSoC5/AdcSar.c ****     
 422:.\Generated_Source\PSoC5/AdcSar.c ****     /* Set SAR ADC resolution */
 423:.\Generated_Source\PSoC5/AdcSar.c ****     switch (resolution)
 563              		.loc 1 423 0
 564 0016 FB79     		ldrb	r3, [r7, #7]	@ zero_extendqisi2
 565 0018 0A2B     		cmp	r3, #10
 566 001a 08D0     		beq	.L23
 567 001c 0C2B     		cmp	r3, #12
 568 001e 02D0     		beq	.L24
 569 0020 082B     		cmp	r3, #8
 570 0022 08D0     		beq	.L22
 571 0024 0BE0     		b	.L27
 572              	.L24:
 424:.\Generated_Source\PSoC5/AdcSar.c ****     {
 425:.\Generated_Source\PSoC5/AdcSar.c ****         case AdcSar__BITS_12:
 426:.\Generated_Source\PSoC5/AdcSar.c ****             tmpReg = AdcSar_SAR_RESOLUTION_12BIT;
 573              		.loc 1 426 0
 574 0026 6FF03F03 		mvn	r3, #63
 575 002a FB73     		strb	r3, [r7, #15]
 427:.\Generated_Source\PSoC5/AdcSar.c ****             break;
 576              		.loc 1 427 0
 577 002c 0AE0     		b	.L25
 578              	.L23:
 428:.\Generated_Source\PSoC5/AdcSar.c ****         case AdcSar__BITS_10:
 429:.\Generated_Source\PSoC5/AdcSar.c ****             /* Use 12bits for PSoC5 production silicon and shift the 
 430:.\Generated_Source\PSoC5/AdcSar.c ****             *  results for lower resolution in GetResult16() API 
 431:.\Generated_Source\PSoC5/AdcSar.c ****             */
 432:.\Generated_Source\PSoC5/AdcSar.c ****             #if(CY_PSOC5_ES1)
 433:.\Generated_Source\PSoC5/AdcSar.c ****                 tmpReg = AdcSar_SAR_RESOLUTION_12BIT;
 579              		.loc 1 433 0
 580 002e 6FF03F03 		mvn	r3, #63
 581 0032 FB73     		strb	r3, [r7, #15]
 434:.\Generated_Source\PSoC5/AdcSar.c ****             #else    
 435:.\Generated_Source\PSoC5/AdcSar.c ****                 tmpReg = AdcSar_SAR_RESOLUTION_10BIT;
 436:.\Generated_Source\PSoC5/AdcSar.c ****             #endif /* End CY_PSOC5_ES1 */
 437:.\Generated_Source\PSoC5/AdcSar.c ****             break;
 582              		.loc 1 437 0
 583 0034 06E0     		b	.L25
 584              	.L22:
 438:.\Generated_Source\PSoC5/AdcSar.c ****         case AdcSar__BITS_8:
ARM GAS  C:\Users\Geo\AppData\Local\Temp\ccJcx0AO.s 			page 19


 439:.\Generated_Source\PSoC5/AdcSar.c ****             #if(CY_PSOC5_ES1)
 440:.\Generated_Source\PSoC5/AdcSar.c ****                 tmpReg = AdcSar_SAR_RESOLUTION_12BIT;
 585              		.loc 1 440 0
 586 0036 6FF03F03 		mvn	r3, #63
 587 003a FB73     		strb	r3, [r7, #15]
 441:.\Generated_Source\PSoC5/AdcSar.c ****             #else    
 442:.\Generated_Source\PSoC5/AdcSar.c ****                 tmpReg = AdcSar_SAR_RESOLUTION_8BIT;
 443:.\Generated_Source\PSoC5/AdcSar.c ****             #endif /* End CY_PSOC5_ES1 */
 444:.\Generated_Source\PSoC5/AdcSar.c ****             break;
 588              		.loc 1 444 0
 589 003c 02E0     		b	.L25
 590              	.L27:
 445:.\Generated_Source\PSoC5/AdcSar.c ****         default:
 446:.\Generated_Source\PSoC5/AdcSar.c ****             tmpReg = AdcSar_SAR_RESOLUTION_12BIT;
 591              		.loc 1 446 0
 592 003e 6FF03F03 		mvn	r3, #63
 593 0042 FB73     		strb	r3, [r7, #15]
 594              	.L25:
 447:.\Generated_Source\PSoC5/AdcSar.c ****             break;
 448:.\Generated_Source\PSoC5/AdcSar.c ****     }
 449:.\Generated_Source\PSoC5/AdcSar.c ****     
 450:.\Generated_Source\PSoC5/AdcSar.c ****      tmpReg |= AdcSar_SAR_SAMPLE_WIDTH;   /* 18 conversion cycles @ 12bits + 1 gap*/
 595              		.loc 1 450 0
 596 0044 FB7B     		ldrb	r3, [r7, #15]
 597 0046 43F00503 		orr	r3, r3, #5
 598 004a FB73     		strb	r3, [r7, #15]
 451:.\Generated_Source\PSoC5/AdcSar.c ****     AdcSar_SAR_CSR2_REG = tmpReg;
 599              		.loc 1 451 0
 600 004c 45F60213 		movw	r3, #:lower16:1073764610
 601 0050 C4F20003 		movt	r3, #:upper16:1073764610
 602 0054 FA7B     		ldrb	r2, [r7, #15]
 603 0056 1A70     		strb	r2, [r3, #0]
 452:.\Generated_Source\PSoC5/AdcSar.c ****     
 453:.\Generated_Source\PSoC5/AdcSar.c ****      /* Calculate gain for convert counts to volts */
 454:.\Generated_Source\PSoC5/AdcSar.c ****     AdcSar_CalcGain(resolution);
 604              		.loc 1 454 0
 605 0058 FB79     		ldrb	r3, [r7, #7]	@ zero_extendqisi2
 606 005a 1846     		mov	r0, r3
 607 005c FFF7FEFF 		bl	AdcSar_CalcGain
 455:.\Generated_Source\PSoC5/AdcSar.c **** }
 608              		.loc 1 455 0
 609 0060 07F11007 		add	r7, r7, #16
 610 0064 BD46     		mov	sp, r7
 611 0066 80BD     		pop	{r7, pc}
 612              		.cfi_endproc
 613              	.LFE8:
 614              		.size	AdcSar_SetResolution, .-AdcSar_SetResolution
 615              		.section	.text.AdcSar_StartConvert,"ax",%progbits
 616              		.align	2
 617              		.global	AdcSar_StartConvert
 618              		.thumb
 619              		.thumb_func
 620              		.type	AdcSar_StartConvert, %function
 621              	AdcSar_StartConvert:
 622              	.LFB9:
 456:.\Generated_Source\PSoC5/AdcSar.c **** 
 457:.\Generated_Source\PSoC5/AdcSar.c **** 
ARM GAS  C:\Users\Geo\AppData\Local\Temp\ccJcx0AO.s 			page 20


 458:.\Generated_Source\PSoC5/AdcSar.c **** /*******************************************************************************
 459:.\Generated_Source\PSoC5/AdcSar.c **** * Function Name: AdcSar_StartConvert
 460:.\Generated_Source\PSoC5/AdcSar.c **** ********************************************************************************
 461:.\Generated_Source\PSoC5/AdcSar.c **** *
 462:.\Generated_Source\PSoC5/AdcSar.c **** * Summary:
 463:.\Generated_Source\PSoC5/AdcSar.c **** *  Starts ADC conversion using the given mode.
 464:.\Generated_Source\PSoC5/AdcSar.c **** *
 465:.\Generated_Source\PSoC5/AdcSar.c **** * Parameters:
 466:.\Generated_Source\PSoC5/AdcSar.c **** *  None.
 467:.\Generated_Source\PSoC5/AdcSar.c **** *
 468:.\Generated_Source\PSoC5/AdcSar.c **** * Return:
 469:.\Generated_Source\PSoC5/AdcSar.c **** *  None.
 470:.\Generated_Source\PSoC5/AdcSar.c **** *
 471:.\Generated_Source\PSoC5/AdcSar.c **** * Theory:
 472:.\Generated_Source\PSoC5/AdcSar.c **** *  Forces the ADC to initiate a conversion. In Free Running mode, the ADC will 
 473:.\Generated_Source\PSoC5/AdcSar.c **** *  run continuously. In a triggered mode the function also acts as a software
 474:.\Generated_Source\PSoC5/AdcSar.c **** *  version of the SOC. Here every conversion has to be triggered by the routine. 
 475:.\Generated_Source\PSoC5/AdcSar.c **** *  This writes into the SOC bit in SAR_CTRL reg.
 476:.\Generated_Source\PSoC5/AdcSar.c **** *
 477:.\Generated_Source\PSoC5/AdcSar.c **** * Side Effects:
 478:.\Generated_Source\PSoC5/AdcSar.c **** *  In a triggered mode the function switches source for SOF from the external 
 479:.\Generated_Source\PSoC5/AdcSar.c **** *  pin to the internal SOF generation. Application should not call StartConvert
 480:.\Generated_Source\PSoC5/AdcSar.c **** *  if external source used for SOF.
 481:.\Generated_Source\PSoC5/AdcSar.c **** *******************************************************************************/
 482:.\Generated_Source\PSoC5/AdcSar.c **** void AdcSar_StartConvert(void)
 483:.\Generated_Source\PSoC5/AdcSar.c **** {
 623              		.loc 1 483 0
 624              		.cfi_startproc
 625              		@ args = 0, pretend = 0, frame = 0
 626              		@ frame_needed = 1, uses_anonymous_args = 0
 627              		@ link register save eliminated.
 628 0000 80B4     		push	{r7}
 629              	.LCFI23:
 630              		.cfi_def_cfa_offset 4
 631 0002 00AF     		add	r7, sp, #0
 632              		.cfi_offset 7, -4
 633              	.LCFI24:
 634              		.cfi_def_cfa_register 7
 484:.\Generated_Source\PSoC5/AdcSar.c ****     #if(AdcSar_DEFAULT_CONV_MODE == AdcSar__TRIGGERED)   /* If triggered mode */
 485:.\Generated_Source\PSoC5/AdcSar.c ****         AdcSar_SAR_CSR0_REG &= ~AdcSar_SAR_MX_SOF_UDB;   /* source: SOF bit */
 486:.\Generated_Source\PSoC5/AdcSar.c ****     #endif /* End AdcSar_DEFAULT_CONV_MODE */
 487:.\Generated_Source\PSoC5/AdcSar.c ****     
 488:.\Generated_Source\PSoC5/AdcSar.c ****     /* Start the conversion */
 489:.\Generated_Source\PSoC5/AdcSar.c ****     AdcSar_SAR_CSR0_REG |= AdcSar_SAR_SOF_START_CONV;
 635              		.loc 1 489 0
 636 0004 45F60013 		movw	r3, #:lower16:1073764608
 637 0008 C4F20003 		movt	r3, #:upper16:1073764608
 638 000c 45F60012 		movw	r2, #:lower16:1073764608
 639 0010 C4F20002 		movt	r2, #:upper16:1073764608
 640 0014 1278     		ldrb	r2, [r2, #0]
 641 0016 D2B2     		uxtb	r2, r2
 642 0018 42F00102 		orr	r2, r2, #1
 643 001c D2B2     		uxtb	r2, r2
 644 001e 1A70     		strb	r2, [r3, #0]
 490:.\Generated_Source\PSoC5/AdcSar.c **** }
 645              		.loc 1 490 0
 646 0020 BD46     		mov	sp, r7
ARM GAS  C:\Users\Geo\AppData\Local\Temp\ccJcx0AO.s 			page 21


 647 0022 80BC     		pop	{r7}
 648 0024 7047     		bx	lr
 649              		.cfi_endproc
 650              	.LFE9:
 651              		.size	AdcSar_StartConvert, .-AdcSar_StartConvert
 652 0026 00BF     		.section	.text.AdcSar_StopConvert,"ax",%progbits
 653              		.align	2
 654              		.global	AdcSar_StopConvert
 655              		.thumb
 656              		.thumb_func
 657              		.type	AdcSar_StopConvert, %function
 658              	AdcSar_StopConvert:
 659              	.LFB10:
 491:.\Generated_Source\PSoC5/AdcSar.c **** 
 492:.\Generated_Source\PSoC5/AdcSar.c **** 
 493:.\Generated_Source\PSoC5/AdcSar.c **** /*******************************************************************************
 494:.\Generated_Source\PSoC5/AdcSar.c **** * Function Name: AdcSar_StopConvert
 495:.\Generated_Source\PSoC5/AdcSar.c **** ********************************************************************************
 496:.\Generated_Source\PSoC5/AdcSar.c **** *
 497:.\Generated_Source\PSoC5/AdcSar.c **** * Summary:
 498:.\Generated_Source\PSoC5/AdcSar.c **** *  Stops ADC conversion using the given mode.
 499:.\Generated_Source\PSoC5/AdcSar.c **** *
 500:.\Generated_Source\PSoC5/AdcSar.c **** * Parameters:
 501:.\Generated_Source\PSoC5/AdcSar.c **** *  None.
 502:.\Generated_Source\PSoC5/AdcSar.c **** *
 503:.\Generated_Source\PSoC5/AdcSar.c **** * Return:
 504:.\Generated_Source\PSoC5/AdcSar.c **** *  None.
 505:.\Generated_Source\PSoC5/AdcSar.c **** *
 506:.\Generated_Source\PSoC5/AdcSar.c **** * Theory:
 507:.\Generated_Source\PSoC5/AdcSar.c **** *  Stops ADC conversion in Free Running mode. 
 508:.\Generated_Source\PSoC5/AdcSar.c **** *  This writes into the SOC bit in SAR_CTRL reg.
 509:.\Generated_Source\PSoC5/AdcSar.c **** *
 510:.\Generated_Source\PSoC5/AdcSar.c **** * Side Effects:
 511:.\Generated_Source\PSoC5/AdcSar.c **** *  In a triggered mode the function set a software version of the SOC to low level
 512:.\Generated_Source\PSoC5/AdcSar.c **** *  and switch SOF source to hardware SOF input.
 513:.\Generated_Source\PSoC5/AdcSar.c **** *  
 514:.\Generated_Source\PSoC5/AdcSar.c **** *******************************************************************************/
 515:.\Generated_Source\PSoC5/AdcSar.c **** void AdcSar_StopConvert(void)
 516:.\Generated_Source\PSoC5/AdcSar.c **** {
 660              		.loc 1 516 0
 661              		.cfi_startproc
 662              		@ args = 0, pretend = 0, frame = 0
 663              		@ frame_needed = 1, uses_anonymous_args = 0
 664              		@ link register save eliminated.
 665 0000 80B4     		push	{r7}
 666              	.LCFI25:
 667              		.cfi_def_cfa_offset 4
 668 0002 00AF     		add	r7, sp, #0
 669              		.cfi_offset 7, -4
 670              	.LCFI26:
 671              		.cfi_def_cfa_register 7
 517:.\Generated_Source\PSoC5/AdcSar.c ****     /* Stop all conversions */
 518:.\Generated_Source\PSoC5/AdcSar.c ****     AdcSar_SAR_CSR0_REG &= ~AdcSar_SAR_SOF_START_CONV;
 672              		.loc 1 518 0
 673 0004 45F60013 		movw	r3, #:lower16:1073764608
 674 0008 C4F20003 		movt	r3, #:upper16:1073764608
 675 000c 45F60012 		movw	r2, #:lower16:1073764608
ARM GAS  C:\Users\Geo\AppData\Local\Temp\ccJcx0AO.s 			page 22


 676 0010 C4F20002 		movt	r2, #:upper16:1073764608
 677 0014 1278     		ldrb	r2, [r2, #0]
 678 0016 D2B2     		uxtb	r2, r2
 679 0018 02F0FE02 		and	r2, r2, #254
 680 001c 1A70     		strb	r2, [r3, #0]
 519:.\Generated_Source\PSoC5/AdcSar.c **** 
 520:.\Generated_Source\PSoC5/AdcSar.c ****     #if(AdcSar_DEFAULT_CONV_MODE == AdcSar__TRIGGERED)   /* If triggered mode */
 521:.\Generated_Source\PSoC5/AdcSar.c ****         /* Return source to UDB for hardware SOF signal */
 522:.\Generated_Source\PSoC5/AdcSar.c ****         AdcSar_SAR_CSR0_REG |= AdcSar_SAR_MX_SOF_UDB;    /* source: UDB */
 523:.\Generated_Source\PSoC5/AdcSar.c ****     #endif /* End AdcSar_DEFAULT_CONV_MODE */
 524:.\Generated_Source\PSoC5/AdcSar.c ****     
 525:.\Generated_Source\PSoC5/AdcSar.c **** }
 681              		.loc 1 525 0
 682 001e BD46     		mov	sp, r7
 683 0020 80BC     		pop	{r7}
 684 0022 7047     		bx	lr
 685              		.cfi_endproc
 686              	.LFE10:
 687              		.size	AdcSar_StopConvert, .-AdcSar_StopConvert
 688              		.section	.text.AdcSar_IsEndConversion,"ax",%progbits
 689              		.align	2
 690              		.global	AdcSar_IsEndConversion
 691              		.thumb
 692              		.thumb_func
 693              		.type	AdcSar_IsEndConversion, %function
 694              	AdcSar_IsEndConversion:
 695              	.LFB11:
 526:.\Generated_Source\PSoC5/AdcSar.c **** 
 527:.\Generated_Source\PSoC5/AdcSar.c **** 
 528:.\Generated_Source\PSoC5/AdcSar.c **** /*******************************************************************************
 529:.\Generated_Source\PSoC5/AdcSar.c **** * Function Name: AdcSar_IsEndConversion
 530:.\Generated_Source\PSoC5/AdcSar.c **** ********************************************************************************
 531:.\Generated_Source\PSoC5/AdcSar.c **** *
 532:.\Generated_Source\PSoC5/AdcSar.c **** * Summary:
 533:.\Generated_Source\PSoC5/AdcSar.c **** *  Queries the ADC to see if conversion is complete
 534:.\Generated_Source\PSoC5/AdcSar.c **** *
 535:.\Generated_Source\PSoC5/AdcSar.c **** * Parameters:
 536:.\Generated_Source\PSoC5/AdcSar.c **** *  retMode:  Wait mode,
 537:.\Generated_Source\PSoC5/AdcSar.c **** *   0 if return with answer imediately.
 538:.\Generated_Source\PSoC5/AdcSar.c **** *   1 if wait until conversion is complete, then return.
 539:.\Generated_Source\PSoC5/AdcSar.c **** *
 540:.\Generated_Source\PSoC5/AdcSar.c **** * Return:
 541:.\Generated_Source\PSoC5/AdcSar.c **** *  (uint8)  0 =>  Conversion not complete.
 542:.\Generated_Source\PSoC5/AdcSar.c **** *           1 =>  Conversion complete.
 543:.\Generated_Source\PSoC5/AdcSar.c **** *
 544:.\Generated_Source\PSoC5/AdcSar.c **** *******************************************************************************/
 545:.\Generated_Source\PSoC5/AdcSar.c **** uint8 AdcSar_IsEndConversion(uint8 retMode)
 546:.\Generated_Source\PSoC5/AdcSar.c **** {
 696              		.loc 1 546 0
 697              		.cfi_startproc
 698              		@ args = 0, pretend = 0, frame = 16
 699              		@ frame_needed = 1, uses_anonymous_args = 0
 700 0000 80B5     		push	{r7, lr}
 701              	.LCFI27:
 702              		.cfi_def_cfa_offset 8
 703 0002 84B0     		sub	sp, sp, #16
 704              	.LCFI28:
ARM GAS  C:\Users\Geo\AppData\Local\Temp\ccJcx0AO.s 			page 23


 705              		.cfi_def_cfa_offset 24
 706 0004 00AF     		add	r7, sp, #0
 707              		.cfi_offset 14, -4
 708              		.cfi_offset 7, -8
 709              	.LCFI29:
 710              		.cfi_def_cfa_register 7
 711 0006 0346     		mov	r3, r0
 712 0008 FB71     		strb	r3, [r7, #7]
 713              	.L34:
 547:.\Generated_Source\PSoC5/AdcSar.c ****     uint8 status;
 548:.\Generated_Source\PSoC5/AdcSar.c **** 
 549:.\Generated_Source\PSoC5/AdcSar.c ****     do
 550:.\Generated_Source\PSoC5/AdcSar.c ****     {
 551:.\Generated_Source\PSoC5/AdcSar.c ****         status = AdcSar_SAR_CSR1_REG & AdcSar_SAR_EOF_1;
 714              		.loc 1 551 0
 715 000a 45F60113 		movw	r3, #:lower16:1073764609
 716 000e C4F20003 		movt	r3, #:upper16:1073764609
 717 0012 1B78     		ldrb	r3, [r3, #0]
 718 0014 DBB2     		uxtb	r3, r3
 719 0016 03F00103 		and	r3, r3, #1
 720 001a FB73     		strb	r3, [r7, #15]
 552:.\Generated_Source\PSoC5/AdcSar.c ****     } while ((status != AdcSar_SAR_EOF_1) && (retMode == AdcSar_WAIT_FOR_RESULT));
 721              		.loc 1 552 0
 722 001c FB7B     		ldrb	r3, [r7, #15]	@ zero_extendqisi2
 723 001e 012B     		cmp	r3, #1
 724 0020 02D0     		beq	.L33
 725 0022 FB79     		ldrb	r3, [r7, #7]	@ zero_extendqisi2
 726 0024 002B     		cmp	r3, #0
 727 0026 F0D0     		beq	.L34
 728              	.L33:
 553:.\Generated_Source\PSoC5/AdcSar.c ****     /* If convertion complete, wait until EOF bit released */
 554:.\Generated_Source\PSoC5/AdcSar.c ****     if(status == AdcSar_SAR_EOF_1)
 729              		.loc 1 554 0
 730 0028 FB7B     		ldrb	r3, [r7, #15]	@ zero_extendqisi2
 731 002a 012B     		cmp	r3, #1
 732 002c 08D1     		bne	.L35
 555:.\Generated_Source\PSoC5/AdcSar.c ****     {
 556:.\Generated_Source\PSoC5/AdcSar.c ****         /* wait one ADC clock to let the EOC status bit release */
 557:.\Generated_Source\PSoC5/AdcSar.c ****         CyDelayUs(1);
 733              		.loc 1 557 0
 734 002e 4FF00100 		mov	r0, #1
 735 0032 FFF7FEFF 		bl	CyDelayUs
 558:.\Generated_Source\PSoC5/AdcSar.c ****         /* Do the unconditional read operation of the CSR1 register to make sure the EOC bit has be
 559:.\Generated_Source\PSoC5/AdcSar.c ****         CY_GET_REG8(AdcSar_SAR_CSR1_PTR);
 736              		.loc 1 559 0
 737 0036 45F60113 		movw	r3, #:lower16:1073764609
 738 003a C4F20003 		movt	r3, #:upper16:1073764609
 739 003e 1B78     		ldrb	r3, [r3, #0]
 740              	.L35:
 560:.\Generated_Source\PSoC5/AdcSar.c ****     }    
 561:.\Generated_Source\PSoC5/AdcSar.c **** 
 562:.\Generated_Source\PSoC5/AdcSar.c ****     return(status);
 741              		.loc 1 562 0
 742 0040 FB7B     		ldrb	r3, [r7, #15]	@ zero_extendqisi2
 563:.\Generated_Source\PSoC5/AdcSar.c **** }
 743              		.loc 1 563 0
 744 0042 1846     		mov	r0, r3
ARM GAS  C:\Users\Geo\AppData\Local\Temp\ccJcx0AO.s 			page 24


 745 0044 07F11007 		add	r7, r7, #16
 746 0048 BD46     		mov	sp, r7
 747 004a 80BD     		pop	{r7, pc}
 748              		.cfi_endproc
 749              	.LFE11:
 750              		.size	AdcSar_IsEndConversion, .-AdcSar_IsEndConversion
 751              		.section	.text.AdcSar_GetResult8,"ax",%progbits
 752              		.align	2
 753              		.global	AdcSar_GetResult8
 754              		.thumb
 755              		.thumb_func
 756              		.type	AdcSar_GetResult8, %function
 757              	AdcSar_GetResult8:
 758              	.LFB12:
 564:.\Generated_Source\PSoC5/AdcSar.c **** 
 565:.\Generated_Source\PSoC5/AdcSar.c **** 
 566:.\Generated_Source\PSoC5/AdcSar.c **** /*******************************************************************************
 567:.\Generated_Source\PSoC5/AdcSar.c **** * Function Name: AdcSar_GetResult8
 568:.\Generated_Source\PSoC5/AdcSar.c **** ********************************************************************************
 569:.\Generated_Source\PSoC5/AdcSar.c **** *
 570:.\Generated_Source\PSoC5/AdcSar.c **** * Summary:
 571:.\Generated_Source\PSoC5/AdcSar.c **** *  Returns an 8-bit result or the LSB of the last conversion. 
 572:.\Generated_Source\PSoC5/AdcSar.c **** *  AdcSar_IsEndConversion() should be called to verify that the data 
 573:.\Generated_Source\PSoC5/AdcSar.c **** *   sample is ready 
 574:.\Generated_Source\PSoC5/AdcSar.c **** *
 575:.\Generated_Source\PSoC5/AdcSar.c **** * Parameters:
 576:.\Generated_Source\PSoC5/AdcSar.c **** *  None.
 577:.\Generated_Source\PSoC5/AdcSar.c **** *
 578:.\Generated_Source\PSoC5/AdcSar.c **** * Return:
 579:.\Generated_Source\PSoC5/AdcSar.c **** *  ADC result.
 580:.\Generated_Source\PSoC5/AdcSar.c **** *
 581:.\Generated_Source\PSoC5/AdcSar.c **** * Global Variables:
 582:.\Generated_Source\PSoC5/AdcSar.c **** *  AdcSar_shift - used to convert the ADC counts to the 2's 
 583:.\Generated_Source\PSoC5/AdcSar.c **** *  compliment form.
 584:.\Generated_Source\PSoC5/AdcSar.c **** *  AdcSar_resolution  used to shift the results for lower 
 585:.\Generated_Source\PSoC5/AdcSar.c **** *   resolution.
 586:.\Generated_Source\PSoC5/AdcSar.c **** *
 587:.\Generated_Source\PSoC5/AdcSar.c **** *******************************************************************************/
 588:.\Generated_Source\PSoC5/AdcSar.c **** int8 AdcSar_GetResult8( void )
 589:.\Generated_Source\PSoC5/AdcSar.c **** {
 759              		.loc 1 589 0
 760              		.cfi_startproc
 761              		@ args = 0, pretend = 0, frame = 8
 762              		@ frame_needed = 1, uses_anonymous_args = 0
 763              		@ link register save eliminated.
 764 0000 80B4     		push	{r7}
 765              	.LCFI30:
 766              		.cfi_def_cfa_offset 4
 767 0002 83B0     		sub	sp, sp, #12
 768              	.LCFI31:
 769              		.cfi_def_cfa_offset 16
 770 0004 00AF     		add	r7, sp, #0
 771              		.cfi_offset 7, -4
 772              	.LCFI32:
 773              		.cfi_def_cfa_register 7
 590:.\Generated_Source\PSoC5/AdcSar.c ****     
 591:.\Generated_Source\PSoC5/AdcSar.c ****     #if(CY_PSOC5_ES1)
ARM GAS  C:\Users\Geo\AppData\Local\Temp\ccJcx0AO.s 			page 25


 592:.\Generated_Source\PSoC5/AdcSar.c **** 
 593:.\Generated_Source\PSoC5/AdcSar.c ****         int16 res;
 594:.\Generated_Source\PSoC5/AdcSar.c **** 
 595:.\Generated_Source\PSoC5/AdcSar.c ****         res = CY_GET_REG16(AdcSar_SAR_WRK0_PTR) - AdcSar_shift;
 774              		.loc 1 595 0
 775 0006 45F6A033 		movw	r3, #:lower16:1073765280
 776 000a C4F20003 		movt	r3, #:upper16:1073765280
 777 000e 1B88     		ldrh	r3, [r3, #0]	@ movhi
 778 0010 9AB2     		uxth	r2, r3
 779 0012 40F20003 		movw	r3, #:lower16:AdcSar_shift
 780 0016 C0F20003 		movt	r3, #:upper16:AdcSar_shift
 781 001a 1B88     		ldrh	r3, [r3, #0]	@ movhi
 782 001c 9BB2     		uxth	r3, r3
 783 001e 9BB2     		uxth	r3, r3
 784 0020 C3EB0203 		rsb	r3, r3, r2
 785 0024 9BB2     		uxth	r3, r3
 786 0026 FB80     		strh	r3, [r7, #6]	@ movhi
 596:.\Generated_Source\PSoC5/AdcSar.c ****         
 597:.\Generated_Source\PSoC5/AdcSar.c ****         /* Use 12bits for PSoC5 production silicon and shift the results for lower resolution in th
 598:.\Generated_Source\PSoC5/AdcSar.c ****         if(AdcSar_resolution == AdcSar__BITS_10)
 787              		.loc 1 598 0
 788 0028 40F20003 		movw	r3, #:lower16:AdcSar_resolution
 789 002c C0F20003 		movt	r3, #:upper16:AdcSar_resolution
 790 0030 1B78     		ldrb	r3, [r3, #0]	@ zero_extendqisi2
 791 0032 0A2B     		cmp	r3, #10
 792 0034 05D1     		bne	.L38
 599:.\Generated_Source\PSoC5/AdcSar.c ****         {
 600:.\Generated_Source\PSoC5/AdcSar.c ****             res >>= 2u;
 793              		.loc 1 600 0
 794 0036 B7F90630 		ldrsh	r3, [r7, #6]
 795 003a 4FEAA303 		asr	r3, r3, #2
 796 003e FB80     		strh	r3, [r7, #6]	@ movhi
 797 0040 0BE0     		b	.L39
 798              	.L38:
 601:.\Generated_Source\PSoC5/AdcSar.c ****         }
 602:.\Generated_Source\PSoC5/AdcSar.c ****         else if(AdcSar_resolution == AdcSar__BITS_8)
 799              		.loc 1 602 0
 800 0042 40F20003 		movw	r3, #:lower16:AdcSar_resolution
 801 0046 C0F20003 		movt	r3, #:upper16:AdcSar_resolution
 802 004a 1B78     		ldrb	r3, [r3, #0]	@ zero_extendqisi2
 803 004c 082B     		cmp	r3, #8
 804 004e 04D1     		bne	.L39
 603:.\Generated_Source\PSoC5/AdcSar.c ****         {
 604:.\Generated_Source\PSoC5/AdcSar.c ****             res >>= 4u;
 805              		.loc 1 604 0
 806 0050 B7F90630 		ldrsh	r3, [r7, #6]
 807 0054 4FEA2313 		asr	r3, r3, #4
 808 0058 FB80     		strh	r3, [r7, #6]	@ movhi
 809              	.L39:
 605:.\Generated_Source\PSoC5/AdcSar.c ****         }
 606:.\Generated_Source\PSoC5/AdcSar.c ****         else    /* Do not shift for 12 bits */
 607:.\Generated_Source\PSoC5/AdcSar.c ****         {
 608:.\Generated_Source\PSoC5/AdcSar.c ****         }
 609:.\Generated_Source\PSoC5/AdcSar.c ****         return( (int8)res );
 810              		.loc 1 609 0
 811 005a FB88     		ldrh	r3, [r7, #6]	@ movhi
 812 005c DBB2     		uxtb	r3, r3
ARM GAS  C:\Users\Geo\AppData\Local\Temp\ccJcx0AO.s 			page 26


 813 005e 5BB2     		sxtb	r3, r3
 610:.\Generated_Source\PSoC5/AdcSar.c ****         
 611:.\Generated_Source\PSoC5/AdcSar.c ****     #else
 612:.\Generated_Source\PSoC5/AdcSar.c ****         return( AdcSar_SAR_WRK0_REG - (int8)AdcSar_shift);
 613:.\Generated_Source\PSoC5/AdcSar.c ****     #endif /* End CY_PSOC5_ES1 */
 614:.\Generated_Source\PSoC5/AdcSar.c **** 
 615:.\Generated_Source\PSoC5/AdcSar.c **** }
 814              		.loc 1 615 0
 815 0060 1846     		mov	r0, r3
 816 0062 07F10C07 		add	r7, r7, #12
 817 0066 BD46     		mov	sp, r7
 818 0068 80BC     		pop	{r7}
 819 006a 7047     		bx	lr
 820              		.cfi_endproc
 821              	.LFE12:
 822              		.size	AdcSar_GetResult8, .-AdcSar_GetResult8
 823              		.section	.text.AdcSar_GetResult16,"ax",%progbits
 824              		.align	2
 825              		.global	AdcSar_GetResult16
 826              		.thumb
 827              		.thumb_func
 828              		.type	AdcSar_GetResult16, %function
 829              	AdcSar_GetResult16:
 830              	.LFB13:
 616:.\Generated_Source\PSoC5/AdcSar.c **** 
 617:.\Generated_Source\PSoC5/AdcSar.c **** 
 618:.\Generated_Source\PSoC5/AdcSar.c **** /*******************************************************************************
 619:.\Generated_Source\PSoC5/AdcSar.c **** * Function Name: AdcSar_GetResult16
 620:.\Generated_Source\PSoC5/AdcSar.c **** ********************************************************************************
 621:.\Generated_Source\PSoC5/AdcSar.c **** *
 622:.\Generated_Source\PSoC5/AdcSar.c **** * Summary:
 623:.\Generated_Source\PSoC5/AdcSar.c **** *  Gets the data available in the SAR DATA registers.
 624:.\Generated_Source\PSoC5/AdcSar.c **** *  AdcSar_IsEndConversion() should be called to verify that the data 
 625:.\Generated_Source\PSoC5/AdcSar.c **** *   sample is ready 
 626:.\Generated_Source\PSoC5/AdcSar.c **** *
 627:.\Generated_Source\PSoC5/AdcSar.c **** * Parameters:
 628:.\Generated_Source\PSoC5/AdcSar.c **** *  None.
 629:.\Generated_Source\PSoC5/AdcSar.c **** *
 630:.\Generated_Source\PSoC5/AdcSar.c **** * Return:
 631:.\Generated_Source\PSoC5/AdcSar.c **** *  ADC result. WORD value which has the converted 12bits. In the differential 
 632:.\Generated_Source\PSoC5/AdcSar.c **** *  input mode the SAR ADC outputs digitally converted data in binary offset 
 633:.\Generated_Source\PSoC5/AdcSar.c **** *  scheme, this function converts the data into 2's compliment form. 
 634:.\Generated_Source\PSoC5/AdcSar.c **** *
 635:.\Generated_Source\PSoC5/AdcSar.c **** * Global Variables:
 636:.\Generated_Source\PSoC5/AdcSar.c **** *  AdcSar_shift - used to convert the ADC counts to the 2's 
 637:.\Generated_Source\PSoC5/AdcSar.c **** *  compliment form.
 638:.\Generated_Source\PSoC5/AdcSar.c **** *  AdcSar_resolution  used to shift the results for lower 
 639:.\Generated_Source\PSoC5/AdcSar.c **** *   resolution.
 640:.\Generated_Source\PSoC5/AdcSar.c **** *
 641:.\Generated_Source\PSoC5/AdcSar.c **** *******************************************************************************/
 642:.\Generated_Source\PSoC5/AdcSar.c **** int16 AdcSar_GetResult16( void )
 643:.\Generated_Source\PSoC5/AdcSar.c **** {
 831              		.loc 1 643 0
 832              		.cfi_startproc
 833              		@ args = 0, pretend = 0, frame = 8
 834              		@ frame_needed = 1, uses_anonymous_args = 0
 835              		@ link register save eliminated.
ARM GAS  C:\Users\Geo\AppData\Local\Temp\ccJcx0AO.s 			page 27


 836 0000 80B4     		push	{r7}
 837              	.LCFI33:
 838              		.cfi_def_cfa_offset 4
 839 0002 83B0     		sub	sp, sp, #12
 840              	.LCFI34:
 841              		.cfi_def_cfa_offset 16
 842 0004 00AF     		add	r7, sp, #0
 843              		.cfi_offset 7, -4
 844              	.LCFI35:
 845              		.cfi_def_cfa_register 7
 644:.\Generated_Source\PSoC5/AdcSar.c ****     int16 res;
 645:.\Generated_Source\PSoC5/AdcSar.c ****     
 646:.\Generated_Source\PSoC5/AdcSar.c ****     res = CY_GET_REG16(AdcSar_SAR_WRK0_PTR) - AdcSar_shift;
 846              		.loc 1 646 0
 847 0006 45F6A033 		movw	r3, #:lower16:1073765280
 848 000a C4F20003 		movt	r3, #:upper16:1073765280
 849 000e 1B88     		ldrh	r3, [r3, #0]	@ movhi
 850 0010 9AB2     		uxth	r2, r3
 851 0012 40F20003 		movw	r3, #:lower16:AdcSar_shift
 852 0016 C0F20003 		movt	r3, #:upper16:AdcSar_shift
 853 001a 1B88     		ldrh	r3, [r3, #0]	@ movhi
 854 001c 9BB2     		uxth	r3, r3
 855 001e 9BB2     		uxth	r3, r3
 856 0020 C3EB0203 		rsb	r3, r3, r2
 857 0024 9BB2     		uxth	r3, r3
 858 0026 FB80     		strh	r3, [r7, #6]	@ movhi
 647:.\Generated_Source\PSoC5/AdcSar.c **** 
 648:.\Generated_Source\PSoC5/AdcSar.c ****     #if(CY_PSOC5_ES1)
 649:.\Generated_Source\PSoC5/AdcSar.c ****         /* Use 12bits for PSoC5 production silicon and shift the results for lower resolution in th
 650:.\Generated_Source\PSoC5/AdcSar.c ****         if(AdcSar_resolution == AdcSar__BITS_10)
 859              		.loc 1 650 0
 860 0028 40F20003 		movw	r3, #:lower16:AdcSar_resolution
 861 002c C0F20003 		movt	r3, #:upper16:AdcSar_resolution
 862 0030 1B78     		ldrb	r3, [r3, #0]	@ zero_extendqisi2
 863 0032 0A2B     		cmp	r3, #10
 864 0034 05D1     		bne	.L42
 651:.\Generated_Source\PSoC5/AdcSar.c ****         {
 652:.\Generated_Source\PSoC5/AdcSar.c ****             res >>= 2u;
 865              		.loc 1 652 0
 866 0036 B7F90630 		ldrsh	r3, [r7, #6]
 867 003a 4FEAA303 		asr	r3, r3, #2
 868 003e FB80     		strh	r3, [r7, #6]	@ movhi
 869 0040 0BE0     		b	.L43
 870              	.L42:
 653:.\Generated_Source\PSoC5/AdcSar.c ****         }
 654:.\Generated_Source\PSoC5/AdcSar.c ****         else if(AdcSar_resolution == AdcSar__BITS_8)
 871              		.loc 1 654 0
 872 0042 40F20003 		movw	r3, #:lower16:AdcSar_resolution
 873 0046 C0F20003 		movt	r3, #:upper16:AdcSar_resolution
 874 004a 1B78     		ldrb	r3, [r3, #0]	@ zero_extendqisi2
 875 004c 082B     		cmp	r3, #8
 876 004e 04D1     		bne	.L43
 655:.\Generated_Source\PSoC5/AdcSar.c ****         {
 656:.\Generated_Source\PSoC5/AdcSar.c ****             res >>= 4u;
 877              		.loc 1 656 0
 878 0050 B7F90630 		ldrsh	r3, [r7, #6]
 879 0054 4FEA2313 		asr	r3, r3, #4
ARM GAS  C:\Users\Geo\AppData\Local\Temp\ccJcx0AO.s 			page 28


 880 0058 FB80     		strh	r3, [r7, #6]	@ movhi
 881              	.L43:
 657:.\Generated_Source\PSoC5/AdcSar.c ****         }
 658:.\Generated_Source\PSoC5/AdcSar.c ****         else    /* Do not shift for 12 bits */
 659:.\Generated_Source\PSoC5/AdcSar.c ****         {
 660:.\Generated_Source\PSoC5/AdcSar.c ****         }
 661:.\Generated_Source\PSoC5/AdcSar.c ****     #endif /* End CY_PSOC5_ES1 */
 662:.\Generated_Source\PSoC5/AdcSar.c **** 
 663:.\Generated_Source\PSoC5/AdcSar.c ****     return( res );
 882              		.loc 1 663 0
 883 005a FB88     		ldrh	r3, [r7, #6]
 884 005c 1BB2     		sxth	r3, r3
 664:.\Generated_Source\PSoC5/AdcSar.c **** }
 885              		.loc 1 664 0
 886 005e 1846     		mov	r0, r3
 887 0060 07F10C07 		add	r7, r7, #12
 888 0064 BD46     		mov	sp, r7
 889 0066 80BC     		pop	{r7}
 890 0068 7047     		bx	lr
 891              		.cfi_endproc
 892              	.LFE13:
 893              		.size	AdcSar_GetResult16, .-AdcSar_GetResult16
 894 006a 00BF     		.section	.text.AdcSar_SetOffset,"ax",%progbits
 895              		.align	2
 896              		.global	AdcSar_SetOffset
 897              		.thumb
 898              		.thumb_func
 899              		.type	AdcSar_SetOffset, %function
 900              	AdcSar_SetOffset:
 901              	.LFB14:
 665:.\Generated_Source\PSoC5/AdcSar.c **** 
 666:.\Generated_Source\PSoC5/AdcSar.c **** 
 667:.\Generated_Source\PSoC5/AdcSar.c **** /*******************************************************************************
 668:.\Generated_Source\PSoC5/AdcSar.c **** * Function Name: AdcSar_SetOffset
 669:.\Generated_Source\PSoC5/AdcSar.c **** ********************************************************************************
 670:.\Generated_Source\PSoC5/AdcSar.c **** *
 671:.\Generated_Source\PSoC5/AdcSar.c **** * Summary:
 672:.\Generated_Source\PSoC5/AdcSar.c **** *  This function sets the offset for voltage readings.
 673:.\Generated_Source\PSoC5/AdcSar.c **** *
 674:.\Generated_Source\PSoC5/AdcSar.c **** * Parameters:
 675:.\Generated_Source\PSoC5/AdcSar.c **** *  int16: Offset in counts
 676:.\Generated_Source\PSoC5/AdcSar.c **** *
 677:.\Generated_Source\PSoC5/AdcSar.c **** * Return:
 678:.\Generated_Source\PSoC5/AdcSar.c **** *  None.
 679:.\Generated_Source\PSoC5/AdcSar.c **** *
 680:.\Generated_Source\PSoC5/AdcSar.c **** * Global Variables:
 681:.\Generated_Source\PSoC5/AdcSar.c **** *  The AdcSar_offset variable modified. This variable is used for 
 682:.\Generated_Source\PSoC5/AdcSar.c **** *  offset calibration purpose. 
 683:.\Generated_Source\PSoC5/AdcSar.c **** *  Affects the AdcSar_CountsTo_Volts, 
 684:.\Generated_Source\PSoC5/AdcSar.c **** *  AdcSar_CountsTo_mVolts, AdcSar_CountsTo_uVolts functions 
 685:.\Generated_Source\PSoC5/AdcSar.c **** *  by subtracting the given offset. 
 686:.\Generated_Source\PSoC5/AdcSar.c **** *
 687:.\Generated_Source\PSoC5/AdcSar.c **** *******************************************************************************/
 688:.\Generated_Source\PSoC5/AdcSar.c **** void AdcSar_SetOffset(int16 offset)
 689:.\Generated_Source\PSoC5/AdcSar.c **** {
 902              		.loc 1 689 0
 903              		.cfi_startproc
ARM GAS  C:\Users\Geo\AppData\Local\Temp\ccJcx0AO.s 			page 29


 904              		@ args = 0, pretend = 0, frame = 8
 905              		@ frame_needed = 1, uses_anonymous_args = 0
 906              		@ link register save eliminated.
 907 0000 80B4     		push	{r7}
 908              	.LCFI36:
 909              		.cfi_def_cfa_offset 4
 910 0002 83B0     		sub	sp, sp, #12
 911              	.LCFI37:
 912              		.cfi_def_cfa_offset 16
 913 0004 00AF     		add	r7, sp, #0
 914              		.cfi_offset 7, -4
 915              	.LCFI38:
 916              		.cfi_def_cfa_register 7
 917 0006 0346     		mov	r3, r0
 918 0008 FB80     		strh	r3, [r7, #6]	@ movhi
 690:.\Generated_Source\PSoC5/AdcSar.c ****     AdcSar_offset = offset;
 919              		.loc 1 690 0
 920 000a 40F20003 		movw	r3, #:lower16:AdcSar_offset
 921 000e C0F20003 		movt	r3, #:upper16:AdcSar_offset
 922 0012 FA88     		ldrh	r2, [r7, #6]	@ movhi
 923 0014 1A80     		strh	r2, [r3, #0]	@ movhi
 691:.\Generated_Source\PSoC5/AdcSar.c **** }
 924              		.loc 1 691 0
 925 0016 07F10C07 		add	r7, r7, #12
 926 001a BD46     		mov	sp, r7
 927 001c 80BC     		pop	{r7}
 928 001e 7047     		bx	lr
 929              		.cfi_endproc
 930              	.LFE14:
 931              		.size	AdcSar_SetOffset, .-AdcSar_SetOffset
 932              		.section	.text.AdcSar_CalcGain,"ax",%progbits
 933              		.align	2
 934              		.global	AdcSar_CalcGain
 935              		.thumb
 936              		.thumb_func
 937              		.type	AdcSar_CalcGain, %function
 938              	AdcSar_CalcGain:
 939              	.LFB15:
 692:.\Generated_Source\PSoC5/AdcSar.c **** 
 693:.\Generated_Source\PSoC5/AdcSar.c **** 
 694:.\Generated_Source\PSoC5/AdcSar.c **** /*******************************************************************************
 695:.\Generated_Source\PSoC5/AdcSar.c **** * Function Name: AdcSar_CalcGain
 696:.\Generated_Source\PSoC5/AdcSar.c **** ********************************************************************************
 697:.\Generated_Source\PSoC5/AdcSar.c **** *
 698:.\Generated_Source\PSoC5/AdcSar.c **** * Summary:
 699:.\Generated_Source\PSoC5/AdcSar.c **** *  This function calculates the ADC gain in counts per volt.
 700:.\Generated_Source\PSoC5/AdcSar.c **** *
 701:.\Generated_Source\PSoC5/AdcSar.c **** * Parameters:
 702:.\Generated_Source\PSoC5/AdcSar.c **** *  uint8: resolution
 703:.\Generated_Source\PSoC5/AdcSar.c **** *
 704:.\Generated_Source\PSoC5/AdcSar.c **** * Return:
 705:.\Generated_Source\PSoC5/AdcSar.c **** *  None.
 706:.\Generated_Source\PSoC5/AdcSar.c **** *
 707:.\Generated_Source\PSoC5/AdcSar.c **** * Global Variables:
 708:.\Generated_Source\PSoC5/AdcSar.c **** *  AdcSar_shift variable initialized. This variable is used to 
 709:.\Generated_Source\PSoC5/AdcSar.c **** *  convert the ADC counts to the 2's compliment form. 
 710:.\Generated_Source\PSoC5/AdcSar.c **** *  AdcSar_countsPerVolt variable initialized. This variable is used 
ARM GAS  C:\Users\Geo\AppData\Local\Temp\ccJcx0AO.s 			page 30


 711:.\Generated_Source\PSoC5/AdcSar.c **** *  for gain calibration purpose. 
 712:.\Generated_Source\PSoC5/AdcSar.c **** *
 713:.\Generated_Source\PSoC5/AdcSar.c **** *******************************************************************************/
 714:.\Generated_Source\PSoC5/AdcSar.c **** void AdcSar_CalcGain( uint8 resolution )
 715:.\Generated_Source\PSoC5/AdcSar.c **** {
 940              		.loc 1 715 0
 941              		.cfi_startproc
 942              		@ args = 0, pretend = 0, frame = 16
 943              		@ frame_needed = 1, uses_anonymous_args = 0
 944              		@ link register save eliminated.
 945 0000 80B4     		push	{r7}
 946              	.LCFI39:
 947              		.cfi_def_cfa_offset 4
 948 0002 85B0     		sub	sp, sp, #20
 949              	.LCFI40:
 950              		.cfi_def_cfa_offset 24
 951 0004 00AF     		add	r7, sp, #0
 952              		.cfi_offset 7, -4
 953              	.LCFI41:
 954              		.cfi_def_cfa_register 7
 955 0006 0346     		mov	r3, r0
 956 0008 FB71     		strb	r3, [r7, #7]
 716:.\Generated_Source\PSoC5/AdcSar.c ****     uint32 counts = AdcSar_SAR_WRK_MAX;       /*default 12 bits*/
 957              		.loc 1 716 0
 958 000a 40F6FF73 		movw	r3, #4095
 959 000e BB60     		str	r3, [r7, #8]
 717:.\Generated_Source\PSoC5/AdcSar.c ****     uint16 diff_zero = AdcSar_SAR_DIFF_SHIFT;
 960              		.loc 1 717 0
 961 0010 4FF40063 		mov	r3, #2048
 962 0014 FB81     		strh	r3, [r7, #14]	@ movhi
 718:.\Generated_Source\PSoC5/AdcSar.c ****     
 719:.\Generated_Source\PSoC5/AdcSar.c ****     if(resolution == AdcSar__BITS_10)
 963              		.loc 1 719 0
 964 0016 FB79     		ldrb	r3, [r7, #7]	@ zero_extendqisi2
 965 0018 0A2B     		cmp	r3, #10
 966 001a 03D1     		bne	.L48
 720:.\Generated_Source\PSoC5/AdcSar.c ****     {
 721:.\Generated_Source\PSoC5/AdcSar.c ****         counts >>= 2u;
 967              		.loc 1 721 0
 968 001c BB68     		ldr	r3, [r7, #8]
 969 001e 4FEA9303 		lsr	r3, r3, #2
 970 0022 BB60     		str	r3, [r7, #8]
 971              	.L48:
 722:.\Generated_Source\PSoC5/AdcSar.c ****         /* Use 12bits for PSoC5 production silicon */
 723:.\Generated_Source\PSoC5/AdcSar.c ****         #if(CY_PSOC5_ES2)
 724:.\Generated_Source\PSoC5/AdcSar.c ****             diff_zero >>= 2u;
 725:.\Generated_Source\PSoC5/AdcSar.c ****         #else  /* To avoid the warning */  
 726:.\Generated_Source\PSoC5/AdcSar.c ****             diff_zero = diff_zero;
 727:.\Generated_Source\PSoC5/AdcSar.c ****         #endif /* End CY_PSOC5_ES2 */
 728:.\Generated_Source\PSoC5/AdcSar.c ****     }
 729:.\Generated_Source\PSoC5/AdcSar.c ****     if(resolution == AdcSar__BITS_8)
 972              		.loc 1 729 0
 973 0024 FB79     		ldrb	r3, [r7, #7]	@ zero_extendqisi2
 974 0026 082B     		cmp	r3, #8
 975 0028 03D1     		bne	.L49
 730:.\Generated_Source\PSoC5/AdcSar.c ****     {
 731:.\Generated_Source\PSoC5/AdcSar.c ****         counts >>= 4u;
ARM GAS  C:\Users\Geo\AppData\Local\Temp\ccJcx0AO.s 			page 31


 976              		.loc 1 731 0
 977 002a BB68     		ldr	r3, [r7, #8]
 978 002c 4FEA1313 		lsr	r3, r3, #4
 979 0030 BB60     		str	r3, [r7, #8]
 980              	.L49:
 732:.\Generated_Source\PSoC5/AdcSar.c ****         /* Use 12bits for PSoC5 production silicon */
 733:.\Generated_Source\PSoC5/AdcSar.c ****         #if(CY_PSOC5_ES2)
 734:.\Generated_Source\PSoC5/AdcSar.c ****             diff_zero >>= 4u;
 735:.\Generated_Source\PSoC5/AdcSar.c ****         #else  /* To avoid the warning */  
 736:.\Generated_Source\PSoC5/AdcSar.c ****             diff_zero = diff_zero;
 737:.\Generated_Source\PSoC5/AdcSar.c ****         #endif /* End CY_PSOC5_ES2 */
 738:.\Generated_Source\PSoC5/AdcSar.c ****     }
 739:.\Generated_Source\PSoC5/AdcSar.c ****     counts *= 1000u; /* To avoid float point arithmetic*/
 981              		.loc 1 739 0
 982 0032 BB68     		ldr	r3, [r7, #8]
 983 0034 4FF47A72 		mov	r2, #1000
 984 0038 02FB03F3 		mul	r3, r2, r3
 985 003c BB60     		str	r3, [r7, #8]
 740:.\Generated_Source\PSoC5/AdcSar.c ****     AdcSar_countsPerVolt = counts / AdcSar_DEFAULT_REF_VOLTAGE_MV / 2;
 986              		.loc 1 740 0
 987 003e BB68     		ldr	r3, [r7, #8]
 988 0040 4FEA9302 		lsr	r2, r3, #2
 989 0044 40F29F03 		movw	r3, #:lower16:166592671
 990 0048 C0F6EE13 		movt	r3, #:upper16:166592671
 991 004c A3FB0213 		umull	r1, r3, r3, r2
 992 0050 4FEA5313 		lsr	r3, r3, #5
 993 0054 9AB2     		uxth	r2, r3
 994 0056 40F20003 		movw	r3, #:lower16:AdcSar_countsPerVolt
 995 005a C0F20003 		movt	r3, #:upper16:AdcSar_countsPerVolt
 996 005e 1A80     		strh	r2, [r3, #0]	@ movhi
 741:.\Generated_Source\PSoC5/AdcSar.c **** 
 742:.\Generated_Source\PSoC5/AdcSar.c ****     #if(AdcSar_DEFAULT_RANGE == AdcSar__VSS_TO_VREF)
 743:.\Generated_Source\PSoC5/AdcSar.c ****         AdcSar_shift = 0;
 744:.\Generated_Source\PSoC5/AdcSar.c ****     #elif(AdcSar_DEFAULT_RANGE == AdcSar__VSSA_TO_VDDA)
 745:.\Generated_Source\PSoC5/AdcSar.c ****         AdcSar_shift = 0;
 997              		.loc 1 745 0
 998 0060 40F20003 		movw	r3, #:lower16:AdcSar_shift
 999 0064 C0F20003 		movt	r3, #:upper16:AdcSar_shift
 1000 0068 4FF00002 		mov	r2, #0
 1001 006c 1A80     		strh	r2, [r3, #0]	@ movhi
 746:.\Generated_Source\PSoC5/AdcSar.c ****     #elif(AdcSar_DEFAULT_RANGE == AdcSar__VSSA_TO_VDAC)
 747:.\Generated_Source\PSoC5/AdcSar.c ****         AdcSar_shift = 0;
 748:.\Generated_Source\PSoC5/AdcSar.c ****     #elif(AdcSar_DEFAULT_RANGE == AdcSar__VNEG_VREF_DIFF)
 749:.\Generated_Source\PSoC5/AdcSar.c ****         AdcSar_shift = diff_zero;
 750:.\Generated_Source\PSoC5/AdcSar.c ****     #elif(AdcSar_DEFAULT_RANGE == AdcSar__VNEG_VDDA_DIFF)
 751:.\Generated_Source\PSoC5/AdcSar.c ****         AdcSar_shift = diff_zero;
 752:.\Generated_Source\PSoC5/AdcSar.c ****     #elif(AdcSar_DEFAULT_RANGE == AdcSar__VNEG_VDDA_2_DIFF)
 753:.\Generated_Source\PSoC5/AdcSar.c ****         AdcSar_shift = diff_zero;
 754:.\Generated_Source\PSoC5/AdcSar.c ****     #elif(AdcSar_DEFAULT_RANGE == AdcSar__VNEG_VDAC_DIFF)
 755:.\Generated_Source\PSoC5/AdcSar.c ****         AdcSar_shift = diff_zero;
 756:.\Generated_Source\PSoC5/AdcSar.c ****     #endif /* End AdcSar_DEFAULT_RANGE */    
 757:.\Generated_Source\PSoC5/AdcSar.c **** }
 1002              		.loc 1 757 0
 1003 006e 07F11407 		add	r7, r7, #20
 1004 0072 BD46     		mov	sp, r7
 1005 0074 80BC     		pop	{r7}
 1006 0076 7047     		bx	lr
ARM GAS  C:\Users\Geo\AppData\Local\Temp\ccJcx0AO.s 			page 32


 1007              		.cfi_endproc
 1008              	.LFE15:
 1009              		.size	AdcSar_CalcGain, .-AdcSar_CalcGain
 1010              		.section	.text.AdcSar_SetGain,"ax",%progbits
 1011              		.align	2
 1012              		.global	AdcSar_SetGain
 1013              		.thumb
 1014              		.thumb_func
 1015              		.type	AdcSar_SetGain, %function
 1016              	AdcSar_SetGain:
 1017              	.LFB16:
 758:.\Generated_Source\PSoC5/AdcSar.c **** 
 759:.\Generated_Source\PSoC5/AdcSar.c **** 
 760:.\Generated_Source\PSoC5/AdcSar.c **** /*******************************************************************************
 761:.\Generated_Source\PSoC5/AdcSar.c **** * Function Name: AdcSar_SetGain
 762:.\Generated_Source\PSoC5/AdcSar.c **** ********************************************************************************
 763:.\Generated_Source\PSoC5/AdcSar.c **** *
 764:.\Generated_Source\PSoC5/AdcSar.c **** * Summary:
 765:.\Generated_Source\PSoC5/AdcSar.c **** *  This function sets the ADC gain in counts per volt.
 766:.\Generated_Source\PSoC5/AdcSar.c **** *
 767:.\Generated_Source\PSoC5/AdcSar.c **** * Parameters:
 768:.\Generated_Source\PSoC5/AdcSar.c **** *  int16  adcGain  counts per volt
 769:.\Generated_Source\PSoC5/AdcSar.c **** *
 770:.\Generated_Source\PSoC5/AdcSar.c **** * Return:
 771:.\Generated_Source\PSoC5/AdcSar.c **** *  None.
 772:.\Generated_Source\PSoC5/AdcSar.c **** *
 773:.\Generated_Source\PSoC5/AdcSar.c **** * Global Variables:
 774:.\Generated_Source\PSoC5/AdcSar.c **** *  AdcSar_countsPerVolt variable modified. This variable is used 
 775:.\Generated_Source\PSoC5/AdcSar.c **** *  for gain calibration purpose. 
 776:.\Generated_Source\PSoC5/AdcSar.c **** *
 777:.\Generated_Source\PSoC5/AdcSar.c **** *******************************************************************************/
 778:.\Generated_Source\PSoC5/AdcSar.c **** void AdcSar_SetGain(int16 adcGain)
 779:.\Generated_Source\PSoC5/AdcSar.c **** {
 1018              		.loc 1 779 0
 1019              		.cfi_startproc
 1020              		@ args = 0, pretend = 0, frame = 8
 1021              		@ frame_needed = 1, uses_anonymous_args = 0
 1022              		@ link register save eliminated.
 1023 0000 80B4     		push	{r7}
 1024              	.LCFI42:
 1025              		.cfi_def_cfa_offset 4
 1026 0002 83B0     		sub	sp, sp, #12
 1027              	.LCFI43:
 1028              		.cfi_def_cfa_offset 16
 1029 0004 00AF     		add	r7, sp, #0
 1030              		.cfi_offset 7, -4
 1031              	.LCFI44:
 1032              		.cfi_def_cfa_register 7
 1033 0006 0346     		mov	r3, r0
 1034 0008 FB80     		strh	r3, [r7, #6]	@ movhi
 780:.\Generated_Source\PSoC5/AdcSar.c ****     AdcSar_countsPerVolt = adcGain;
 1035              		.loc 1 780 0
 1036 000a 40F20003 		movw	r3, #:lower16:AdcSar_countsPerVolt
 1037 000e C0F20003 		movt	r3, #:upper16:AdcSar_countsPerVolt
 1038 0012 FA88     		ldrh	r2, [r7, #6]	@ movhi
 1039 0014 1A80     		strh	r2, [r3, #0]	@ movhi
 781:.\Generated_Source\PSoC5/AdcSar.c **** }
ARM GAS  C:\Users\Geo\AppData\Local\Temp\ccJcx0AO.s 			page 33


 1040              		.loc 1 781 0
 1041 0016 07F10C07 		add	r7, r7, #12
 1042 001a BD46     		mov	sp, r7
 1043 001c 80BC     		pop	{r7}
 1044 001e 7047     		bx	lr
 1045              		.cfi_endproc
 1046              	.LFE16:
 1047              		.size	AdcSar_SetGain, .-AdcSar_SetGain
 1048              		.section	.text.AdcSar_CountsTo_mVolts,"ax",%progbits
 1049              		.align	2
 1050              		.global	AdcSar_CountsTo_mVolts
 1051              		.thumb
 1052              		.thumb_func
 1053              		.type	AdcSar_CountsTo_mVolts, %function
 1054              	AdcSar_CountsTo_mVolts:
 1055              	.LFB17:
 782:.\Generated_Source\PSoC5/AdcSar.c **** 
 783:.\Generated_Source\PSoC5/AdcSar.c **** 
 784:.\Generated_Source\PSoC5/AdcSar.c **** /*******************************************************************************
 785:.\Generated_Source\PSoC5/AdcSar.c **** * Function Name: AdcSar_CountsTo_mVolts
 786:.\Generated_Source\PSoC5/AdcSar.c **** ********************************************************************************
 787:.\Generated_Source\PSoC5/AdcSar.c **** *
 788:.\Generated_Source\PSoC5/AdcSar.c **** * Summary:
 789:.\Generated_Source\PSoC5/AdcSar.c **** *  This function converts ADC counts to mVolts
 790:.\Generated_Source\PSoC5/AdcSar.c **** *
 791:.\Generated_Source\PSoC5/AdcSar.c **** * Parameters:
 792:.\Generated_Source\PSoC5/AdcSar.c **** *  int16  adcCounts   Reading from ADC.
 793:.\Generated_Source\PSoC5/AdcSar.c **** *
 794:.\Generated_Source\PSoC5/AdcSar.c **** * Return:
 795:.\Generated_Source\PSoC5/AdcSar.c **** *  int16  Result in mVolts
 796:.\Generated_Source\PSoC5/AdcSar.c **** *
 797:.\Generated_Source\PSoC5/AdcSar.c **** * Global Variables:
 798:.\Generated_Source\PSoC5/AdcSar.c **** *  AdcSar_offset variable used.
 799:.\Generated_Source\PSoC5/AdcSar.c **** *  AdcSar_countsPerVolt variable used.
 800:.\Generated_Source\PSoC5/AdcSar.c **** *
 801:.\Generated_Source\PSoC5/AdcSar.c **** *******************************************************************************/
 802:.\Generated_Source\PSoC5/AdcSar.c **** int16 AdcSar_CountsTo_mVolts(int16 adcCounts)
 803:.\Generated_Source\PSoC5/AdcSar.c **** {
 1056              		.loc 1 803 0
 1057              		.cfi_startproc
 1058              		@ args = 0, pretend = 0, frame = 16
 1059              		@ frame_needed = 1, uses_anonymous_args = 0
 1060              		@ link register save eliminated.
 1061 0000 80B4     		push	{r7}
 1062              	.LCFI45:
 1063              		.cfi_def_cfa_offset 4
 1064 0002 85B0     		sub	sp, sp, #20
 1065              	.LCFI46:
 1066              		.cfi_def_cfa_offset 24
 1067 0004 00AF     		add	r7, sp, #0
 1068              		.cfi_offset 7, -4
 1069              	.LCFI47:
 1070              		.cfi_def_cfa_register 7
 1071 0006 0346     		mov	r3, r0
 1072 0008 FB80     		strh	r3, [r7, #6]	@ movhi
 804:.\Generated_Source\PSoC5/AdcSar.c **** 
 805:.\Generated_Source\PSoC5/AdcSar.c ****     int16 mVolts;
ARM GAS  C:\Users\Geo\AppData\Local\Temp\ccJcx0AO.s 			page 34


 806:.\Generated_Source\PSoC5/AdcSar.c **** 
 807:.\Generated_Source\PSoC5/AdcSar.c ****     /* Subtract ADC offset */
 808:.\Generated_Source\PSoC5/AdcSar.c ****     adcCounts -= AdcSar_offset;
 1073              		.loc 1 808 0
 1074 000a FA88     		ldrh	r2, [r7, #6]
 1075 000c 40F20003 		movw	r3, #:lower16:AdcSar_offset
 1076 0010 C0F20003 		movt	r3, #:upper16:AdcSar_offset
 1077 0014 1B88     		ldrh	r3, [r3, #0]	@ movhi
 1078 0016 9BB2     		uxth	r3, r3
 1079 0018 9BB2     		uxth	r3, r3
 1080 001a C3EB0203 		rsb	r3, r3, r2
 1081 001e 9BB2     		uxth	r3, r3
 1082 0020 FB80     		strh	r3, [r7, #6]	@ movhi
 809:.\Generated_Source\PSoC5/AdcSar.c **** 
 810:.\Generated_Source\PSoC5/AdcSar.c ****     mVolts = ( (int32)adcCounts * 1000 ) / AdcSar_countsPerVolt ;
 1083              		.loc 1 810 0
 1084 0022 B7F90630 		ldrsh	r3, [r7, #6]
 1085 0026 4FF47A72 		mov	r2, #1000
 1086 002a 02FB03F2 		mul	r2, r2, r3
 1087 002e 40F20003 		movw	r3, #:lower16:AdcSar_countsPerVolt
 1088 0032 C0F20003 		movt	r3, #:upper16:AdcSar_countsPerVolt
 1089 0036 1B88     		ldrh	r3, [r3, #0]	@ movhi
 1090 0038 9BB2     		uxth	r3, r3
 1091 003a 1BB2     		sxth	r3, r3
 1092 003c 92FBF3F3 		sdiv	r3, r2, r3
 1093 0040 FB81     		strh	r3, [r7, #14]	@ movhi
 811:.\Generated_Source\PSoC5/AdcSar.c **** 
 812:.\Generated_Source\PSoC5/AdcSar.c ****     return( mVolts );
 1094              		.loc 1 812 0
 1095 0042 FB89     		ldrh	r3, [r7, #14]
 1096 0044 1BB2     		sxth	r3, r3
 813:.\Generated_Source\PSoC5/AdcSar.c **** }
 1097              		.loc 1 813 0
 1098 0046 1846     		mov	r0, r3
 1099 0048 07F11407 		add	r7, r7, #20
 1100 004c BD46     		mov	sp, r7
 1101 004e 80BC     		pop	{r7}
 1102 0050 7047     		bx	lr
 1103              		.cfi_endproc
 1104              	.LFE17:
 1105              		.size	AdcSar_CountsTo_mVolts, .-AdcSar_CountsTo_mVolts
 1106 0052 00BF     		.section	.text.AdcSar_CountsTo_uVolts,"ax",%progbits
 1107              		.align	2
 1108              		.global	AdcSar_CountsTo_uVolts
 1109              		.thumb
 1110              		.thumb_func
 1111              		.type	AdcSar_CountsTo_uVolts, %function
 1112              	AdcSar_CountsTo_uVolts:
 1113              	.LFB18:
 814:.\Generated_Source\PSoC5/AdcSar.c **** 
 815:.\Generated_Source\PSoC5/AdcSar.c **** 
 816:.\Generated_Source\PSoC5/AdcSar.c **** /*******************************************************************************
 817:.\Generated_Source\PSoC5/AdcSar.c **** * Function Name: AdcSar_CountsTo_uVolts
 818:.\Generated_Source\PSoC5/AdcSar.c **** ********************************************************************************
 819:.\Generated_Source\PSoC5/AdcSar.c **** *
 820:.\Generated_Source\PSoC5/AdcSar.c **** * Summary:
 821:.\Generated_Source\PSoC5/AdcSar.c **** *  This function converts ADC counts to micro Volts
ARM GAS  C:\Users\Geo\AppData\Local\Temp\ccJcx0AO.s 			page 35


 822:.\Generated_Source\PSoC5/AdcSar.c **** *
 823:.\Generated_Source\PSoC5/AdcSar.c **** * Parameters:
 824:.\Generated_Source\PSoC5/AdcSar.c **** *  int16  adcCounts   Reading from ADC.
 825:.\Generated_Source\PSoC5/AdcSar.c **** *
 826:.\Generated_Source\PSoC5/AdcSar.c **** * Return:
 827:.\Generated_Source\PSoC5/AdcSar.c **** *  int32  Result in micro Volts
 828:.\Generated_Source\PSoC5/AdcSar.c **** *
 829:.\Generated_Source\PSoC5/AdcSar.c **** * Global Variables:
 830:.\Generated_Source\PSoC5/AdcSar.c **** *  AdcSar_offset variable used.
 831:.\Generated_Source\PSoC5/AdcSar.c **** *  AdcSar_countsPerVolt variable used.
 832:.\Generated_Source\PSoC5/AdcSar.c **** *
 833:.\Generated_Source\PSoC5/AdcSar.c **** *******************************************************************************/
 834:.\Generated_Source\PSoC5/AdcSar.c **** int32 AdcSar_CountsTo_uVolts(int16 adcCounts)
 835:.\Generated_Source\PSoC5/AdcSar.c **** {
 1114              		.loc 1 835 0
 1115              		.cfi_startproc
 1116              		@ args = 0, pretend = 0, frame = 16
 1117              		@ frame_needed = 1, uses_anonymous_args = 0
 1118              		@ link register save eliminated.
 1119 0000 80B4     		push	{r7}
 1120              	.LCFI48:
 1121              		.cfi_def_cfa_offset 4
 1122 0002 85B0     		sub	sp, sp, #20
 1123              	.LCFI49:
 1124              		.cfi_def_cfa_offset 24
 1125 0004 00AF     		add	r7, sp, #0
 1126              		.cfi_offset 7, -4
 1127              	.LCFI50:
 1128              		.cfi_def_cfa_register 7
 1129 0006 0346     		mov	r3, r0
 1130 0008 FB80     		strh	r3, [r7, #6]	@ movhi
 836:.\Generated_Source\PSoC5/AdcSar.c **** 
 837:.\Generated_Source\PSoC5/AdcSar.c ****     int32 uVolts;
 838:.\Generated_Source\PSoC5/AdcSar.c **** 
 839:.\Generated_Source\PSoC5/AdcSar.c ****     /* Subtract ADC offset */
 840:.\Generated_Source\PSoC5/AdcSar.c ****     adcCounts -= AdcSar_offset;
 1131              		.loc 1 840 0
 1132 000a FA88     		ldrh	r2, [r7, #6]
 1133 000c 40F20003 		movw	r3, #:lower16:AdcSar_offset
 1134 0010 C0F20003 		movt	r3, #:upper16:AdcSar_offset
 1135 0014 1B88     		ldrh	r3, [r3, #0]	@ movhi
 1136 0016 9BB2     		uxth	r3, r3
 1137 0018 9BB2     		uxth	r3, r3
 1138 001a C3EB0203 		rsb	r3, r3, r2
 1139 001e 9BB2     		uxth	r3, r3
 1140 0020 FB80     		strh	r3, [r7, #6]	@ movhi
 841:.\Generated_Source\PSoC5/AdcSar.c ****     /* To convert adcCounts to microVolts it is required to be multiplied
 842:.\Generated_Source\PSoC5/AdcSar.c ****     *  on 1 million. It is multiplied on 500000 and later on 2 to 
 843:.\Generated_Source\PSoC5/AdcSar.c ****     *  to avoid 32bit arithmetic overflows. 
 844:.\Generated_Source\PSoC5/AdcSar.c ****     */
 845:.\Generated_Source\PSoC5/AdcSar.c ****     uVolts = (( (int32)adcCounts * 500000 ) / AdcSar_countsPerVolt) * 2;
 1141              		.loc 1 845 0
 1142 0022 B7F90620 		ldrsh	r2, [r7, #6]
 1143 0026 4AF22013 		movw	r3, #:lower16:500000
 1144 002a C0F20703 		movt	r3, #:upper16:500000
 1145 002e 03FB02F2 		mul	r2, r3, r2
 1146 0032 40F20003 		movw	r3, #:lower16:AdcSar_countsPerVolt
ARM GAS  C:\Users\Geo\AppData\Local\Temp\ccJcx0AO.s 			page 36


 1147 0036 C0F20003 		movt	r3, #:upper16:AdcSar_countsPerVolt
 1148 003a 1B88     		ldrh	r3, [r3, #0]	@ movhi
 1149 003c 9BB2     		uxth	r3, r3
 1150 003e 1BB2     		sxth	r3, r3
 1151 0040 92FBF3F3 		sdiv	r3, r2, r3
 1152 0044 4FEA4303 		lsl	r3, r3, #1
 1153 0048 FB60     		str	r3, [r7, #12]
 846:.\Generated_Source\PSoC5/AdcSar.c **** 
 847:.\Generated_Source\PSoC5/AdcSar.c ****     return( uVolts );
 1154              		.loc 1 847 0
 1155 004a FB68     		ldr	r3, [r7, #12]
 848:.\Generated_Source\PSoC5/AdcSar.c **** }
 1156              		.loc 1 848 0
 1157 004c 1846     		mov	r0, r3
 1158 004e 07F11407 		add	r7, r7, #20
 1159 0052 BD46     		mov	sp, r7
 1160 0054 80BC     		pop	{r7}
 1161 0056 7047     		bx	lr
 1162              		.cfi_endproc
 1163              	.LFE18:
 1164              		.size	AdcSar_CountsTo_uVolts, .-AdcSar_CountsTo_uVolts
 1165              		.global	__aeabi_i2f
 1166              		.global	__aeabi_fdiv
 1167              		.section	.text.AdcSar_CountsTo_Volts,"ax",%progbits
 1168              		.align	2
 1169              		.global	AdcSar_CountsTo_Volts
 1170              		.thumb
 1171              		.thumb_func
 1172              		.type	AdcSar_CountsTo_Volts, %function
 1173              	AdcSar_CountsTo_Volts:
 1174              	.LFB19:
 849:.\Generated_Source\PSoC5/AdcSar.c **** 
 850:.\Generated_Source\PSoC5/AdcSar.c **** 
 851:.\Generated_Source\PSoC5/AdcSar.c **** /*******************************************************************************
 852:.\Generated_Source\PSoC5/AdcSar.c **** * Function Name: AdcSar_CountsTo_Volts
 853:.\Generated_Source\PSoC5/AdcSar.c **** ********************************************************************************
 854:.\Generated_Source\PSoC5/AdcSar.c **** *
 855:.\Generated_Source\PSoC5/AdcSar.c **** * Summary:
 856:.\Generated_Source\PSoC5/AdcSar.c **** *  This function converts ADC counts to Volts
 857:.\Generated_Source\PSoC5/AdcSar.c **** *
 858:.\Generated_Source\PSoC5/AdcSar.c **** * Parameters:
 859:.\Generated_Source\PSoC5/AdcSar.c **** *  int16  adcCounts   Reading from ADC.
 860:.\Generated_Source\PSoC5/AdcSar.c **** *
 861:.\Generated_Source\PSoC5/AdcSar.c **** * Return:
 862:.\Generated_Source\PSoC5/AdcSar.c **** *  float  Result in mVolts
 863:.\Generated_Source\PSoC5/AdcSar.c **** *
 864:.\Generated_Source\PSoC5/AdcSar.c **** * Global Variables:
 865:.\Generated_Source\PSoC5/AdcSar.c **** *  AdcSar_offset variable used.
 866:.\Generated_Source\PSoC5/AdcSar.c **** *  AdcSar_countsPerVolt variable used.
 867:.\Generated_Source\PSoC5/AdcSar.c **** *
 868:.\Generated_Source\PSoC5/AdcSar.c **** *******************************************************************************/
 869:.\Generated_Source\PSoC5/AdcSar.c **** float AdcSar_CountsTo_Volts(int16 adcCounts)
 870:.\Generated_Source\PSoC5/AdcSar.c **** {
 1175              		.loc 1 870 0
 1176              		.cfi_startproc
 1177              		@ args = 0, pretend = 0, frame = 16
 1178              		@ frame_needed = 1, uses_anonymous_args = 0
ARM GAS  C:\Users\Geo\AppData\Local\Temp\ccJcx0AO.s 			page 37


 1179 0000 90B5     		push	{r4, r7, lr}
 1180              	.LCFI51:
 1181              		.cfi_def_cfa_offset 12
 1182 0002 85B0     		sub	sp, sp, #20
 1183              	.LCFI52:
 1184              		.cfi_def_cfa_offset 32
 1185 0004 00AF     		add	r7, sp, #0
 1186              		.cfi_offset 14, -4
 1187              		.cfi_offset 7, -8
 1188              		.cfi_offset 4, -12
 1189              	.LCFI53:
 1190              		.cfi_def_cfa_register 7
 1191 0006 0346     		mov	r3, r0
 1192 0008 FB80     		strh	r3, [r7, #6]	@ movhi
 871:.\Generated_Source\PSoC5/AdcSar.c ****     float volts;
 872:.\Generated_Source\PSoC5/AdcSar.c **** 
 873:.\Generated_Source\PSoC5/AdcSar.c ****     /* Subtract ADC offset */
 874:.\Generated_Source\PSoC5/AdcSar.c ****     adcCounts -= AdcSar_offset;
 1193              		.loc 1 874 0
 1194 000a FA88     		ldrh	r2, [r7, #6]
 1195 000c 40F20003 		movw	r3, #:lower16:AdcSar_offset
 1196 0010 C0F20003 		movt	r3, #:upper16:AdcSar_offset
 1197 0014 1B88     		ldrh	r3, [r3, #0]	@ movhi
 1198 0016 9BB2     		uxth	r3, r3
 1199 0018 9BB2     		uxth	r3, r3
 1200 001a C3EB0203 		rsb	r3, r3, r2
 1201 001e 9BB2     		uxth	r3, r3
 1202 0020 FB80     		strh	r3, [r7, #6]	@ movhi
 875:.\Generated_Source\PSoC5/AdcSar.c **** 
 876:.\Generated_Source\PSoC5/AdcSar.c ****     volts = (float)adcCounts / (float)AdcSar_countsPerVolt;   
 1203              		.loc 1 876 0
 1204 0022 B7F90630 		ldrsh	r3, [r7, #6]
 1205 0026 1846     		mov	r0, r3
 1206 0028 FFF7FEFF 		bl	__aeabi_i2f
 1207 002c 0446     		mov	r4, r0
 1208 002e 40F20003 		movw	r3, #:lower16:AdcSar_countsPerVolt
 1209 0032 C0F20003 		movt	r3, #:upper16:AdcSar_countsPerVolt
 1210 0036 1B88     		ldrh	r3, [r3, #0]	@ movhi
 1211 0038 9BB2     		uxth	r3, r3
 1212 003a 1BB2     		sxth	r3, r3
 1213 003c 1846     		mov	r0, r3
 1214 003e FFF7FEFF 		bl	__aeabi_i2f
 1215 0042 0346     		mov	r3, r0
 1216 0044 2046     		mov	r0, r4
 1217 0046 1946     		mov	r1, r3
 1218 0048 FFF7FEFF 		bl	__aeabi_fdiv
 1219 004c 0346     		mov	r3, r0
 1220 004e FB60     		str	r3, [r7, #12]	@ float
 877:.\Generated_Source\PSoC5/AdcSar.c **** 
 878:.\Generated_Source\PSoC5/AdcSar.c ****     return( volts );
 1221              		.loc 1 878 0
 1222 0050 FB68     		ldr	r3, [r7, #12]	@ float
 879:.\Generated_Source\PSoC5/AdcSar.c **** }
 1223              		.loc 1 879 0
 1224 0052 1846     		mov	r0, r3
 1225 0054 07F11407 		add	r7, r7, #20
 1226 0058 BD46     		mov	sp, r7
ARM GAS  C:\Users\Geo\AppData\Local\Temp\ccJcx0AO.s 			page 38


 1227 005a 90BD     		pop	{r4, r7, pc}
 1228              		.cfi_endproc
 1229              	.LFE19:
 1230              		.size	AdcSar_CountsTo_Volts, .-AdcSar_CountsTo_Volts
 1231              		.text
 1232              	.Letext0: