ARM GAS  C:\Users\Geo\AppData\Local\Temp\ccJcx0AO.s 			page 1


   1              		.syntax unified
   2              		.cpu cortex-m3
   3              		.fpu softvfp
   4              		.eabi_attribute 20, 1
   5              		.eabi_attribute 21, 1
   6              		.eabi_attribute 23, 3
   7              		.eabi_attribute 24, 1
   8              		.eabi_attribute 25, 1
   9              		.eabi_attribute 26, 1
  10              		.eabi_attribute 30, 6
  11              		.eabi_attribute 18, 4
  12              		.thumb
  13              		.file	"AdcSar.c"
  14              		.section	.debug_abbrev,"",%progbits
  15              	.Ldebug_abbrev0:
  16              		.section	.debug_info,"",%progbits
  17              	.Ldebug_info0:
  18              		.section	.debug_line,"",%progbits
  19              	.Ldebug_line0:
  20 0000 29020000 		.text
  20      02005E00 
  20      00000201 
  20      FB0E0D00 
  20      01010101 
  21              	.Ltext0:
  22              		.cfi_sections	.debug_frame
  23              		.global	AdcSar_initVar
  24              		.bss
  25              		.type	AdcSar_initVar, %object
  26              		.size	AdcSar_initVar, 1
  27              	AdcSar_initVar:
  28 0000 00       		.space	1
  29              		.comm	AdcSar_offset,2,2
  30              		.comm	AdcSar_countsPerVolt,2,2
  31              		.comm	AdcSar_shift,2,2
  32              		.comm	AdcSar_resolution,1,1
  33              		.section	.text.AdcSar_Start,"ax",%progbits
  34              		.align	2
  35              		.global	AdcSar_Start
  36              		.thumb
  37              		.thumb_func
  38              		.type	AdcSar_Start, %function
  39              	AdcSar_Start:
  40              	.LFB0:
  41              		.file 1 ".\\Generated_Source\\PSoC5\\AdcSar.c"
   1:.\Generated_Source\PSoC5/AdcSar.c **** /*******************************************************************************
   2:.\Generated_Source\PSoC5/AdcSar.c **** * File Name: AdcSar.c
   3:.\Generated_Source\PSoC5/AdcSar.c **** * Version 1.71
   4:.\Generated_Source\PSoC5/AdcSar.c **** *
   5:.\Generated_Source\PSoC5/AdcSar.c **** * Description:
   6:.\Generated_Source\PSoC5/AdcSar.c **** *  This file provides the source code to the API for the Successive
   7:.\Generated_Source\PSoC5/AdcSar.c **** *  approximation ADC Component.
   8:.\Generated_Source\PSoC5/AdcSar.c **** *
   9:.\Generated_Source\PSoC5/AdcSar.c **** * Note:
  10:.\Generated_Source\PSoC5/AdcSar.c **** *
  11:.\Generated_Source\PSoC5/AdcSar.c **** *******************************************************************************
  12:.\Generated_Source\PSoC5/AdcSar.c **** * Copyright 2008-2012, Cypress Semiconductor Corporation.  All rights reserved.
ARM GAS  C:\Users\Geo\AppData\Local\Temp\ccJcx0AO.s 			page 2


  13:.\Generated_Source\PSoC5/AdcSar.c **** * You may use this file only in accordance with the license, terms, conditions,
  14:.\Generated_Source\PSoC5/AdcSar.c **** * disclaimers, and limitations in the end user license agreement accompanying
  15:.\Generated_Source\PSoC5/AdcSar.c **** * the software package with which this file was provided.
  16:.\Generated_Source\PSoC5/AdcSar.c **** *******************************************************************************/
  17:.\Generated_Source\PSoC5/AdcSar.c **** 
  18:.\Generated_Source\PSoC5/AdcSar.c **** #include "CyLib.h"
  19:.\Generated_Source\PSoC5/AdcSar.c **** #include "AdcSar.h"
  20:.\Generated_Source\PSoC5/AdcSar.c **** 
  21:.\Generated_Source\PSoC5/AdcSar.c **** #if(AdcSar_DEFAULT_INTERNAL_CLK)
  22:.\Generated_Source\PSoC5/AdcSar.c ****     #include "AdcSar_theACLK.h"
  23:.\Generated_Source\PSoC5/AdcSar.c **** #endif /* End AdcSar_DEFAULT_INTERNAL_CLK */
  24:.\Generated_Source\PSoC5/AdcSar.c **** 
  25:.\Generated_Source\PSoC5/AdcSar.c **** 
  26:.\Generated_Source\PSoC5/AdcSar.c **** /***************************************
  27:.\Generated_Source\PSoC5/AdcSar.c **** * Forward function references
  28:.\Generated_Source\PSoC5/AdcSar.c **** ***************************************/
  29:.\Generated_Source\PSoC5/AdcSar.c **** void AdcSar_SetRef(int8 refMode);
  30:.\Generated_Source\PSoC5/AdcSar.c **** void AdcSar_CalcGain(uint8 resolution);
  31:.\Generated_Source\PSoC5/AdcSar.c **** 
  32:.\Generated_Source\PSoC5/AdcSar.c **** 
  33:.\Generated_Source\PSoC5/AdcSar.c **** /***************************************
  34:.\Generated_Source\PSoC5/AdcSar.c **** * Global data allocation
  35:.\Generated_Source\PSoC5/AdcSar.c **** ***************************************/
  36:.\Generated_Source\PSoC5/AdcSar.c **** uint8 AdcSar_initVar = 0u;
  37:.\Generated_Source\PSoC5/AdcSar.c **** volatile int16 AdcSar_offset;
  38:.\Generated_Source\PSoC5/AdcSar.c **** volatile int16 AdcSar_countsPerVolt;   /* Gain compensation */
  39:.\Generated_Source\PSoC5/AdcSar.c **** volatile int16 AdcSar_shift;
  40:.\Generated_Source\PSoC5/AdcSar.c **** #if(CY_PSOC5_ES1)
  41:.\Generated_Source\PSoC5/AdcSar.c ****     uint8 AdcSar_resolution;
  42:.\Generated_Source\PSoC5/AdcSar.c **** #endif /* End CY_PSOC5_ES1 */
  43:.\Generated_Source\PSoC5/AdcSar.c **** 
  44:.\Generated_Source\PSoC5/AdcSar.c **** 
  45:.\Generated_Source\PSoC5/AdcSar.c **** /*******************************************************************************
  46:.\Generated_Source\PSoC5/AdcSar.c **** * Function Name: AdcSar_Start
  47:.\Generated_Source\PSoC5/AdcSar.c **** ********************************************************************************
  48:.\Generated_Source\PSoC5/AdcSar.c **** *
  49:.\Generated_Source\PSoC5/AdcSar.c **** * Summary:
  50:.\Generated_Source\PSoC5/AdcSar.c **** *  Performs all required initialization for this component and enables the
  51:.\Generated_Source\PSoC5/AdcSar.c **** *  power.
  52:.\Generated_Source\PSoC5/AdcSar.c **** *
  53:.\Generated_Source\PSoC5/AdcSar.c **** * Parameters:
  54:.\Generated_Source\PSoC5/AdcSar.c **** *  None.
  55:.\Generated_Source\PSoC5/AdcSar.c **** *
  56:.\Generated_Source\PSoC5/AdcSar.c **** * Return:
  57:.\Generated_Source\PSoC5/AdcSar.c **** *  None.
  58:.\Generated_Source\PSoC5/AdcSar.c **** *
  59:.\Generated_Source\PSoC5/AdcSar.c **** * Global variables:
  60:.\Generated_Source\PSoC5/AdcSar.c **** *  The AdcSar_initVar variable is used to indicate when/if initial 
  61:.\Generated_Source\PSoC5/AdcSar.c **** *  configuration of this component has happened. The variable is initialized to 
  62:.\Generated_Source\PSoC5/AdcSar.c **** *  zero and set to 1 the first time ADC_Start() is called. This allows for 
  63:.\Generated_Source\PSoC5/AdcSar.c **** *  component Re-Start without re-initialization in all subsequent calls to the 
  64:.\Generated_Source\PSoC5/AdcSar.c **** *  AdcSar_Start() routine.
  65:.\Generated_Source\PSoC5/AdcSar.c **** *  If re-initialization of the component is required the variable should be set 
  66:.\Generated_Source\PSoC5/AdcSar.c **** *  to zero before call of AdcSar_Start() routine, or the user may call 
  67:.\Generated_Source\PSoC5/AdcSar.c **** *  AdcSar_Init() and AdcSar_Enable() as done in the 
  68:.\Generated_Source\PSoC5/AdcSar.c **** *  AdcSar_Start() routine.
  69:.\Generated_Source\PSoC5/AdcSar.c **** *
ARM GAS  C:\Users\Geo\AppData\Local\Temp\ccJcx0AO.s 			page 3


  70:.\Generated_Source\PSoC5/AdcSar.c **** *******************************************************************************/
  71:.\Generated_Source\PSoC5/AdcSar.c **** void AdcSar_Start(void)
  72:.\Generated_Source\PSoC5/AdcSar.c **** {
  42              		.loc 1 72 0
  43              		.cfi_startproc
  44              		@ args = 0, pretend = 0, frame = 0
  45              		@ frame_needed = 1, uses_anonymous_args = 0
  46 0000 80B5     		push	{r7, lr}
  47              	.LCFI0:
  48              		.cfi_def_cfa_offset 8
  49 0002 00AF     		add	r7, sp, #0
  50              		.cfi_offset 14, -4
  51              		.cfi_offset 7, -8
  52              	.LCFI1:
  53              		.cfi_def_cfa_register 7
  73:.\Generated_Source\PSoC5/AdcSar.c **** 
  74:.\Generated_Source\PSoC5/AdcSar.c ****     /* If not Initialized then initialize all required hardware and software */
  75:.\Generated_Source\PSoC5/AdcSar.c ****     if(AdcSar_initVar == 0u)
  54              		.loc 1 75 0
  55 0004 40F20003 		movw	r3, #:lower16:AdcSar_initVar
  56 0008 C0F20003 		movt	r3, #:upper16:AdcSar_initVar
  57 000c 1B78     		ldrb	r3, [r3, #0]	@ zero_extendqisi2
  58 000e 002B     		cmp	r3, #0
  59 0010 08D1     		bne	.L2
  76:.\Generated_Source\PSoC5/AdcSar.c ****     {
  77:.\Generated_Source\PSoC5/AdcSar.c ****         AdcSar_Init();
  60              		.loc 1 77 0
  61 0012 FFF7FEFF 		bl	AdcSar_Init
  78:.\Generated_Source\PSoC5/AdcSar.c ****         AdcSar_initVar = 1u;
  62              		.loc 1 78 0
  63 0016 40F20003 		movw	r3, #:lower16:AdcSar_initVar
  64 001a C0F20003 		movt	r3, #:upper16:AdcSar_initVar
  65 001e 4FF00102 		mov	r2, #1
  66 0022 1A70     		strb	r2, [r3, #0]
  67              	.L2:
  79:.\Generated_Source\PSoC5/AdcSar.c ****     }
  80:.\Generated_Source\PSoC5/AdcSar.c ****     AdcSar_Enable();
  68              		.loc 1 80 0
  69 0024 FFF7FEFF 		bl	AdcSar_Enable
  81:.\Generated_Source\PSoC5/AdcSar.c **** }
  70              		.loc 1 81 0
  71 0028 80BD     		pop	{r7, pc}
  72              		.cfi_endproc
  73              	.LFE0:
  74              		.size	AdcSar_Start, .-AdcSar_Start
  75 002a 00BF     		.section	.text.AdcSar_Init,"ax",%progbits
  76              		.align	2
  77              		.global	AdcSar_Init
  78              		.thumb
  79              		.thumb_func
  80              		.type	AdcSar_Init, %function
  81              	AdcSar_Init:
  82              	.LFB1:
  82:.\Generated_Source\PSoC5/AdcSar.c **** 
  83:.\Generated_Source\PSoC5/AdcSar.c **** 
  84:.\Generated_Source\PSoC5/AdcSar.c **** /*******************************************************************************
  85:.\Generated_Source\PSoC5/AdcSar.c **** * Function Name: AdcSar_Init
ARM GAS  C:\Users\Geo\AppData\Local\Temp\ccJcx0AO.s 			page 4


  86:.\Generated_Source\PSoC5/AdcSar.c **** ********************************************************************************
  87:.\Generated_Source\PSoC5/AdcSar.c **** *
  88:.\Generated_Source\PSoC5/AdcSar.c **** * Summary:
  89:.\Generated_Source\PSoC5/AdcSar.c **** *  Initialize component's parameters to the parameters set by user in the 
  90:.\Generated_Source\PSoC5/AdcSar.c **** *  customizer of the component placed onto schematic. Usually called in 
  91:.\Generated_Source\PSoC5/AdcSar.c **** *  AdcSar_Start().
  92:.\Generated_Source\PSoC5/AdcSar.c **** *
  93:.\Generated_Source\PSoC5/AdcSar.c **** * Parameters:  
  94:.\Generated_Source\PSoC5/AdcSar.c **** *  None.
  95:.\Generated_Source\PSoC5/AdcSar.c **** *
  96:.\Generated_Source\PSoC5/AdcSar.c **** * Return: 
  97:.\Generated_Source\PSoC5/AdcSar.c **** *  None.
  98:.\Generated_Source\PSoC5/AdcSar.c **** *
  99:.\Generated_Source\PSoC5/AdcSar.c **** * Global variables:
 100:.\Generated_Source\PSoC5/AdcSar.c **** *  The AdcSar_offset variable is initialized to 0.
 101:.\Generated_Source\PSoC5/AdcSar.c **** *
 102:.\Generated_Source\PSoC5/AdcSar.c **** *******************************************************************************/
 103:.\Generated_Source\PSoC5/AdcSar.c **** void AdcSar_Init(void)
 104:.\Generated_Source\PSoC5/AdcSar.c **** {
  83              		.loc 1 104 0
  84              		.cfi_startproc
  85              		@ args = 0, pretend = 0, frame = 0
  86              		@ frame_needed = 1, uses_anonymous_args = 0
  87 0000 80B5     		push	{r7, lr}
  88              	.LCFI2:
  89              		.cfi_def_cfa_offset 8
  90 0002 00AF     		add	r7, sp, #0
  91              		.cfi_offset 14, -4
  92              		.cfi_offset 7, -8
  93              	.LCFI3:
  94              		.cfi_def_cfa_register 7
 105:.\Generated_Source\PSoC5/AdcSar.c **** 
 106:.\Generated_Source\PSoC5/AdcSar.c ****     /* This is only valid if there is an internal clock */
 107:.\Generated_Source\PSoC5/AdcSar.c ****     #if(AdcSar_DEFAULT_INTERNAL_CLK)
 108:.\Generated_Source\PSoC5/AdcSar.c ****         AdcSar_theACLK_SetMode(CYCLK_DUTY);
  95              		.loc 1 108 0
  96 0004 4FF01000 		mov	r0, #16
  97 0008 FFF7FEFF 		bl	AdcSar_theACLK_SetModeRegister
 109:.\Generated_Source\PSoC5/AdcSar.c ****     #endif /* End AdcSar_DEFAULT_INTERNAL_CLK */
 110:.\Generated_Source\PSoC5/AdcSar.c **** 
 111:.\Generated_Source\PSoC5/AdcSar.c ****     /* Start and set interrupt vector */
 112:.\Generated_Source\PSoC5/AdcSar.c ****     CyIntSetPriority(AdcSar_INTC_NUMBER, AdcSar_INTC_PRIOR_NUMBER);
  98              		.loc 1 112 0
  99 000c 4FF00C00 		mov	r0, #12
 100 0010 4FF00701 		mov	r1, #7
 101 0014 FFF7FEFF 		bl	CyIntSetPriority
 113:.\Generated_Source\PSoC5/AdcSar.c ****     CyIntSetVector(AdcSar_INTC_NUMBER, AdcSar_ISR );
 102              		.loc 1 113 0
 103 0018 4FF00C00 		mov	r0, #12
 104 001c 40F20001 		movw	r1, #:lower16:AdcSar_ISR
 105 0020 C0F20001 		movt	r1, #:upper16:AdcSar_ISR
 106 0024 FFF7FEFF 		bl	CyIntSetVector
 114:.\Generated_Source\PSoC5/AdcSar.c **** 
 115:.\Generated_Source\PSoC5/AdcSar.c ****     /* Enable IRQ mode*/
 116:.\Generated_Source\PSoC5/AdcSar.c ****     AdcSar_SAR_CSR1_REG |= AdcSar_SAR_IRQ_MASK_EN | AdcSar_SAR_IRQ_MODE_EDGE;
 107              		.loc 1 116 0
 108 0028 45F60113 		movw	r3, #:lower16:1073764609
ARM GAS  C:\Users\Geo\AppData\Local\Temp\ccJcx0AO.s 			page 5


 109 002c C4F20003 		movt	r3, #:upper16:1073764609
 110 0030 45F60112 		movw	r2, #:lower16:1073764609
 111 0034 C4F20002 		movt	r2, #:upper16:1073764609
 112 0038 1278     		ldrb	r2, [r2, #0]
 113 003a D2B2     		uxtb	r2, r2
 114 003c 42F00602 		orr	r2, r2, #6
 115 0040 D2B2     		uxtb	r2, r2
 116 0042 1A70     		strb	r2, [r3, #0]
 117:.\Generated_Source\PSoC5/AdcSar.c ****     
 118:.\Generated_Source\PSoC5/AdcSar.c ****     /*Set SAR ADC resolution ADC */
 119:.\Generated_Source\PSoC5/AdcSar.c ****     AdcSar_SetResolution(AdcSar_DEFAULT_RESOLUTION);
 117              		.loc 1 119 0
 118 0044 4FF00C00 		mov	r0, #12
 119 0048 FFF7FEFF 		bl	AdcSar_SetResolution
 120:.\Generated_Source\PSoC5/AdcSar.c ****     AdcSar_offset = 0;
 120              		.loc 1 120 0
 121 004c 40F20003 		movw	r3, #:lower16:AdcSar_offset
 122 0050 C0F20003 		movt	r3, #:upper16:AdcSar_offset
 123 0054 4FF00002 		mov	r2, #0
 124 0058 1A80     		strh	r2, [r3, #0]	@ movhi
 121:.\Generated_Source\PSoC5/AdcSar.c **** }
 125              		.loc 1 121 0
 126 005a 80BD     		pop	{r7, pc}
 127              		.cfi_endproc
 128              	.LFE1:
 129              		.size	AdcSar_Init, .-AdcSar_Init
 130              		.section	.text.AdcSar_Enable,"ax",%progbits
 131              		.align	2
 132              		.global	AdcSar_Enable
 133              		.thumb
 134              		.thumb_func
 135              		.type	AdcSar_Enable, %function
 136              	AdcSar_Enable:
 137              	.LFB2:
 122:.\Generated_Source\PSoC5/AdcSar.c **** 
 123:.\Generated_Source\PSoC5/AdcSar.c **** 
 124:.\Generated_Source\PSoC5/AdcSar.c **** /*******************************************************************************
 125:.\Generated_Source\PSoC5/AdcSar.c **** * Function Name: AdcSar_Enable
 126:.\Generated_Source\PSoC5/AdcSar.c **** ********************************************************************************
 127:.\Generated_Source\PSoC5/AdcSar.c **** *  
 128:.\Generated_Source\PSoC5/AdcSar.c **** * Summary: 
 129:.\Generated_Source\PSoC5/AdcSar.c **** *  Enables the reference, clock and power for SAR ADC.
 130:.\Generated_Source\PSoC5/AdcSar.c **** *
 131:.\Generated_Source\PSoC5/AdcSar.c **** * Parameters:  
 132:.\Generated_Source\PSoC5/AdcSar.c **** *  None.
 133:.\Generated_Source\PSoC5/AdcSar.c **** *
 134:.\Generated_Source\PSoC5/AdcSar.c **** * Return: 
 135:.\Generated_Source\PSoC5/AdcSar.c **** *  None.
 136:.\Generated_Source\PSoC5/AdcSar.c **** *
 137:.\Generated_Source\PSoC5/AdcSar.c **** *******************************************************************************/
 138:.\Generated_Source\PSoC5/AdcSar.c **** void AdcSar_Enable(void)
 139:.\Generated_Source\PSoC5/AdcSar.c **** {
 138              		.loc 1 139 0
 139              		.cfi_startproc
 140              		@ args = 0, pretend = 0, frame = 8
 141              		@ frame_needed = 1, uses_anonymous_args = 0
 142 0000 80B5     		push	{r7, lr}
ARM GAS  C:\Users\Geo\AppData\Local\Temp\ccJcx0AO.s 			page 6


 143              	.LCFI4:
 144              		.cfi_def_cfa_offset 8
 145 0002 82B0     		sub	sp, sp, #8
 146              	.LCFI5:
 147              		.cfi_def_cfa_offset 16
 148 0004 00AF     		add	r7, sp, #0
 149              		.cfi_offset 14, -4
 150              		.cfi_offset 7, -8
 151              	.LCFI6:
 152              		.cfi_def_cfa_register 7
 140:.\Generated_Source\PSoC5/AdcSar.c ****     uint8 tmpReg;
 141:.\Generated_Source\PSoC5/AdcSar.c ****     uint8 enableInterrupts;
 142:.\Generated_Source\PSoC5/AdcSar.c ****     enableInterrupts = CyEnterCriticalSection();
 153              		.loc 1 142 0
 154 0006 FFF7FEFF 		bl	CyEnterCriticalSection
 155 000a 0346     		mov	r3, r0
 156 000c FB71     		strb	r3, [r7, #7]
 143:.\Generated_Source\PSoC5/AdcSar.c **** 
 144:.\Generated_Source\PSoC5/AdcSar.c ****      /* Enable the SAR ADC block in Active Power Mode */
 145:.\Generated_Source\PSoC5/AdcSar.c ****     AdcSar_PWRMGR_SAR_REG |= AdcSar_ACT_PWR_SAR_EN;
 157              		.loc 1 145 0
 158 000e 44F2AB33 		movw	r3, #:lower16:1073759147
 159 0012 C4F20003 		movt	r3, #:upper16:1073759147
 160 0016 44F2AB32 		movw	r2, #:lower16:1073759147
 161 001a C4F20002 		movt	r2, #:upper16:1073759147
 162 001e 1278     		ldrb	r2, [r2, #0]
 163 0020 D2B2     		uxtb	r2, r2
 164 0022 42F00102 		orr	r2, r2, #1
 165 0026 D2B2     		uxtb	r2, r2
 166 0028 1A70     		strb	r2, [r3, #0]
 146:.\Generated_Source\PSoC5/AdcSar.c **** 
 147:.\Generated_Source\PSoC5/AdcSar.c ****      /* Enable the SAR ADC in Standby Power Mode*/
 148:.\Generated_Source\PSoC5/AdcSar.c ****     AdcSar_STBY_PWRMGR_SAR_REG |= AdcSar_STBY_PWR_SAR_EN;
 167              		.loc 1 148 0
 168 002a 44F2BB33 		movw	r3, #:lower16:1073759163
 169 002e C4F20003 		movt	r3, #:upper16:1073759163
 170 0032 44F2BB32 		movw	r2, #:lower16:1073759163
 171 0036 C4F20002 		movt	r2, #:upper16:1073759163
 172 003a 1278     		ldrb	r2, [r2, #0]
 173 003c D2B2     		uxtb	r2, r2
 174 003e 42F00102 		orr	r2, r2, #1
 175 0042 D2B2     		uxtb	r2, r2
 176 0044 1A70     		strb	r2, [r3, #0]
 149:.\Generated_Source\PSoC5/AdcSar.c **** 
 150:.\Generated_Source\PSoC5/AdcSar.c ****     /* This is only valid if there is an internal clock */
 151:.\Generated_Source\PSoC5/AdcSar.c ****     #if(AdcSar_DEFAULT_INTERNAL_CLK)
 152:.\Generated_Source\PSoC5/AdcSar.c ****         AdcSar_PWRMGR_CLK_REG |= AdcSar_ACT_PWR_CLK_EN;
 177              		.loc 1 152 0
 178 0046 44F2A133 		movw	r3, #:lower16:1073759137
 179 004a C4F20003 		movt	r3, #:upper16:1073759137
 180 004e 44F2A132 		movw	r2, #:lower16:1073759137
 181 0052 C4F20002 		movt	r2, #:upper16:1073759137
 182 0056 1278     		ldrb	r2, [r2, #0]
 183 0058 D2B2     		uxtb	r2, r2
 184 005a 42F00102 		orr	r2, r2, #1
 185 005e D2B2     		uxtb	r2, r2
 186 0060 1A70     		strb	r2, [r3, #0]
ARM GAS  C:\Users\Geo\AppData\Local\Temp\ccJcx0AO.s 			page 7


 153:.\Generated_Source\PSoC5/AdcSar.c ****         AdcSar_STBY_PWRMGR_CLK_REG |= AdcSar_STBY_PWR_CLK_EN;
 187              		.loc 1 153 0
 188 0062 44F2B133 		movw	r3, #:lower16:1073759153
 189 0066 C4F20003 		movt	r3, #:upper16:1073759153
 190 006a 44F2B132 		movw	r2, #:lower16:1073759153
 191 006e C4F20002 		movt	r2, #:upper16:1073759153
 192 0072 1278     		ldrb	r2, [r2, #0]
 193 0074 D2B2     		uxtb	r2, r2
 194 0076 42F00102 		orr	r2, r2, #1
 195 007a D2B2     		uxtb	r2, r2
 196 007c 1A70     		strb	r2, [r3, #0]
 154:.\Generated_Source\PSoC5/AdcSar.c ****     #endif /* End AdcSar_DEFAULT_INTERNAL_CLK */
 155:.\Generated_Source\PSoC5/AdcSar.c **** 
 156:.\Generated_Source\PSoC5/AdcSar.c ****     /*Sets input range of the ADC*/
 157:.\Generated_Source\PSoC5/AdcSar.c ****     #if(AdcSar_DEFAULT_RANGE == AdcSar__VSS_TO_VREF)
 158:.\Generated_Source\PSoC5/AdcSar.c ****         AdcSar_SetRef(AdcSar_DEFAULT_RANGE);
 159:.\Generated_Source\PSoC5/AdcSar.c ****     #elif(AdcSar_DEFAULT_RANGE == AdcSar__VSSA_TO_VDDA)
 160:.\Generated_Source\PSoC5/AdcSar.c ****         AdcSar_SAR_CSR3_REG = AdcSar_SAR_EN_RESVDA_EN;     /* Set bit for VDD/2 mode */
 197              		.loc 1 160 0
 198 007e 45F60313 		movw	r3, #:lower16:1073764611
 199 0082 C4F20003 		movt	r3, #:upper16:1073764611
 200 0086 4FF04002 		mov	r2, #64
 201 008a 1A70     		strb	r2, [r3, #0]
 161:.\Generated_Source\PSoC5/AdcSar.c ****         AdcSar_SetRef(AdcSar__VSSA_TO_VDDA);
 202              		.loc 1 161 0
 203 008c 4FF00100 		mov	r0, #1
 204 0090 FFF7FEFF 		bl	AdcSar_SetRef
 162:.\Generated_Source\PSoC5/AdcSar.c ****     #elif(AdcSar_DEFAULT_RANGE == AdcSar__VSSA_TO_VDAC)
 163:.\Generated_Source\PSoC5/AdcSar.c ****         AdcSar_SetRef(AdcSar_DEFAULT_RANGE);
 164:.\Generated_Source\PSoC5/AdcSar.c ****     #elif(AdcSar_DEFAULT_RANGE == AdcSar__VNEG_VREF_DIFF)
 165:.\Generated_Source\PSoC5/AdcSar.c ****         AdcSar_SAR_CSR3_REG = AdcSar_SAR_EN_CP_EN;         /* Enable charge pump*/
 166:.\Generated_Source\PSoC5/AdcSar.c ****         AdcSar_SetRef(AdcSar_DEFAULT_RANGE);
 167:.\Generated_Source\PSoC5/AdcSar.c ****     #elif(AdcSar_DEFAULT_RANGE == AdcSar__VNEG_VDDA_DIFF)
 168:.\Generated_Source\PSoC5/AdcSar.c ****         AdcSar_SAR_CSR3_REG = AdcSar_SAR_EN_CP_EN;         /* Enable charge pump*/
 169:.\Generated_Source\PSoC5/AdcSar.c ****         AdcSar_SetRef(AdcSar__VSSA_TO_VDDA);
 170:.\Generated_Source\PSoC5/AdcSar.c ****     #elif(AdcSar_DEFAULT_RANGE == AdcSar__VNEG_VDDA_2_DIFF)
 171:.\Generated_Source\PSoC5/AdcSar.c ****         AdcSar_SAR_CSR3_REG = AdcSar_SAR_EN_RESVDA_EN |    /* Set bit for VDD/2 mode*/
 172:.\Generated_Source\PSoC5/AdcSar.c ****                                         AdcSar_SAR_EN_CP_EN;         /* Enable charge pump*/
 173:.\Generated_Source\PSoC5/AdcSar.c ****         AdcSar_SetRef(AdcSar__VSSA_TO_VDDA);
 174:.\Generated_Source\PSoC5/AdcSar.c ****     #elif(AdcSar_DEFAULT_RANGE == AdcSar__VNEG_VDAC_DIFF)
 175:.\Generated_Source\PSoC5/AdcSar.c ****         AdcSar_SetRef(AdcSar_DEFAULT_RANGE);
 176:.\Generated_Source\PSoC5/AdcSar.c ****     #endif /* end AdcSar_DEFAULT_RANGE */
 177:.\Generated_Source\PSoC5/AdcSar.c **** 
 178:.\Generated_Source\PSoC5/AdcSar.c ****     /* Set default power */
 179:.\Generated_Source\PSoC5/AdcSar.c ****     tmpReg = (AdcSar_DEFAULT_POWER << AdcSar_SAR_POWER_SHIFT);
 205              		.loc 1 179 0
 206 0094 6FF03F03 		mvn	r3, #63
 207 0098 BB71     		strb	r3, [r7, #6]
 180:.\Generated_Source\PSoC5/AdcSar.c ****     /* Clear DAC value at beginning of sampling when internal reference used */
 181:.\Generated_Source\PSoC5/AdcSar.c ****     #if(AdcSar_DEFAULT_REFERENCE != AdcSar__EXT_REF)
 182:.\Generated_Source\PSoC5/AdcSar.c ****         tmpReg |= AdcSar_SAR_HIZ_CLEAR;
 208              		.loc 1 182 0
 209 009a BB79     		ldrb	r3, [r7, #6]
 210 009c 43F00803 		orr	r3, r3, #8
 211 00a0 BB71     		strb	r3, [r7, #6]
 183:.\Generated_Source\PSoC5/AdcSar.c ****     #endif /* End AdcSar_DEFAULT_REFERENCE != AdcSar__EXT_REF */    
 184:.\Generated_Source\PSoC5/AdcSar.c ****     /*Set Convertion mode */
ARM GAS  C:\Users\Geo\AppData\Local\Temp\ccJcx0AO.s 			page 8


 185:.\Generated_Source\PSoC5/AdcSar.c ****     #if(AdcSar_DEFAULT_CONV_MODE == AdcSar__TRIGGERED)      /* If triggered mode */
 186:.\Generated_Source\PSoC5/AdcSar.c ****         tmpReg |= AdcSar_SAR_MX_SOF_UDB |          /* source: UDB */
 187:.\Generated_Source\PSoC5/AdcSar.c ****                   AdcSar_SAR_SOF_MODE_EDGE;        /* Set edge-sensitive sof source */
 188:.\Generated_Source\PSoC5/AdcSar.c ****     #endif /* AdcSar_DEFAULT_CONV_MODE */
 189:.\Generated_Source\PSoC5/AdcSar.c ****     AdcSar_SAR_CSR0_REG = tmpReg;
 212              		.loc 1 189 0
 213 00a2 45F60013 		movw	r3, #:lower16:1073764608
 214 00a6 C4F20003 		movt	r3, #:upper16:1073764608
 215 00aa BA79     		ldrb	r2, [r7, #6]
 216 00ac 1A70     		strb	r2, [r3, #0]
 190:.\Generated_Source\PSoC5/AdcSar.c **** 
 191:.\Generated_Source\PSoC5/AdcSar.c ****     /* Enable clock for SAR ADC*/
 192:.\Generated_Source\PSoC5/AdcSar.c ****     AdcSar_SAR_CLK_REG |= AdcSar_SAR_MX_CLK_EN;
 217              		.loc 1 192 0
 218 00ae 45F62733 		movw	r3, #:lower16:1073765159
 219 00b2 C4F20003 		movt	r3, #:upper16:1073765159
 220 00b6 45F62732 		movw	r2, #:lower16:1073765159
 221 00ba C4F20002 		movt	r2, #:upper16:1073765159
 222 00be 1278     		ldrb	r2, [r2, #0]
 223 00c0 D2B2     		uxtb	r2, r2
 224 00c2 42F00802 		orr	r2, r2, #8
 225 00c6 D2B2     		uxtb	r2, r2
 226 00c8 1A70     		strb	r2, [r3, #0]
 193:.\Generated_Source\PSoC5/AdcSar.c ****    
 194:.\Generated_Source\PSoC5/AdcSar.c ****     #if(CY_PSOC5_ES1)
 195:.\Generated_Source\PSoC5/AdcSar.c ****         /* Software Reset */
 196:.\Generated_Source\PSoC5/AdcSar.c ****         AdcSar_SAR_CSR0_REG |= AdcSar_SAR_RESET_SOFT_ACTIVE;
 227              		.loc 1 196 0
 228 00ca 45F60013 		movw	r3, #:lower16:1073764608
 229 00ce C4F20003 		movt	r3, #:upper16:1073764608
 230 00d2 45F60012 		movw	r2, #:lower16:1073764608
 231 00d6 C4F20002 		movt	r2, #:upper16:1073764608
 232 00da 1278     		ldrb	r2, [r2, #0]
 233 00dc D2B2     		uxtb	r2, r2
 234 00de 42F02002 		orr	r2, r2, #32
 235 00e2 D2B2     		uxtb	r2, r2
 236 00e4 1A70     		strb	r2, [r3, #0]
 197:.\Generated_Source\PSoC5/AdcSar.c ****         CyDelayUs(2); /* 2us delay is required for the lowest 1Mhz clock connected to SAR */
 237              		.loc 1 197 0
 238 00e6 4FF00200 		mov	r0, #2
 239 00ea FFF7FEFF 		bl	CyDelayUs
 198:.\Generated_Source\PSoC5/AdcSar.c ****         AdcSar_SAR_CSR0_REG &= ~AdcSar_SAR_RESET_SOFT_ACTIVE;
 240              		.loc 1 198 0
 241 00ee 45F60013 		movw	r3, #:lower16:1073764608
 242 00f2 C4F20003 		movt	r3, #:upper16:1073764608
 243 00f6 45F60012 		movw	r2, #:lower16:1073764608
 244 00fa C4F20002 		movt	r2, #:upper16:1073764608
 245 00fe 1278     		ldrb	r2, [r2, #0]
 246 0100 D2B2     		uxtb	r2, r2
 247 0102 02F0DF02 		and	r2, r2, #223
 248 0106 1A70     		strb	r2, [r3, #0]
 199:.\Generated_Source\PSoC5/AdcSar.c ****     #endif /* End CY_PSOC5_ES1 */
 200:.\Generated_Source\PSoC5/AdcSar.c **** 
 201:.\Generated_Source\PSoC5/AdcSar.c ****     /* Clear a pending interrupt */
 202:.\Generated_Source\PSoC5/AdcSar.c ****     CyIntClearPending(AdcSar_INTC_NUMBER);
 249              		.loc 1 202 0
 250 0108 4FF00C00 		mov	r0, #12
ARM GAS  C:\Users\Geo\AppData\Local\Temp\ccJcx0AO.s 			page 9


 251 010c FFF7FEFF 		bl	CyIntClearPending
 203:.\Generated_Source\PSoC5/AdcSar.c ****     
 204:.\Generated_Source\PSoC5/AdcSar.c ****     CyExitCriticalSection(enableInterrupts);
 252              		.loc 1 204 0
 253 0110 FB79     		ldrb	r3, [r7, #7]	@ zero_extendqisi2
 254 0112 1846     		mov	r0, r3
 255 0114 FFF7FEFF 		bl	CyExitCriticalSection
 205:.\Generated_Source\PSoC5/AdcSar.c **** }
 256              		.loc 1 205 0
 257 0118 07F10807 		add	r7, r7, #8
 258 011c BD46     		mov	sp, r7
 259 011e 80BD     		pop	{r7, pc}
 260              		.cfi_endproc
 261              	.LFE2:
 262              		.size	AdcSar_Enable, .-AdcSar_Enable
 263              		.section	.text.AdcSar_SetRef,"ax",%progbits
 264              		.align	2
 265              		.global	AdcSar_SetRef
 266              		.thumb
 267              		.thumb_func
 268              		.type	AdcSar_SetRef, %function
 269              	AdcSar_SetRef:
 270              	.LFB3:
 206:.\Generated_Source\PSoC5/AdcSar.c **** 
 207:.\Generated_Source\PSoC5/AdcSar.c **** 
 208:.\Generated_Source\PSoC5/AdcSar.c **** /*******************************************************************************
 209:.\Generated_Source\PSoC5/AdcSar.c **** * Function Name: AdcSar_SetRef
 210:.\Generated_Source\PSoC5/AdcSar.c **** ********************************************************************************
 211:.\Generated_Source\PSoC5/AdcSar.c **** *
 212:.\Generated_Source\PSoC5/AdcSar.c **** * Summary:
 213:.\Generated_Source\PSoC5/AdcSar.c **** *   Sets reference for ADC
 214:.\Generated_Source\PSoC5/AdcSar.c **** *
 215:.\Generated_Source\PSoC5/AdcSar.c **** * Parameters:
 216:.\Generated_Source\PSoC5/AdcSar.c **** *  refMode: Reference configuration.
 217:.\Generated_Source\PSoC5/AdcSar.c **** *
 218:.\Generated_Source\PSoC5/AdcSar.c **** * Return:
 219:.\Generated_Source\PSoC5/AdcSar.c **** *  None.
 220:.\Generated_Source\PSoC5/AdcSar.c **** *
 221:.\Generated_Source\PSoC5/AdcSar.c **** *******************************************************************************/
 222:.\Generated_Source\PSoC5/AdcSar.c **** void AdcSar_SetRef(int8 refMode)
 223:.\Generated_Source\PSoC5/AdcSar.c **** {
 271              		.loc 1 223 0
 272              		.cfi_startproc
 273              		@ args = 0, pretend = 0, frame = 16
 274              		@ frame_needed = 1, uses_anonymous_args = 0
 275              		@ link register save eliminated.
 276 0000 80B4     		push	{r7}
 277              	.LCFI7:
 278              		.cfi_def_cfa_offset 4
 279 0002 85B0     		sub	sp, sp, #20
 280              	.LCFI8:
 281              		.cfi_def_cfa_offset 24
 282 0004 00AF     		add	r7, sp, #0
 283              		.cfi_offset 7, -4
 284              	.LCFI9:
 285              		.cfi_def_cfa_register 7
 286 0006 0346     		mov	r3, r0
ARM GAS  C:\Users\Geo\AppData\Local\Temp\ccJcx0AO.s 			page 10


 287 0008 FB71     		strb	r3, [r7, #7]
 224:.\Generated_Source\PSoC5/AdcSar.c ****     uint8 tmpReg;
 225:.\Generated_Source\PSoC5/AdcSar.c ****     if(refMode == AdcSar__VSSA_TO_VDDA)
 288              		.loc 1 225 0
 289 000a 97F90730 		ldrsb	r3, [r7, #7]
 290 000e 012B     		cmp	r3, #1
 291 0010 11D1     		bne	.L9
 226:.\Generated_Source\PSoC5/AdcSar.c ****     {
 227:.\Generated_Source\PSoC5/AdcSar.c ****         #if(AdcSar_DEFAULT_REFERENCE == AdcSar__INT_REF_NOT_BYPASSED)
 228:.\Generated_Source\PSoC5/AdcSar.c ****             tmpReg = AdcSar_SAR_REF_S3_LSB_EN | AdcSar_SAR_REF_S4_LSB_EN;
 292              		.loc 1 228 0
 293 0012 4FF01803 		mov	r3, #24
 294 0016 FB73     		strb	r3, [r7, #15]
 229:.\Generated_Source\PSoC5/AdcSar.c ****             AdcSar_SAR_CSR3_REG |= AdcSar_SAR_EN_BUF_VREF_EN; /* Enable Int Ref Amp*/
 295              		.loc 1 229 0
 296 0018 45F60313 		movw	r3, #:lower16:1073764611
 297 001c C4F20003 		movt	r3, #:upper16:1073764611
 298 0020 45F60312 		movw	r2, #:lower16:1073764611
 299 0024 C4F20002 		movt	r2, #:upper16:1073764611
 300 0028 1278     		ldrb	r2, [r2, #0]
 301 002a D2B2     		uxtb	r2, r2
 302 002c 42F00102 		orr	r2, r2, #1
 303 0030 D2B2     		uxtb	r2, r2
 304 0032 1A70     		strb	r2, [r3, #0]
 305 0034 10E0     		b	.L10
 306              	.L9:
 230:.\Generated_Source\PSoC5/AdcSar.c ****         #elif(AdcSar_DEFAULT_REFERENCE == AdcSar__INT_REF_BYPASS)
 231:.\Generated_Source\PSoC5/AdcSar.c ****             tmpReg = AdcSar_SAR_REF_S2_LSB_EN | AdcSar_SAR_REF_S3_LSB_EN | 
 232:.\Generated_Source\PSoC5/AdcSar.c ****                      AdcSar_SAR_REF_S4_LSB_EN;
 233:.\Generated_Source\PSoC5/AdcSar.c ****             AdcSar_SAR_CSR3_REG |= AdcSar_SAR_EN_BUF_VREF_EN; /* Enable Int Ref Amp*/
 234:.\Generated_Source\PSoC5/AdcSar.c ****         #elif(AdcSar_DEFAULT_REFERENCE == AdcSar__EXT_REF)
 235:.\Generated_Source\PSoC5/AdcSar.c ****             tmpReg = AdcSar_SAR_REF_S2_LSB_EN;
 236:.\Generated_Source\PSoC5/AdcSar.c ****             AdcSar_SAR_CSR3_REG &= ~AdcSar_SAR_EN_BUF_VREF_EN; /* Disable Int Ref Amp*/
 237:.\Generated_Source\PSoC5/AdcSar.c ****         #endif /*  End AdcSar_DEFAULT_REFERENCE */
 238:.\Generated_Source\PSoC5/AdcSar.c ****     }
 239:.\Generated_Source\PSoC5/AdcSar.c ****     else
 240:.\Generated_Source\PSoC5/AdcSar.c ****     {
 241:.\Generated_Source\PSoC5/AdcSar.c ****         #if(AdcSar_DEFAULT_REFERENCE == AdcSar__INT_REF_NOT_BYPASSED)
 242:.\Generated_Source\PSoC5/AdcSar.c ****             tmpReg = AdcSar_SAR_REF_S3_LSB_EN | AdcSar_SAR_REF_S4_LSB_EN;
 307              		.loc 1 242 0
 308 0036 4FF01803 		mov	r3, #24
 309 003a FB73     		strb	r3, [r7, #15]
 243:.\Generated_Source\PSoC5/AdcSar.c ****             AdcSar_SAR_CSR3_REG |= AdcSar_SAR_EN_BUF_VREF_EN; /* Enable Int Ref Amp*/
 310              		.loc 1 243 0
 311 003c 45F60313 		movw	r3, #:lower16:1073764611
 312 0040 C4F20003 		movt	r3, #:upper16:1073764611
 313 0044 45F60312 		movw	r2, #:lower16:1073764611
 314 0048 C4F20002 		movt	r2, #:upper16:1073764611
 315 004c 1278     		ldrb	r2, [r2, #0]
 316 004e D2B2     		uxtb	r2, r2
 317 0050 42F00102 		orr	r2, r2, #1
 318 0054 D2B2     		uxtb	r2, r2
 319 0056 1A70     		strb	r2, [r3, #0]
 320              	.L10:
 244:.\Generated_Source\PSoC5/AdcSar.c ****         #elif(AdcSar_DEFAULT_REFERENCE == AdcSar__INT_REF_BYPASS)
 245:.\Generated_Source\PSoC5/AdcSar.c ****             tmpReg = AdcSar_SAR_REF_S2_LSB_EN | AdcSar_SAR_REF_S3_LSB_EN | 
 246:.\Generated_Source\PSoC5/AdcSar.c ****                      AdcSar_SAR_REF_S4_LSB_EN;
ARM GAS  C:\Users\Geo\AppData\Local\Temp\ccJcx0AO.s 			page 11


 247:.\Generated_Source\PSoC5/AdcSar.c ****             AdcSar_SAR_CSR3_REG |= AdcSar_SAR_EN_BUF_VREF_EN; /* Enable Int Ref Amp*/
 248:.\Generated_Source\PSoC5/AdcSar.c ****         #elif(AdcSar_DEFAULT_REFERENCE == AdcSar__EXT_REF)
 249:.\Generated_Source\PSoC5/AdcSar.c ****             tmpReg = AdcSar_SAR_REF_S2_LSB_EN;
 250:.\Generated_Source\PSoC5/AdcSar.c ****             AdcSar_SAR_CSR3_REG &= ~AdcSar_SAR_EN_BUF_VREF_EN; /* Disable Int Ref Amp*/
 251:.\Generated_Source\PSoC5/AdcSar.c ****         #endif /*  End AdcSar_DEFAULT_REFERENCE */
 252:.\Generated_Source\PSoC5/AdcSar.c ****     }
 253:.\Generated_Source\PSoC5/AdcSar.c ****     AdcSar_SAR_CSR6_REG = tmpReg;
 321              		.loc 1 253 0
 322 0058 45F60613 		movw	r3, #:lower16:1073764614
 323 005c C4F20003 		movt	r3, #:upper16:1073764614
 324 0060 FA7B     		ldrb	r2, [r7, #15]
 325 0062 1A70     		strb	r2, [r3, #0]
 254:.\Generated_Source\PSoC5/AdcSar.c ****     AdcSar_SAR_CSR7_REG = AdcSar_SAR_REF_S_MSB_DIS;
 326              		.loc 1 254 0
 327 0064 45F60713 		movw	r3, #:lower16:1073764615
 328 0068 C4F20003 		movt	r3, #:upper16:1073764615
 329 006c 4FF00002 		mov	r2, #0
 330 0070 1A70     		strb	r2, [r3, #0]
 255:.\Generated_Source\PSoC5/AdcSar.c **** }
 331              		.loc 1 255 0
 332 0072 07F11407 		add	r7, r7, #20
 333 0076 BD46     		mov	sp, r7
 334 0078 80BC     		pop	{r7}
 335 007a 7047     		bx	lr
 336              		.cfi_endproc
 337              	.LFE3:
 338              		.size	AdcSar_SetRef, .-AdcSar_SetRef
 339              		.section	.text.AdcSar_Stop,"ax",%progbits
 340              		.align	2
 341              		.global	AdcSar_Stop
 342              		.thumb
 343              		.thumb_func
 344              		.type	AdcSar_Stop, %function
 345              	AdcSar_Stop:
 346              	.LFB4:
 256:.\Generated_Source\PSoC5/AdcSar.c **** 
 257:.\Generated_Source\PSoC5/AdcSar.c **** 
 258:.\Generated_Source\PSoC5/AdcSar.c **** /*******************************************************************************
 259:.\Generated_Source\PSoC5/AdcSar.c **** * Function Name: AdcSar_Stop
 260:.\Generated_Source\PSoC5/AdcSar.c **** ********************************************************************************
 261:.\Generated_Source\PSoC5/AdcSar.c **** *
 262:.\Generated_Source\PSoC5/AdcSar.c **** * Summary:
 263:.\Generated_Source\PSoC5/AdcSar.c **** *  Stops convertion and reduce the power to the minimum.
 264:.\Generated_Source\PSoC5/AdcSar.c **** *
 265:.\Generated_Source\PSoC5/AdcSar.c **** * Parameters:
 266:.\Generated_Source\PSoC5/AdcSar.c **** *  None.
 267:.\Generated_Source\PSoC5/AdcSar.c **** *
 268:.\Generated_Source\PSoC5/AdcSar.c **** * Return:
 269:.\Generated_Source\PSoC5/AdcSar.c **** *  None.
 270:.\Generated_Source\PSoC5/AdcSar.c **** *
 271:.\Generated_Source\PSoC5/AdcSar.c **** *******************************************************************************/
 272:.\Generated_Source\PSoC5/AdcSar.c **** void AdcSar_Stop(void)
 273:.\Generated_Source\PSoC5/AdcSar.c **** {
 347              		.loc 1 273 0
 348              		.cfi_startproc
 349              		@ args = 0, pretend = 0, frame = 8
 350              		@ frame_needed = 1, uses_anonymous_args = 0
ARM GAS  C:\Users\Geo\AppData\Local\Temp\ccJcx0AO.s 			page 12


 351 0000 80B5     		push	{r7, lr}
 352              	.LCFI10:
 353              		.cfi_def_cfa_offset 8
 354 0002 82B0     		sub	sp, sp, #8
 355              	.LCFI11:
 356              		.cfi_def_cfa_offset 16
 357 0004 00AF     		add	r7, sp, #0
 358              		.cfi_offset 14, -4
 359              		.cfi_offset 7, -8
 360              	.LCFI12:
 361              		.cfi_def_cfa_register 7
 274:.\Generated_Source\PSoC5/AdcSar.c ****     uint8 enableInterrupts;
 275:.\Generated_Source\PSoC5/AdcSar.c ****     enableInterrupts = CyEnterCriticalSection();
 362              		.loc 1 275 0
 363 0006 FFF7FEFF 		bl	CyEnterCriticalSection
 364 000a 0346     		mov	r3, r0
 365 000c FB71     		strb	r3, [r7, #7]
 276:.\Generated_Source\PSoC5/AdcSar.c **** 
 277:.\Generated_Source\PSoC5/AdcSar.c ****     /* Stop all conversions */
 278:.\Generated_Source\PSoC5/AdcSar.c ****     AdcSar_SAR_CSR0_REG &= ~AdcSar_SAR_SOF_START_CONV;
 366              		.loc 1 278 0
 367 000e 45F60013 		movw	r3, #:lower16:1073764608
 368 0012 C4F20003 		movt	r3, #:upper16:1073764608
 369 0016 45F60012 		movw	r2, #:lower16:1073764608
 370 001a C4F20002 		movt	r2, #:upper16:1073764608
 371 001e 1278     		ldrb	r2, [r2, #0]
 372 0020 D2B2     		uxtb	r2, r2
 373 0022 02F0FE02 		and	r2, r2, #254
 374 0026 1A70     		strb	r2, [r3, #0]
 279:.\Generated_Source\PSoC5/AdcSar.c ****     
 280:.\Generated_Source\PSoC5/AdcSar.c ****     #if(CY_PSOC5_ES1)
 281:.\Generated_Source\PSoC5/AdcSar.c ****         /* Leave the SAR block powered and reduce the power to the minimum */
 282:.\Generated_Source\PSoC5/AdcSar.c ****         AdcSar_SAR_CSR0_REG |= AdcSar_ICONT_LV_3;
 375              		.loc 1 282 0
 376 0028 45F60013 		movw	r3, #:lower16:1073764608
 377 002c C4F20003 		movt	r3, #:upper16:1073764608
 378 0030 45F60012 		movw	r2, #:lower16:1073764608
 379 0034 C4F20002 		movt	r2, #:upper16:1073764608
 380 0038 1278     		ldrb	r2, [r2, #0]
 381 003a D2B2     		uxtb	r2, r2
 382 003c 6FEA8262 		mvn	r2, r2, lsl #26
 383 0040 6FEA9262 		mvn	r2, r2, lsr #26
 384 0044 D2B2     		uxtb	r2, r2
 385 0046 1A70     		strb	r2, [r3, #0]
 283:.\Generated_Source\PSoC5/AdcSar.c ****         /* Disable reference buffer and reduce the reference power to the minimum */
 284:.\Generated_Source\PSoC5/AdcSar.c ****         AdcSar_SAR_CSR3_REG = AdcSar_SAR_PWR_CTRL_VREF_DIV_BY4;    
 386              		.loc 1 284 0
 387 0048 45F60313 		movw	r3, #:lower16:1073764611
 388 004c C4F20003 		movt	r3, #:upper16:1073764611
 389 0050 4FF00C02 		mov	r2, #12
 390 0054 1A70     		strb	r2, [r3, #0]
 285:.\Generated_Source\PSoC5/AdcSar.c ****     #else    
 286:.\Generated_Source\PSoC5/AdcSar.c ****         /* Disable the SAR ADC block in Active Power Mode */
 287:.\Generated_Source\PSoC5/AdcSar.c ****         AdcSar_PWRMGR_SAR_REG &= ~AdcSar_ACT_PWR_SAR_EN;
 288:.\Generated_Source\PSoC5/AdcSar.c ****         /* Disable the SAR ADC in Standby Power Mode */
 289:.\Generated_Source\PSoC5/AdcSar.c ****         AdcSar_STBY_PWRMGR_SAR_REG &= ~AdcSar_STBY_PWR_SAR_EN;
 290:.\Generated_Source\PSoC5/AdcSar.c ****         /* Disable power for reference buffer and charge pump*/
ARM GAS  C:\Users\Geo\AppData\Local\Temp\ccJcx0AO.s 			page 13


 291:.\Generated_Source\PSoC5/AdcSar.c ****         AdcSar_SAR_CSR3_REG = AdcSar_SAR_EN_BUF_VREF_DIS;    
 292:.\Generated_Source\PSoC5/AdcSar.c ****     #endif /* End CY_PSOC5_ES1 */
 293:.\Generated_Source\PSoC5/AdcSar.c ****     
 294:.\Generated_Source\PSoC5/AdcSar.c **** 
 295:.\Generated_Source\PSoC5/AdcSar.c ****     /* This is only valid if there is an internal clock */
 296:.\Generated_Source\PSoC5/AdcSar.c ****     #if(AdcSar_DEFAULT_INTERNAL_CLK)
 297:.\Generated_Source\PSoC5/AdcSar.c ****         AdcSar_PWRMGR_CLK_REG &= ~AdcSar_ACT_PWR_CLK_EN;
 391              		.loc 1 297 0
 392 0056 44F2A133 		movw	r3, #:lower16:1073759137
 393 005a C4F20003 		movt	r3, #:upper16:1073759137
 394 005e 44F2A132 		movw	r2, #:lower16:1073759137
 395 0062 C4F20002 		movt	r2, #:upper16:1073759137
 396 0066 1278     		ldrb	r2, [r2, #0]
 397 0068 D2B2     		uxtb	r2, r2
 398 006a 02F0FE02 		and	r2, r2, #254
 399 006e 1A70     		strb	r2, [r3, #0]
 298:.\Generated_Source\PSoC5/AdcSar.c ****         AdcSar_STBY_PWRMGR_CLK_REG &= ~AdcSar_STBY_PWR_CLK_EN;
 400              		.loc 1 298 0
 401 0070 44F2B133 		movw	r3, #:lower16:1073759153
 402 0074 C4F20003 		movt	r3, #:upper16:1073759153
 403 0078 44F2B132 		movw	r2, #:lower16:1073759153
 404 007c C4F20002 		movt	r2, #:upper16:1073759153
 405 0080 1278     		ldrb	r2, [r2, #0]
 406 0082 D2B2     		uxtb	r2, r2
 407 0084 02F0FE02 		and	r2, r2, #254
 408 0088 1A70     		strb	r2, [r3, #0]
 299:.\Generated_Source\PSoC5/AdcSar.c ****     #endif /* End AdcSar_DEFAULT_INTERNAL_CLK */
 300:.\Generated_Source\PSoC5/AdcSar.c **** 
 301:.\Generated_Source\PSoC5/AdcSar.c ****     CyExitCriticalSection(enableInterrupts);
 409              		.loc 1 301 0
 410 008a FB79     		ldrb	r3, [r7, #7]	@ zero_extendqisi2
 411 008c 1846     		mov	r0, r3
 412 008e FFF7FEFF 		bl	CyExitCriticalSection
 302:.\Generated_Source\PSoC5/AdcSar.c ****     
 303:.\Generated_Source\PSoC5/AdcSar.c **** }
 413              		.loc 1 303 0
 414 0092 07F10807 		add	r7, r7, #8
 415 0096 BD46     		mov	sp, r7
 416 0098 80BD     		pop	{r7, pc}
 417              		.cfi_endproc
 418              	.LFE4:
 419              		.size	AdcSar_Stop, .-AdcSar_Stop
 420 009a 00BF     		.section	.text.AdcSar_IRQ_Enable,"ax",%progbits
 421              		.align	2
 422              		.global	AdcSar_IRQ_Enable
 423              		.thumb
 424              		.thumb_func
 425              		.type	AdcSar_IRQ_Enable, %function
 426              	AdcSar_IRQ_Enable:
 427              	.LFB5:
 304:.\Generated_Source\PSoC5/AdcSar.c **** 
 305:.\Generated_Source\PSoC5/AdcSar.c **** 
 306:.\Generated_Source\PSoC5/AdcSar.c **** /*******************************************************************************
 307:.\Generated_Source\PSoC5/AdcSar.c **** * Function Name: AdcSar_IRQ_Enable
 308:.\Generated_Source\PSoC5/AdcSar.c **** ********************************************************************************
 309:.\Generated_Source\PSoC5/AdcSar.c **** * Summary:
 310:.\Generated_Source\PSoC5/AdcSar.c **** *  Enables the interrupt.
ARM GAS  C:\Users\Geo\AppData\Local\Temp\ccJcx0AO.s 			page 14


 311:.\Generated_Source\PSoC5/AdcSar.c **** *
 312:.\Generated_Source\PSoC5/AdcSar.c **** * Parameters:
 313:.\Generated_Source\PSoC5/AdcSar.c **** *  None.
 314:.\Generated_Source\PSoC5/AdcSar.c **** *
 315:.\Generated_Source\PSoC5/AdcSar.c **** * Return:
 316:.\Generated_Source\PSoC5/AdcSar.c **** *  None.
 317:.\Generated_Source\PSoC5/AdcSar.c **** *
 318:.\Generated_Source\PSoC5/AdcSar.c **** *******************************************************************************/
 319:.\Generated_Source\PSoC5/AdcSar.c **** void AdcSar_IRQ_Enable(void)
 320:.\Generated_Source\PSoC5/AdcSar.c **** {
 428              		.loc 1 320 0
 429              		.cfi_startproc
 430              		@ args = 0, pretend = 0, frame = 0
 431              		@ frame_needed = 1, uses_anonymous_args = 0
 432 0000 80B5     		push	{r7, lr}
 433              	.LCFI13:
 434              		.cfi_def_cfa_offset 8
 435 0002 00AF     		add	r7, sp, #0
 436              		.cfi_offset 14, -4
 437              		.cfi_offset 7, -8
 438              	.LCFI14:
 439              		.cfi_def_cfa_register 7
 321:.\Generated_Source\PSoC5/AdcSar.c ****     /* Enable the general interrupt. */
 322:.\Generated_Source\PSoC5/AdcSar.c ****     CyIntEnable(AdcSar_INTC_NUMBER);
 440              		.loc 1 322 0
 441 0004 4FF00C00 		mov	r0, #12
 442 0008 FFF7FEFF 		bl	CyIntEnable
 323:.\Generated_Source\PSoC5/AdcSar.c **** }
 443              		.loc 1 323 0
 444 000c 80BD     		pop	{r7, pc}
 445              		.cfi_endproc
 446              	.LFE5:
 447              		.size	AdcSar_IRQ_Enable, .-AdcSar_IRQ_Enable
 448 000e 00BF     		.section	.text.AdcSar_IRQ_Disable,"ax",%progbits
 449              		.align	2
 450              		.global	AdcSar_IRQ_Disable
 451              		.thumb
 452              		.thumb_func
 453              		.type	AdcSar_IRQ_Disable, %function
 454              	AdcSar_IRQ_Disable:
 455              	.LFB6:
 324:.\Generated_Source\PSoC5/AdcSar.c **** 
 325:.\Generated_Source\PSoC5/AdcSar.c **** 
 326:.\Generated_Source\PSoC5/AdcSar.c **** /*******************************************************************************
 327:.\Generated_Source\PSoC5/AdcSar.c **** * Function Name: AdcSar_IRQ_Disable
 328:.\Generated_Source\PSoC5/AdcSar.c **** ********************************************************************************
 329:.\Generated_Source\PSoC5/AdcSar.c **** *
 330:.\Generated_Source\PSoC5/AdcSar.c **** * Summary:
 331:.\Generated_Source\PSoC5/AdcSar.c **** *  Disables the Interrupt.
 332:.\Generated_Source\PSoC5/AdcSar.c **** *
 333:.\Generated_Source\PSoC5/AdcSar.c **** * Parameters:
 334:.\Generated_Source\PSoC5/AdcSar.c **** *  None.
 335:.\Generated_Source\PSoC5/AdcSar.c **** *
 336:.\Generated_Source\PSoC5/AdcSar.c **** * Return:
 337:.\Generated_Source\PSoC5/AdcSar.c **** *  None.
 338:.\Generated_Source\PSoC5/AdcSar.c **** *
 339:.\Generated_Source\PSoC5/AdcSar.c **** *******************************************************************************/
ARM GAS  C:\Users\Geo\AppData\Local\Temp\ccJcx0AO.s 			page 15


 340:.\Generated_Source\PSoC5/AdcSar.c **** void AdcSar_IRQ_Disable(void)
 341:.\Generated_Source\PSoC5/AdcSar.c **** {
 456              		.loc 1 341 0
 457              		.cfi_startproc
 458              		@ args = 0, pretend = 0, frame = 0
 459              		@ frame_needed = 1, uses_anonymous_args = 0
 460 0000 80B5     		push	{r7, lr}
 461              	.LCFI15:
 462              		.cfi_def_cfa_offset 8
 463 0002 00AF     		add	r7, sp, #0
 464              		.cfi_offset 14, -4
 465              		.cfi_offset 7, -8
 466              	.LCFI16:
 467              		.cfi_def_cfa_register 7
 342:.\Generated_Source\PSoC5/AdcSar.c ****     /* Disable the general interrupt. */
 343:.\Generated_Source\PSoC5/AdcSar.c ****     CyIntDisable(AdcSar_INTC_NUMBER);
 468              		.loc 1 343 0
 469 0004 4FF00C00 		mov	r0, #12
 470 0008 FFF7FEFF 		bl	CyIntDisable
 344:.\Generated_Source\PSoC5/AdcSar.c **** }
 471              		.loc 1 344 0
 472 000c 80BD     		pop	{r7, pc}
 473              		.cfi_endproc
 474              	.LFE6:
 475              		.size	AdcSar_IRQ_Disable, .-AdcSar_IRQ_Disable
 476 000e 00BF     		.section	.text.AdcSar_SetPower,"ax",%progbits
 477              		.align	2
 478              		.global	AdcSar_SetPower
 479              		.thumb
 480              		.thumb_func
 481              		.type	AdcSar_SetPower, %function
 482              	AdcSar_SetPower:
 483              	.LFB7:
 345:.\Generated_Source\PSoC5/AdcSar.c **** 
 346:.\Generated_Source\PSoC5/AdcSar.c **** 
 347:.\Generated_Source\PSoC5/AdcSar.c **** /*******************************************************************************
 348:.\Generated_Source\PSoC5/AdcSar.c **** * Function Name: AdcSar_SetPower
 349:.\Generated_Source\PSoC5/AdcSar.c **** ********************************************************************************
 350:.\Generated_Source\PSoC5/AdcSar.c **** *
 351:.\Generated_Source\PSoC5/AdcSar.c **** * Summary:
 352:.\Generated_Source\PSoC5/AdcSar.c **** *  Sets the Power mode.
 353:.\Generated_Source\PSoC5/AdcSar.c **** *
 354:.\Generated_Source\PSoC5/AdcSar.c **** * Parameters:
 355:.\Generated_Source\PSoC5/AdcSar.c **** *  power:  Power setting for ADC
 356:.\Generated_Source\PSoC5/AdcSar.c **** *  0 ->    Normal
 357:.\Generated_Source\PSoC5/AdcSar.c **** *  1 ->    Half power
 358:.\Generated_Source\PSoC5/AdcSar.c **** *  2 ->    1/3rd power
 359:.\Generated_Source\PSoC5/AdcSar.c **** *  3 ->    Quarter power.
 360:.\Generated_Source\PSoC5/AdcSar.c **** *
 361:.\Generated_Source\PSoC5/AdcSar.c **** * Return:
 362:.\Generated_Source\PSoC5/AdcSar.c **** *  None.
 363:.\Generated_Source\PSoC5/AdcSar.c **** *
 364:.\Generated_Source\PSoC5/AdcSar.c **** *******************************************************************************/
 365:.\Generated_Source\PSoC5/AdcSar.c **** void AdcSar_SetPower(uint8 power)
 366:.\Generated_Source\PSoC5/AdcSar.c **** {
 484              		.loc 1 366 0
 485              		.cfi_startproc
ARM GAS  C:\Users\Geo\AppData\Local\Temp\ccJcx0AO.s 			page 16


 486              		@ args = 0, pretend = 0, frame = 16
 487              		@ frame_needed = 1, uses_anonymous_args = 0
 488              		@ link register save eliminated.
 489 0000 80B4     		push	{r7}
 490              	.LCFI17:
 491              		.cfi_def_cfa_offset 4
 492 0002 85B0     		sub	sp, sp, #20
 493              	.LCFI18:
 494              		.cfi_def_cfa_offset 24
 495 0004 00AF     		add	r7, sp, #0
 496              		.cfi_offset 7, -4
 497              	.LCFI19:
 498              		.cfi_def_cfa_register 7
 499 0006 0346     		mov	r3, r0
 500 0008 FB71     		strb	r3, [r7, #7]
 367:.\Generated_Source\PSoC5/AdcSar.c ****     uint8 tmpReg;
 368:.\Generated_Source\PSoC5/AdcSar.c **** 
 369:.\Generated_Source\PSoC5/AdcSar.c ****     /* mask off invalid power settings */
 370:.\Generated_Source\PSoC5/AdcSar.c ****     power &= AdcSar_SAR_API_POWER_MASK;
 501              		.loc 1 370 0
 502 000a FB79     		ldrb	r3, [r7, #7]
 503 000c 03F00303 		and	r3, r3, #3
 504 0010 FB71     		strb	r3, [r7, #7]
 371:.\Generated_Source\PSoC5/AdcSar.c **** 
 372:.\Generated_Source\PSoC5/AdcSar.c ****     /* Set Power parameter  */
 373:.\Generated_Source\PSoC5/AdcSar.c ****     tmpReg = AdcSar_SAR_CSR0_REG & ~AdcSar_SAR_POWER_MASK;
 505              		.loc 1 373 0
 506 0012 45F60013 		movw	r3, #:lower16:1073764608
 507 0016 C4F20003 		movt	r3, #:upper16:1073764608
 508 001a 1B78     		ldrb	r3, [r3, #0]
 509 001c DBB2     		uxtb	r3, r3
 510 001e 03F03F03 		and	r3, r3, #63
 511 0022 FB73     		strb	r3, [r7, #15]
 374:.\Generated_Source\PSoC5/AdcSar.c ****     tmpReg |= (power << AdcSar_SAR_POWER_SHIFT);
 512              		.loc 1 374 0
 513 0024 FB79     		ldrb	r3, [r7, #7]	@ zero_extendqisi2
 514 0026 4FEA8313 		lsl	r3, r3, #6
 515 002a DAB2     		uxtb	r2, r3
 516 002c FB7B     		ldrb	r3, [r7, #15]	@ zero_extendqisi2
 517 002e 42EA0303 		orr	r3, r2, r3
 518 0032 DBB2     		uxtb	r3, r3
 519 0034 FB73     		strb	r3, [r7, #15]
 375:.\Generated_Source\PSoC5/AdcSar.c ****     AdcSar_SAR_CSR0_REG = tmpReg;
 520              		.loc 1 375 0
 521 0036 45F60013 		movw	r3, #:lower16:1073764608
 522 003a C4F20003 		movt	r3, #:upper16:1073764608
 523 003e FA7B     		ldrb	r2, [r7, #15]
 524 0040 1A70     		strb	r2, [r3, #0]
 376:.\Generated_Source\PSoC5/AdcSar.c **** }
 525              		.loc 1 376 0
 526 0042 07F11407 		add	r7, r7, #20
 527 0046 BD46     		mov	sp, r7
 528 0048 80BC     		pop	{r7}
 529 004a 7047     		bx	lr
 530              		.cfi_endproc
 531              	.LFE7:
 532              		.size	AdcSar_SetPower, .-AdcSar_SetPower
ARM GAS  C:\Users\Geo\AppData\Local\Temp\ccJcx0AO.s 			page 17


 533              		.section	.text.AdcSar_SetResolution,"ax",%progbits
 534              		.align	2
 535              		.global	AdcSar_SetResolution
 536              		.thumb
 537              		.thumb_func
 538              		.type	AdcSar_SetResolution, %function
 539              	AdcSar_SetResolution:
 540              	.LFB8:
 377:.\Generated_Source\PSoC5/AdcSar.c **** 
 378:.\Generated_Source\PSoC5/AdcSar.c **** 
 379:.\Generated_Source\PSoC5/AdcSar.c **** /*******************************************************************************
 380:.\Generated_Source\PSoC5/AdcSar.c **** * Function Name: AdcSar_SetResolution
 381:.\Generated_Source\PSoC5/AdcSar.c **** ********************************************************************************
 382:.\Generated_Source\PSoC5/AdcSar.c **** *
 383:.\Generated_Source\PSoC5/AdcSar.c **** * Summary:
 384:.\Generated_Source\PSoC5/AdcSar.c **** *  Sets the Relution of the SAR.
 385:.\Generated_Source\PSoC5/AdcSar.c **** *  This function does not affect the actual conversion with PSoC5 ES1 silicon.
 386:.\Generated_Source\PSoC5/AdcSar.c **** *
 387:.\Generated_Source\PSoC5/AdcSar.c **** * Parameters:
 388:.\Generated_Source\PSoC5/AdcSar.c **** *  resolution:
 389:.\Generated_Source\PSoC5/AdcSar.c **** *  12 ->    RES12
 390:.\Generated_Source\PSoC5/AdcSar.c **** *  10 ->    RES10
 391:.\Generated_Source\PSoC5/AdcSar.c **** *  8  ->    RES8
 392:.\Generated_Source\PSoC5/AdcSar.c **** *
 393:.\Generated_Source\PSoC5/AdcSar.c **** * Return:
 394:.\Generated_Source\PSoC5/AdcSar.c **** *  None.
 395:.\Generated_Source\PSoC5/AdcSar.c **** *
 396:.\Generated_Source\PSoC5/AdcSar.c **** * Side Effects:
 397:.\Generated_Source\PSoC5/AdcSar.c **** *  The ADC resolution cannot be changed during a conversion cycle. The recommended
 398:.\Generated_Source\PSoC5/AdcSar.c **** *  best practice is to stop conversions with ADC_StopConvert(), change the 
 399:.\Generated_Source\PSoC5/AdcSar.c **** *  resolution, then restart the conversions with ADC_StartConvert().
 400:.\Generated_Source\PSoC5/AdcSar.c **** *  If you decide not to stop conversions before calling this API, you should use 
 401:.\Generated_Source\PSoC5/AdcSar.c **** *  ADC_IsEndConversion() to wait until conversion is complete before changing the 
 402:.\Generated_Source\PSoC5/AdcSar.c **** *  resolution.
 403:.\Generated_Source\PSoC5/AdcSar.c **** *  If you call ADC_SetResolution() during a conversion, the resolution will not 
 404:.\Generated_Source\PSoC5/AdcSar.c **** *  be changed until the current conversion is complete. Data will not be available 
 405:.\Generated_Source\PSoC5/AdcSar.c **** *  in the new resolution for another 6 + New Resolution(in bits) clock cycles. 
 406:.\Generated_Source\PSoC5/AdcSar.c **** *  You may need add a delay of this number of clock cycles after ADC_SetResolution()
 407:.\Generated_Source\PSoC5/AdcSar.c **** *  is called before data is valid again.
 408:.\Generated_Source\PSoC5/AdcSar.c **** *  Affects ADC_CountsTo_Volts(), ADC_CountsTo_mVolts(), and ADC_CountsTo_uVolts() 
 409:.\Generated_Source\PSoC5/AdcSar.c **** *  by calculating the correct conversion between ADC counts and the applied input 
 410:.\Generated_Source\PSoC5/AdcSar.c **** *  voltage. Calculation depends on resolution, input range, and voltage reference.
 411:.\Generated_Source\PSoC5/AdcSar.c **** *
 412:.\Generated_Source\PSoC5/AdcSar.c **** *******************************************************************************/
 413:.\Generated_Source\PSoC5/AdcSar.c **** void AdcSar_SetResolution(uint8 resolution)
 414:.\Generated_Source\PSoC5/AdcSar.c **** {
 541              		.loc 1 414 0
 542              		.cfi_startproc
 543              		@ args = 0, pretend = 0, frame = 16
 544              		@ frame_needed = 1, uses_anonymous_args = 0
 545 0000 80B5     		push	{r7, lr}
 546              	.LCFI20:
 547              		.cfi_def_cfa_offset 8
 548 0002 84B0     		sub	sp, sp, #16
 549              	.LCFI21:
 550              		.cfi_def_cfa_offset 24
 551 0004 00AF     		add	r7, sp, #0
ARM GAS  C:\Users\Geo\AppData\Local\Temp\ccJcx0AO.s 			page 18


 552              		.cfi_offset 14, -4
 553              		.cfi_offset 7, -8
 554              	.LCFI22:
 555              		.cfi_def_cfa_register 7
 556 0006 0346     		mov	r3, r0
 557 0008 FB71     		strb	r3, [r7, #7]
 415:.\Generated_Source\PSoC5/AdcSar.c ****     uint8 tmpReg;
 416:.\Generated_Source\PSoC5/AdcSar.c **** 
 417:.\Generated_Source\PSoC5/AdcSar.c ****     /* remember resolution for the GetResult APIs */
 418:.\Generated_Source\PSoC5/AdcSar.c ****     #if(CY_PSOC5_ES1)
 419:.\Generated_Source\PSoC5/AdcSar.c ****         AdcSar_resolution = resolution;
 558              		.loc 1 419 0
 559 000a 40F20003 		movw	r3, #:lower16:AdcSar_resolution
 560 000e C0F20003 		movt	r3, #:upper16:AdcSar_resolution
 561 0012 FA79     		ldrb	r2, [r7, #7]
 562 0014 1A70     		strb	r2, [r3, #0]
 420:.\Generated_Source\PSoC5/AdcSar.c ****     #endif /* End CY_PSOC5_ES1 */
 421:.\Generated_Source\PSoC5/AdcSar.c ****     
 422:.\Generated_Source\PSoC5/AdcSar.c ****     /* Set SAR ADC resolution */
 423:.\Generated_Source\PSoC5/AdcSar.c ****     switch (resolution)
 563              		.loc 1 423 0
 564 0016 FB79     		ldrb	r3, [r7, #7]	@ zero_extendqisi2
 565 0018 0A2B     		cmp	r3, #10
 566 001a 08D0     		beq	.L23
 567 001c 0C2B     		cmp	r3, #12
 568 001e 02D0     		beq	.L24
 569 0020 082B     		cmp	r3, #8
 570 0022 08D0     		beq	.L22
 571 0024 0BE0     		b	.L27
 572              	.L24:
 424:.\Generated_Source\PSoC5/AdcSar.c ****     {
 425:.\Generated_Source\PSoC5/AdcSar.c ****         case AdcSar__BITS_12:
 426:.\Generated_Source\PSoC5/AdcSar.c ****             tmpReg = AdcSar_SAR_RESOLUTION_12BIT;
 573              		.loc 1 426 0
 574 0026 6FF03F03 		mvn	r3, #63
 575 002a FB73     		strb	r3, [r7, #15]
 427:.\Generated_Source\PSoC5/AdcSar.c ****             break;
 576              		.loc 1 427 0
 577 002c 0AE0     		b	.L25
 578              	.L23:
 428:.\Generated_Source\PSoC5/AdcSar.c ****         case AdcSar__BITS_10:
 429:.\Generated_Source\PSoC5/AdcSar.c ****             /* Use 12bits for PSoC5 production silicon and shift the 
 430:.\Generated_Source\PSoC5/AdcSar.c ****             *  results for lower resolution in GetResult16() API 
 431:.\Generated_Source\PSoC5/AdcSar.c ****             */
 432:.\Generated_Source\PSoC5/AdcSar.c ****             #if(CY_PSOC5_ES1)
 433:.\Generated_Source\PSoC5/AdcSar.c ****                 tmpReg = AdcSar_SAR_RESOLUTION_12BIT;
 579              		.loc 1 433 0
 580 002e 6FF03F03 		mvn	r3, #63
 581 0032 FB73     		strb	r3, [r7, #15]
 434:.\Generated_Source\PSoC5/AdcSar.c ****             #else    
 435:.\Generated_Source\PSoC5/AdcSar.c ****                 tmpReg = AdcSar_SAR_RESOLUTION_10BIT;
 436:.\Generated_Source\PSoC5/AdcSar.c ****             #endif /* End CY_PSOC5_ES1 */
 437:.\Generated_Source\PSoC5/AdcSar.c ****             break;
 582              		.loc 1 437 0
 583 0034 06E0     		b	.L25
 584              	.L22:
 438:.\Generated_Source\PSoC5/AdcSar.c ****         case AdcSar__BITS_8:
ARM GAS  C:\Users\Geo\AppData\Local\Temp\ccJcx0AO.s 			page 19


 439:.\Generated_Source\PSoC5/AdcSar.c ****             #if(CY_PSOC5_ES1)
 440:.\Generated_Source\PSoC5/AdcSar.c ****                 tmpReg = AdcSar_SAR_RESOLUTION_12BIT;
 585              		.loc 1 440 0
 586 0036 6FF03F03 		mvn	r3, #63
 587 003a FB73     		strb	r3, [r7, #15]
 441:.\Generated_Source\PSoC5/AdcSar.c ****             #else    
 442:.\Generated_Source\PSoC5/AdcSar.c ****                 tmpReg = AdcSar_SAR_RESOLUTION_8BIT;
 443:.\Generated_Source\PSoC5/AdcSar.c ****             #endif /* End CY_PSOC5_ES1 */
 444:.\Generated_Source\PSoC5/AdcSar.c ****             break;
 588              		.loc 1 444 0
 589 003c 02E0     		b	.L25
 590              	.L27:
 445:.\Generated_Source\PSoC5/AdcSar.c ****         default:
 446:.\Generated_Source\PSoC5/AdcSar.c ****             tmpReg = AdcSar_SAR_RESOLUTION_12BIT;
 591              		.loc 1 446 0
 592 003e 6FF03F03 		mvn	r3, #63
 593 0042 FB73     		strb	r3, [r7, #15]
 594              	.L25:
 447:.\Generated_Source\PSoC5/AdcSar.c ****             break;
 448:.\Generated_Source\PSoC5/AdcSar.c ****     }
 449:.\Generated_Source\PSoC5/AdcSar.c ****     
 450:.\Generated_Source\PSoC5/AdcSar.c ****      tmpReg |= AdcSar_SAR_SAMPLE_WIDTH;   /* 18 conversion cycles @ 12bits + 1 gap*/
 595              		.loc 1 450 0
 596 0044 FB7B     		ldrb	r3, [r7, #15]
 597 0046 43F00503 		orr	r3, r3, #5
 598 004a FB73     		strb	r3, [r7, #15]
 451:.\Generated_Source\PSoC5/AdcSar.c ****     AdcSar_SAR_CSR2_REG = tmpReg;
 599              		.loc 1 451 0
 600 004c 45F60213 		movw	r3, #:lower16:1073764610
 601 0050 C4F20003 		movt	r3, #:upper16:1073764610
 602 0054 FA7B     		ldrb	r2, [r7, #15]
 603 0056 1A70     		strb	r2, [r3, #0]
 452:.\Generated_Source\PSoC5/AdcSar.c ****     
 453:.\Generated_Source\PSoC5/AdcSar.c ****      /* Calculate gain for convert counts to volts */
 454:.\Generated_Source\PSoC5/AdcSar.c ****     AdcSar_CalcGain(resolution);
 604              		.loc 1 454 0
 605 0058 FB79     		ldrb	r3, [r7, #7]	@ zero_extendqisi2
 606 005a 1846     		mov	r0, r3
 607 005c FFF7FEFF 		bl	AdcSar_CalcGain
 455:.\Generated_Source\PSoC5/AdcSar.c **** }
 608              		.loc 1 455 0
 609 0060 07F11007 		add	r7, r7, #16
 610 0064 BD46     		mov	sp, r7
 611 0066 80BD     		pop	{r7, pc}
 612              		.cfi_endproc
 613              	.LFE8:
 614              		.size	AdcSar_SetResolution, .-AdcSar_SetResolution
 615              		.section	.text.AdcSar_StartConvert,"ax",%progbits
 616              		.align	2
 617              		.global	AdcSar_StartConvert
 618              		.thumb
 619              		.thumb_func
 620              		.type	AdcSar_StartConvert, %function
 621              	AdcSar_StartConvert:
 622              	.LFB9:
 456:.\Generated_Source\PSoC5/AdcSar.c **** 
 457:.\Generated_Source\PSoC5/AdcSar.c **** 
ARM GAS  C:\Users\Geo\AppData\Local\Temp\ccJcx0AO.s 			page 20


 458:.\Generated_Source\PSoC5/AdcSar.c **** /*******************************************************************************
 459:.\Generated_Source\PSoC5/AdcSar.c **** * Function Name: AdcSar_StartConvert
 460:.\Generated_Source\PSoC5/AdcSar.c **** ********************************************************************************
 461:.\Generated_Source\PSoC5/AdcSar.c **** *
 462:.\Generated_Source\PSoC5/AdcSar.c **** * Summary:
 463:.\Generated_Source\PSoC5/AdcSar.c **** *  Starts ADC conversion using the given mode.
 464:.\Generated_Source\PSoC5/AdcSar.c **** *
 465:.\Generated_Source\PSoC5/AdcSar.c **** * Parameters:
 466:.\Generated_Source\PSoC5/AdcSar.c **** *  None.
 467:.\Generated_Source\PSoC5/AdcSar.c **** *
 468:.\Generated_Source\PSoC5/AdcSar.c **** * Return:
 469:.\Generated_Source\PSoC5/AdcSar.c **** *  None.
 470:.\Generated_Source\PSoC5/AdcSar.c **** *
 471:.\Generated_Source\PSoC5/AdcSar.c **** * Theory:
 472:.\Generated_Source\PSoC5/AdcSar.c **** *  Forces the ADC to initiate a conversion. In Free Running mode, the ADC will 
 473:.\Generated_Source\PSoC5/AdcSar.c **** *  run continuously. In a triggered mode the function also acts as a software
 474:.\Generated_Source\PSoC5/AdcSar.c **** *  version of the SOC. Here every conversion has to be triggered by the routine. 
 475:.\Generated_Source\PSoC5/AdcSar.c **** *  This writes into the SOC bit in SAR_CTRL reg.
 476:.\Generated_Source\PSoC5/AdcSar.c **** *
 477:.\Generated_Source\PSoC5/AdcSar.c **** * Side Effects:
 478:.\Generated_Source\PSoC5/AdcSar.c **** *  In a triggered mode the function switches source for SOF from the external 
 479:.\Generated_Source\PSoC5/AdcSar.c **** *  pin to the internal SOF generation. Application should not call StartConvert
 480:.\Generated_Source\PSoC5/AdcSar.c **** *  if external source used for SOF.
 481:.\Generated_Source\PSoC5/AdcSar.c **** *******************************************************************************/
 482:.\Generated_Source\PSoC5/AdcSar.c **** void AdcSar_StartConvert(void)
 483:.\Generated_Source\PSoC5/AdcSar.c **** {
 623              		.loc 1 483 0
 624              		.cfi_startproc
 625              		@ args = 0, pretend = 0, frame = 0
 626              		@ frame_needed = 1, uses_anonymous_args = 0
 627              		@ link register save eliminated.
 628 0000 80B4     		push	{r7}
 629              	.LCFI23:
 630              		.cfi_def_cfa_offset 4
 631 0002 00AF     		add	r7, sp, #0
 632              		.cfi_offset 7, -4
 633              	.LCFI24:
 634              		.cfi_def_cfa_register 7
 484:.\Generated_Source\PSoC5/AdcSar.c ****     #if(AdcSar_DEFAULT_CONV_MODE == AdcSar__TRIGGERED)   /* If triggered mode */
 485:.\Generated_Source\PSoC5/AdcSar.c ****         AdcSar_SAR_CSR0_REG &= ~AdcSar_SAR_MX_SOF_UDB;   /* source: SOF bit */
 486:.\Generated_Source\PSoC5/AdcSar.c ****     #endif /* End AdcSar_DEFAULT_CONV_MODE */
 487:.\Generated_Source\PSoC5/AdcSar.c ****     
 488:.\Generated_Source\PSoC5/AdcSar.c ****     /* Start the conversion */
 489:.\Generated_Source\PSoC5/AdcSar.c ****     AdcSar_SAR_CSR0_REG |= AdcSar_SAR_SOF_START_CONV;
 635              		.loc 1 489 0
 636 0004 45F60013 		movw	r3, #:lower16:1073764608
 637 0008 C4F20003 		movt	r3, #:upper16:1073764608
 638 000c 45F60012 		movw	r2, #:lower16:1073764608
 639 0010 C4F20002 		movt	r2, #:upper16:1073764608
 640 0014 1278     		ldrb	r2, [r2, #0]
 641 0016 D2B2     		uxtb	r2, r2
 642 0018 42F00102 		orr	r2, r2, #1
 643 001c D2B2     		uxtb	r2, r2
 644 001e 1A70     		strb	r2, [r3, #0]
 490:.\Generated_Source\PSoC5/AdcSar.c **** }
 645              		.loc 1 490 0
 646 0020 BD46     		mov	sp, r7
ARM GAS  C:\Users\Geo\AppData\Local\Temp\ccJcx0AO.s 			page 21


 647 0022 80BC     		pop	{r7}
 648 0024 7047     		bx	lr
 649              		.cfi_endproc
 650              	.LFE9:
 651              		.size	AdcSar_StartConvert, .-AdcSar_StartConvert
 652 0026 00BF     		.section	.text.AdcSar_StopConvert,"ax",%progbits
 653              		.align	2
 654              		.global	AdcSar_StopConvert
 655              		.thumb
 656              		.thumb_func
 657              		.type	AdcSar_StopConvert, %function
 658              	AdcSar_StopConvert:
 659              	.LFB10:
 491:.\Generated_Source\PSoC5/AdcSar.c **** 
 492:.\Generated_Source\PSoC5/AdcSar.c **** 
 493:.\Generated_Source\PSoC5/AdcSar.c **** /*******************************************************************************
 494:.\Generated_Source\PSoC5/AdcSar.c **** * Function Name: AdcSar_StopConvert
 495:.\Generated_Source\PSoC5/AdcSar.c **** ********************************************************************************
 496:.\Generated_Source\PSoC5/AdcSar.c **** *
 497:.\Generated_Source\PSoC5/AdcSar.c **** * Summary:
 498:.\Generated_Source\PSoC5/AdcSar.c **** *  Stops ADC conversion using the given mode.
 499:.\Generated_Source\PSoC5/AdcSar.c **** *
 500:.\Generated_Source\PSoC5/AdcSar.c **** * Parameters:
 501:.\Generated_Source\PSoC5/AdcSar.c **** *  None.
 502:.\Generated_Source\PSoC5/AdcSar.c **** *
 503:.\Generated_Source\PSoC5/AdcSar.c **** * Return:
 504:.\Generated_Source\PSoC5/AdcSar.c **** *  None.
 505:.\Generated_Source\PSoC5/AdcSar.c **** *
 506:.\Generated_Source\PSoC5/AdcSar.c **** * Theory:
 507:.\Generated_Source\PSoC5/AdcSar.c **** *  Stops ADC conversion in Free Running mode. 
 508:.\Generated_Source\PSoC5/AdcSar.c **** *  This writes into the SOC bit in SAR_CTRL reg.
 509:.\Generated_Source\PSoC5/AdcSar.c **** *
 510:.\Generated_Source\PSoC5/AdcSar.c **** * Side Effects:
 511:.\Generated_Source\PSoC5/AdcSar.c **** *  In a triggered mode the function set a software version of the SOC to low level
 512:.\Generated_Source\PSoC5/AdcSar.c **** *  and switch SOF source to hardware SOF input.
 513:.\Generated_Source\PSoC5/AdcSar.c **** *  
 514:.\Generated_Source\PSoC5/AdcSar.c **** *******************************************************************************/
 515:.\Generated_Source\PSoC5/AdcSar.c **** void AdcSar_StopConvert(void)
 516:.\Generated_Source\PSoC5/AdcSar.c **** {
 660              		.loc 1 516 0
 661              		.cfi_startproc
 662              		@ args = 0, pretend = 0, frame = 0
 663              		@ frame_needed = 1, uses_anonymous_args = 0
 664              		@ link register save eliminated.
 665 0000 80B4     		push	{r7}
 666              	.LCFI25:
 667              		.cfi_def_cfa_offset 4
 668 0002 00AF     		add	r7, sp, #0
 669              		.cfi_offset 7, -4
 670              	.LCFI26:
 671              		.cfi_def_cfa_register 7
 517:.\Generated_Source\PSoC5/AdcSar.c ****     /* Stop all conversions */
 518:.\Generated_Source\PSoC5/AdcSar.c ****     AdcSar_SAR_CSR0_REG &= ~AdcSar_SAR_SOF_START_CONV;
 672              		.loc 1 518 0
 673 0004 45F60013 		movw	r3, #:lower16:1073764608
 674 0008 C4F20003 		movt	r3, #:upper16:1073764608
 675 000c 45F60012 		movw	r2, #:lower16:1073764608
ARM GAS  C:\Users\Geo\AppData\Local\Temp\ccJcx0AO.s 			page 22


 676 0010 C4F20002 		movt	r2, #:upper16:1073764608
 677 0014 1278     		ldrb	r2, [r2, #0]
 678 0016 D2B2     		uxtb	r2, r2
 679 0018 02F0FE02 		and	r2, r2, #254
 680 001c 1A70     		strb	r2, [r3, #0]
 519:.\Generated_Source\PSoC5/AdcSar.c **** 
 520:.\Generated_Source\PSoC5/AdcSar.c ****     #if(AdcSar_DEFAULT_CONV_MODE == AdcSar__TRIGGERED)   /* If triggered mode */
 521:.\Generated_Source\PSoC5/AdcSar.c ****         /* Return source to UDB for hardware SOF signal */
 522:.\Generated_Source\PSoC5/AdcSar.c ****         AdcSar_SAR_CSR0_REG |= AdcSar_SAR_MX_SOF_UDB;    /* source: UDB */
 523:.\Generated_Source\PSoC5/AdcSar.c ****     #endif /* End AdcSar_DEFAULT_CONV_MODE */
 524:.\Generated_Source\PSoC5/AdcSar.c ****     
 525:.\Generated_Source\PSoC5/AdcSar.c **** }
 681              		.loc 1 525 0
 682 001e BD46     		mov	sp, r7
 683 0020 80BC     		pop	{r7}
 684 0022 7047     		bx	lr
 685              		.cfi_endproc
 686              	.LFE10:
 687              		.size	AdcSar_StopConvert, .-AdcSar_StopConvert
 688              		.section	.text.AdcSar_IsEndConversion,"ax",%progbits
 689              		.align	2
 690              		.global	AdcSar_IsEndConversion
 691              		.thumb
 692              		.thumb_func
 693              		.type	AdcSar_IsEndConversion, %function
 694              	AdcSar_IsEndConversion:
 695              	.LFB11:
 526:.\Generated_Source\PSoC5/AdcSar.c **** 
 527:.\Generated_Source\PSoC5/AdcSar.c **** 
 528:.\Generated_Source\PSoC5/AdcSar.c **** /*******************************************************************************
 529:.\Generated_Source\PSoC5/AdcSar.c **** * Function Name: AdcSar_IsEndConversion
 530:.\Generated_Source\PSoC5/AdcSar.c **** ********************************************************************************
 531:.\Generated_Source\PSoC5/AdcSar.c **** *
 532:.\Generated_Source\PSoC5/AdcSar.c **** * Summary:
 533:.\Generated_Source\PSoC5/AdcSar.c **** *  Queries the ADC to see if conversion is complete
 534:.\Generated_Source\PSoC5/AdcSar.c **** *
 535:.\Generated_Source\PSoC5/AdcSar.c **** * Parameters:
 536:.\Generated_Source\PSoC5/AdcSar.c **** *  retMode:  Wait mode,
 537:.\Generated_Source\PSoC5/AdcSar.c **** *   0 if return with answer imediately.
 538:.\Generated_Source\PSoC5/AdcSar.c **** *   1 if wait until conversion is complete, then return.
 539:.\Generated_Source\PSoC5/AdcSar.c **** *
 540:.\Generated_Source\PSoC5/AdcSar.c **** * Return:
 541:.\Generated_Source\PSoC5/AdcSar.c **** *  (uint8)  0 =>  Conversion not complete.
 542:.\Generated_Source\PSoC5/AdcSar.c **** *           1 =>  Conversion complete.
 543:.\Generated_Source\PSoC5/AdcSar.c **** *
 544:.\Generated_Source\PSoC5/AdcSar.c **** *******************************************************************************/
 545:.\Generated_Source\PSoC5/AdcSar.c **** uint8 AdcSar_IsEndConversion(uint8 retMode)
 546:.\Generated_Source\PSoC5/AdcSar.c **** {
 696              		.loc 1 546 0
 697              		.cfi_startproc
 698              		@ args = 0, pretend = 0, frame = 16
 699              		@ frame_needed = 1, uses_anonymous_args = 0
 700 0000 80B5     		push	{r7, lr}
 701              	.LCFI27:
 702              		.cfi_def_cfa_offset 8
 703 0002 84B0     		sub	sp, sp, #16
 704              	.LCFI28:
ARM GAS  C:\Users\Geo\AppData\Local\Temp\ccJcx0AO.s 			page 23


 705              		.cfi_def_cfa_offset 24
 706 0004 00AF     		add	r7, sp, #0
 707              		.cfi_offset 14, -4
 708              		.cfi_offset 7, -8
 709              	.LCFI29:
 710              		.cfi_def_cfa_register 7
 711 0006 0346     		mov	r3, r0
 712 0008 FB71     		strb	r3, [r7, #7]
 713              	.L34:
 547:.\Generated_Source\PSoC5/AdcSar.c ****     uint8 status;
 548:.\Generated_Source\PSoC5/AdcSar.c **** 
 549:.\Generated_Source\PSoC5/AdcSar.c ****     do
 550:.\Generated_Source\PSoC5/AdcSar.c ****     {
 551:.\Generated_Source\PSoC5/AdcSar.c ****         status = AdcSar_SAR_CSR1_REG & AdcSar_SAR_EOF_1;
 714              		.loc 1 551 0
 715 000a 45F60113 		movw	r3, #:lower16:1073764609
 716 000e C4F20003 		movt	r3, #:upper16:1073764609
 717 0012 1B78     		ldrb	r3, [r3, #0]
 718 0014 DBB2     		uxtb	r3, r3
 719 0016 03F00103 		and	r3, r3, #1
 720 001a FB73     		strb	r3, [r7, #15]
 552:.\Generated_Source\PSoC5/AdcSar.c ****     } while ((status != AdcSar_SAR_EOF_1) && (retMode == AdcSar_WAIT_FOR_RESULT));
 721              		.loc 1 552 0
 722 001c FB7B     		ldrb	r3, [r7, #15]	@ zero_extendqisi2
 723 001e 012B     		cmp	r3, #1
 724 0020 02D0     		beq	.L33
 725 0022 FB79     		ldrb	r3, [r7, #7]	@ zero_extendqisi2
 726 0024 002B     		cmp	r3, #0
 727 0026 F0D0     		beq	.L34
 728              	.L33:
 553:.\Generated_Source\PSoC5/AdcSar.c ****     /* If convertion complete, wait until EOF bit released */
 554:.\Generated_Source\PSoC5/AdcSar.c ****     if(status == AdcSar_SAR_EOF_1)
 729              		.loc 1 554 0
 730 0028 FB7B     		ldrb	r3, [r7, #15]	@ zero_extendqisi2
 731 002a 012B     		cmp	r3, #1
 732 002c 08D1     		bne	.L35
 555:.\Generated_Source\PSoC5/AdcSar.c ****     {
 556:.\Generated_Source\PSoC5/AdcSar.c ****         /* wait one ADC clock to let the EOC status bit release */
 557:.\Generated_Source\PSoC5/AdcSar.c ****         CyDelayUs(1);
 733              		.loc 1 557 0
 734 002e 4FF00100 		mov	r0, #1
 735 0032 FFF7FEFF 		bl	CyDelayUs
 558:.\Generated_Source\PSoC5/AdcSar.c ****         /* Do the unconditional read operation of the CSR1 register to make sure the EOC bit has be
 559:.\Generated_Source\PSoC5/AdcSar.c ****         CY_GET_REG8(AdcSar_SAR_CSR1_PTR);
 736              		.loc 1 559 0
 737 0036 45F60113 		movw	r3, #:lower16:1073764609
 738 003a C4F20003 		movt	r3, #:upper16:1073764609
 739 003e 1B78     		ldrb	r3, [r3, #0]
 740              	.L35:
 560:.\Generated_Source\PSoC5/AdcSar.c ****     }    
 561:.\Generated_Source\PSoC5/AdcSar.c **** 
 562:.\Generated_Source\PSoC5/AdcSar.c ****     return(status);
 741              		.loc 1 562 0
 742 0040 FB7B     		ldrb	r3, [r7, #15]	@ zero_extendqisi2
 563:.\Generated_Source\PSoC5/AdcSar.c **** }
 743              		.loc 1 563 0
 744 0042 1846     		mov	r0, r3
ARM GAS  C:\Users\Geo\AppData\Local\Temp\ccJcx0AO.s 			page 24


 745 0044 07F11007 		add	r7, r7, #16
 746 0048 BD46     		mov	sp, r7
 747 004a 80BD     		pop	{r7, pc}
 748              		.cfi_endproc
 749              	.LFE11:
 750              		.size	AdcSar_IsEndConversion, .-AdcSar_IsEndConversion
 751              		.section	.text.AdcSar_GetResult8,"ax",%progbits
 752              		.align	2
 753              		.global	AdcSar_GetResult8
 754              		.thumb
 755              		.thumb_func
 756              		.type	AdcSar_GetResult8, %function
 757              	AdcSar_GetResult8:
 758              	.LFB12:
 564:.\Generated_Source\PSoC5/AdcSar.c **** 
 565:.\Generated_Source\PSoC5/AdcSar.c **** 
 566:.\Generated_Source\PSoC5/AdcSar.c **** /*******************************************************************************
 567:.\Generated_Source\PSoC5/AdcSar.c **** * Function Name: AdcSar_GetResult8
 568:.\Generated_Source\PSoC5/AdcSar.c **** ********************************************************************************
 569:.\Generated_Source\PSoC5/AdcSar.c **** *
 570:.\Generated_Source\PSoC5/AdcSar.c **** * Summary:
 571:.\Generated_Source\PSoC5/AdcSar.c **** *  Returns an 8-bit result or the LSB of the last conversion. 
 572:.\Generated_Source\PSoC5/AdcSar.c **** *  AdcSar_IsEndConversion() should be called to verify that the data 
 573:.\Generated_Source\PSoC5/AdcSar.c **** *   sample is ready 
 574:.\Generated_Source\PSoC5/AdcSar.c **** *
 575:.\Generated_Source\PSoC5/AdcSar.c **** * Parameters:
 576:.\Generated_Source\PSoC5/AdcSar.c **** *  None.
 577:.\Generated_Source\PSoC5/AdcSar.c **** *
 578:.\Generated_Source\PSoC5/AdcSar.c **** * Return:
 579:.\Generated_Source\PSoC5/AdcSar.c **** *  ADC result.
 580:.\Generated_Source\PSoC5/AdcSar.c **** *
 581:.\Generated_Source\PSoC5/AdcSar.c **** * Global Variables:
 582:.\Generated_Source\PSoC5/AdcSar.c **** *  AdcSar_shift - used to convert the ADC counts to the 2's 
 583:.\Generated_Source\PSoC5/AdcSar.c **** *  compliment form.
 584:.\Generated_Source\PSoC5/AdcSar.c **** *  AdcSar_resolution  used to shift the results for lower 
 585:.\Generated_Source\PSoC5/AdcSar.c **** *   resolution.
 586:.\Generated_Source\PSoC5/AdcSar.c **** *
 587:.\Generated_Source\PSoC5/AdcSar.c **** *******************************************************************************/
 588:.\Generated_Source\PSoC5/AdcSar.c **** int8 AdcSar_GetResult8( void )
 589:.\Generated_Source\PSoC5/AdcSar.c **** {
 759              		.loc 1 589 0
 760              		.cfi_startproc
 761              		@ args = 0, pretend = 0, frame = 8
 762              		@ frame_needed = 1, uses_anonymous_args = 0
 763              		@ link register save eliminated.
 764 0000 80B4     		push	{r7}
 765              	.LCFI30:
 766              		.cfi_def_cfa_offset 4
 767 0002 83B0     		sub	sp, sp, #12
 768              	.LCFI31:
 769              		.cfi_def_cfa_offset 16
 770 0004 00AF     		add	r7, sp, #0
 771              		.cfi_offset 7, -4
 772              	.LCFI32:
 773              		.cfi_def_cfa_register 7
 590:.\Generated_Source\PSoC5/AdcSar.c ****     
 591:.\Generated_Source\PSoC5/AdcSar.c ****     #if(CY_PSOC5_ES1)
ARM GAS  C:\Users\Geo\AppData\Local\Temp\ccJcx0AO.s 			page 25


 592:.\Generated_Source\PSoC5/AdcSar.c **** 
 593:.\Generated_Source\PSoC5/AdcSar.c ****         int16 res;
 594:.\Generated_Source\PSoC5/AdcSar.c **** 
 595:.\Generated_Source\PSoC5/AdcSar.c ****         res = CY_GET_REG16(AdcSar_SAR_WRK0_PTR) - AdcSar_shift;
 774              		.loc 1 595 0
 775 0006 45F6A033 		movw	r3, #:lower16:1073765280
 776 000a C4F20003 		movt	r3, #:upper16:1073765280
 777 000e 1B88     		ldrh	r3, [r3, #0]	@ movhi
 778 0010 9AB2     		uxth	r2, r3
 779 0012 40F20003 		movw	r3, #:lower16:AdcSar_shift
 780 0016 C0F20003 		movt	r3, #:upper16:AdcSar_shift
 781 001a 1B88     		ldrh	r3, [r3, #0]	@ movhi
 782 001c 9BB2     		uxth	r3, r3
 783 001e 9BB2     		uxth	r3, r3
 784 0020 C3EB0203 		rsb	r3, r3, r2
 785 0024 9BB2     		uxth	r3, r3
 786 0026 FB80     		strh	r3, [r7, #6]	@ movhi
 596:.\Generated_Source\PSoC5/AdcSar.c ****         
 597:.\Generated_Source\PSoC5/AdcSar.c ****         /* Use 12bits for PSoC5 production silicon and shift the results for lower resolution in th
 598:.\Generated_Source\PSoC5/AdcSar.c ****         if(AdcSar_resolution == AdcSar__BITS_10)
 787              		.loc 1 598 0
 788 0028 40F20003 		movw	r3, #:lower16:AdcSar_resolution
 789 002c C0F20003 		movt	r3, #:upper16:AdcSar_resolution
 790 0030 1B78     		ldrb	r3, [r3, #0]	@ zero_extendqisi2
 791 0032 0A2B     		cmp	r3, #10
 792 0034 05D1     		bne	.L38
 599:.\Generated_Source\PSoC5/AdcSar.c ****         {
 600:.\Generated_Source\PSoC5/AdcSar.c ****             res >>= 2u;
 793              		.loc 1 600 0
 794 0036 B7F90630 		ldrsh	r3, [r7, #6]
 795 003a 4FEAA303 		asr	r3, r3, #2
 796 003e FB80     		strh	r3, [r7, #6]	@ movhi
 797 0040 0BE0     		b	.L39
 798              	.L38:
 601:.\Generated_Source\PSoC5/AdcSar.c ****         }
 602:.\Generated_Source\PSoC5/AdcSar.c ****         else if(AdcSar_resolution == AdcSar__BITS_8)
 799              		.loc 1 602 0
 800 0042 40F20003 		movw	r3, #:lower16:AdcSar_resolution
 801 0046 C0F20003 		movt	r3, #:upper16:AdcSar_resolution
 802 004a 1B78     		ldrb	r3, [r3, #0]	@ zero_extendqisi2
 803 004c 082B     		cmp	r3, #8
 804 004e 04D1     		bne	.L39
 603:.\Generated_Source\PSoC5/AdcSar.c ****         {
 604:.\Generated_Source\PSoC5/AdcSar.c ****             res >>= 4u;
 805              		.loc 1 604 0
 806 0050 B7F90630 		ldrsh	r3, [r7, #6]
 807 0054 4FEA2313 		asr	r3, r3, #4
 808 0058 FB80     		strh	r3, [r7, #6]	@ movhi
 809              	.L39:
 605:.\Generated_Source\PSoC5/AdcSar.c ****         }
 606:.\Generated_Source\PSoC5/AdcSar.c ****         else    /* Do not shift for 12 bits */
 607:.\Generated_Source\PSoC5/AdcSar.c ****         {
 608:.\Generated_Source\PSoC5/AdcSar.c ****         }
 609:.\Generated_Source\PSoC5/AdcSar.c ****         return( (int8)res );
 810              		.loc 1 609 0
 811 005a FB88     		ldrh	r3, [r7, #6]	@ movhi
 812 005c DBB2     		uxtb	r3, r3
ARM GAS  C:\Users\Geo\AppData\Local\Temp\ccJcx0AO.s 			page 26


 813 005e 5BB2     		sxtb	r3, r3
 610:.\Generated_Source\PSoC5/AdcSar.c ****         
 611:.\Generated_Source\PSoC5/AdcSar.c ****     #else
 612:.\Generated_Source\PSoC5/AdcSar.c ****         return( AdcSar_SAR_WRK0_REG - (int8)AdcSar_shift);
 613:.\Generated_Source\PSoC5/AdcSar.c ****     #endif /* End CY_PSOC5_ES1 */
 614:.\Generated_Source\PSoC5/AdcSar.c **** 
 615:.\Generated_Source\PSoC5/AdcSar.c **** }
 814              		.loc 1 615 0
 815 0060 1846     		mov	r0, r3
 816 0062 07F10C07 		add	r7, r7, #12
 817 0066 BD46     		mov	sp, r7
 818 0068 80BC     		pop	{r7}
 819 006a 7047     		bx	lr
 820              		.cfi_endproc
 821              	.LFE12:
 822              		.size	AdcSar_GetResult8, .-AdcSar_GetResult8
 823              		.section	.text.AdcSar_GetResult16,"ax",%progbits
 824              		.align	2
 825              		.global	AdcSar_GetResult16
 826              		.thumb
 827              		.thumb_func
 828              		.type	AdcSar_GetResult16, %function
 829              	AdcSar_GetResult16:
 830              	.LFB13:
 616:.\Generated_Source\PSoC5/AdcSar.c **** 
 617:.\Generated_Source\PSoC5/AdcSar.c **** 
 618:.\Generated_Source\PSoC5/AdcSar.c **** /*******************************************************************************
 619:.\Generated_Source\PSoC5/AdcSar.c **** * Function Name: AdcSar_GetResult16
 620:.\Generated_Source\PSoC5/AdcSar.c **** ********************************************************************************
 621:.\Generated_Source\PSoC5/AdcSar.c **** *
 622:.\Generated_Source\PSoC5/AdcSar.c **** * Summary:
 623:.\Generated_Source\PSoC5/AdcSar.c **** *  Gets the data available in the SAR DATA registers.
 624:.\Generated_Source\PSoC5/AdcSar.c **** *  AdcSar_IsEndConversion() should be called to verify that the data 
 625:.\Generated_Source\PSoC5/AdcSar.c **** *   sample is ready 
 626:.\Generated_Source\PSoC5/AdcSar.c **** *
 627:.\Generated_Source\PSoC5/AdcSar.c **** * Parameters:
 628:.\Generated_Source\PSoC5/AdcSar.c **** *  None.
 629:.\Generated_Source\PSoC5/AdcSar.c **** *
 630:.\Generated_Source\PSoC5/AdcSar.c **** * Return:
 631:.\Generated_Source\PSoC5/AdcSar.c **** *  ADC result. WORD value which has the converted 12bits. In the differential 
 632:.\Generated_Source\PSoC5/AdcSar.c **** *  input mode the SAR ADC outputs digitally converted data in binary offset 
 633:.\Generated_Source\PSoC5/AdcSar.c **** *  scheme, this function converts the data into 2's compliment form. 
 634:.\Generated_Source\PSoC5/AdcSar.c **** *
 635:.\Generated_Source\PSoC5/AdcSar.c **** * Global Variables:
 636:.\Generated_Source\PSoC5/AdcSar.c **** *  AdcSar_shift - used to convert the ADC counts to the 2's 
 637:.\Generated_Source\PSoC5/AdcSar.c **** *  compliment form.
 638:.\Generated_Source\PSoC5/AdcSar.c **** *  AdcSar_resolution  used to shift the results for lower 
 639:.\Generated_Source\PSoC5/AdcSar.c **** *   resolution.
 640:.\Generated_Source\PSoC5/AdcSar.c **** *
 641:.\Generated_Source\PSoC5/AdcSar.c **** *******************************************************************************/
 642:.\Generated_Source\PSoC5/AdcSar.c **** int16 AdcSar_GetResult16( void )
 643:.\Generated_Source\PSoC5/AdcSar.c **** {
 831              		.loc 1 643 0
 832              		.cfi_startproc
 833              		@ args = 0, pretend = 0, frame = 8
 834              		@ frame_needed = 1, uses_anonymous_args = 0
 835              		@ link register save eliminated.
ARM GAS  C:\Users\Geo\AppData\Local\Temp\ccJcx0AO.s 			page 27


 836 0000 80B4     		push	{r7}
 837              	.LCFI33:
 838              		.cfi_def_cfa_offset 4
 839 0002 83B0     		sub	sp, sp, #12
 840              	.LCFI34:
 841              		.cfi_def_cfa_offset 16
 842 0004 00AF     		add	r7, sp, #0
 843              		.cfi_offset 7, -4
 844              	.LCFI35:
 845              		.cfi_def_cfa_register 7
 644:.\Generated_Source\PSoC5/AdcSar.c ****     int16 res;
 645:.\Generated_Source\PSoC5/AdcSar.c ****     
 646:.\Generated_Source\PSoC5/AdcSar.c ****     res = CY_GET_REG16(AdcSar_SAR_WRK0_PTR) - AdcSar_shift;
 846              		.loc 1 646 0
 847 0006 45F6A033 		movw	r3, #:lower16:1073765280
 848 000a C4F20003 		movt	r3, #:upper16:1073765280
 849 000e 1B88     		ldrh	r3, [r3, #0]	@ movhi
 850 0010 9AB2     		uxth	r2, r3
 851 0012 40F20003 		movw	r3, #:lower16:AdcSar_shift
 852 0016 C0F20003 		movt	r3, #:upper16:AdcSar_shift
 853 001a 1B88     		ldrh	r3, [r3, #0]	@ movhi
 854 001c 9BB2     		uxth	r3, r3
 855 001e 9BB2     		uxth	r3, r3
 856 0020 C3EB0203 		rsb	r3, r3, r2
 857 0024 9BB2     		uxth	r3, r3
 858 0026 FB80     		strh	r3, [r7, #6]	@ movhi
 647:.\Generated_Source\PSoC5/AdcSar.c **** 
 648:.\Generated_Source\PSoC5/AdcSar.c ****     #if(CY_PSOC5_ES1)
 649:.\Generated_Source\PSoC5/AdcSar.c ****         /* Use 12bits for PSoC5 production silicon and shift the results for lower resolution in th
 650:.\Generated_Source\PSoC5/AdcSar.c ****         if(AdcSar_resolution == AdcSar__BITS_10)
 859              		.loc 1 650 0
 860 0028 40F20003 		movw	r3, #:lower16:AdcSar_resolution
 861 002c C0F20003 		movt	r3, #:upper16:AdcSar_resolution
 862 0030 1B78     		ldrb	r3, [r3, #0]	@ zero_extendqisi2
 863 0032 0A2B     		cmp	r3, #10
 864 0034 05D1     		bne	.L42
 651:.\Generated_Source\PSoC5/AdcSar.c ****         {
 652:.\Generated_Source\PSoC5/AdcSar.c ****             res >>= 2u;
 865              		.loc 1 652 0
 866 0036 B7F90630 		ldrsh	r3, [r7, #6]
 867 003a 4FEAA303 		asr	r3, r3, #2
 868 003e FB80     		strh	r3, [r7, #6]	@ movhi
 869 0040 0BE0     		b	.L43
 870              	.L42:
 653:.\Generated_Source\PSoC5/AdcSar.c ****         }
 654:.\Generated_Source\PSoC5/AdcSar.c ****         else if(AdcSar_resolution == AdcSar__BITS_8)
 871              		.loc 1 654 0
 872 0042 40F20003 		movw	r3, #:lower16:AdcSar_resolution
 873 0046 C0F20003 		movt	r3, #:upper16:AdcSar_resolution
 874 004a 1B78     		ldrb	r3, [r3, #0]	@ zero_extendqisi2
 875 004c 082B     		cmp	r3, #8
 876 004e 04D1     		bne	.L43
 655:.\Generated_Source\PSoC5/AdcSar.c ****         {
 656:.\Generated_Source\PSoC5/AdcSar.c ****             res >>= 4u;
 877              		.loc 1 656 0
 878 0050 B7F90630 		ldrsh	r3, [r7, #6]
 879 0054 4FEA2313 		asr	r3, r3, #4
ARM GAS  C:\Users\Geo\AppData\Local\Temp\ccJcx0AO.s 			page 28


 880 0058 FB80     		strh	r3, [r7, #6]	@ movhi
 881              	.L43:
 657:.\Generated_Source\PSoC5/AdcSar.c ****         }
 658:.\Generated_Source\PSoC5/AdcSar.c ****         else    /* Do not shift for 12 bits */
 659:.\Generated_Source\PSoC5/AdcSar.c ****         {
 660:.\Generated_Source\PSoC5/AdcSar.c ****         }
 661:.\Generated_Source\PSoC5/AdcSar.c ****     #endif /* End CY_PSOC5_ES1 */
 662:.\Generated_Source\PSoC5/AdcSar.c **** 
 663:.\Generated_Source\PSoC5/AdcSar.c ****     return( res );
 882              		.loc 1 663 0
 883 005a FB88     		ldrh	r3, [r7, #6]
 884 005c 1BB2     		sxth	r3, r3
 664:.\Generated_Source\PSoC5/AdcSar.c **** }
 885              		.loc 1 664 0
 886 005e 1846     		mov	r0, r3
 887 0060 07F10C07 		add	r7, r7, #12
 888 0064 BD46     		mov	sp, r7
 889 0066 80BC     		pop	{r7}
 890 0068 7047     		bx	lr
 891              		.cfi_endproc
 892              	.LFE13:
 893              		.size	AdcSar_GetResult16, .-AdcSar_GetResult16
 894 006a 00BF     		.section	.text.AdcSar_SetOffset,"ax",%progbits
 895              		.align	2
 896              		.global	AdcSar_SetOffset
 897              		.thumb
 898              		.thumb_func
 899              		.type	AdcSar_SetOffset, %function
 900              	AdcSar_SetOffset:
 901              	.LFB14:
 665:.\Generated_Source\PSoC5/AdcSar.c **** 
 666:.\Generated_Source\PSoC5/AdcSar.c **** 
 667:.\Generated_Source\PSoC5/AdcSar.c **** /*******************************************************************************
 668:.\Generated_Source\PSoC5/AdcSar.c **** * Function Name: AdcSar_SetOffset
 669:.\Generated_Source\PSoC5/AdcSar.c **** ********************************************************************************
 670:.\Generated_Source\PSoC5/AdcSar.c **** *
 671:.\Generated_Source\PSoC5/AdcSar.c **** * Summary:
 672:.\Generated_Source\PSoC5/AdcSar.c **** *  This function sets the offset for voltage readings.
 673:.\Generated_Source\PSoC5/AdcSar.c **** *
 674:.\Generated_Source\PSoC5/AdcSar.c **** * Parameters:
 675:.\Generated_Source\PSoC5/AdcSar.c **** *  int16: Offset in counts
 676:.\Generated_Source\PSoC5/AdcSar.c **** *
 677:.\Generated_Source\PSoC5/AdcSar.c **** * Return:
 678:.\Generated_Source\PSoC5/AdcSar.c **** *  None.
 679:.\Generated_Source\PSoC5/AdcSar.c **** *
 680:.\Generated_Source\PSoC5/AdcSar.c **** * Global Variables:
 681:.\Generated_Source\PSoC5/AdcSar.c **** *  The AdcSar_offset variable modified. This variable is used for 
 682:.\Generated_Source\PSoC5/AdcSar.c **** *  offset calibration purpose. 
 683:.\Generated_Source\PSoC5/AdcSar.c **** *  Affects the AdcSar_CountsTo_Volts, 
 684:.\Generated_Source\PSoC5/AdcSar.c **** *  AdcSar_CountsTo_mVolts, AdcSar_CountsTo_uVolts functions 
 685:.\Generated_Source\PSoC5/AdcSar.c **** *  by subtracting the given offset. 
 686:.\Generated_Source\PSoC5/AdcSar.c **** *
 687:.\Generated_Source\PSoC5/AdcSar.c **** *******************************************************************************/
 688:.\Generated_Source\PSoC5/AdcSar.c **** void AdcSar_SetOffset(int16 offset)
 689:.\Generated_Source\PSoC5/AdcSar.c **** {
 902              		.loc 1 689 0
 903              		.cfi_startproc
ARM GAS  C:\Users\Geo\AppData\Local\Temp\ccJcx0AO.s 			page 29


 904              		@ args = 0, pretend = 0, frame = 8
 905              		@ frame_needed = 1, uses_anonymous_args = 0
 906              		@ link register save eliminated.
 907 0000 80B4     		push	{r7}
 908              	.LCFI36:
 909              		.cfi_def_cfa_offset 4
 910 0002 83B0     		sub	sp, sp, #12
 911              	.LCFI37:
 912              		.cfi_def_cfa_offset 16
 913 0004 00AF     		add	r7, sp, #0
 914              		.cfi_offset 7, -4
 915              	.LCFI38:
 916              		.cfi_def_cfa_register 7
 917 0006 0346     		mov	r3, r0
 918 0008 FB80     		strh	r3, [r7, #6]	@ movhi
 690:.\Generated_Source\PSoC5/AdcSar.c ****     AdcSar_offset = offset;
 919              		.loc 1 690 0
 920 000a 40F20003 		movw	r3, #:lower16:AdcSar_offset
 921 000e C0F20003 		movt	r3, #:upper16:AdcSar_offset
 922 0012 FA88     		ldrh	r2, [r7, #6]	@ movhi
 923 0014 1A80     		strh	r2, [r3, #0]	@ movhi
 691:.\Generated_Source\PSoC5/AdcSar.c **** }
 924              		.loc 1 691 0
 925 0016 07F10C07 		add	r7, r7, #12
 926 001a BD46     		mov	sp, r7
 927 001c 80BC     		pop	{r7}
 928 001e 7047     		bx	lr
 929              		.cfi_endproc
 930              	.LFE14:
 931              		.size	AdcSar_SetOffset, .-AdcSar_SetOffset
 932              		.section	.text.AdcSar_CalcGain,"ax",%progbits
 933              		.align	2
 934              		.global	AdcSar_CalcGain
 935              		.thumb
 936              		.thumb_func
 937              		.type	AdcSar_CalcGain, %function
 938              	AdcSar_CalcGain:
 939              	.LFB15:
 692:.\Generated_Source\PSoC5/AdcSar.c **** 
 693:.\Generated_Source\PSoC5/AdcSar.c **** 
 694:.\Generated_Source\PSoC5/AdcSar.c **** /*******************************************************************************
 695:.\Generated_Source\PSoC5/AdcSar.c **** * Function Name: AdcSar_CalcGain
 696:.\Generated_Source\PSoC5/AdcSar.c **** ********************************************************************************
 697:.\Generated_Source\PSoC5/AdcSar.c **** *
 698:.\Generated_Source\PSoC5/AdcSar.c **** * Summary:
 699:.\Generated_Source\PSoC5/AdcSar.c **** *  This function calculates the ADC gain in counts per volt.
 700:.\Generated_Source\PSoC5/AdcSar.c **** *
 701:.\Generated_Source\PSoC5/AdcSar.c **** * Parameters:
 702:.\Generated_Source\PSoC5/AdcSar.c **** *  uint8: resolution
 703:.\Generated_Source\PSoC5/AdcSar.c **** *
 704:.\Generated_Source\PSoC5/AdcSar.c **** * Return:
 705:.\Generated_Source\PSoC5/AdcSar.c **** *  None.
 706:.\Generated_Source\PSoC5/AdcSar.c **** *
 707:.\Generated_Source\PSoC5/AdcSar.c **** * Global Variables:
 708:.\Generated_Source\PSoC5/AdcSar.c **** *  AdcSar_shift variable initialized. This variable is used to 
 709:.\Generated_Source\PSoC5/AdcSar.c **** *  convert the ADC counts to the 2's compliment form. 
 710:.\Generated_Source\PSoC5/AdcSar.c **** *  AdcSar_countsPerVolt variable initialized. This variable is used 
ARM GAS  C:\Users\Geo\AppData\Local\Temp\ccJcx0AO.s 			page 30


 711:.\Generated_Source\PSoC5/AdcSar.c **** *  for gain calibration purpose. 
 712:.\Generated_Source\PSoC5/AdcSar.c **** *
 713:.\Generated_Source\PSoC5/AdcSar.c **** *******************************************************************************/
 714:.\Generated_Source\PSoC5/AdcSar.c **** void AdcSar_CalcGain( uint8 resolution )
 715:.\Generated_Source\PSoC5/AdcSar.c **** {
 940              		.loc 1 715 0
 941              		.cfi_startproc
 942              		@ args = 0, pretend = 0, frame = 16
 943              		@ frame_needed = 1, uses_anonymous_args = 0
 944              		@ link register save eliminated.
 945 0000 80B4     		push	{r7}
 946              	.LCFI39:
 947              		.cfi_def_cfa_offset 4
 948 0002 85B0     		sub	sp, sp, #20
 949              	.LCFI40:
 950              		.cfi_def_cfa_offset 24
 951 0004 00AF     		add	r7, sp, #0
 952              		.cfi_offset 7, -4
 953              	.LCFI41:
 954              		.cfi_def_cfa_register 7
 955 0006 0346     		mov	r3, r0
 956 0008 FB71     		strb	r3, [r7, #7]
 716:.\Generated_Source\PSoC5/AdcSar.c ****     uint32 counts = AdcSar_SAR_WRK_MAX;       /*default 12 bits*/
 957              		.loc 1 716 0
 958 000a 40F6FF73 		movw	r3, #4095
 959 000e BB60     		str	r3, [r7, #8]
 717:.\Generated_Source\PSoC5/AdcSar.c ****     uint16 diff_zero = AdcSar_SAR_DIFF_SHIFT;
 960              		.loc 1 717 0
 961 0010 4FF40063 		mov	r3, #2048
 962 0014 FB81     		strh	r3, [r7, #14]	@ movhi
 718:.\Generated_Source\PSoC5/AdcSar.c ****     
 719:.\Generated_Source\PSoC5/AdcSar.c ****     if(resolution == AdcSar__BITS_10)
 963              		.loc 1 719 0
 964 0016 FB79     		ldrb	r3, [r7, #7]	@ zero_extendqisi2
 965 0018 0A2B     		cmp	r3, #10
 966 001a 03D1     		bne	.L48
 720:.\Generated_Source\PSoC5/AdcSar.c ****     {
 721:.\Generated_Source\PSoC5/AdcSar.c ****         counts >>= 2u;
 967              		.loc 1 721 0
 968 001c BB68     		ldr	r3, [r7, #8]
 969 001e 4FEA9303 		lsr	r3, r3, #2
 970 0022 BB60     		str	r3, [r7, #8]
 971              	.L48:
 722:.\Generated_Source\PSoC5/AdcSar.c ****         /* Use 12bits for PSoC5 production silicon */
 723:.\Generated_Source\PSoC5/AdcSar.c ****         #if(CY_PSOC5_ES2)
 724:.\Generated_Source\PSoC5/AdcSar.c ****             diff_zero >>= 2u;
 725:.\Generated_Source\PSoC5/AdcSar.c ****         #else  /* To avoid the warning */  
 726:.\Generated_Source\PSoC5/AdcSar.c ****             diff_zero = diff_zero;
 727:.\Generated_Source\PSoC5/AdcSar.c ****         #endif /* End CY_PSOC5_ES2 */
 728:.\Generated_Source\PSoC5/AdcSar.c ****     }
 729:.\Generated_Source\PSoC5/AdcSar.c ****     if(resolution == AdcSar__BITS_8)
 972              		.loc 1 729 0
 973 0024 FB79     		ldrb	r3, [r7, #7]	@ zero_extendqisi2
 974 0026 082B     		cmp	r3, #8
 975 0028 03D1     		bne	.L49
 730:.\Generated_Source\PSoC5/AdcSar.c ****     {
 731:.\Generated_Source\PSoC5/AdcSar.c ****         counts >>= 4u;
ARM GAS  C:\Users\Geo\AppData\Local\Temp\ccJcx0AO.s 			page 31


 976              		.loc 1 731 0
 977 002a BB68     		ldr	r3, [r7, #8]
 978 002c 4FEA1313 		lsr	r3, r3, #4
 979 0030 BB60     		str	r3, [r7, #8]
 980              	.L49:
 732:.\Generated_Source\PSoC5/AdcSar.c ****         /* Use 12bits for PSoC5 production silicon */
 733:.\Generated_Source\PSoC5/AdcSar.c ****         #if(CY_PSOC5_ES2)
 734:.\Generated_Source\PSoC5/AdcSar.c ****             diff_zero >>= 4u;
 735:.\Generated_Source\PSoC5/AdcSar.c ****         #else  /* To avoid the warning */  
 736:.\Generated_Source\PSoC5/AdcSar.c ****             diff_zero = diff_zero;
 737:.\Generated_Source\PSoC5/AdcSar.c ****         #endif /* End CY_PSOC5_ES2 */
 738:.\Generated_Source\PSoC5/AdcSar.c ****     }
 739:.\Generated_Source\PSoC5/AdcSar.c ****     counts *= 1000u; /* To avoid float point arithmetic*/
 981              		.loc 1 739 0
 982 0032 BB68     		ldr	r3, [r7, #8]
 983 0034 4FF47A72 		mov	r2, #1000
 984 0038 02FB03F3 		mul	r3, r2, r3
 985 003c BB60     		str	r3, [r7, #8]
 740:.\Generated_Source\PSoC5/AdcSar.c ****     AdcSar_countsPerVolt = counts / AdcSar_DEFAULT_REF_VOLTAGE_MV / 2;
 986              		.loc 1 740 0
 987 003e BB68     		ldr	r3, [r7, #8]
 988 0040 4FEA9302 		lsr	r2, r3, #2
 989 0044 40F29F03 		movw	r3, #:lower16:166592671
 990 0048 C0F6EE13 		movt	r3, #:upper16:166592671
 991 004c A3FB0213 		umull	r1, r3, r3, r2
 992 0050 4FEA5313 		lsr	r3, r3, #5
 993 0054 9AB2     		uxth	r2, r3
 994 0056 40F20003 		movw	r3, #:lower16:AdcSar_countsPerVolt
 995 005a C0F20003 		movt	r3, #:upper16:AdcSar_countsPerVolt
 996 005e 1A80     		strh	r2, [r3, #0]	@ movhi
 741:.\Generated_Source\PSoC5/AdcSar.c **** 
 742:.\Generated_Source\PSoC5/AdcSar.c ****     #if(AdcSar_DEFAULT_RANGE == AdcSar__VSS_TO_VREF)
 743:.\Generated_Source\PSoC5/AdcSar.c ****         AdcSar_shift = 0;
 744:.\Generated_Source\PSoC5/AdcSar.c ****     #elif(AdcSar_DEFAULT_RANGE == AdcSar__VSSA_TO_VDDA)
 745:.\Generated_Source\PSoC5/AdcSar.c ****         AdcSar_shift = 0;
 997              		.loc 1 745 0
 998 0060 40F20003 		movw	r3, #:lower16:AdcSar_shift
 999 0064 C0F20003 		movt	r3, #:upper16:AdcSar_shift
 1000 0068 4FF00002 		mov	r2, #0
 1001 006c 1A80     		strh	r2, [r3, #0]	@ movhi
 746:.\Generated_Source\PSoC5/AdcSar.c ****     #elif(AdcSar_DEFAULT_RANGE == AdcSar__VSSA_TO_VDAC)
 747:.\Generated_Source\PSoC5/AdcSar.c ****         AdcSar_shift = 0;
 748:.\Generated_Source\PSoC5/AdcSar.c ****     #elif(AdcSar_DEFAULT_RANGE == AdcSar__VNEG_VREF_DIFF)
 749:.\Generated_Source\PSoC5/AdcSar.c ****         AdcSar_shift = diff_zero;
 750:.\Generated_Source\PSoC5/AdcSar.c ****     #elif(AdcSar_DEFAULT_RANGE == AdcSar__VNEG_VDDA_DIFF)
 751:.\Generated_Source\PSoC5/AdcSar.c ****         AdcSar_shift = diff_zero;
 752:.\Generated_Source\PSoC5/AdcSar.c ****     #elif(AdcSar_DEFAULT_RANGE == AdcSar__VNEG_VDDA_2_DIFF)
 753:.\Generated_Source\PSoC5/AdcSar.c ****         AdcSar_shift = diff_zero;
 754:.\Generated_Source\PSoC5/AdcSar.c ****     #elif(AdcSar_DEFAULT_RANGE == AdcSar__VNEG_VDAC_DIFF)
 755:.\Generated_Source\PSoC5/AdcSar.c ****         AdcSar_shift = diff_zero;
 756:.\Generated_Source\PSoC5/AdcSar.c ****     #endif /* End AdcSar_DEFAULT_RANGE */    
 757:.\Generated_Source\PSoC5/AdcSar.c **** }
 1002              		.loc 1 757 0
 1003 006e 07F11407 		add	r7, r7, #20
 1004 0072 BD46     		mov	sp, r7
 1005 0074 80BC     		pop	{r7}
 1006 0076 7047     		bx	lr
ARM GAS  C:\Users\Geo\AppData\Local\Temp\ccJcx0AO.s 			page 32


 1007              		.cfi_endproc
 1008              	.LFE15:
 1009              		.size	AdcSar_CalcGain, .-AdcSar_CalcGain
 1010              		.section	.text.AdcSar_SetGain,"ax",%progbits
 1011              		.align	2
 1012              		.global	AdcSar_SetGain
 1013              		.thumb
 1014              		.thumb_func
 1015              		.type	AdcSar_SetGain, %function
 1016              	AdcSar_SetGain:
 1017              	.LFB16:
 758:.\Generated_Source\PSoC5/AdcSar.c **** 
 759:.\Generated_Source\PSoC5/AdcSar.c **** 
 760:.\Generated_Source\PSoC5/AdcSar.c **** /*******************************************************************************
 761:.\Generated_Source\PSoC5/AdcSar.c **** * Function Name: AdcSar_SetGain
 762:.\Generated_Source\PSoC5/AdcSar.c **** ********************************************************************************
 763:.\Generated_Source\PSoC5/AdcSar.c **** *
 764:.\Generated_Source\PSoC5/AdcSar.c **** * Summary:
 765:.\Generated_Source\PSoC5/AdcSar.c **** *  This function sets the ADC gain in counts per volt.
 766:.\Generated_Source\PSoC5/AdcSar.c **** *
 767:.\Generated_Source\PSoC5/AdcSar.c **** * Parameters:
 768:.\Generated_Source\PSoC5/AdcSar.c **** *  int16  adcGain  counts per volt
 769:.\Generated_Source\PSoC5/AdcSar.c **** *
 770:.\Generated_Source\PSoC5/AdcSar.c **** * Return:
 771:.\Generated_Source\PSoC5/AdcSar.c **** *  None.
 772:.\Generated_Source\PSoC5/AdcSar.c **** *
 773:.\Generated_Source\PSoC5/AdcSar.c **** * Global Variables:
 774:.\Generated_Source\PSoC5/AdcSar.c **** *  AdcSar_countsPerVolt variable modified. This variable is used 
 775:.\Generated_Source\PSoC5/AdcSar.c **** *  for gain calibration purpose. 
 776:.\Generated_Source\PSoC5/AdcSar.c **** *
 777:.\Generated_Source\PSoC5/AdcSar.c **** *******************************************************************************/
 778:.\Generated_Source\PSoC5/AdcSar.c **** void AdcSar_SetGain(int16 adcGain)
 779:.\Generated_Source\PSoC5/AdcSar.c **** {
 1018              		.loc 1 779 0
 1019              		.cfi_startproc
 1020              		@ args = 0, pretend = 0, frame = 8
 1021              		@ frame_needed = 1, uses_anonymous_args = 0
 1022              		@ link register save eliminated.
 1023 0000 80B4     		push	{r7}
 1024              	.LCFI42:
 1025              		.cfi_def_cfa_offset 4
 1026 0002 83B0     		sub	sp, sp, #12
 1027              	.LCFI43:
 1028              		.cfi_def_cfa_offset 16
 1029 0004 00AF     		add	r7, sp, #0
 1030              		.cfi_offset 7, -4
 1031              	.LCFI44:
 1032              		.cfi_def_cfa_register 7
 1033 0006 0346     		mov	r3, r0
 1034 0008 FB80     		strh	r3, [r7, #6]	@ movhi
 780:.\Generated_Source\PSoC5/AdcSar.c ****     AdcSar_countsPerVolt = adcGain;
 1035              		.loc 1 780 0
 1036 000a 40F20003 		movw	r3, #:lower16:AdcSar_countsPerVolt
 1037 000e C0F20003 		movt	r3, #:upper16:AdcSar_countsPerVolt
 1038 0012 FA88     		ldrh	r2, [r7, #6]	@ movhi
 1039 0014 1A80     		strh	r2, [r3, #0]	@ movhi
 781:.\Generated_Source\PSoC5/AdcSar.c **** }
ARM GAS  C:\Users\Geo\AppData\Local\Temp\ccJcx0AO.s 			page 33


 1040              		.loc 1 781 0
 1041 0016 07F10C07 		add	r7, r7, #12
 1042 001a BD46     		mov	sp, r7
 1043 001c 80BC     		pop	{r7}
 1044 001e 7047     		bx	lr
 1045              		.cfi_endproc
 1046              	.LFE16:
 1047              		.size	AdcSar_SetGain, .-AdcSar_SetGain
 1048              		.section	.text.AdcSar_CountsTo_mVolts,"ax",%progbits
 1049              		.align	2
 1050              		.global	AdcSar_CountsTo_mVolts
 1051              		.thumb
 1052              		.thumb_func
 1053              		.type	AdcSar_CountsTo_mVolts, %function
 1054              	AdcSar_CountsTo_mVolts:
 1055              	.LFB17:
 782:.\Generated_Source\PSoC5/AdcSar.c **** 
 783:.\Generated_Source\PSoC5/AdcSar.c **** 
 784:.\Generated_Source\PSoC5/AdcSar.c **** /*******************************************************************************
 785:.\Generated_Source\PSoC5/AdcSar.c **** * Function Name: AdcSar_CountsTo_mVolts
 786:.\Generated_Source\PSoC5/AdcSar.c **** ********************************************************************************
 787:.\Generated_Source\PSoC5/AdcSar.c **** *
 788:.\Generated_Source\PSoC5/AdcSar.c **** * Summary:
 789:.\Generated_Source\PSoC5/AdcSar.c **** *  This function converts ADC counts to mVolts
 790:.\Generated_Source\PSoC5/AdcSar.c **** *
 791:.\Generated_Source\PSoC5/AdcSar.c **** * Parameters:
 792:.\Generated_Source\PSoC5/AdcSar.c **** *  int16  adcCounts   Reading from ADC.
 793:.\Generated_Source\PSoC5/AdcSar.c **** *
 794:.\Generated_Source\PSoC5/AdcSar.c **** * Return:
 795:.\Generated_Source\PSoC5/AdcSar.c **** *  int16  Result in mVolts
 796:.\Generated_Source\PSoC5/AdcSar.c **** *
 797:.\Generated_Source\PSoC5/AdcSar.c **** * Global Variables:
 798:.\Generated_Source\PSoC5/AdcSar.c **** *  AdcSar_offset variable used.
 799:.\Generated_Source\PSoC5/AdcSar.c **** *  AdcSar_countsPerVolt variable used.
 800:.\Generated_Source\PSoC5/AdcSar.c **** *
 801:.\Generated_Source\PSoC5/AdcSar.c **** *******************************************************************************/
 802:.\Generated_Source\PSoC5/AdcSar.c **** int16 AdcSar_CountsTo_mVolts(int16 adcCounts)
 803:.\Generated_Source\PSoC5/AdcSar.c **** {
 1056              		.loc 1 803 0
 1057              		.cfi_startproc
 1058              		@ args = 0, pretend = 0, frame = 16
 1059              		@ frame_needed = 1, uses_anonymous_args = 0
 1060              		@ link register save eliminated.
 1061 0000 80B4     		push	{r7}
 1062              	.LCFI45:
 1063              		.cfi_def_cfa_offset 4
 1064 0002 85B0     		sub	sp, sp, #20
 1065              	.LCFI46:
 1066              		.cfi_def_cfa_offset 24
 1067 0004 00AF     		add	r7, sp, #0
 1068              		.cfi_offset 7, -4
 1069              	.LCFI47:
 1070              		.cfi_def_cfa_register 7
 1071 0006 0346     		mov	r3, r0
 1072 0008 FB80     		strh	r3, [r7, #6]	@ movhi
 804:.\Generated_Source\PSoC5/AdcSar.c **** 
 805:.\Generated_Source\PSoC5/AdcSar.c ****     int16 mVolts;
ARM GAS  C:\Users\Geo\AppData\Local\Temp\ccJcx0AO.s 			page 34


 806:.\Generated_Source\PSoC5/AdcSar.c **** 
 807:.\Generated_Source\PSoC5/AdcSar.c ****     /* Subtract ADC offset */
 808:.\Generated_Source\PSoC5/AdcSar.c ****     adcCounts -= AdcSar_offset;
 1073              		.loc 1 808 0
 1074 000a FA88     		ldrh	r2, [r7, #6]
 1075 000c 40F20003 		movw	r3, #:lower16:AdcSar_offset
 1076 0010 C0F20003 		movt	r3, #:upper16:AdcSar_offset
 1077 0014 1B88     		ldrh	r3, [r3, #0]	@ movhi
 1078 0016 9BB2     		uxth	r3, r3
 1079 0018 9BB2     		uxth	r3, r3
 1080 001a C3EB0203 		rsb	r3, r3, r2
 1081 001e 9BB2     		uxth	r3, r3
 1082 0020 FB80     		strh	r3, [r7, #6]	@ movhi
 809:.\Generated_Source\PSoC5/AdcSar.c **** 
 810:.\Generated_Source\PSoC5/AdcSar.c ****     mVolts = ( (int32)adcCounts * 1000 ) / AdcSar_countsPerVolt ;
 1083              		.loc 1 810 0
 1084 0022 B7F90630 		ldrsh	r3, [r7, #6]
 1085 0026 4FF47A72 		mov	r2, #1000
 1086 002a 02FB03F2 		mul	r2, r2, r3
 1087 002e 40F20003 		movw	r3, #:lower16:AdcSar_countsPerVolt
 1088 0032 C0F20003 		movt	r3, #:upper16:AdcSar_countsPerVolt
 1089 0036 1B88     		ldrh	r3, [r3, #0]	@ movhi
 1090 0038 9BB2     		uxth	r3, r3
 1091 003a 1BB2     		sxth	r3, r3
 1092 003c 92FBF3F3 		sdiv	r3, r2, r3
 1093 0040 FB81     		strh	r3, [r7, #14]	@ movhi
 811:.\Generated_Source\PSoC5/AdcSar.c **** 
 812:.\Generated_Source\PSoC5/AdcSar.c ****     return( mVolts );
 1094              		.loc 1 812 0
 1095 0042 FB89     		ldrh	r3, [r7, #14]
 1096 0044 1BB2     		sxth	r3, r3
 813:.\Generated_Source\PSoC5/AdcSar.c **** }
 1097              		.loc 1 813 0
 1098 0046 1846     		mov	r0, r3
 1099 0048 07F11407 		add	r7, r7, #20
 1100 004c BD46     		mov	sp, r7
 1101 004e 80BC     		pop	{r7}
 1102 0050 7047     		bx	lr
 1103              		.cfi_endproc
 1104              	.LFE17:
 1105              		.size	AdcSar_CountsTo_mVolts, .-AdcSar_CountsTo_mVolts
 1106 0052 00BF     		.section	.text.AdcSar_CountsTo_uVolts,"ax",%progbits
 1107              		.align	2
 1108              		.global	AdcSar_CountsTo_uVolts
 1109              		.thumb
 1110              		.thumb_func
 1111              		.type	AdcSar_CountsTo_uVolts, %function
 1112              	AdcSar_CountsTo_uVolts:
 1113              	.LFB18:
 814:.\Generated_Source\PSoC5/AdcSar.c **** 
 815:.\Generated_Source\PSoC5/AdcSar.c **** 
 816:.\Generated_Source\PSoC5/AdcSar.c **** /*******************************************************************************
 817:.\Generated_Source\PSoC5/AdcSar.c **** * Function Name: AdcSar_CountsTo_uVolts
 818:.\Generated_Source\PSoC5/AdcSar.c **** ********************************************************************************
 819:.\Generated_Source\PSoC5/AdcSar.c **** *
 820:.\Generated_Source\PSoC5/AdcSar.c **** * Summary:
 821:.\Generated_Source\PSoC5/AdcSar.c **** *  This function converts ADC counts to micro Volts
ARM GAS  C:\Users\Geo\AppData\Local\Temp\ccJcx0AO.s 			page 35


 822:.\Generated_Source\PSoC5/AdcSar.c **** *
 823:.\Generated_Source\PSoC5/AdcSar.c **** * Parameters:
 824:.\Generated_Source\PSoC5/AdcSar.c **** *  int16  adcCounts   Reading from ADC.
 825:.\Generated_Source\PSoC5/AdcSar.c **** *
 826:.\Generated_Source\PSoC5/AdcSar.c **** * Return:
 827:.\Generated_Source\PSoC5/AdcSar.c **** *  int32  Result in micro Volts
 828:.\Generated_Source\PSoC5/AdcSar.c **** *
 829:.\Generated_Source\PSoC5/AdcSar.c **** * Global Variables:
 830:.\Generated_Source\PSoC5/AdcSar.c **** *  AdcSar_offset variable used.
 831:.\Generated_Source\PSoC5/AdcSar.c **** *  AdcSar_countsPerVolt variable used.
 832:.\Generated_Source\PSoC5/AdcSar.c **** *
 833:.\Generated_Source\PSoC5/AdcSar.c **** *******************************************************************************/
 834:.\Generated_Source\PSoC5/AdcSar.c **** int32 AdcSar_CountsTo_uVolts(int16 adcCounts)
 835:.\Generated_Source\PSoC5/AdcSar.c **** {
 1114              		.loc 1 835 0
 1115              		.cfi_startproc
 1116              		@ args = 0, pretend = 0, frame = 16
 1117              		@ frame_needed = 1, uses_anonymous_args = 0
 1118              		@ link register save eliminated.
 1119 0000 80B4     		push	{r7}
 1120              	.LCFI48:
 1121              		.cfi_def_cfa_offset 4
 1122 0002 85B0     		sub	sp, sp, #20
 1123              	.LCFI49:
 1124              		.cfi_def_cfa_offset 24
 1125 0004 00AF     		add	r7, sp, #0
 1126              		.cfi_offset 7, -4
 1127              	.LCFI50:
 1128              		.cfi_def_cfa_register 7
 1129 0006 0346     		mov	r3, r0
 1130 0008 FB80     		strh	r3, [r7, #6]	@ movhi
 836:.\Generated_Source\PSoC5/AdcSar.c **** 
 837:.\Generated_Source\PSoC5/AdcSar.c ****     int32 uVolts;
 838:.\Generated_Source\PSoC5/AdcSar.c **** 
 839:.\Generated_Source\PSoC5/AdcSar.c ****     /* Subtract ADC offset */
 840:.\Generated_Source\PSoC5/AdcSar.c ****     adcCounts -= AdcSar_offset;
 1131              		.loc 1 840 0
 1132 000a FA88     		ldrh	r2, [r7, #6]
 1133 000c 40F20003 		movw	r3, #:lower16:AdcSar_offset
 1134 0010 C0F20003 		movt	r3, #:upper16:AdcSar_offset
 1135 0014 1B88     		ldrh	r3, [r3, #0]	@ movhi
 1136 0016 9BB2     		uxth	r3, r3
 1137 0018 9BB2     		uxth	r3, r3
 1138 001a C3EB0203 		rsb	r3, r3, r2
 1139 001e 9BB2     		uxth	r3, r3
 1140 0020 FB80     		strh	r3, [r7, #6]	@ movhi
 841:.\Generated_Source\PSoC5/AdcSar.c ****     /* To convert adcCounts to microVolts it is required to be multiplied
 842:.\Generated_Source\PSoC5/AdcSar.c ****     *  on 1 million. It is multiplied on 500000 and later on 2 to 
 843:.\Generated_Source\PSoC5/AdcSar.c ****     *  to avoid 32bit arithmetic overflows. 
 844:.\Generated_Source\PSoC5/AdcSar.c ****     */
 845:.\Generated_Source\PSoC5/AdcSar.c ****     uVolts = (( (int32)adcCounts * 500000 ) / AdcSar_countsPerVolt) * 2;
 1141              		.loc 1 845 0
 1142 0022 B7F90620 		ldrsh	r2, [r7, #6]
 1143 0026 4AF22013 		movw	r3, #:lower16:500000
 1144 002a C0F20703 		movt	r3, #:upper16:500000
 1145 002e 03FB02F2 		mul	r2, r3, r2
 1146 0032 40F20003 		movw	r3, #:lower16:AdcSar_countsPerVolt
ARM GAS  C:\Users\Geo\AppData\Local\Temp\ccJcx0AO.s 			page 36


 1147 0036 C0F20003 		movt	r3, #:upper16:AdcSar_countsPerVolt
 1148 003a 1B88     		ldrh	r3, [r3, #0]	@ movhi
 1149 003c 9BB2     		uxth	r3, r3
 1150 003e 1BB2     		sxth	r3, r3
 1151 0040 92FBF3F3 		sdiv	r3, r2, r3
 1152 0044 4FEA4303 		lsl	r3, r3, #1
 1153 0048 FB60     		str	r3, [r7, #12]
 846:.\Generated_Source\PSoC5/AdcSar.c **** 
 847:.\Generated_Source\PSoC5/AdcSar.c ****     return( uVolts );
 1154              		.loc 1 847 0
 1155 004a FB68     		ldr	r3, [r7, #12]
 848:.\Generated_Source\PSoC5/AdcSar.c **** }
 1156              		.loc 1 848 0
 1157 004c 1846     		mov	r0, r3
 1158 004e 07F11407 		add	r7, r7, #20
 1159 0052 BD46     		mov	sp, r7
 1160 0054 80BC     		pop	{r7}
 1161 0056 7047     		bx	lr
 1162              		.cfi_endproc
 1163              	.LFE18:
 1164              		.size	AdcSar_CountsTo_uVolts, .-AdcSar_CountsTo_uVolts
 1165              		.global	__aeabi_i2f
 1166              		.global	__aeabi_fdiv
 1167              		.section	.text.AdcSar_CountsTo_Volts,"ax",%progbits
 1168              		.align	2
 1169              		.global	AdcSar_CountsTo_Volts
 1170              		.thumb
 1171              		.thumb_func
 1172              		.type	AdcSar_CountsTo_Volts, %function
 1173              	AdcSar_CountsTo_Volts:
 1174              	.LFB19:
 849:.\Generated_Source\PSoC5/AdcSar.c **** 
 850:.\Generated_Source\PSoC5/AdcSar.c **** 
 851:.\Generated_Source\PSoC5/AdcSar.c **** /*******************************************************************************
 852:.\Generated_Source\PSoC5/AdcSar.c **** * Function Name: AdcSar_CountsTo_Volts
 853:.\Generated_Source\PSoC5/AdcSar.c **** ********************************************************************************
 854:.\Generated_Source\PSoC5/AdcSar.c **** *
 855:.\Generated_Source\PSoC5/AdcSar.c **** * Summary:
 856:.\Generated_Source\PSoC5/AdcSar.c **** *  This function converts ADC counts to Volts
 857:.\Generated_Source\PSoC5/AdcSar.c **** *
 858:.\Generated_Source\PSoC5/AdcSar.c **** * Parameters:
 859:.\Generated_Source\PSoC5/AdcSar.c **** *  int16  adcCounts   Reading from ADC.
 860:.\Generated_Source\PSoC5/AdcSar.c **** *
 861:.\Generated_Source\PSoC5/AdcSar.c **** * Return:
 862:.\Generated_Source\PSoC5/AdcSar.c **** *  float  Result in mVolts
 863:.\Generated_Source\PSoC5/AdcSar.c **** *
 864:.\Generated_Source\PSoC5/AdcSar.c **** * Global Variables:
 865:.\Generated_Source\PSoC5/AdcSar.c **** *  AdcSar_offset variable used.
 866:.\Generated_Source\PSoC5/AdcSar.c **** *  AdcSar_countsPerVolt variable used.
 867:.\Generated_Source\PSoC5/AdcSar.c **** *
 868:.\Generated_Source\PSoC5/AdcSar.c **** *******************************************************************************/
 869:.\Generated_Source\PSoC5/AdcSar.c **** float AdcSar_CountsTo_Volts(int16 adcCounts)
 870:.\Generated_Source\PSoC5/AdcSar.c **** {
 1175              		.loc 1 870 0
 1176              		.cfi_startproc
 1177              		@ args = 0, pretend = 0, frame = 16
 1178              		@ frame_needed = 1, uses_anonymous_args = 0
ARM GAS  C:\Users\Geo\AppData\Local\Temp\ccJcx0AO.s 			page 37


 1179 0000 90B5     		push	{r4, r7, lr}
 1180              	.LCFI51:
 1181              		.cfi_def_cfa_offset 12
 1182 0002 85B0     		sub	sp, sp, #20
 1183              	.LCFI52:
 1184              		.cfi_def_cfa_offset 32
 1185 0004 00AF     		add	r7, sp, #0
 1186              		.cfi_offset 14, -4
 1187              		.cfi_offset 7, -8
 1188              		.cfi_offset 4, -12
 1189              	.LCFI53:
 1190              		.cfi_def_cfa_register 7
 1191 0006 0346     		mov	r3, r0
 1192 0008 FB80     		strh	r3, [r7, #6]	@ movhi
 871:.\Generated_Source\PSoC5/AdcSar.c ****     float volts;
 872:.\Generated_Source\PSoC5/AdcSar.c **** 
 873:.\Generated_Source\PSoC5/AdcSar.c ****     /* Subtract ADC offset */
 874:.\Generated_Source\PSoC5/AdcSar.c ****     adcCounts -= AdcSar_offset;
 1193              		.loc 1 874 0
 1194 000a FA88     		ldrh	r2, [r7, #6]
 1195 000c 40F20003 		movw	r3, #:lower16:AdcSar_offset
 1196 0010 C0F20003 		movt	r3, #:upper16:AdcSar_offset
 1197 0014 1B88     		ldrh	r3, [r3, #0]	@ movhi
 1198 0016 9BB2     		uxth	r3, r3
 1199 0018 9BB2     		uxth	r3, r3
 1200 001a C3EB0203 		rsb	r3, r3, r2
 1201 001e 9BB2     		uxth	r3, r3
 1202 0020 FB80     		strh	r3, [r7, #6]	@ movhi
 875:.\Generated_Source\PSoC5/AdcSar.c **** 
 876:.\Generated_Source\PSoC5/AdcSar.c ****     volts = (float)adcCounts / (float)AdcSar_countsPerVolt;   
 1203              		.loc 1 876 0
 1204 0022 B7F90630 		ldrsh	r3, [r7, #6]
 1205 0026 1846     		mov	r0, r3
 1206 0028 FFF7FEFF 		bl	__aeabi_i2f
 1207 002c 0446     		mov	r4, r0
 1208 002e 40F20003 		movw	r3, #:lower16:AdcSar_countsPerVolt
 1209 0032 C0F20003 		movt	r3, #:upper16:AdcSar_countsPerVolt
 1210 0036 1B88     		ldrh	r3, [r3, #0]	@ movhi
 1211 0038 9BB2     		uxth	r3, r3
 1212 003a 1BB2     		sxth	r3, r3
 1213 003c 1846     		mov	r0, r3
 1214 003e FFF7FEFF 		bl	__aeabi_i2f
 1215 0042 0346     		mov	r3, r0
 1216 0044 2046     		mov	r0, r4
 1217 0046 1946     		mov	r1, r3
 1218 0048 FFF7FEFF 		bl	__aeabi_fdiv
 1219 004c 0346     		mov	r3, r0
 1220 004e FB60     		str	r3, [r7, #12]	@ float
 877:.\Generated_Source\PSoC5/AdcSar.c **** 
 878:.\Generated_Source\PSoC5/AdcSar.c ****     return( volts );
 1221              		.loc 1 878 0
 1222 0050 FB68     		ldr	r3, [r7, #12]	@ float
 879:.\Generated_Source\PSoC5/AdcSar.c **** }
 1223              		.loc 1 879 0
 1224 0052 1846     		mov	r0, r3
 1225 0054 07F11407 		add	r7, r7, #20
 1226 0058 BD46     		mov	sp, r7
ARM GAS  C:\Users\Geo\AppData\Local\Temp\ccJcx0AO.s 			page 38


 1227 005a 90BD     		pop	{r4, r7, pc}
 1228              		.cfi_endproc
 1229              	.LFE19:
 1230              		.size	AdcSar_CountsTo_Volts, .-AdcSar_CountsTo_Volts
 1231              		.text
 1232              	.Letext0:
 1233              		.section	.debug_loc,"",%progbits
 1234              	.Ldebug_loc0:
 1235              	.LLST0:
 1236 0000 00000000 		.4byte	.LFB0
 1237 0004 02000000 		.4byte	.LCFI0
 1238 0008 0100     		.2byte	0x1
 1239 000a 5D       		.byte	0x5d
 1240 000b 02000000 		.4byte	.LCFI0
 1241 000f 04000000 		.4byte	.LCFI1
 1242 0013 0200     		.2byte	0x2
 1243 0015 7D       		.byte	0x7d
 1244 0016 08       		.sleb128 8
 1245 0017 04000000 		.4byte	.LCFI1
 1246 001b 2A000000 		.4byte	.LFE0
 1247 001f 0200     		.2byte	0x2
 1248 0021 77       		.byte	0x77
 1249 0022 08       		.sleb128 8
 1250 0023 00000000 		.4byte	0x0
 1251 0027 00000000 		.4byte	0x0
 1252              	.LLST1:
 1253 002b 00000000 		.4byte	.LFB1
 1254 002f 02000000 		.4byte	.LCFI2
 1255 0033 0100     		.2byte	0x1
 1256 0035 5D       		.byte	0x5d
 1257 0036 02000000 		.4byte	.LCFI2
 1258 003a 04000000 		.4byte	.LCFI3
 1259 003e 0200     		.2byte	0x2
 1260 0040 7D       		.byte	0x7d
 1261 0041 08       		.sleb128 8
 1262 0042 04000000 		.4byte	.LCFI3
 1263 0046 5C000000 		.4byte	.LFE1
 1264 004a 0200     		.2byte	0x2
 1265 004c 77       		.byte	0x77
 1266 004d 08       		.sleb128 8
 1267 004e 00000000 		.4byte	0x0
 1268 0052 00000000 		.4byte	0x0
 1269              	.LLST2:
 1270 0056 00000000 		.4byte	.LFB2
 1271 005a 02000000 		.4byte	.LCFI4
 1272 005e 0100     		.2byte	0x1
 1273 0060 5D       		.byte	0x5d
 1274 0061 02000000 		.4byte	.LCFI4
 1275 0065 04000000 		.4byte	.LCFI5
 1276 0069 0200     		.2byte	0x2
 1277 006b 7D       		.byte	0x7d
 1278 006c 08       		.sleb128 8
 1279 006d 04000000 		.4byte	.LCFI5
 1280 0071 06000000 		.4byte	.LCFI6
 1281 0075 0200     		.2byte	0x2
 1282 0077 7D       		.byte	0x7d
 1283 0078 10       		.sleb128 16
ARM GAS  C:\Users\Geo\AppData\Local\Temp\ccJcx0AO.s 			page 39


 1284 0079 06000000 		.4byte	.LCFI6
 1285 007d 20010000 		.4byte	.LFE2
 1286 0081 0200     		.2byte	0x2
 1287 0083 77       		.byte	0x77
 1288 0084 10       		.sleb128 16
 1289 0085 00000000 		.4byte	0x0
 1290 0089 00000000 		.4byte	0x0
 1291              	.LLST3:
 1292 008d 00000000 		.4byte	.LFB3
 1293 0091 02000000 		.4byte	.LCFI7
 1294 0095 0100     		.2byte	0x1
 1295 0097 5D       		.byte	0x5d
 1296 0098 02000000 		.4byte	.LCFI7
 1297 009c 04000000 		.4byte	.LCFI8
 1298 00a0 0200     		.2byte	0x2
 1299 00a2 7D       		.byte	0x7d
 1300 00a3 04       		.sleb128 4
 1301 00a4 04000000 		.4byte	.LCFI8
 1302 00a8 06000000 		.4byte	.LCFI9
 1303 00ac 0200     		.2byte	0x2
 1304 00ae 7D       		.byte	0x7d
 1305 00af 18       		.sleb128 24
 1306 00b0 06000000 		.4byte	.LCFI9
 1307 00b4 7C000000 		.4byte	.LFE3
 1308 00b8 0200     		.2byte	0x2
 1309 00ba 77       		.byte	0x77
 1310 00bb 18       		.sleb128 24
 1311 00bc 00000000 		.4byte	0x0
 1312 00c0 00000000 		.4byte	0x0
 1313              	.LLST4:
 1314 00c4 00000000 		.4byte	.LFB4
 1315 00c8 02000000 		.4byte	.LCFI10
 1316 00cc 0100     		.2byte	0x1
 1317 00ce 5D       		.byte	0x5d
 1318 00cf 02000000 		.4byte	.LCFI10
 1319 00d3 04000000 		.4byte	.LCFI11
 1320 00d7 0200     		.2byte	0x2
 1321 00d9 7D       		.byte	0x7d
 1322 00da 08       		.sleb128 8
 1323 00db 04000000 		.4byte	.LCFI11
 1324 00df 06000000 		.4byte	.LCFI12
 1325 00e3 0200     		.2byte	0x2
 1326 00e5 7D       		.byte	0x7d
 1327 00e6 10       		.sleb128 16
 1328 00e7 06000000 		.4byte	.LCFI12
 1329 00eb 9A000000 		.4byte	.LFE4
 1330 00ef 0200     		.2byte	0x2
 1331 00f1 77       		.byte	0x77
 1332 00f2 10       		.sleb128 16
 1333 00f3 00000000 		.4byte	0x0
 1334 00f7 00000000 		.4byte	0x0
 1335              	.LLST5:
 1336 00fb 00000000 		.4byte	.LFB5
 1337 00ff 02000000 		.4byte	.LCFI13
 1338 0103 0100     		.2byte	0x1
 1339 0105 5D       		.byte	0x5d
 1340 0106 02000000 		.4byte	.LCFI13
ARM GAS  C:\Users\Geo\AppData\Local\Temp\ccJcx0AO.s 			page 40


 1341 010a 04000000 		.4byte	.LCFI14
 1342 010e 0200     		.2byte	0x2
 1343 0110 7D       		.byte	0x7d
 1344 0111 08       		.sleb128 8
 1345 0112 04000000 		.4byte	.LCFI14
 1346 0116 0E000000 		.4byte	.LFE5
 1347 011a 0200     		.2byte	0x2
 1348 011c 77       		.byte	0x77
 1349 011d 08       		.sleb128 8
 1350 011e 00000000 		.4byte	0x0
 1351 0122 00000000 		.4byte	0x0
 1352              	.LLST6:
 1353 0126 00000000 		.4byte	.LFB6
 1354 012a 02000000 		.4byte	.LCFI15
 1355 012e 0100     		.2byte	0x1
 1356 0130 5D       		.byte	0x5d
 1357 0131 02000000 		.4byte	.LCFI15
 1358 0135 04000000 		.4byte	.LCFI16
 1359 0139 0200     		.2byte	0x2
 1360 013b 7D       		.byte	0x7d
 1361 013c 08       		.sleb128 8
 1362 013d 04000000 		.4byte	.LCFI16
 1363 0141 0E000000 		.4byte	.LFE6
 1364 0145 0200     		.2byte	0x2
 1365 0147 77       		.byte	0x77
 1366 0148 08       		.sleb128 8
 1367 0149 00000000 		.4byte	0x0
 1368 014d 00000000 		.4byte	0x0
 1369              	.LLST7:
 1370 0151 00000000 		.4byte	.LFB7
 1371 0155 02000000 		.4byte	.LCFI17
 1372 0159 0100     		.2byte	0x1
 1373 015b 5D       		.byte	0x5d
 1374 015c 02000000 		.4byte	.LCFI17
 1375 0160 04000000 		.4byte	.LCFI18
 1376 0164 0200     		.2byte	0x2
 1377 0166 7D       		.byte	0x7d
 1378 0167 04       		.sleb128 4
 1379 0168 04000000 		.4byte	.LCFI18
 1380 016c 06000000 		.4byte	.LCFI19
 1381 0170 0200     		.2byte	0x2
 1382 0172 7D       		.byte	0x7d
 1383 0173 18       		.sleb128 24
 1384 0174 06000000 		.4byte	.LCFI19
 1385 0178 4C000000 		.4byte	.LFE7
 1386 017c 0200     		.2byte	0x2
 1387 017e 77       		.byte	0x77
 1388 017f 18       		.sleb128 24
 1389 0180 00000000 		.4byte	0x0
 1390 0184 00000000 		.4byte	0x0
 1391              	.LLST8:
 1392 0188 00000000 		.4byte	.LFB8
 1393 018c 02000000 		.4byte	.LCFI20
 1394 0190 0100     		.2byte	0x1
 1395 0192 5D       		.byte	0x5d
 1396 0193 02000000 		.4byte	.LCFI20
 1397 0197 04000000 		.4byte	.LCFI21
ARM GAS  C:\Users\Geo\AppData\Local\Temp\ccJcx0AO.s 			page 41


 1398 019b 0200     		.2byte	0x2
 1399 019d 7D       		.byte	0x7d
 1400 019e 08       		.sleb128 8
 1401 019f 04000000 		.4byte	.LCFI21
 1402 01a3 06000000 		.4byte	.LCFI22
 1403 01a7 0200     		.2byte	0x2
 1404 01a9 7D       		.byte	0x7d
 1405 01aa 18       		.sleb128 24
 1406 01ab 06000000 		.4byte	.LCFI22
 1407 01af 68000000 		.4byte	.LFE8
 1408 01b3 0200     		.2byte	0x2
 1409 01b5 77       		.byte	0x77
 1410 01b6 18       		.sleb128 24
 1411 01b7 00000000 		.4byte	0x0
 1412 01bb 00000000 		.4byte	0x0
 1413              	.LLST9:
 1414 01bf 00000000 		.4byte	.LFB9
 1415 01c3 02000000 		.4byte	.LCFI23
 1416 01c7 0100     		.2byte	0x1
 1417 01c9 5D       		.byte	0x5d
 1418 01ca 02000000 		.4byte	.LCFI23
 1419 01ce 04000000 		.4byte	.LCFI24
 1420 01d2 0200     		.2byte	0x2
 1421 01d4 7D       		.byte	0x7d
 1422 01d5 04       		.sleb128 4
 1423 01d6 04000000 		.4byte	.LCFI24
 1424 01da 26000000 		.4byte	.LFE9
 1425 01de 0200     		.2byte	0x2
 1426 01e0 77       		.byte	0x77
 1427 01e1 04       		.sleb128 4
 1428 01e2 00000000 		.4byte	0x0
 1429 01e6 00000000 		.4byte	0x0
 1430              	.LLST10:
 1431 01ea 00000000 		.4byte	.LFB10
 1432 01ee 02000000 		.4byte	.LCFI25
 1433 01f2 0100     		.2byte	0x1
 1434 01f4 5D       		.byte	0x5d
 1435 01f5 02000000 		.4byte	.LCFI25
 1436 01f9 04000000 		.4byte	.LCFI26
 1437 01fd 0200     		.2byte	0x2
 1438 01ff 7D       		.byte	0x7d
 1439 0200 04       		.sleb128 4
 1440 0201 04000000 		.4byte	.LCFI26
 1441 0205 24000000 		.4byte	.LFE10
 1442 0209 0200     		.2byte	0x2
 1443 020b 77       		.byte	0x77
 1444 020c 04       		.sleb128 4
 1445 020d 00000000 		.4byte	0x0
 1446 0211 00000000 		.4byte	0x0
 1447              	.LLST11:
 1448 0215 00000000 		.4byte	.LFB11
 1449 0219 02000000 		.4byte	.LCFI27
 1450 021d 0100     		.2byte	0x1
 1451 021f 5D       		.byte	0x5d
 1452 0220 02000000 		.4byte	.LCFI27
 1453 0224 04000000 		.4byte	.LCFI28
 1454 0228 0200     		.2byte	0x2
ARM GAS  C:\Users\Geo\AppData\Local\Temp\ccJcx0AO.s 			page 42


 1455 022a 7D       		.byte	0x7d
 1456 022b 08       		.sleb128 8
 1457 022c 04000000 		.4byte	.LCFI28
 1458 0230 06000000 		.4byte	.LCFI29
 1459 0234 0200     		.2byte	0x2
 1460 0236 7D       		.byte	0x7d
 1461 0237 18       		.sleb128 24
 1462 0238 06000000 		.4byte	.LCFI29
 1463 023c 4C000000 		.4byte	.LFE11
 1464 0240 0200     		.2byte	0x2
 1465 0242 77       		.byte	0x77
 1466 0243 18       		.sleb128 24
 1467 0244 00000000 		.4byte	0x0
 1468 0248 00000000 		.4byte	0x0
 1469              	.LLST12:
 1470 024c 00000000 		.4byte	.LFB12
 1471 0250 02000000 		.4byte	.LCFI30
 1472 0254 0100     		.2byte	0x1
 1473 0256 5D       		.byte	0x5d
 1474 0257 02000000 		.4byte	.LCFI30
 1475 025b 04000000 		.4byte	.LCFI31
 1476 025f 0200     		.2byte	0x2
 1477 0261 7D       		.byte	0x7d
 1478 0262 04       		.sleb128 4
 1479 0263 04000000 		.4byte	.LCFI31
 1480 0267 06000000 		.4byte	.LCFI32
 1481 026b 0200     		.2byte	0x2
 1482 026d 7D       		.byte	0x7d
 1483 026e 10       		.sleb128 16
 1484 026f 06000000 		.4byte	.LCFI32
 1485 0273 6C000000 		.4byte	.LFE12
 1486 0277 0200     		.2byte	0x2
 1487 0279 77       		.byte	0x77
 1488 027a 10       		.sleb128 16
 1489 027b 00000000 		.4byte	0x0
 1490 027f 00000000 		.4byte	0x0
 1491              	.LLST13:
 1492 0283 00000000 		.4byte	.LFB13
 1493 0287 02000000 		.4byte	.LCFI33
 1494 028b 0100     		.2byte	0x1
 1495 028d 5D       		.byte	0x5d
 1496 028e 02000000 		.4byte	.LCFI33
 1497 0292 04000000 		.4byte	.LCFI34
 1498 0296 0200     		.2byte	0x2
 1499 0298 7D       		.byte	0x7d
 1500 0299 04       		.sleb128 4
 1501 029a 04000000 		.4byte	.LCFI34
 1502 029e 06000000 		.4byte	.LCFI35
 1503 02a2 0200     		.2byte	0x2
 1504 02a4 7D       		.byte	0x7d
 1505 02a5 10       		.sleb128 16
 1506 02a6 06000000 		.4byte	.LCFI35
 1507 02aa 6A000000 		.4byte	.LFE13
 1508 02ae 0200     		.2byte	0x2
 1509 02b0 77       		.byte	0x77
 1510 02b1 10       		.sleb128 16
 1511 02b2 00000000 		.4byte	0x0
ARM GAS  C:\Users\Geo\AppData\Local\Temp\ccJcx0AO.s 			page 43


 1512 02b6 00000000 		.4byte	0x0
 1513              	.LLST14:
 1514 02ba 00000000 		.4byte	.LFB14
 1515 02be 02000000 		.4byte	.LCFI36
 1516 02c2 0100     		.2byte	0x1
 1517 02c4 5D       		.byte	0x5d
 1518 02c5 02000000 		.4byte	.LCFI36
 1519 02c9 04000000 		.4byte	.LCFI37
 1520 02cd 0200     		.2byte	0x2
 1521 02cf 7D       		.byte	0x7d
 1522 02d0 04       		.sleb128 4
 1523 02d1 04000000 		.4byte	.LCFI37
 1524 02d5 06000000 		.4byte	.LCFI38
 1525 02d9 0200     		.2byte	0x2
 1526 02db 7D       		.byte	0x7d
 1527 02dc 10       		.sleb128 16
 1528 02dd 06000000 		.4byte	.LCFI38
 1529 02e1 20000000 		.4byte	.LFE14
 1530 02e5 0200     		.2byte	0x2
 1531 02e7 77       		.byte	0x77
 1532 02e8 10       		.sleb128 16
 1533 02e9 00000000 		.4byte	0x0
 1534 02ed 00000000 		.4byte	0x0
 1535              	.LLST15:
 1536 02f1 00000000 		.4byte	.LFB15
 1537 02f5 02000000 		.4byte	.LCFI39
 1538 02f9 0100     		.2byte	0x1
 1539 02fb 5D       		.byte	0x5d
 1540 02fc 02000000 		.4byte	.LCFI39
 1541 0300 04000000 		.4byte	.LCFI40
 1542 0304 0200     		.2byte	0x2
 1543 0306 7D       		.byte	0x7d
 1544 0307 04       		.sleb128 4
 1545 0308 04000000 		.4byte	.LCFI40
 1546 030c 06000000 		.4byte	.LCFI41
 1547 0310 0200     		.2byte	0x2
 1548 0312 7D       		.byte	0x7d
 1549 0313 18       		.sleb128 24
 1550 0314 06000000 		.4byte	.LCFI41
 1551 0318 78000000 		.4byte	.LFE15
 1552 031c 0200     		.2byte	0x2
 1553 031e 77       		.byte	0x77
 1554 031f 18       		.sleb128 24
 1555 0320 00000000 		.4byte	0x0
 1556 0324 00000000 		.4byte	0x0
 1557              	.LLST16:
 1558 0328 00000000 		.4byte	.LFB16
 1559 032c 02000000 		.4byte	.LCFI42
 1560 0330 0100     		.2byte	0x1
 1561 0332 5D       		.byte	0x5d
 1562 0333 02000000 		.4byte	.LCFI42
 1563 0337 04000000 		.4byte	.LCFI43
 1564 033b 0200     		.2byte	0x2
 1565 033d 7D       		.byte	0x7d
 1566 033e 04       		.sleb128 4
 1567 033f 04000000 		.4byte	.LCFI43
 1568 0343 06000000 		.4byte	.LCFI44
ARM GAS  C:\Users\Geo\AppData\Local\Temp\ccJcx0AO.s 			page 44


 1569 0347 0200     		.2byte	0x2
 1570 0349 7D       		.byte	0x7d
 1571 034a 10       		.sleb128 16
 1572 034b 06000000 		.4byte	.LCFI44
 1573 034f 20000000 		.4byte	.LFE16
 1574 0353 0200     		.2byte	0x2
 1575 0355 77       		.byte	0x77
 1576 0356 10       		.sleb128 16
 1577 0357 00000000 		.4byte	0x0
 1578 035b 00000000 		.4byte	0x0
 1579              	.LLST17:
 1580 035f 00000000 		.4byte	.LFB17
 1581 0363 02000000 		.4byte	.LCFI45
 1582 0367 0100     		.2byte	0x1
 1583 0369 5D       		.byte	0x5d
 1584 036a 02000000 		.4byte	.LCFI45
 1585 036e 04000000 		.4byte	.LCFI46
 1586 0372 0200     		.2byte	0x2
 1587 0374 7D       		.byte	0x7d
 1588 0375 04       		.sleb128 4
 1589 0376 04000000 		.4byte	.LCFI46
 1590 037a 06000000 		.4byte	.LCFI47
 1591 037e 0200     		.2byte	0x2
 1592 0380 7D       		.byte	0x7d
 1593 0381 18       		.sleb128 24
 1594 0382 06000000 		.4byte	.LCFI47
 1595 0386 52000000 		.4byte	.LFE17
 1596 038a 0200     		.2byte	0x2
 1597 038c 77       		.byte	0x77
 1598 038d 18       		.sleb128 24
 1599 038e 00000000 		.4byte	0x0
 1600 0392 00000000 		.4byte	0x0
 1601              	.LLST18:
 1602 0396 00000000 		.4byte	.LFB18
 1603 039a 02000000 		.4byte	.LCFI48
 1604 039e 0100     		.2byte	0x1
 1605 03a0 5D       		.byte	0x5d
 1606 03a1 02000000 		.4byte	.LCFI48
 1607 03a5 04000000 		.4byte	.LCFI49
 1608 03a9 0200     		.2byte	0x2
 1609 03ab 7D       		.byte	0x7d
 1610 03ac 04       		.sleb128 4
 1611 03ad 04000000 		.4byte	.LCFI49
 1612 03b1 06000000 		.4byte	.LCFI50
 1613 03b5 0200     		.2byte	0x2
 1614 03b7 7D       		.byte	0x7d
 1615 03b8 18       		.sleb128 24
 1616 03b9 06000000 		.4byte	.LCFI50
 1617 03bd 58000000 		.4byte	.LFE18
 1618 03c1 0200     		.2byte	0x2
 1619 03c3 77       		.byte	0x77
 1620 03c4 18       		.sleb128 24
 1621 03c5 00000000 		.4byte	0x0
 1622 03c9 00000000 		.4byte	0x0
 1623              	.LLST19:
 1624 03cd 00000000 		.4byte	.LFB19
 1625 03d1 02000000 		.4byte	.LCFI51
ARM GAS  C:\Users\Geo\AppData\Local\Temp\ccJcx0AO.s 			page 45


 1626 03d5 0100     		.2byte	0x1
 1627 03d7 5D       		.byte	0x5d
 1628 03d8 02000000 		.4byte	.LCFI51
 1629 03dc 04000000 		.4byte	.LCFI52
 1630 03e0 0200     		.2byte	0x2
 1631 03e2 7D       		.byte	0x7d
 1632 03e3 0C       		.sleb128 12
 1633 03e4 04000000 		.4byte	.LCFI52
 1634 03e8 06000000 		.4byte	.LCFI53
 1635 03ec 0200     		.2byte	0x2
 1636 03ee 7D       		.byte	0x7d
 1637 03ef 20       		.sleb128 32
 1638 03f0 06000000 		.4byte	.LCFI53
 1639 03f4 5C000000 		.4byte	.LFE19
 1640 03f8 0200     		.2byte	0x2
 1641 03fa 77       		.byte	0x77
 1642 03fb 20       		.sleb128 32
 1643 03fc 00000000 		.4byte	0x0
 1644 0400 00000000 		.4byte	0x0
 1645              		.file 2 "./Generated_Source/PSoC5/cytypes.h"
 1646              		.section	.debug_info
 1647 0000 94040000 		.4byte	0x494
 1648 0004 0200     		.2byte	0x2
 1649 0006 00000000 		.4byte	.Ldebug_abbrev0
 1650 000a 04       		.byte	0x4
 1651 000b 01       		.uleb128 0x1
 1652 000c 86020000 		.4byte	.LASF57
 1653 0010 01       		.byte	0x1
 1654 0011 22020000 		.4byte	.LASF58
 1655 0015 D2020000 		.4byte	.LASF59
 1656 0019 00000000 		.4byte	0x0
 1657 001d 00000000 		.4byte	0x0
 1658 0021 00000000 		.4byte	.Ldebug_ranges0+0x0
 1659 0025 00000000 		.4byte	.Ldebug_line0
 1660 0029 02       		.uleb128 0x2
 1661 002a 01       		.byte	0x1
 1662 002b 06       		.byte	0x6
 1663 002c 44030000 		.4byte	.LASF0
 1664 0030 02       		.uleb128 0x2
 1665 0031 01       		.byte	0x1
 1666 0032 08       		.byte	0x8
 1667 0033 F1000000 		.4byte	.LASF1
 1668 0037 02       		.uleb128 0x2
 1669 0038 02       		.byte	0x2
 1670 0039 05       		.byte	0x5
 1671 003a A6020000 		.4byte	.LASF2
 1672 003e 02       		.uleb128 0x2
 1673 003f 02       		.byte	0x2
 1674 0040 07       		.byte	0x7
 1675 0041 89000000 		.4byte	.LASF3
 1676 0045 03       		.uleb128 0x3
 1677 0046 04       		.byte	0x4
 1678 0047 05       		.byte	0x5
 1679 0048 696E7400 		.ascii	"int\000"
 1680 004c 02       		.uleb128 0x2
 1681 004d 04       		.byte	0x4
 1682 004e 07       		.byte	0x7
ARM GAS  C:\Users\Geo\AppData\Local\Temp\ccJcx0AO.s 			page 46


 1683 004f D1010000 		.4byte	.LASF4
 1684 0053 02       		.uleb128 0x2
 1685 0054 08       		.byte	0x8
 1686 0055 05       		.byte	0x5
 1687 0056 00000000 		.4byte	.LASF5
 1688 005a 02       		.uleb128 0x2
 1689 005b 08       		.byte	0x8
 1690 005c 07       		.byte	0x7
 1691 005d FE010000 		.4byte	.LASF6
 1692 0061 02       		.uleb128 0x2
 1693 0062 04       		.byte	0x4
 1694 0063 05       		.byte	0x5
 1695 0064 C9020000 		.4byte	.LASF7
 1696 0068 04       		.uleb128 0x4
 1697 0069 04       		.byte	0x4
 1698 006a 07       		.byte	0x7
 1699 006b 02       		.uleb128 0x2
 1700 006c 04       		.byte	0x4
 1701 006d 07       		.byte	0x7
 1702 006e 14010000 		.4byte	.LASF8
 1703 0072 02       		.uleb128 0x2
 1704 0073 01       		.byte	0x1
 1705 0074 08       		.byte	0x8
 1706 0075 99020000 		.4byte	.LASF9
 1707 0079 05       		.uleb128 0x5
 1708 007a C3020000 		.4byte	.LASF10
 1709 007e 02       		.byte	0x2
 1710 007f 51       		.byte	0x51
 1711 0080 30000000 		.4byte	0x30
 1712 0084 05       		.uleb128 0x5
 1713 0085 9D010000 		.4byte	.LASF11
 1714 0089 02       		.byte	0x2
 1715 008a 52       		.byte	0x52
 1716 008b 3E000000 		.4byte	0x3e
 1717 008f 05       		.uleb128 0x5
 1718 0090 A9010000 		.4byte	.LASF12
 1719 0094 02       		.byte	0x2
 1720 0095 53       		.byte	0x53
 1721 0096 6B000000 		.4byte	0x6b
 1722 009a 05       		.uleb128 0x5
 1723 009b A4010000 		.4byte	.LASF13
 1724 009f 02       		.byte	0x2
 1725 00a0 55       		.byte	0x55
 1726 00a1 29000000 		.4byte	0x29
 1727 00a5 05       		.uleb128 0x5
 1728 00a6 31030000 		.4byte	.LASF14
 1729 00aa 02       		.byte	0x2
 1730 00ab 56       		.byte	0x56
 1731 00ac 37000000 		.4byte	0x37
 1732 00b0 05       		.uleb128 0x5
 1733 00b1 2E010000 		.4byte	.LASF15
 1734 00b5 02       		.byte	0x2
 1735 00b6 57       		.byte	0x57
 1736 00b7 61000000 		.4byte	0x61
 1737 00bb 06       		.uleb128 0x6
 1738 00bc 01       		.byte	0x1
 1739 00bd 37030000 		.4byte	.LASF16
ARM GAS  C:\Users\Geo\AppData\Local\Temp\ccJcx0AO.s 			page 47


 1740 00c1 01       		.byte	0x1
 1741 00c2 47       		.byte	0x47
 1742 00c3 01       		.byte	0x1
 1743 00c4 00000000 		.4byte	.LFB0
 1744 00c8 2A000000 		.4byte	.LFE0
 1745 00cc 00000000 		.4byte	.LLST0
 1746 00d0 06       		.uleb128 0x6
 1747 00d1 01       		.byte	0x1
 1748 00d2 7A020000 		.4byte	.LASF17
 1749 00d6 01       		.byte	0x1
 1750 00d7 67       		.byte	0x67
 1751 00d8 01       		.byte	0x1
 1752 00d9 00000000 		.4byte	.LFB1
 1753 00dd 5C000000 		.4byte	.LFE1
 1754 00e1 2B000000 		.4byte	.LLST1
 1755 00e5 07       		.uleb128 0x7
 1756 00e6 01       		.byte	0x1
 1757 00e7 87010000 		.4byte	.LASF20
 1758 00eb 01       		.byte	0x1
 1759 00ec 8A       		.byte	0x8a
 1760 00ed 01       		.byte	0x1
 1761 00ee 00000000 		.4byte	.LFB2
 1762 00f2 20010000 		.4byte	.LFE2
 1763 00f6 56000000 		.4byte	.LLST2
 1764 00fa 1B010000 		.4byte	0x11b
 1765 00fe 08       		.uleb128 0x8
 1766 00ff 92020000 		.4byte	.LASF18
 1767 0103 01       		.byte	0x1
 1768 0104 8C       		.byte	0x8c
 1769 0105 79000000 		.4byte	0x79
 1770 0109 02       		.byte	0x2
 1771 010a 91       		.byte	0x91
 1772 010b 76       		.sleb128 -10
 1773 010c 08       		.uleb128 0x8
 1774 010d 4B010000 		.4byte	.LASF19
 1775 0111 01       		.byte	0x1
 1776 0112 8D       		.byte	0x8d
 1777 0113 79000000 		.4byte	0x79
 1778 0117 02       		.byte	0x2
 1779 0118 91       		.byte	0x91
 1780 0119 77       		.sleb128 -9
 1781 011a 00       		.byte	0x0
 1782 011b 07       		.uleb128 0x7
 1783 011c 01       		.byte	0x1
 1784 011d FF000000 		.4byte	.LASF21
 1785 0121 01       		.byte	0x1
 1786 0122 DE       		.byte	0xde
 1787 0123 01       		.byte	0x1
 1788 0124 00000000 		.4byte	.LFB3
 1789 0128 7C000000 		.4byte	.LFE3
 1790 012c 8D000000 		.4byte	.LLST3
 1791 0130 51010000 		.4byte	0x151
 1792 0134 09       		.uleb128 0x9
 1793 0135 26010000 		.4byte	.LASF26
 1794 0139 01       		.byte	0x1
 1795 013a DE       		.byte	0xde
 1796 013b 9A000000 		.4byte	0x9a
ARM GAS  C:\Users\Geo\AppData\Local\Temp\ccJcx0AO.s 			page 48


 1797 013f 02       		.byte	0x2
 1798 0140 91       		.byte	0x91
 1799 0141 6F       		.sleb128 -17
 1800 0142 08       		.uleb128 0x8
 1801 0143 92020000 		.4byte	.LASF18
 1802 0147 01       		.byte	0x1
 1803 0148 E0       		.byte	0xe0
 1804 0149 79000000 		.4byte	0x79
 1805 014d 02       		.byte	0x2
 1806 014e 91       		.byte	0x91
 1807 014f 77       		.sleb128 -9
 1808 0150 00       		.byte	0x0
 1809 0151 0A       		.uleb128 0xa
 1810 0152 01       		.byte	0x1
 1811 0153 9C000000 		.4byte	.LASF22
 1812 0157 01       		.byte	0x1
 1813 0158 1001     		.2byte	0x110
 1814 015a 01       		.byte	0x1
 1815 015b 00000000 		.4byte	.LFB4
 1816 015f 9A000000 		.4byte	.LFE4
 1817 0163 C4000000 		.4byte	.LLST4
 1818 0167 7B010000 		.4byte	0x17b
 1819 016b 0B       		.uleb128 0xb
 1820 016c 4B010000 		.4byte	.LASF19
 1821 0170 01       		.byte	0x1
 1822 0171 1201     		.2byte	0x112
 1823 0173 79000000 		.4byte	0x79
 1824 0177 02       		.byte	0x2
 1825 0178 91       		.byte	0x91
 1826 0179 77       		.sleb128 -9
 1827 017a 00       		.byte	0x0
 1828 017b 0C       		.uleb128 0xc
 1829 017c 01       		.byte	0x1
 1830 017d 5B000000 		.4byte	.LASF23
 1831 0181 01       		.byte	0x1
 1832 0182 3F01     		.2byte	0x13f
 1833 0184 01       		.byte	0x1
 1834 0185 00000000 		.4byte	.LFB5
 1835 0189 0E000000 		.4byte	.LFE5
 1836 018d FB000000 		.4byte	.LLST5
 1837 0191 0C       		.uleb128 0xc
 1838 0192 01       		.byte	0x1
 1839 0193 D8000000 		.4byte	.LASF24
 1840 0197 01       		.byte	0x1
 1841 0198 5401     		.2byte	0x154
 1842 019a 01       		.byte	0x1
 1843 019b 00000000 		.4byte	.LFB6
 1844 019f 0E000000 		.4byte	.LFE6
 1845 01a3 26010000 		.4byte	.LLST6
 1846 01a7 0A       		.uleb128 0xa
 1847 01a8 01       		.byte	0x1
 1848 01a9 C8000000 		.4byte	.LASF25
 1849 01ad 01       		.byte	0x1
 1850 01ae 6D01     		.2byte	0x16d
 1851 01b0 01       		.byte	0x1
 1852 01b1 00000000 		.4byte	.LFB7
 1853 01b5 4C000000 		.4byte	.LFE7
ARM GAS  C:\Users\Geo\AppData\Local\Temp\ccJcx0AO.s 			page 49


 1854 01b9 51010000 		.4byte	.LLST7
 1855 01bd E0010000 		.4byte	0x1e0
 1856 01c1 0D       		.uleb128 0xd
 1857 01c2 AF000000 		.4byte	.LASF27
 1858 01c6 01       		.byte	0x1
 1859 01c7 6D01     		.2byte	0x16d
 1860 01c9 79000000 		.4byte	0x79
 1861 01cd 02       		.byte	0x2
 1862 01ce 91       		.byte	0x91
 1863 01cf 6F       		.sleb128 -17
 1864 01d0 0B       		.uleb128 0xb
 1865 01d1 92020000 		.4byte	.LASF18
 1866 01d5 01       		.byte	0x1
 1867 01d6 6F01     		.2byte	0x16f
 1868 01d8 79000000 		.4byte	0x79
 1869 01dc 02       		.byte	0x2
 1870 01dd 91       		.byte	0x91
 1871 01de 77       		.sleb128 -9
 1872 01df 00       		.byte	0x0
 1873 01e0 0A       		.uleb128 0xa
 1874 01e1 01       		.byte	0x1
 1875 01e2 6D000000 		.4byte	.LASF28
 1876 01e6 01       		.byte	0x1
 1877 01e7 9D01     		.2byte	0x19d
 1878 01e9 01       		.byte	0x1
 1879 01ea 00000000 		.4byte	.LFB8
 1880 01ee 68000000 		.4byte	.LFE8
 1881 01f2 88010000 		.4byte	.LLST8
 1882 01f6 19020000 		.4byte	0x219
 1883 01fa 0D       		.uleb128 0xd
 1884 01fb 50030000 		.4byte	.LASF29
 1885 01ff 01       		.byte	0x1
 1886 0200 9D01     		.2byte	0x19d
 1887 0202 79000000 		.4byte	0x79
 1888 0206 02       		.byte	0x2
 1889 0207 91       		.byte	0x91
 1890 0208 6F       		.sleb128 -17
 1891 0209 0B       		.uleb128 0xb
 1892 020a 92020000 		.4byte	.LASF18
 1893 020e 01       		.byte	0x1
 1894 020f 9F01     		.2byte	0x19f
 1895 0211 79000000 		.4byte	0x79
 1896 0215 02       		.byte	0x2
 1897 0216 91       		.byte	0x91
 1898 0217 77       		.sleb128 -9
 1899 0218 00       		.byte	0x0
 1900 0219 0C       		.uleb128 0xc
 1901 021a 01       		.byte	0x1
 1902 021b 47000000 		.4byte	.LASF30
 1903 021f 01       		.byte	0x1
 1904 0220 E201     		.2byte	0x1e2
 1905 0222 01       		.byte	0x1
 1906 0223 00000000 		.4byte	.LFB9
 1907 0227 26000000 		.4byte	.LFE9
 1908 022b BF010000 		.4byte	.LLST9
 1909 022f 0C       		.uleb128 0xc
 1910 0230 01       		.byte	0x1
ARM GAS  C:\Users\Geo\AppData\Local\Temp\ccJcx0AO.s 			page 50


 1911 0231 B5000000 		.4byte	.LASF31
 1912 0235 01       		.byte	0x1
 1913 0236 0302     		.2byte	0x203
 1914 0238 01       		.byte	0x1
 1915 0239 00000000 		.4byte	.LFB10
 1916 023d 24000000 		.4byte	.LFE10
 1917 0241 EA010000 		.4byte	.LLST10
 1918 0245 0E       		.uleb128 0xe
 1919 0246 01       		.byte	0x1
 1920 0247 44020000 		.4byte	.LASF34
 1921 024b 01       		.byte	0x1
 1922 024c 2102     		.2byte	0x221
 1923 024e 01       		.byte	0x1
 1924 024f 79000000 		.4byte	0x79
 1925 0253 00000000 		.4byte	.LFB11
 1926 0257 4C000000 		.4byte	.LFE11
 1927 025b 15020000 		.4byte	.LLST11
 1928 025f 82020000 		.4byte	0x282
 1929 0263 0D       		.uleb128 0xd
 1930 0264 9E020000 		.4byte	.LASF32
 1931 0268 01       		.byte	0x1
 1932 0269 2102     		.2byte	0x221
 1933 026b 79000000 		.4byte	0x79
 1934 026f 02       		.byte	0x2
 1935 0270 91       		.byte	0x91
 1936 0271 6F       		.sleb128 -17
 1937 0272 0B       		.uleb128 0xb
 1938 0273 A8000000 		.4byte	.LASF33
 1939 0277 01       		.byte	0x1
 1940 0278 2302     		.2byte	0x223
 1941 027a 79000000 		.4byte	0x79
 1942 027e 02       		.byte	0x2
 1943 027f 91       		.byte	0x91
 1944 0280 77       		.sleb128 -9
 1945 0281 00       		.byte	0x0
 1946 0282 0E       		.uleb128 0xe
 1947 0283 01       		.byte	0x1
 1948 0284 61020000 		.4byte	.LASF35
 1949 0288 01       		.byte	0x1
 1950 0289 4C02     		.2byte	0x24c
 1951 028b 01       		.byte	0x1
 1952 028c 9A000000 		.4byte	0x9a
 1953 0290 00000000 		.4byte	.LFB12
 1954 0294 6C000000 		.4byte	.LFE12
 1955 0298 4C020000 		.4byte	.LLST12
 1956 029c B0020000 		.4byte	0x2b0
 1957 02a0 0F       		.uleb128 0xf
 1958 02a1 72657300 		.ascii	"res\000"
 1959 02a5 01       		.byte	0x1
 1960 02a6 5102     		.2byte	0x251
 1961 02a8 A5000000 		.4byte	0xa5
 1962 02ac 02       		.byte	0x2
 1963 02ad 91       		.byte	0x91
 1964 02ae 76       		.sleb128 -10
 1965 02af 00       		.byte	0x0
 1966 02b0 0E       		.uleb128 0xe
 1967 02b1 01       		.byte	0x1
ARM GAS  C:\Users\Geo\AppData\Local\Temp\ccJcx0AO.s 			page 51


 1968 02b2 B0020000 		.4byte	.LASF36
 1969 02b6 01       		.byte	0x1
 1970 02b7 8202     		.2byte	0x282
 1971 02b9 01       		.byte	0x1
 1972 02ba A5000000 		.4byte	0xa5
 1973 02be 00000000 		.4byte	.LFB13
 1974 02c2 6A000000 		.4byte	.LFE13
 1975 02c6 83020000 		.4byte	.LLST13
 1976 02ca DE020000 		.4byte	0x2de
 1977 02ce 0F       		.uleb128 0xf
 1978 02cf 72657300 		.ascii	"res\000"
 1979 02d3 01       		.byte	0x1
 1980 02d4 8402     		.2byte	0x284
 1981 02d6 A5000000 		.4byte	0xa5
 1982 02da 02       		.byte	0x2
 1983 02db 91       		.byte	0x91
 1984 02dc 76       		.sleb128 -10
 1985 02dd 00       		.byte	0x0
 1986 02de 0A       		.uleb128 0xa
 1987 02df 01       		.byte	0x1
 1988 02e0 B0010000 		.4byte	.LASF37
 1989 02e4 01       		.byte	0x1
 1990 02e5 B002     		.2byte	0x2b0
 1991 02e7 01       		.byte	0x1
 1992 02e8 00000000 		.4byte	.LFB14
 1993 02ec 20000000 		.4byte	.LFE14
 1994 02f0 BA020000 		.4byte	.LLST14
 1995 02f4 08030000 		.4byte	0x308
 1996 02f8 0D       		.uleb128 0xd
 1997 02f9 0D010000 		.4byte	.LASF38
 1998 02fd 01       		.byte	0x1
 1999 02fe B002     		.2byte	0x2b0
 2000 0300 A5000000 		.4byte	0xa5
 2001 0304 02       		.byte	0x2
 2002 0305 91       		.byte	0x91
 2003 0306 76       		.sleb128 -10
 2004 0307 00       		.byte	0x0
 2005 0308 0A       		.uleb128 0xa
 2006 0309 01       		.byte	0x1
 2007 030a C1010000 		.4byte	.LASF39
 2008 030e 01       		.byte	0x1
 2009 030f CA02     		.2byte	0x2ca
 2010 0311 01       		.byte	0x1
 2011 0312 00000000 		.4byte	.LFB15
 2012 0316 78000000 		.4byte	.LFE15
 2013 031a F1020000 		.4byte	.LLST15
 2014 031e 50030000 		.4byte	0x350
 2015 0322 0D       		.uleb128 0xd
 2016 0323 50030000 		.4byte	.LASF29
 2017 0327 01       		.byte	0x1
 2018 0328 CA02     		.2byte	0x2ca
 2019 032a 79000000 		.4byte	0x79
 2020 032e 02       		.byte	0x2
 2021 032f 91       		.byte	0x91
 2022 0330 6F       		.sleb128 -17
 2023 0331 0B       		.uleb128 0xb
 2024 0332 F7010000 		.4byte	.LASF40
ARM GAS  C:\Users\Geo\AppData\Local\Temp\ccJcx0AO.s 			page 52


 2025 0336 01       		.byte	0x1
 2026 0337 CC02     		.2byte	0x2cc
 2027 0339 8F000000 		.4byte	0x8f
 2028 033d 02       		.byte	0x2
 2029 033e 91       		.byte	0x91
 2030 033f 70       		.sleb128 -16
 2031 0340 0B       		.uleb128 0xb
 2032 0341 3D000000 		.4byte	.LASF41
 2033 0345 01       		.byte	0x1
 2034 0346 CD02     		.2byte	0x2cd
 2035 0348 84000000 		.4byte	0x84
 2036 034c 02       		.byte	0x2
 2037 034d 91       		.byte	0x91
 2038 034e 76       		.sleb128 -10
 2039 034f 00       		.byte	0x0
 2040 0350 0A       		.uleb128 0xa
 2041 0351 01       		.byte	0x1
 2042 0352 0E000000 		.4byte	.LASF42
 2043 0356 01       		.byte	0x1
 2044 0357 0A03     		.2byte	0x30a
 2045 0359 01       		.byte	0x1
 2046 035a 00000000 		.4byte	.LFB16
 2047 035e 20000000 		.4byte	.LFE16
 2048 0362 28030000 		.4byte	.LLST16
 2049 0366 7A030000 		.4byte	0x37a
 2050 036a 0D       		.uleb128 0xd
 2051 036b 95010000 		.4byte	.LASF43
 2052 036f 01       		.byte	0x1
 2053 0370 0A03     		.2byte	0x30a
 2054 0372 A5000000 		.4byte	0xa5
 2055 0376 02       		.byte	0x2
 2056 0377 91       		.byte	0x91
 2057 0378 76       		.sleb128 -10
 2058 0379 00       		.byte	0x0
 2059 037a 0E       		.uleb128 0xe
 2060 037b 01       		.byte	0x1
 2061 037c 34010000 		.4byte	.LASF44
 2062 0380 01       		.byte	0x1
 2063 0381 2203     		.2byte	0x322
 2064 0383 01       		.byte	0x1
 2065 0384 A5000000 		.4byte	0xa5
 2066 0388 00000000 		.4byte	.LFB17
 2067 038c 52000000 		.4byte	.LFE17
 2068 0390 5F030000 		.4byte	.LLST17
 2069 0394 B7030000 		.4byte	0x3b7
 2070 0398 0D       		.uleb128 0xd
 2071 0399 ED010000 		.4byte	.LASF45
 2072 039d 01       		.byte	0x1
 2073 039e 2203     		.2byte	0x322
 2074 03a0 A5000000 		.4byte	0xa5
 2075 03a4 02       		.byte	0x2
 2076 03a5 91       		.byte	0x91
 2077 03a6 6E       		.sleb128 -18
 2078 03a7 0B       		.uleb128 0xb
 2079 03a8 73020000 		.4byte	.LASF46
 2080 03ac 01       		.byte	0x1
 2081 03ad 2503     		.2byte	0x325
ARM GAS  C:\Users\Geo\AppData\Local\Temp\ccJcx0AO.s 			page 53


 2082 03af A5000000 		.4byte	0xa5
 2083 03b3 02       		.byte	0x2
 2084 03b4 91       		.byte	0x91
 2085 03b5 76       		.sleb128 -10
 2086 03b6 00       		.byte	0x0
 2087 03b7 0E       		.uleb128 0xe
 2088 03b8 01       		.byte	0x1
 2089 03b9 5B030000 		.4byte	.LASF47
 2090 03bd 01       		.byte	0x1
 2091 03be 4203     		.2byte	0x342
 2092 03c0 01       		.byte	0x1
 2093 03c1 B0000000 		.4byte	0xb0
 2094 03c5 00000000 		.4byte	.LFB18
 2095 03c9 58000000 		.4byte	.LFE18
 2096 03cd 96030000 		.4byte	.LLST18
 2097 03d1 F4030000 		.4byte	0x3f4
 2098 03d5 0D       		.uleb128 0xd
 2099 03d6 ED010000 		.4byte	.LASF45
 2100 03da 01       		.byte	0x1
 2101 03db 4203     		.2byte	0x342
 2102 03dd A5000000 		.4byte	0xa5
 2103 03e1 02       		.byte	0x2
 2104 03e2 91       		.byte	0x91
 2105 03e3 6E       		.sleb128 -18
 2106 03e4 0B       		.uleb128 0xb
 2107 03e5 82000000 		.4byte	.LASF48
 2108 03e9 01       		.byte	0x1
 2109 03ea 4503     		.2byte	0x345
 2110 03ec B0000000 		.4byte	0xb0
 2111 03f0 02       		.byte	0x2
 2112 03f1 91       		.byte	0x91
 2113 03f2 74       		.sleb128 -12
 2114 03f3 00       		.byte	0x0
 2115 03f4 0E       		.uleb128 0xe
 2116 03f5 01       		.byte	0x1
 2117 03f6 5C010000 		.4byte	.LASF49
 2118 03fa 01       		.byte	0x1
 2119 03fb 6503     		.2byte	0x365
 2120 03fd 01       		.byte	0x1
 2121 03fe 31040000 		.4byte	0x431
 2122 0402 00000000 		.4byte	.LFB19
 2123 0406 5C000000 		.4byte	.LFE19
 2124 040a CD030000 		.4byte	.LLST19
 2125 040e 31040000 		.4byte	0x431
 2126 0412 0D       		.uleb128 0xd
 2127 0413 ED010000 		.4byte	.LASF45
 2128 0417 01       		.byte	0x1
 2129 0418 6503     		.2byte	0x365
 2130 041a A5000000 		.4byte	0xa5
 2131 041e 02       		.byte	0x2
 2132 041f 91       		.byte	0x91
 2133 0420 66       		.sleb128 -26
 2134 0421 0B       		.uleb128 0xb
 2135 0422 5B020000 		.4byte	.LASF50
 2136 0426 01       		.byte	0x1
 2137 0427 6703     		.2byte	0x367
 2138 0429 31040000 		.4byte	0x431
ARM GAS  C:\Users\Geo\AppData\Local\Temp\ccJcx0AO.s 			page 54


 2139 042d 02       		.byte	0x2
 2140 042e 91       		.byte	0x91
 2141 042f 6C       		.sleb128 -20
 2142 0430 00       		.byte	0x0
 2143 0431 02       		.uleb128 0x2
 2144 0432 04       		.byte	0x4
 2145 0433 04       		.byte	0x4
 2146 0434 EB000000 		.4byte	.LASF51
 2147 0438 10       		.uleb128 0x10
 2148 0439 DE010000 		.4byte	.LASF52
 2149 043d 01       		.byte	0x1
 2150 043e 24       		.byte	0x24
 2151 043f 79000000 		.4byte	0x79
 2152 0443 01       		.byte	0x1
 2153 0444 05       		.byte	0x5
 2154 0445 03       		.byte	0x3
 2155 0446 00000000 		.4byte	AdcSar_initVar
 2156 044a 10       		.uleb128 0x10
 2157 044b 1D000000 		.4byte	.LASF53
 2158 044f 01       		.byte	0x1
 2159 0450 25       		.byte	0x25
 2160 0451 5C040000 		.4byte	0x45c
 2161 0455 01       		.byte	0x1
 2162 0456 05       		.byte	0x5
 2163 0457 03       		.byte	0x3
 2164 0458 00000000 		.4byte	AdcSar_offset
 2165 045c 11       		.uleb128 0x11
 2166 045d A5000000 		.4byte	0xa5
 2167 0461 10       		.uleb128 0x10
 2168 0462 72010000 		.4byte	.LASF54
 2169 0466 01       		.byte	0x1
 2170 0467 26       		.byte	0x26
 2171 0468 5C040000 		.4byte	0x45c
 2172 046c 01       		.byte	0x1
 2173 046d 05       		.byte	0x5
 2174 046e 03       		.byte	0x3
 2175 046f 00000000 		.4byte	AdcSar_countsPerVolt
 2176 0473 10       		.uleb128 0x10
 2177 0474 15020000 		.4byte	.LASF55
 2178 0478 01       		.byte	0x1
 2179 0479 27       		.byte	0x27
 2180 047a 5C040000 		.4byte	0x45c
 2181 047e 01       		.byte	0x1
 2182 047f 05       		.byte	0x5
 2183 0480 03       		.byte	0x3
 2184 0481 00000000 		.4byte	AdcSar_shift
 2185 0485 10       		.uleb128 0x10
 2186 0486 2B000000 		.4byte	.LASF56
 2187 048a 01       		.byte	0x1
 2188 048b 29       		.byte	0x29
 2189 048c 79000000 		.4byte	0x79
 2190 0490 01       		.byte	0x1
 2191 0491 05       		.byte	0x5
 2192 0492 03       		.byte	0x3
 2193 0493 00000000 		.4byte	AdcSar_resolution
 2194 0497 00       		.byte	0x0
 2195              		.section	.debug_abbrev
ARM GAS  C:\Users\Geo\AppData\Local\Temp\ccJcx0AO.s 			page 55


 2196 0000 01       		.uleb128 0x1
 2197 0001 11       		.uleb128 0x11
 2198 0002 01       		.byte	0x1
 2199 0003 25       		.uleb128 0x25
 2200 0004 0E       		.uleb128 0xe
 2201 0005 13       		.uleb128 0x13
 2202 0006 0B       		.uleb128 0xb
 2203 0007 03       		.uleb128 0x3
 2204 0008 0E       		.uleb128 0xe
 2205 0009 1B       		.uleb128 0x1b
 2206 000a 0E       		.uleb128 0xe
 2207 000b 11       		.uleb128 0x11
 2208 000c 01       		.uleb128 0x1
 2209 000d 52       		.uleb128 0x52
 2210 000e 01       		.uleb128 0x1
 2211 000f 55       		.uleb128 0x55
 2212 0010 06       		.uleb128 0x6
 2213 0011 10       		.uleb128 0x10
 2214 0012 06       		.uleb128 0x6
 2215 0013 00       		.byte	0x0
 2216 0014 00       		.byte	0x0
 2217 0015 02       		.uleb128 0x2
 2218 0016 24       		.uleb128 0x24
 2219 0017 00       		.byte	0x0
 2220 0018 0B       		.uleb128 0xb
 2221 0019 0B       		.uleb128 0xb
 2222 001a 3E       		.uleb128 0x3e
 2223 001b 0B       		.uleb128 0xb
 2224 001c 03       		.uleb128 0x3
 2225 001d 0E       		.uleb128 0xe
 2226 001e 00       		.byte	0x0
 2227 001f 00       		.byte	0x0
 2228 0020 03       		.uleb128 0x3
 2229 0021 24       		.uleb128 0x24
 2230 0022 00       		.byte	0x0
 2231 0023 0B       		.uleb128 0xb
 2232 0024 0B       		.uleb128 0xb
 2233 0025 3E       		.uleb128 0x3e
 2234 0026 0B       		.uleb128 0xb
 2235 0027 03       		.uleb128 0x3
 2236 0028 08       		.uleb128 0x8
 2237 0029 00       		.byte	0x0
 2238 002a 00       		.byte	0x0
 2239 002b 04       		.uleb128 0x4
 2240 002c 24       		.uleb128 0x24
 2241 002d 00       		.byte	0x0
 2242 002e 0B       		.uleb128 0xb
 2243 002f 0B       		.uleb128 0xb
 2244 0030 3E       		.uleb128 0x3e
 2245 0031 0B       		.uleb128 0xb
 2246 0032 00       		.byte	0x0
 2247 0033 00       		.byte	0x0
 2248 0034 05       		.uleb128 0x5
 2249 0035 16       		.uleb128 0x16
 2250 0036 00       		.byte	0x0
 2251 0037 03       		.uleb128 0x3
 2252 0038 0E       		.uleb128 0xe
ARM GAS  C:\Users\Geo\AppData\Local\Temp\ccJcx0AO.s 			page 56


 2253 0039 3A       		.uleb128 0x3a
 2254 003a 0B       		.uleb128 0xb
 2255 003b 3B       		.uleb128 0x3b
 2256 003c 0B       		.uleb128 0xb
 2257 003d 49       		.uleb128 0x49
 2258 003e 13       		.uleb128 0x13
 2259 003f 00       		.byte	0x0
 2260 0040 00       		.byte	0x0
 2261 0041 06       		.uleb128 0x6
 2262 0042 2E       		.uleb128 0x2e
 2263 0043 00       		.byte	0x0
 2264 0044 3F       		.uleb128 0x3f
 2265 0045 0C       		.uleb128 0xc
 2266 0046 03       		.uleb128 0x3
 2267 0047 0E       		.uleb128 0xe
 2268 0048 3A       		.uleb128 0x3a
 2269 0049 0B       		.uleb128 0xb
 2270 004a 3B       		.uleb128 0x3b
 2271 004b 0B       		.uleb128 0xb
 2272 004c 27       		.uleb128 0x27
 2273 004d 0C       		.uleb128 0xc
 2274 004e 11       		.uleb128 0x11
 2275 004f 01       		.uleb128 0x1
 2276 0050 12       		.uleb128 0x12
 2277 0051 01       		.uleb128 0x1
 2278 0052 40       		.uleb128 0x40
 2279 0053 06       		.uleb128 0x6
 2280 0054 00       		.byte	0x0
 2281 0055 00       		.byte	0x0
 2282 0056 07       		.uleb128 0x7
 2283 0057 2E       		.uleb128 0x2e
 2284 0058 01       		.byte	0x1
 2285 0059 3F       		.uleb128 0x3f
 2286 005a 0C       		.uleb128 0xc
 2287 005b 03       		.uleb128 0x3
 2288 005c 0E       		.uleb128 0xe
 2289 005d 3A       		.uleb128 0x3a
 2290 005e 0B       		.uleb128 0xb
 2291 005f 3B       		.uleb128 0x3b
 2292 0060 0B       		.uleb128 0xb
 2293 0061 27       		.uleb128 0x27
 2294 0062 0C       		.uleb128 0xc
 2295 0063 11       		.uleb128 0x11
 2296 0064 01       		.uleb128 0x1
 2297 0065 12       		.uleb128 0x12
 2298 0066 01       		.uleb128 0x1
 2299 0067 40       		.uleb128 0x40
 2300 0068 06       		.uleb128 0x6
 2301 0069 01       		.uleb128 0x1
 2302 006a 13       		.uleb128 0x13
 2303 006b 00       		.byte	0x0
 2304 006c 00       		.byte	0x0
 2305 006d 08       		.uleb128 0x8
 2306 006e 34       		.uleb128 0x34
 2307 006f 00       		.byte	0x0
 2308 0070 03       		.uleb128 0x3
 2309 0071 0E       		.uleb128 0xe
ARM GAS  C:\Users\Geo\AppData\Local\Temp\ccJcx0AO.s 			page 57


 2310 0072 3A       		.uleb128 0x3a
 2311 0073 0B       		.uleb128 0xb
 2312 0074 3B       		.uleb128 0x3b
 2313 0075 0B       		.uleb128 0xb
 2314 0076 49       		.uleb128 0x49
 2315 0077 13       		.uleb128 0x13
 2316 0078 02       		.uleb128 0x2
 2317 0079 0A       		.uleb128 0xa
 2318 007a 00       		.byte	0x0
 2319 007b 00       		.byte	0x0
 2320 007c 09       		.uleb128 0x9
 2321 007d 05       		.uleb128 0x5
 2322 007e 00       		.byte	0x0
 2323 007f 03       		.uleb128 0x3
 2324 0080 0E       		.uleb128 0xe
 2325 0081 3A       		.uleb128 0x3a
 2326 0082 0B       		.uleb128 0xb
 2327 0083 3B       		.uleb128 0x3b
 2328 0084 0B       		.uleb128 0xb
 2329 0085 49       		.uleb128 0x49
 2330 0086 13       		.uleb128 0x13
 2331 0087 02       		.uleb128 0x2
 2332 0088 0A       		.uleb128 0xa
 2333 0089 00       		.byte	0x0
 2334 008a 00       		.byte	0x0
 2335 008b 0A       		.uleb128 0xa
 2336 008c 2E       		.uleb128 0x2e
 2337 008d 01       		.byte	0x1
 2338 008e 3F       		.uleb128 0x3f
 2339 008f 0C       		.uleb128 0xc
 2340 0090 03       		.uleb128 0x3
 2341 0091 0E       		.uleb128 0xe
 2342 0092 3A       		.uleb128 0x3a
 2343 0093 0B       		.uleb128 0xb
 2344 0094 3B       		.uleb128 0x3b
 2345 0095 05       		.uleb128 0x5
 2346 0096 27       		.uleb128 0x27
 2347 0097 0C       		.uleb128 0xc
 2348 0098 11       		.uleb128 0x11
 2349 0099 01       		.uleb128 0x1
 2350 009a 12       		.uleb128 0x12
 2351 009b 01       		.uleb128 0x1
 2352 009c 40       		.uleb128 0x40
 2353 009d 06       		.uleb128 0x6
 2354 009e 01       		.uleb128 0x1
 2355 009f 13       		.uleb128 0x13
 2356 00a0 00       		.byte	0x0
 2357 00a1 00       		.byte	0x0
 2358 00a2 0B       		.uleb128 0xb
 2359 00a3 34       		.uleb128 0x34
 2360 00a4 00       		.byte	0x0
 2361 00a5 03       		.uleb128 0x3
 2362 00a6 0E       		.uleb128 0xe
 2363 00a7 3A       		.uleb128 0x3a
 2364 00a8 0B       		.uleb128 0xb
 2365 00a9 3B       		.uleb128 0x3b
 2366 00aa 05       		.uleb128 0x5
ARM GAS  C:\Users\Geo\AppData\Local\Temp\ccJcx0AO.s 			page 58


 2367 00ab 49       		.uleb128 0x49
 2368 00ac 13       		.uleb128 0x13
 2369 00ad 02       		.uleb128 0x2
 2370 00ae 0A       		.uleb128 0xa
 2371 00af 00       		.byte	0x0
 2372 00b0 00       		.byte	0x0
 2373 00b1 0C       		.uleb128 0xc
 2374 00b2 2E       		.uleb128 0x2e
 2375 00b3 00       		.byte	0x0
 2376 00b4 3F       		.uleb128 0x3f
 2377 00b5 0C       		.uleb128 0xc
 2378 00b6 03       		.uleb128 0x3
 2379 00b7 0E       		.uleb128 0xe
 2380 00b8 3A       		.uleb128 0x3a
 2381 00b9 0B       		.uleb128 0xb
 2382 00ba 3B       		.uleb128 0x3b
 2383 00bb 05       		.uleb128 0x5
 2384 00bc 27       		.uleb128 0x27
 2385 00bd 0C       		.uleb128 0xc
 2386 00be 11       		.uleb128 0x11
 2387 00bf 01       		.uleb128 0x1
 2388 00c0 12       		.uleb128 0x12
 2389 00c1 01       		.uleb128 0x1
 2390 00c2 40       		.uleb128 0x40
 2391 00c3 06       		.uleb128 0x6
 2392 00c4 00       		.byte	0x0
 2393 00c5 00       		.byte	0x0
 2394 00c6 0D       		.uleb128 0xd
 2395 00c7 05       		.uleb128 0x5
 2396 00c8 00       		.byte	0x0
 2397 00c9 03       		.uleb128 0x3
 2398 00ca 0E       		.uleb128 0xe
 2399 00cb 3A       		.uleb128 0x3a
 2400 00cc 0B       		.uleb128 0xb
 2401 00cd 3B       		.uleb128 0x3b
 2402 00ce 05       		.uleb128 0x5
 2403 00cf 49       		.uleb128 0x49
 2404 00d0 13       		.uleb128 0x13
 2405 00d1 02       		.uleb128 0x2
 2406 00d2 0A       		.uleb128 0xa
 2407 00d3 00       		.byte	0x0
 2408 00d4 00       		.byte	0x0
 2409 00d5 0E       		.uleb128 0xe
 2410 00d6 2E       		.uleb128 0x2e
 2411 00d7 01       		.byte	0x1
 2412 00d8 3F       		.uleb128 0x3f
 2413 00d9 0C       		.uleb128 0xc
 2414 00da 03       		.uleb128 0x3
 2415 00db 0E       		.uleb128 0xe
 2416 00dc 3A       		.uleb128 0x3a
 2417 00dd 0B       		.uleb128 0xb
 2418 00de 3B       		.uleb128 0x3b
 2419 00df 05       		.uleb128 0x5
 2420 00e0 27       		.uleb128 0x27
 2421 00e1 0C       		.uleb128 0xc
 2422 00e2 49       		.uleb128 0x49
 2423 00e3 13       		.uleb128 0x13
ARM GAS  C:\Users\Geo\AppData\Local\Temp\ccJcx0AO.s 			page 59


 2424 00e4 11       		.uleb128 0x11
 2425 00e5 01       		.uleb128 0x1
 2426 00e6 12       		.uleb128 0x12
 2427 00e7 01       		.uleb128 0x1
 2428 00e8 40       		.uleb128 0x40
 2429 00e9 06       		.uleb128 0x6
 2430 00ea 01       		.uleb128 0x1
 2431 00eb 13       		.uleb128 0x13
 2432 00ec 00       		.byte	0x0
 2433 00ed 00       		.byte	0x0
 2434 00ee 0F       		.uleb128 0xf
 2435 00ef 34       		.uleb128 0x34
 2436 00f0 00       		.byte	0x0
 2437 00f1 03       		.uleb128 0x3
 2438 00f2 08       		.uleb128 0x8
 2439 00f3 3A       		.uleb128 0x3a
 2440 00f4 0B       		.uleb128 0xb
 2441 00f5 3B       		.uleb128 0x3b
 2442 00f6 05       		.uleb128 0x5
 2443 00f7 49       		.uleb128 0x49
 2444 00f8 13       		.uleb128 0x13
 2445 00f9 02       		.uleb128 0x2
 2446 00fa 0A       		.uleb128 0xa
 2447 00fb 00       		.byte	0x0
 2448 00fc 00       		.byte	0x0
 2449 00fd 10       		.uleb128 0x10
 2450 00fe 34       		.uleb128 0x34
 2451 00ff 00       		.byte	0x0
 2452 0100 03       		.uleb128 0x3
 2453 0101 0E       		.uleb128 0xe
 2454 0102 3A       		.uleb128 0x3a
 2455 0103 0B       		.uleb128 0xb
 2456 0104 3B       		.uleb128 0x3b
 2457 0105 0B       		.uleb128 0xb
 2458 0106 49       		.uleb128 0x49
 2459 0107 13       		.uleb128 0x13
 2460 0108 3F       		.uleb128 0x3f
 2461 0109 0C       		.uleb128 0xc
 2462 010a 02       		.uleb128 0x2
 2463 010b 0A       		.uleb128 0xa
 2464 010c 00       		.byte	0x0
 2465 010d 00       		.byte	0x0
 2466 010e 11       		.uleb128 0x11
 2467 010f 35       		.uleb128 0x35
 2468 0110 00       		.byte	0x0
 2469 0111 49       		.uleb128 0x49
 2470 0112 13       		.uleb128 0x13
 2471 0113 00       		.byte	0x0
 2472 0114 00       		.byte	0x0
 2473 0115 00       		.byte	0x0
 2474              		.section	.debug_pubnames,"",%progbits
 2475 0000 25020000 		.4byte	0x225
 2476 0004 0200     		.2byte	0x2
 2477 0006 00000000 		.4byte	.Ldebug_info0
 2478 000a 98040000 		.4byte	0x498
 2479 000e BB000000 		.4byte	0xbb
 2480 0012 41646353 		.ascii	"AdcSar_Start\000"
ARM GAS  C:\Users\Geo\AppData\Local\Temp\ccJcx0AO.s 			page 60


 2480      61725F53 
 2480      74617274 
 2480      00
 2481 001f D0000000 		.4byte	0xd0
 2482 0023 41646353 		.ascii	"AdcSar_Init\000"
 2482      61725F49 
 2482      6E697400 
 2483 002f E5000000 		.4byte	0xe5
 2484 0033 41646353 		.ascii	"AdcSar_Enable\000"
 2484      61725F45 
 2484      6E61626C 
 2484      6500
 2485 0041 1B010000 		.4byte	0x11b
 2486 0045 41646353 		.ascii	"AdcSar_SetRef\000"
 2486      61725F53 
 2486      65745265 
 2486      6600
 2487 0053 51010000 		.4byte	0x151
 2488 0057 41646353 		.ascii	"AdcSar_Stop\000"
 2488      61725F53 
 2488      746F7000 
 2489 0063 7B010000 		.4byte	0x17b
 2490 0067 41646353 		.ascii	"AdcSar_IRQ_Enable\000"
 2490      61725F49 
 2490      52515F45 
 2490      6E61626C 
 2490      6500
 2491 0079 91010000 		.4byte	0x191
 2492 007d 41646353 		.ascii	"AdcSar_IRQ_Disable\000"
 2492      61725F49 
 2492      52515F44 
 2492      69736162 
 2492      6C6500
 2493 0090 A7010000 		.4byte	0x1a7
 2494 0094 41646353 		.ascii	"AdcSar_SetPower\000"
 2494      61725F53 
 2494      6574506F 
 2494      77657200 
 2495 00a4 E0010000 		.4byte	0x1e0
 2496 00a8 41646353 		.ascii	"AdcSar_SetResolution\000"
 2496      61725F53 
 2496      65745265 
 2496      736F6C75 
 2496      74696F6E 
 2497 00bd 19020000 		.4byte	0x219
 2498 00c1 41646353 		.ascii	"AdcSar_StartConvert\000"
 2498      61725F53 
 2498      74617274 
 2498      436F6E76 
 2498      65727400 
 2499 00d5 2F020000 		.4byte	0x22f
 2500 00d9 41646353 		.ascii	"AdcSar_StopConvert\000"
 2500      61725F53 
 2500      746F7043 
 2500      6F6E7665 
 2500      727400
 2501 00ec 45020000 		.4byte	0x245
ARM GAS  C:\Users\Geo\AppData\Local\Temp\ccJcx0AO.s 			page 61


 2502 00f0 41646353 		.ascii	"AdcSar_IsEndConversion\000"
 2502      61725F49 
 2502      73456E64 
 2502      436F6E76 
 2502      65727369 
 2503 0107 82020000 		.4byte	0x282
 2504 010b 41646353 		.ascii	"AdcSar_GetResult8\000"
 2504      61725F47 
 2504      65745265 
 2504      73756C74 
 2504      3800
 2505 011d B0020000 		.4byte	0x2b0
 2506 0121 41646353 		.ascii	"AdcSar_GetResult16\000"
 2506      61725F47 
 2506      65745265 
 2506      73756C74 
 2506      313600
 2507 0134 DE020000 		.4byte	0x2de
 2508 0138 41646353 		.ascii	"AdcSar_SetOffset\000"
 2508      61725F53 
 2508      65744F66 
 2508      66736574 
 2508      00
 2509 0149 08030000 		.4byte	0x308
 2510 014d 41646353 		.ascii	"AdcSar_CalcGain\000"
 2510      61725F43 
 2510      616C6347 
 2510      61696E00 
 2511 015d 50030000 		.4byte	0x350
 2512 0161 41646353 		.ascii	"AdcSar_SetGain\000"
 2512      61725F53 
 2512      65744761 
 2512      696E00
 2513 0170 7A030000 		.4byte	0x37a
 2514 0174 41646353 		.ascii	"AdcSar_CountsTo_mVolts\000"
 2514      61725F43 
 2514      6F756E74 
 2514      73546F5F 
 2514      6D566F6C 
 2515 018b B7030000 		.4byte	0x3b7
 2516 018f 41646353 		.ascii	"AdcSar_CountsTo_uVolts\000"
 2516      61725F43 
 2516      6F756E74 
 2516      73546F5F 
 2516      75566F6C 
 2517 01a6 F4030000 		.4byte	0x3f4
 2518 01aa 41646353 		.ascii	"AdcSar_CountsTo_Volts\000"
 2518      61725F43 
 2518      6F756E74 
 2518      73546F5F 
 2518      566F6C74 
 2519 01c0 38040000 		.4byte	0x438
 2520 01c4 41646353 		.ascii	"AdcSar_initVar\000"
 2520      61725F69 
 2520      6E697456 
 2520      617200
 2521 01d3 4A040000 		.4byte	0x44a
ARM GAS  C:\Users\Geo\AppData\Local\Temp\ccJcx0AO.s 			page 62


 2522 01d7 41646353 		.ascii	"AdcSar_offset\000"
 2522      61725F6F 
 2522      66667365 
 2522      7400
 2523 01e5 61040000 		.4byte	0x461
 2524 01e9 41646353 		.ascii	"AdcSar_countsPerVolt\000"
 2524      61725F63 
 2524      6F756E74 
 2524      73506572 
 2524      566F6C74 
 2525 01fe 73040000 		.4byte	0x473
 2526 0202 41646353 		.ascii	"AdcSar_shift\000"
 2526      61725F73 
 2526      68696674 
 2526      00
 2527 020f 85040000 		.4byte	0x485
 2528 0213 41646353 		.ascii	"AdcSar_resolution\000"
 2528      61725F72 
 2528      65736F6C 
 2528      7574696F 
 2528      6E00
 2529 0225 00000000 		.4byte	0x0
 2530              		.section	.debug_aranges,"",%progbits
 2531 0000 B4000000 		.4byte	0xb4
 2532 0004 0200     		.2byte	0x2
 2533 0006 00000000 		.4byte	.Ldebug_info0
 2534 000a 04       		.byte	0x4
 2535 000b 00       		.byte	0x0
 2536 000c 0000     		.2byte	0x0
 2537 000e 0000     		.2byte	0x0
 2538 0010 00000000 		.4byte	.LFB0
 2539 0014 2A000000 		.4byte	.LFE0-.LFB0
 2540 0018 00000000 		.4byte	.LFB1
 2541 001c 5C000000 		.4byte	.LFE1-.LFB1
 2542 0020 00000000 		.4byte	.LFB2
 2543 0024 20010000 		.4byte	.LFE2-.LFB2
 2544 0028 00000000 		.4byte	.LFB3
 2545 002c 7C000000 		.4byte	.LFE3-.LFB3
 2546 0030 00000000 		.4byte	.LFB4
 2547 0034 9A000000 		.4byte	.LFE4-.LFB4
 2548 0038 00000000 		.4byte	.LFB5
 2549 003c 0E000000 		.4byte	.LFE5-.LFB5
 2550 0040 00000000 		.4byte	.LFB6
 2551 0044 0E000000 		.4byte	.LFE6-.LFB6
 2552 0048 00000000 		.4byte	.LFB7
 2553 004c 4C000000 		.4byte	.LFE7-.LFB7
 2554 0050 00000000 		.4byte	.LFB8
 2555 0054 68000000 		.4byte	.LFE8-.LFB8
 2556 0058 00000000 		.4byte	.LFB9
 2557 005c 26000000 		.4byte	.LFE9-.LFB9
 2558 0060 00000000 		.4byte	.LFB10
 2559 0064 24000000 		.4byte	.LFE10-.LFB10
 2560 0068 00000000 		.4byte	.LFB11
 2561 006c 4C000000 		.4byte	.LFE11-.LFB11
 2562 0070 00000000 		.4byte	.LFB12
 2563 0074 6C000000 		.4byte	.LFE12-.LFB12
 2564 0078 00000000 		.4byte	.LFB13
ARM GAS  C:\Users\Geo\AppData\Local\Temp\ccJcx0AO.s 			page 63


 2565 007c 6A000000 		.4byte	.LFE13-.LFB13
 2566 0080 00000000 		.4byte	.LFB14
 2567 0084 20000000 		.4byte	.LFE14-.LFB14
 2568 0088 00000000 		.4byte	.LFB15
 2569 008c 78000000 		.4byte	.LFE15-.LFB15
 2570 0090 00000000 		.4byte	.LFB16
 2571 0094 20000000 		.4byte	.LFE16-.LFB16
 2572 0098 00000000 		.4byte	.LFB17
 2573 009c 52000000 		.4byte	.LFE17-.LFB17
 2574 00a0 00000000 		.4byte	.LFB18
 2575 00a4 58000000 		.4byte	.LFE18-.LFB18
 2576 00a8 00000000 		.4byte	.LFB19
 2577 00ac 5C000000 		.4byte	.LFE19-.LFB19
 2578 00b0 00000000 		.4byte	0x0
 2579 00b4 00000000 		.4byte	0x0
 2580              		.section	.debug_ranges,"",%progbits
 2581              	.Ldebug_ranges0:
 2582 0000 00000000 		.4byte	.Ltext0
 2583 0004 00000000 		.4byte	.Letext0
 2584 0008 00000000 		.4byte	.LFB0
 2585 000c 2A000000 		.4byte	.LFE0
 2586 0010 00000000 		.4byte	.LFB1
 2587 0014 5C000000 		.4byte	.LFE1
 2588 0018 00000000 		.4byte	.LFB2
 2589 001c 20010000 		.4byte	.LFE2
 2590 0020 00000000 		.4byte	.LFB3
 2591 0024 7C000000 		.4byte	.LFE3
 2592 0028 00000000 		.4byte	.LFB4
 2593 002c 9A000000 		.4byte	.LFE4
 2594 0030 00000000 		.4byte	.LFB5
 2595 0034 0E000000 		.4byte	.LFE5
 2596 0038 00000000 		.4byte	.LFB6
 2597 003c 0E000000 		.4byte	.LFE6
 2598 0040 00000000 		.4byte	.LFB7
 2599 0044 4C000000 		.4byte	.LFE7
 2600 0048 00000000 		.4byte	.LFB8
 2601 004c 68000000 		.4byte	.LFE8
 2602 0050 00000000 		.4byte	.LFB9
 2603 0054 26000000 		.4byte	.LFE9
 2604 0058 00000000 		.4byte	.LFB10
 2605 005c 24000000 		.4byte	.LFE10
 2606 0060 00000000 		.4byte	.LFB11
 2607 0064 4C000000 		.4byte	.LFE11
 2608 0068 00000000 		.4byte	.LFB12
 2609 006c 6C000000 		.4byte	.LFE12
 2610 0070 00000000 		.4byte	.LFB13
 2611 0074 6A000000 		.4byte	.LFE13
 2612 0078 00000000 		.4byte	.LFB14
 2613 007c 20000000 		.4byte	.LFE14
 2614 0080 00000000 		.4byte	.LFB15
 2615 0084 78000000 		.4byte	.LFE15
 2616 0088 00000000 		.4byte	.LFB16
 2617 008c 20000000 		.4byte	.LFE16
 2618 0090 00000000 		.4byte	.LFB17
 2619 0094 52000000 		.4byte	.LFE17
 2620 0098 00000000 		.4byte	.LFB18
 2621 009c 58000000 		.4byte	.LFE18
ARM GAS  C:\Users\Geo\AppData\Local\Temp\ccJcx0AO.s 			page 64


 2622 00a0 00000000 		.4byte	.LFB19
 2623 00a4 5C000000 		.4byte	.LFE19
 2624 00a8 00000000 		.4byte	0x0
 2625 00ac 00000000 		.4byte	0x0
 2626              		.section	.debug_str,"MS",%progbits,1
 2627              	.LASF5:
 2628 0000 6C6F6E67 		.ascii	"long long int\000"
 2628      206C6F6E 
 2628      6720696E 
 2628      7400
 2629              	.LASF42:
 2630 000e 41646353 		.ascii	"AdcSar_SetGain\000"
 2630      61725F53 
 2630      65744761 
 2630      696E00
 2631              	.LASF53:
 2632 001d 41646353 		.ascii	"AdcSar_offset\000"
 2632      61725F6F 
 2632      66667365 
 2632      7400
 2633              	.LASF56:
 2634 002b 41646353 		.ascii	"AdcSar_resolution\000"
 2634      61725F72 
 2634      65736F6C 
 2634      7574696F 
 2634      6E00
 2635              	.LASF41:
 2636 003d 64696666 		.ascii	"diff_zero\000"
 2636      5F7A6572 
 2636      6F00
 2637              	.LASF30:
 2638 0047 41646353 		.ascii	"AdcSar_StartConvert\000"
 2638      61725F53 
 2638      74617274 
 2638      436F6E76 
 2638      65727400 
 2639              	.LASF23:
 2640 005b 41646353 		.ascii	"AdcSar_IRQ_Enable\000"
 2640      61725F49 
 2640      52515F45 
 2640      6E61626C 
 2640      6500
 2641              	.LASF28:
 2642 006d 41646353 		.ascii	"AdcSar_SetResolution\000"
 2642      61725F53 
 2642      65745265 
 2642      736F6C75 
 2642      74696F6E 
 2643              	.LASF48:
 2644 0082 75566F6C 		.ascii	"uVolts\000"
 2644      747300
 2645              	.LASF3:
 2646 0089 73686F72 		.ascii	"short unsigned int\000"
 2646      7420756E 
 2646      7369676E 
 2646      65642069 
 2646      6E7400
ARM GAS  C:\Users\Geo\AppData\Local\Temp\ccJcx0AO.s 			page 65


 2647              	.LASF22:
 2648 009c 41646353 		.ascii	"AdcSar_Stop\000"
 2648      61725F53 
 2648      746F7000 
 2649              	.LASF33:
 2650 00a8 73746174 		.ascii	"status\000"
 2650      757300
 2651              	.LASF27:
 2652 00af 706F7765 		.ascii	"power\000"
 2652      7200
 2653              	.LASF31:
 2654 00b5 41646353 		.ascii	"AdcSar_StopConvert\000"
 2654      61725F53 
 2654      746F7043 
 2654      6F6E7665 
 2654      727400
 2655              	.LASF25:
 2656 00c8 41646353 		.ascii	"AdcSar_SetPower\000"
 2656      61725F53 
 2656      6574506F 
 2656      77657200 
 2657              	.LASF24:
 2658 00d8 41646353 		.ascii	"AdcSar_IRQ_Disable\000"
 2658      61725F49 
 2658      52515F44 
 2658      69736162 
 2658      6C6500
 2659              	.LASF51:
 2660 00eb 666C6F61 		.ascii	"float\000"
 2660      7400
 2661              	.LASF1:
 2662 00f1 756E7369 		.ascii	"unsigned char\000"
 2662      676E6564 
 2662      20636861 
 2662      7200
 2663              	.LASF21:
 2664 00ff 41646353 		.ascii	"AdcSar_SetRef\000"
 2664      61725F53 
 2664      65745265 
 2664      6600
 2665              	.LASF38:
 2666 010d 6F666673 		.ascii	"offset\000"
 2666      657400
 2667              	.LASF8:
 2668 0114 6C6F6E67 		.ascii	"long unsigned int\000"
 2668      20756E73 
 2668      69676E65 
 2668      6420696E 
 2668      7400
 2669              	.LASF26:
 2670 0126 7265664D 		.ascii	"refMode\000"
 2670      6F646500 
 2671              	.LASF15:
 2672 012e 696E7433 		.ascii	"int32\000"
 2672      3200
 2673              	.LASF44:
 2674 0134 41646353 		.ascii	"AdcSar_CountsTo_mVolts\000"
ARM GAS  C:\Users\Geo\AppData\Local\Temp\ccJcx0AO.s 			page 66


 2674      61725F43 
 2674      6F756E74 
 2674      73546F5F 
 2674      6D566F6C 
 2675              	.LASF19:
 2676 014b 656E6162 		.ascii	"enableInterrupts\000"
 2676      6C65496E 
 2676      74657272 
 2676      75707473 
 2676      00
 2677              	.LASF49:
 2678 015c 41646353 		.ascii	"AdcSar_CountsTo_Volts\000"
 2678      61725F43 
 2678      6F756E74 
 2678      73546F5F 
 2678      566F6C74 
 2679              	.LASF54:
 2680 0172 41646353 		.ascii	"AdcSar_countsPerVolt\000"
 2680      61725F63 
 2680      6F756E74 
 2680      73506572 
 2680      566F6C74 
 2681              	.LASF20:
 2682 0187 41646353 		.ascii	"AdcSar_Enable\000"
 2682      61725F45 
 2682      6E61626C 
 2682      6500
 2683              	.LASF43:
 2684 0195 61646347 		.ascii	"adcGain\000"
 2684      61696E00 
 2685              	.LASF11:
 2686 019d 75696E74 		.ascii	"uint16\000"
 2686      313600
 2687              	.LASF13:
 2688 01a4 696E7438 		.ascii	"int8\000"
 2688      00
 2689              	.LASF12:
 2690 01a9 75696E74 		.ascii	"uint32\000"
 2690      333200
 2691              	.LASF37:
 2692 01b0 41646353 		.ascii	"AdcSar_SetOffset\000"
 2692      61725F53 
 2692      65744F66 
 2692      66736574 
 2692      00
 2693              	.LASF39:
 2694 01c1 41646353 		.ascii	"AdcSar_CalcGain\000"
 2694      61725F43 
 2694      616C6347 
 2694      61696E00 
 2695              	.LASF4:
 2696 01d1 756E7369 		.ascii	"unsigned int\000"
 2696      676E6564 
 2696      20696E74 
 2696      00
 2697              	.LASF52:
 2698 01de 41646353 		.ascii	"AdcSar_initVar\000"
ARM GAS  C:\Users\Geo\AppData\Local\Temp\ccJcx0AO.s 			page 67


 2698      61725F69 
 2698      6E697456 
 2698      617200
 2699              	.LASF45:
 2700 01ed 61646343 		.ascii	"adcCounts\000"
 2700      6F756E74 
 2700      7300
 2701              	.LASF40:
 2702 01f7 636F756E 		.ascii	"counts\000"
 2702      747300
 2703              	.LASF6:
 2704 01fe 6C6F6E67 		.ascii	"long long unsigned int\000"
 2704      206C6F6E 
 2704      6720756E 
 2704      7369676E 
 2704      65642069 
 2705              	.LASF55:
 2706 0215 41646353 		.ascii	"AdcSar_shift\000"
 2706      61725F73 
 2706      68696674 
 2706      00
 2707              	.LASF58:
 2708 0222 2E5C4765 		.ascii	".\\Generated_Source\\PSoC5\\AdcSar.c\000"
 2708      6E657261 
 2708      7465645F 
 2708      536F7572 
 2708      63655C50 
 2709              	.LASF34:
 2710 0244 41646353 		.ascii	"AdcSar_IsEndConversion\000"
 2710      61725F49 
 2710      73456E64 
 2710      436F6E76 
 2710      65727369 
 2711              	.LASF50:
 2712 025b 766F6C74 		.ascii	"volts\000"
 2712      7300
 2713              	.LASF35:
 2714 0261 41646353 		.ascii	"AdcSar_GetResult8\000"
 2714      61725F47 
 2714      65745265 
 2714      73756C74 
 2714      3800
 2715              	.LASF46:
 2716 0273 6D566F6C 		.ascii	"mVolts\000"
 2716      747300
 2717              	.LASF17:
 2718 027a 41646353 		.ascii	"AdcSar_Init\000"
 2718      61725F49 
 2718      6E697400 
 2719              	.LASF57:
 2720 0286 474E5520 		.ascii	"GNU C 4.4.1\000"
 2720      4320342E 
 2720      342E3100 
 2721              	.LASF18:
 2722 0292 746D7052 		.ascii	"tmpReg\000"
 2722      656700
 2723              	.LASF9:
ARM GAS  C:\Users\Geo\AppData\Local\Temp\ccJcx0AO.s 			page 68


 2724 0299 63686172 		.ascii	"char\000"
 2724      00
 2725              	.LASF32:
 2726 029e 7265744D 		.ascii	"retMode\000"
 2726      6F646500 
 2727              	.LASF2:
 2728 02a6 73686F72 		.ascii	"short int\000"
 2728      7420696E 
 2728      7400
 2729              	.LASF36:
 2730 02b0 41646353 		.ascii	"AdcSar_GetResult16\000"
 2730      61725F47 
 2730      65745265 
 2730      73756C74 
 2730      313600
 2731              	.LASF10:
 2732 02c3 75696E74 		.ascii	"uint8\000"
 2732      3800
 2733              	.LASF7:
 2734 02c9 6C6F6E67 		.ascii	"long int\000"
 2734      20696E74 
 2734      00
 2735              	.LASF59:
 2736 02d2 433A5C55 		.ascii	"C:\\Users\\Geo\\Documents\\Projects\\Electric Skate"
 2736      73657273 
 2736      5C47656F 
 2736      5C446F63 
 2736      756D656E 
 2737 0300 626F6172 		.ascii	"board\\Firmware\\PSoC\\Skateboard Motherboard.cydsn"
 2737      645C4669 
 2737      726D7761 
 2737      72655C50 
 2737      536F435C 
 2738 0330 00       		.ascii	"\000"
 2739              	.LASF14:
 2740 0331 696E7431 		.ascii	"int16\000"
 2740      3600
 2741              	.LASF16:
 2742 0337 41646353 		.ascii	"AdcSar_Start\000"
 2742      61725F53 
 2742      74617274 
 2742      00
 2743              	.LASF0:
 2744 0344 7369676E 		.ascii	"signed char\000"
 2744      65642063 
 2744      68617200 
 2745              	.LASF29:
 2746 0350 7265736F 		.ascii	"resolution\000"
 2746      6C757469 
 2746      6F6E00
 2747              	.LASF47:
 2748 035b 41646353 		.ascii	"AdcSar_CountsTo_uVolts\000"
 2748      61725F43 
 2748      6F756E74 
 2748      73546F5F 
 2748      75566F6C 
 2749              		.ident	"GCC: (Sourcery G++ Lite 2010q1-188) 4.4.1"
ARM GAS  C:\Users\Geo\AppData\Local\Temp\ccJcx0AO.s 			page 69


