ARM GAS  C:\Users\Geo\AppData\Local\Temp\ccryViSR.s 			page 1


   1              		.syntax unified
   2              		.cpu cortex-m3
   3              		.fpu softvfp
   4              		.eabi_attribute 20, 1
   5              		.eabi_attribute 21, 1
   6              		.eabi_attribute 23, 3
   7              		.eabi_attribute 24, 1
   8              		.eabi_attribute 25, 1
   9              		.eabi_attribute 26, 1
  10              		.eabi_attribute 30, 6
  11              		.eabi_attribute 18, 4
  12              		.thumb
  13              		.file	"Alarm.c"
  20 0000 B8010000 		.text
  20      0200FB00 
  20      00000201 
  20      FB0E0D00 
  20      01010101 
  21              	.Ltext0:
  22              		.cfi_sections	.debug_frame
  23              		.data
  24              		.type	nextAlarmState, %object
  25              		.size	nextAlarmState, 1
  26              	nextAlarmState:
  27 0000 01       		.byte	1
  28              		.bss
  29              	_motorOnSoundDirection:
  30 0000 00       		.space	1
  31              		.section	.text.Alarm_Run,"ax",%progbits
  32              		.align	2
  33              		.global	Alarm_Run
  34              		.thumb
  35              		.thumb_func
  36              		.type	Alarm_Run, %function
  37              	Alarm_Run:
  38              	.LFB29:
  39              		.file 1 ".\\Alarm.c"
   1:.\Alarm.c     **** //!
   2:.\Alarm.c     **** //! @file 		Alarm.c
   3:.\Alarm.c     **** //! @author 	Geoffrey Hunter (gbmhunter@gmail.com)
   4:.\Alarm.c     **** //! @date 		14/05/2011
   5:.\Alarm.c     **** //! @brief 		Controls the alarm functions on the skateboard.
   6:.\Alarm.c     **** //! @details
   7:.\Alarm.c     **** //!		<b>Last Modified:			</b> 14/05/2011			\n
   8:.\Alarm.c     **** //!		<b>Version:					</b> v1.0				\n
   9:.\Alarm.c     **** //!		<b>Company:					</b> CladLabs			\n
  10:.\Alarm.c     **** //!		<b>Project:					</b> Electric Skateboard\n
  11:.\Alarm.c     **** //!		<b>Computer Architecture:	</b> ARM				\n
  12:.\Alarm.c     **** //!		<b>Compiler:				</b> GCC				\n
  13:.\Alarm.c     **** //! 	<b>uC Model:				</b> PSoC5				\n
  14:.\Alarm.c     **** //!		<b>Documentation Format:	</b> Doxygen			\n
ARM GAS  C:\Users\Geo\AppData\Local\Temp\ccryViSR.s 			page 2


  15:.\Alarm.c     **** //!		
  16:.\Alarm.c     **** //!		Controls the led's on the board
  17:.\Alarm.c     **** //!
  18:.\Alarm.c     **** 
  19:.\Alarm.c     **** //=================================================================================================
  20:.\Alarm.c     **** //============================================ INFO ===============================================
  21:.\Alarm.c     **** //=================================================================================================
  22:.\Alarm.c     **** 
  23:.\Alarm.c     **** //=================================================================================================
  24:.\Alarm.c     **** //======================================= FILE INCLUSIONS =========================================
  25:.\Alarm.c     **** //=================================================================================================
  26:.\Alarm.c     **** 
  27:.\Alarm.c     **** #include <device.h>
  28:.\Alarm.c     **** #include "Alarm.h"
  29:.\Alarm.c     **** #include "Config.h"
  30:.\Alarm.c     **** 
  31:.\Alarm.c     **** //===============================================================================================//
  32:.\Alarm.c     **** //=================================== PRECOMPILER CHECKS ========================================//
  33:.\Alarm.c     **** //===============================================================================================//
  34:.\Alarm.c     **** 
  35:.\Alarm.c     **** //=================================================================================================
  36:.\Alarm.c     **** //========================================== DEFINES ==============================================
  37:.\Alarm.c     **** //=================================================================================================
  38:.\Alarm.c     **** 
  39:.\Alarm.c     **** //=================================================================================================
  40:.\Alarm.c     **** //========================================== TYPEDEF's ============================================
  41:.\Alarm.c     **** //=================================================================================================
  42:.\Alarm.c     **** 
  43:.\Alarm.c     **** typedef enum
  44:.\Alarm.c     **** {
  45:.\Alarm.c     **** 	alarmInit,
  46:.\Alarm.c     **** 	alarmOff,
  47:.\Alarm.c     **** 	alarmTone1,
  48:.\Alarm.c     **** 	alarmTone2,
  49:.\Alarm.c     **** 	beep,
  50:.\Alarm.c     **** 	motorOnSound
  51:.\Alarm.c     **** } alarmStates_t;
  52:.\Alarm.c     **** 
  53:.\Alarm.c     **** //=================================================================================================
  54:.\Alarm.c     **** //==================================== PRIVATE VARIABLES ==========================================
  55:.\Alarm.c     **** //=================================================================================================
  56:.\Alarm.c     **** 
  57:.\Alarm.c     **** static alarmStates_t nextAlarmState = alarmOff;
  58:.\Alarm.c     **** static motorOnSoundDirection_t _motorOnSoundDirection = up;
  59:.\Alarm.c     **** 
  60:.\Alarm.c     **** //=================================================================================================
  61:.\Alarm.c     **** //=============================== PRIVATE FUNCTION PROTOTYPES =====================================
  62:.\Alarm.c     **** //=================================================================================================
  63:.\Alarm.c     **** 
  64:.\Alarm.c     **** //=================================================================================================
  65:.\Alarm.c     **** //===================================== PUBLIC FUNCTIONS ==========================================
  66:.\Alarm.c     **** //=================================================================================================
  67:.\Alarm.c     **** 
  68:.\Alarm.c     **** void Alarm_Run(void)
  69:.\Alarm.c     **** {
  40              		.loc 1 69 0
  41              		.cfi_startproc
ARM GAS  C:\Users\Geo\AppData\Local\Temp\ccryViSR.s 			page 3


  42              		@ args = 0, pretend = 0, frame = 0
  43              		@ frame_needed = 1, uses_anonymous_args = 0
  44 0000 80B5     		push	{r7, lr}
  45              	.LCFI0:
  46              		.cfi_def_cfa_offset 8
  47 0002 00AF     		add	r7, sp, #0
  48              		.cfi_offset 14, -4
  49              		.cfi_offset 7, -8
  50              	.LCFI1:
  51              		.cfi_def_cfa_register 7
  70:.\Alarm.c     **** 	static uint32_t counter = 0;
  71:.\Alarm.c     **** 	
  72:.\Alarm.c     **** 	static uint32_t alarmLastChangeCount = 0;
  73:.\Alarm.c     **** 
  74:.\Alarm.c     **** 	// Calculate run times in counts
  75:.\Alarm.c     **** 	static uint32_t alarmTone1RunTimeCounts = (uint32_t)(configALARM_TONE_1_PERIOD_MS/configMAIN_TICK_
  76:.\Alarm.c     **** 	static uint32_t alarmTone2RunTimeCounts = (uint32_t)(configALARM_TONE_2_PERIOD_MS/configMAIN_TICK_
  77:.\Alarm.c     **** 	static uint32_t	beepRunTimeCounts = (uint32_t)(configBEEP_PERIOD_MS/configMAIN_TICK_PERIOD_MS);
  78:.\Alarm.c     **** 	static uint32_t	motorOnToneTimeCounts = (uint32_t)(configMOTOR_ON_TONE_PERIOD_MS/configMAIN_TICK_P
  79:.\Alarm.c     **** 	
  80:.\Alarm.c     **** 	static uint16_t toneJumpCounts = 200;
  81:.\Alarm.c     **** 	static uint16_t baseToneCounts = 8000;
  82:.\Alarm.c     **** 	static uint16_t currentToneCounts = 0;
  83:.\Alarm.c     **** 	static uint16_t toneCount = 0;
  84:.\Alarm.c     **** 
  85:.\Alarm.c     **** 	static alarmStates_t prevAlarmState = alarmInit;
  86:.\Alarm.c     **** 	
  87:.\Alarm.c     **** 	switch(nextAlarmState)
  52              		.loc 1 87 0
  53 0004 40F20003 		movw	r3, #:lower16:nextAlarmState
  54 0008 C0F20003 		movt	r3, #:upper16:nextAlarmState
  55 000c 1B78     		ldrb	r3, [r3, #0]	@ zero_extendqisi2
  56 000e 03F1FF33 		add	r3, r3, #-1
  57 0012 042B     		cmp	r3, #4
  58 0014 00F29181 		bhi	.L2
  59 0018 01A2     		adr	r2, .L8
  60 001a 52F823F0 		ldr	pc, [r2, r3, lsl #2]
  61 001e 00BF     		.align	2
  62              	.L8:
  63 0020 35000000 		.word	.L3+1
  64 0024 59000000 		.word	.L4+1
  65 0028 D3000000 		.word	.L5+1
  66 002c 49010000 		.word	.L6+1
  67 0030 C3010000 		.word	.L7+1
  68              	.L3:
  88:.\Alarm.c     **** 	{
  89:.\Alarm.c     **** 		case alarmOff:
  90:.\Alarm.c     **** 			if(prevAlarmState != alarmOff)
  69              		.loc 1 90 0
  70 0034 40F20003 		movw	r3, #:lower16:prevAlarmState.2917
  71 0038 C0F20003 		movt	r3, #:upper16:prevAlarmState.2917
  72 003c 1B78     		ldrb	r3, [r3, #0]	@ zero_extendqisi2
  73 003e 012B     		cmp	r3, #1
  74 0040 00F07481 		beq	.L21
  91:.\Alarm.c     **** 			{
  92:.\Alarm.c     **** 				PwmPiezo_Stop();
  75              		.loc 1 92 0
ARM GAS  C:\Users\Geo\AppData\Local\Temp\ccryViSR.s 			page 4


  76 0044 FFF7FEFF 		bl	PwmPiezo_Stop
  93:.\Alarm.c     **** 				prevAlarmState = alarmOff;
  77              		.loc 1 93 0
  78 0048 40F20003 		movw	r3, #:lower16:prevAlarmState.2917
  79 004c C0F20003 		movt	r3, #:upper16:prevAlarmState.2917
  80 0050 4FF00102 		mov	r2, #1
  81 0054 1A70     		strb	r2, [r3, #0]
  94:.\Alarm.c     **** 			}
  95:.\Alarm.c     **** 		
  96:.\Alarm.c     **** 			break;
  82              		.loc 1 96 0
  83 0056 70E1     		b	.L2
  84              	.L4:
  97:.\Alarm.c     **** 			
  98:.\Alarm.c     **** 		case alarmTone1:
  99:.\Alarm.c     **** 			if(prevAlarmState != alarmTone1)
  85              		.loc 1 99 0
  86 0058 40F20003 		movw	r3, #:lower16:prevAlarmState.2917
  87 005c C0F20003 		movt	r3, #:upper16:prevAlarmState.2917
  88 0060 1B78     		ldrb	r3, [r3, #0]	@ zero_extendqisi2
  89 0062 022B     		cmp	r3, #2
  90 0064 1AD0     		beq	.L10
 100:.\Alarm.c     **** 			{
 101:.\Alarm.c     **** 				PwmPiezo_Start();
  91              		.loc 1 101 0
  92 0066 FFF7FEFF 		bl	PwmPiezo_Start
 102:.\Alarm.c     **** 				PwmPiezo_WritePeriod(6000);
  93              		.loc 1 102 0
  94 006a 41F27070 		movw	r0, #6000
  95 006e FFF7FEFF 		bl	PwmPiezo_WritePeriod
 103:.\Alarm.c     **** 				PwmPiezo_WriteCompare(3000);
  96              		.loc 1 103 0
  97 0072 40F6B830 		movw	r0, #3000
  98 0076 FFF7FEFF 		bl	PwmPiezo_WriteCompare
 104:.\Alarm.c     **** 				
 105:.\Alarm.c     **** 				alarmLastChangeCount = counter;
  99              		.loc 1 105 0
 100 007a 40F20003 		movw	r3, #:lower16:counter.2907
 101 007e C0F20003 		movt	r3, #:upper16:counter.2907
 102 0082 1A68     		ldr	r2, [r3, #0]
 103 0084 40F20003 		movw	r3, #:lower16:alarmLastChangeCount.2908
 104 0088 C0F20003 		movt	r3, #:upper16:alarmLastChangeCount.2908
 105 008c 1A60     		str	r2, [r3, #0]
 106:.\Alarm.c     **** 				
 107:.\Alarm.c     **** 				prevAlarmState = alarmTone1;
 106              		.loc 1 107 0
 107 008e 40F20003 		movw	r3, #:lower16:prevAlarmState.2917
 108 0092 C0F20003 		movt	r3, #:upper16:prevAlarmState.2917
 109 0096 4FF00202 		mov	r2, #2
 110 009a 1A70     		strb	r2, [r3, #0]
 111              	.L10:
 108:.\Alarm.c     **** 			}
 109:.\Alarm.c     **** 			
 110:.\Alarm.c     **** 			if(counter >= alarmLastChangeCount + alarmTone1RunTimeCounts)
 112              		.loc 1 110 0
 113 009c 40F20003 		movw	r3, #:lower16:alarmLastChangeCount.2908
 114 00a0 C0F20003 		movt	r3, #:upper16:alarmLastChangeCount.2908
ARM GAS  C:\Users\Geo\AppData\Local\Temp\ccryViSR.s 			page 5


 115 00a4 1A68     		ldr	r2, [r3, #0]
 116 00a6 40F20003 		movw	r3, #:lower16:alarmTone1RunTimeCounts.2909
 117 00aa C0F20003 		movt	r3, #:upper16:alarmTone1RunTimeCounts.2909
 118 00ae 1B68     		ldr	r3, [r3, #0]
 119 00b0 1A44     		add	r2, r2, r3
 120 00b2 40F20003 		movw	r3, #:lower16:counter.2907
 121 00b6 C0F20003 		movt	r3, #:upper16:counter.2907
 122 00ba 1B68     		ldr	r3, [r3, #0]
 123 00bc 9A42     		cmp	r2, r3
 124 00be 00F23781 		bhi	.L22
 111:.\Alarm.c     **** 			{
 112:.\Alarm.c     **** 				nextAlarmState = alarmTone2;
 125              		.loc 1 112 0
 126 00c2 40F20003 		movw	r3, #:lower16:nextAlarmState
 127 00c6 C0F20003 		movt	r3, #:upper16:nextAlarmState
 128 00ca 4FF00302 		mov	r2, #3
 129 00ce 1A70     		strb	r2, [r3, #0]
 113:.\Alarm.c     **** 			}
 114:.\Alarm.c     **** 			break;
 130              		.loc 1 114 0
 131 00d0 33E1     		b	.L2
 132              	.L5:
 115:.\Alarm.c     **** 			
 116:.\Alarm.c     **** 		case alarmTone2:
 117:.\Alarm.c     **** 			if(prevAlarmState != alarmTone2)
 133              		.loc 1 117 0
 134 00d2 40F20003 		movw	r3, #:lower16:prevAlarmState.2917
 135 00d6 C0F20003 		movt	r3, #:upper16:prevAlarmState.2917
 136 00da 1B78     		ldrb	r3, [r3, #0]	@ zero_extendqisi2
 137 00dc 032B     		cmp	r3, #3
 138 00de 18D0     		beq	.L12
 118:.\Alarm.c     **** 			{
 119:.\Alarm.c     **** 				PwmPiezo_WritePeriod(6500);
 139              		.loc 1 119 0
 140 00e0 41F66410 		movw	r0, #6500
 141 00e4 FFF7FEFF 		bl	PwmPiezo_WritePeriod
 120:.\Alarm.c     **** 				PwmPiezo_WriteCompare(3250);
 142              		.loc 1 120 0
 143 00e8 40F6B240 		movw	r0, #3250
 144 00ec FFF7FEFF 		bl	PwmPiezo_WriteCompare
 121:.\Alarm.c     **** 				
 122:.\Alarm.c     **** 				alarmLastChangeCount = counter;
 145              		.loc 1 122 0
 146 00f0 40F20003 		movw	r3, #:lower16:counter.2907
 147 00f4 C0F20003 		movt	r3, #:upper16:counter.2907
 148 00f8 1A68     		ldr	r2, [r3, #0]
 149 00fa 40F20003 		movw	r3, #:lower16:alarmLastChangeCount.2908
 150 00fe C0F20003 		movt	r3, #:upper16:alarmLastChangeCount.2908
 151 0102 1A60     		str	r2, [r3, #0]
 123:.\Alarm.c     **** 				
 124:.\Alarm.c     **** 				prevAlarmState = alarmTone2;
 152              		.loc 1 124 0
 153 0104 40F20003 		movw	r3, #:lower16:prevAlarmState.2917
 154 0108 C0F20003 		movt	r3, #:upper16:prevAlarmState.2917
 155 010c 4FF00302 		mov	r2, #3
 156 0110 1A70     		strb	r2, [r3, #0]
 157              	.L12:
ARM GAS  C:\Users\Geo\AppData\Local\Temp\ccryViSR.s 			page 6


 125:.\Alarm.c     **** 			}
 126:.\Alarm.c     **** 			
 127:.\Alarm.c     **** 			if(counter >= alarmLastChangeCount + alarmTone2RunTimeCounts)
 158              		.loc 1 127 0
 159 0112 40F20003 		movw	r3, #:lower16:alarmLastChangeCount.2908
 160 0116 C0F20003 		movt	r3, #:upper16:alarmLastChangeCount.2908
 161 011a 1A68     		ldr	r2, [r3, #0]
 162 011c 40F20003 		movw	r3, #:lower16:alarmTone2RunTimeCounts.2910
 163 0120 C0F20003 		movt	r3, #:upper16:alarmTone2RunTimeCounts.2910
 164 0124 1B68     		ldr	r3, [r3, #0]
 165 0126 1A44     		add	r2, r2, r3
 166 0128 40F20003 		movw	r3, #:lower16:counter.2907
 167 012c C0F20003 		movt	r3, #:upper16:counter.2907
 168 0130 1B68     		ldr	r3, [r3, #0]
 169 0132 9A42     		cmp	r2, r3
 170 0134 00F2FE80 		bhi	.L23
 128:.\Alarm.c     **** 			{
 129:.\Alarm.c     **** 				nextAlarmState = alarmTone1;
 171              		.loc 1 129 0
 172 0138 40F20003 		movw	r3, #:lower16:nextAlarmState
 173 013c C0F20003 		movt	r3, #:upper16:nextAlarmState
 174 0140 4FF00202 		mov	r2, #2
 175 0144 1A70     		strb	r2, [r3, #0]
 130:.\Alarm.c     **** 			}
 131:.\Alarm.c     **** 			
 132:.\Alarm.c     **** 			break;
 176              		.loc 1 132 0
 177 0146 F8E0     		b	.L2
 178              	.L6:
 133:.\Alarm.c     **** 		case beep:
 134:.\Alarm.c     **** 		
 135:.\Alarm.c     **** 			if(prevAlarmState != beep)
 179              		.loc 1 135 0
 180 0148 40F20003 		movw	r3, #:lower16:prevAlarmState.2917
 181 014c C0F20003 		movt	r3, #:upper16:prevAlarmState.2917
 182 0150 1B78     		ldrb	r3, [r3, #0]	@ zero_extendqisi2
 183 0152 042B     		cmp	r3, #4
 184 0154 1AD0     		beq	.L14
 136:.\Alarm.c     **** 			{
 137:.\Alarm.c     **** 				PwmPiezo_WritePeriod(6000);
 185              		.loc 1 137 0
 186 0156 41F27070 		movw	r0, #6000
 187 015a FFF7FEFF 		bl	PwmPiezo_WritePeriod
 138:.\Alarm.c     **** 				PwmPiezo_WriteCompare(3000);
 188              		.loc 1 138 0
 189 015e 40F6B830 		movw	r0, #3000
 190 0162 FFF7FEFF 		bl	PwmPiezo_WriteCompare
 139:.\Alarm.c     **** 				PwmPiezo_Start();
 191              		.loc 1 139 0
 192 0166 FFF7FEFF 		bl	PwmPiezo_Start
 140:.\Alarm.c     **** 				
 141:.\Alarm.c     **** 				alarmLastChangeCount = counter;
 193              		.loc 1 141 0
 194 016a 40F20003 		movw	r3, #:lower16:counter.2907
 195 016e C0F20003 		movt	r3, #:upper16:counter.2907
 196 0172 1A68     		ldr	r2, [r3, #0]
 197 0174 40F20003 		movw	r3, #:lower16:alarmLastChangeCount.2908
ARM GAS  C:\Users\Geo\AppData\Local\Temp\ccryViSR.s 			page 7


 198 0178 C0F20003 		movt	r3, #:upper16:alarmLastChangeCount.2908
 199 017c 1A60     		str	r2, [r3, #0]
 142:.\Alarm.c     **** 				
 143:.\Alarm.c     **** 				prevAlarmState = beep;
 200              		.loc 1 143 0
 201 017e 40F20003 		movw	r3, #:lower16:prevAlarmState.2917
 202 0182 C0F20003 		movt	r3, #:upper16:prevAlarmState.2917
 203 0186 4FF00402 		mov	r2, #4
 204 018a 1A70     		strb	r2, [r3, #0]
 205              	.L14:
 144:.\Alarm.c     **** 			}
 145:.\Alarm.c     **** 			
 146:.\Alarm.c     **** 			if(counter >= alarmLastChangeCount + beepRunTimeCounts)
 206              		.loc 1 146 0
 207 018c 40F20003 		movw	r3, #:lower16:alarmLastChangeCount.2908
 208 0190 C0F20003 		movt	r3, #:upper16:alarmLastChangeCount.2908
 209 0194 1A68     		ldr	r2, [r3, #0]
 210 0196 40F20003 		movw	r3, #:lower16:beepRunTimeCounts.2911
 211 019a C0F20003 		movt	r3, #:upper16:beepRunTimeCounts.2911
 212 019e 1B68     		ldr	r3, [r3, #0]
 213 01a0 1A44     		add	r2, r2, r3
 214 01a2 40F20003 		movw	r3, #:lower16:counter.2907
 215 01a6 C0F20003 		movt	r3, #:upper16:counter.2907
 216 01aa 1B68     		ldr	r3, [r3, #0]
 217 01ac 9A42     		cmp	r2, r3
 218 01ae 00F2C380 		bhi	.L24
 147:.\Alarm.c     **** 			{
 148:.\Alarm.c     **** 				nextAlarmState = alarmOff;
 219              		.loc 1 148 0
 220 01b2 40F20003 		movw	r3, #:lower16:nextAlarmState
 221 01b6 C0F20003 		movt	r3, #:upper16:nextAlarmState
 222 01ba 4FF00102 		mov	r2, #1
 223 01be 1A70     		strb	r2, [r3, #0]
 149:.\Alarm.c     **** 			}
 150:.\Alarm.c     **** 			
 151:.\Alarm.c     **** 			break;
 224              		.loc 1 151 0
 225 01c0 BBE0     		b	.L2
 226              	.L7:
 152:.\Alarm.c     **** 			
 153:.\Alarm.c     **** 		case motorOnSound:
 154:.\Alarm.c     **** 			
 155:.\Alarm.c     **** 		
 156:.\Alarm.c     **** 			if(prevAlarmState != motorOnSound)
 227              		.loc 1 156 0
 228 01c2 40F20003 		movw	r3, #:lower16:prevAlarmState.2917
 229 01c6 C0F20003 		movt	r3, #:upper16:prevAlarmState.2917
 230 01ca 1B78     		ldrb	r3, [r3, #0]	@ zero_extendqisi2
 231 01cc 052B     		cmp	r3, #5
 232 01ce 36D0     		beq	.L16
 157:.\Alarm.c     **** 			{
 158:.\Alarm.c     **** 				currentToneCounts = baseToneCounts;
 233              		.loc 1 158 0
 234 01d0 40F20003 		movw	r3, #:lower16:baseToneCounts.2914
 235 01d4 C0F20003 		movt	r3, #:upper16:baseToneCounts.2914
 236 01d8 1A88     		ldrh	r2, [r3, #0]
 237 01da 40F20003 		movw	r3, #:lower16:currentToneCounts.2915
ARM GAS  C:\Users\Geo\AppData\Local\Temp\ccryViSR.s 			page 8


 238 01de C0F20003 		movt	r3, #:upper16:currentToneCounts.2915
 239 01e2 1A80     		strh	r2, [r3, #0]	@ movhi
 159:.\Alarm.c     **** 				PwmPiezo_WritePeriod(currentToneCounts);
 240              		.loc 1 159 0
 241 01e4 40F20003 		movw	r3, #:lower16:currentToneCounts.2915
 242 01e8 C0F20003 		movt	r3, #:upper16:currentToneCounts.2915
 243 01ec 1B88     		ldrh	r3, [r3, #0]
 244 01ee 1846     		mov	r0, r3
 245 01f0 FFF7FEFF 		bl	PwmPiezo_WritePeriod
 160:.\Alarm.c     **** 				PwmPiezo_WriteCompare(currentToneCounts/2);
 246              		.loc 1 160 0
 247 01f4 40F20003 		movw	r3, #:lower16:currentToneCounts.2915
 248 01f8 C0F20003 		movt	r3, #:upper16:currentToneCounts.2915
 249 01fc 1B88     		ldrh	r3, [r3, #0]
 250 01fe 4FEA5303 		lsr	r3, r3, #1
 251 0202 9BB2     		uxth	r3, r3
 252 0204 1846     		mov	r0, r3
 253 0206 FFF7FEFF 		bl	PwmPiezo_WriteCompare
 161:.\Alarm.c     **** 				PwmPiezo_Start();
 254              		.loc 1 161 0
 255 020a FFF7FEFF 		bl	PwmPiezo_Start
 162:.\Alarm.c     **** 				toneCount = 0;
 256              		.loc 1 162 0
 257 020e 40F20003 		movw	r3, #:lower16:toneCount.2916
 258 0212 C0F20003 		movt	r3, #:upper16:toneCount.2916
 259 0216 4FF00002 		mov	r2, #0
 260 021a 1A80     		strh	r2, [r3, #0]	@ movhi
 163:.\Alarm.c     **** 				
 164:.\Alarm.c     **** 				alarmLastChangeCount = counter;
 261              		.loc 1 164 0
 262 021c 40F20003 		movw	r3, #:lower16:counter.2907
 263 0220 C0F20003 		movt	r3, #:upper16:counter.2907
 264 0224 1A68     		ldr	r2, [r3, #0]
 265 0226 40F20003 		movw	r3, #:lower16:alarmLastChangeCount.2908
 266 022a C0F20003 		movt	r3, #:upper16:alarmLastChangeCount.2908
 267 022e 1A60     		str	r2, [r3, #0]
 165:.\Alarm.c     **** 				
 166:.\Alarm.c     **** 				prevAlarmState = motorOnSound;
 268              		.loc 1 166 0
 269 0230 40F20003 		movw	r3, #:lower16:prevAlarmState.2917
 270 0234 C0F20003 		movt	r3, #:upper16:prevAlarmState.2917
 271 0238 4FF00502 		mov	r2, #5
 272 023c 1A70     		strb	r2, [r3, #0]
 273              	.L16:
 167:.\Alarm.c     **** 			}
 168:.\Alarm.c     **** 			
 169:.\Alarm.c     **** 			if(counter >= alarmLastChangeCount + motorOnToneTimeCounts)
 274              		.loc 1 169 0
 275 023e 40F20003 		movw	r3, #:lower16:alarmLastChangeCount.2908
 276 0242 C0F20003 		movt	r3, #:upper16:alarmLastChangeCount.2908
 277 0246 1A68     		ldr	r2, [r3, #0]
 278 0248 40F20003 		movw	r3, #:lower16:motorOnToneTimeCounts.2912
 279 024c C0F20003 		movt	r3, #:upper16:motorOnToneTimeCounts.2912
 280 0250 1B68     		ldr	r3, [r3, #0]
 281 0252 1A44     		add	r2, r2, r3
 282 0254 40F20003 		movw	r3, #:lower16:counter.2907
 283 0258 C0F20003 		movt	r3, #:upper16:counter.2907
ARM GAS  C:\Users\Geo\AppData\Local\Temp\ccryViSR.s 			page 9


 284 025c 1B68     		ldr	r3, [r3, #0]
 285 025e 9A42     		cmp	r2, r3
 286 0260 6BD8     		bhi	.L2
 170:.\Alarm.c     **** 			{
 171:.\Alarm.c     **** 				toneCount++;
 287              		.loc 1 171 0
 288 0262 40F20003 		movw	r3, #:lower16:toneCount.2916
 289 0266 C0F20003 		movt	r3, #:upper16:toneCount.2916
 290 026a 1B88     		ldrh	r3, [r3, #0]
 291 026c 03F10103 		add	r3, r3, #1
 292 0270 9AB2     		uxth	r2, r3
 293 0272 40F20003 		movw	r3, #:lower16:toneCount.2916
 294 0276 C0F20003 		movt	r3, #:upper16:toneCount.2916
 295 027a 1A80     		strh	r2, [r3, #0]	@ movhi
 172:.\Alarm.c     **** 				if(toneCount >= config_MOTOR_ON_NUM_TONES)
 296              		.loc 1 172 0
 297 027c 40F20003 		movw	r3, #:lower16:toneCount.2916
 298 0280 C0F20003 		movt	r3, #:upper16:toneCount.2916
 299 0284 1B88     		ldrh	r3, [r3, #0]
 300 0286 092B     		cmp	r3, #9
 301 0288 07D9     		bls	.L17
 173:.\Alarm.c     **** 				{
 174:.\Alarm.c     **** 					nextAlarmState = alarmOff;
 302              		.loc 1 174 0
 303 028a 40F20003 		movw	r3, #:lower16:nextAlarmState
 304 028e C0F20003 		movt	r3, #:upper16:nextAlarmState
 305 0292 4FF00102 		mov	r2, #1
 306 0296 1A70     		strb	r2, [r3, #0]
 175:.\Alarm.c     **** 					break;
 307              		.loc 1 175 0
 308 0298 4FE0     		b	.L2
 309              	.L17:
 176:.\Alarm.c     **** 				}
 177:.\Alarm.c     **** 				if(_motorOnSoundDirection == up)
 310              		.loc 1 177 0
 311 029a 40F20003 		movw	r3, #:lower16:_motorOnSoundDirection
 312 029e C0F20003 		movt	r3, #:upper16:_motorOnSoundDirection
 313 02a2 1B78     		ldrb	r3, [r3, #0]	@ zero_extendqisi2
 314 02a4 002B     		cmp	r3, #0
 315 02a6 12D1     		bne	.L18
 178:.\Alarm.c     **** 					currentToneCounts = currentToneCounts - toneJumpCounts;
 316              		.loc 1 178 0
 317 02a8 40F20003 		movw	r3, #:lower16:currentToneCounts.2915
 318 02ac C0F20003 		movt	r3, #:upper16:currentToneCounts.2915
 319 02b0 1A88     		ldrh	r2, [r3, #0]
 320 02b2 40F20003 		movw	r3, #:lower16:toneJumpCounts.2913
 321 02b6 C0F20003 		movt	r3, #:upper16:toneJumpCounts.2913
 322 02ba 1B88     		ldrh	r3, [r3, #0]
 323 02bc C3EB0203 		rsb	r3, r3, r2
 324 02c0 9AB2     		uxth	r2, r3
 325 02c2 40F20003 		movw	r3, #:lower16:currentToneCounts.2915
 326 02c6 C0F20003 		movt	r3, #:upper16:currentToneCounts.2915
 327 02ca 1A80     		strh	r2, [r3, #0]	@ movhi
 328 02cc 10E0     		b	.L19
 329              	.L18:
 179:.\Alarm.c     **** 				else
 180:.\Alarm.c     **** 					// Must be down
ARM GAS  C:\Users\Geo\AppData\Local\Temp\ccryViSR.s 			page 10


 181:.\Alarm.c     **** 					currentToneCounts = currentToneCounts + toneJumpCounts;
 330              		.loc 1 181 0
 331 02ce 40F20003 		movw	r3, #:lower16:currentToneCounts.2915
 332 02d2 C0F20003 		movt	r3, #:upper16:currentToneCounts.2915
 333 02d6 1A88     		ldrh	r2, [r3, #0]
 334 02d8 40F20003 		movw	r3, #:lower16:toneJumpCounts.2913
 335 02dc C0F20003 		movt	r3, #:upper16:toneJumpCounts.2913
 336 02e0 1B88     		ldrh	r3, [r3, #0]
 337 02e2 1344     		add	r3, r2, r3
 338 02e4 9AB2     		uxth	r2, r3
 339 02e6 40F20003 		movw	r3, #:lower16:currentToneCounts.2915
 340 02ea C0F20003 		movt	r3, #:upper16:currentToneCounts.2915
 341 02ee 1A80     		strh	r2, [r3, #0]	@ movhi
 342              	.L19:
 182:.\Alarm.c     **** 				PwmPiezo_WritePeriod(currentToneCounts);
 343              		.loc 1 182 0
 344 02f0 40F20003 		movw	r3, #:lower16:currentToneCounts.2915
 345 02f4 C0F20003 		movt	r3, #:upper16:currentToneCounts.2915
 346 02f8 1B88     		ldrh	r3, [r3, #0]
 347 02fa 1846     		mov	r0, r3
 348 02fc FFF7FEFF 		bl	PwmPiezo_WritePeriod
 183:.\Alarm.c     **** 				PwmPiezo_WriteCompare(currentToneCounts/2);
 349              		.loc 1 183 0
 350 0300 40F20003 		movw	r3, #:lower16:currentToneCounts.2915
 351 0304 C0F20003 		movt	r3, #:upper16:currentToneCounts.2915
 352 0308 1B88     		ldrh	r3, [r3, #0]
 353 030a 4FEA5303 		lsr	r3, r3, #1
 354 030e 9BB2     		uxth	r3, r3
 355 0310 1846     		mov	r0, r3
 356 0312 FFF7FEFF 		bl	PwmPiezo_WriteCompare
 184:.\Alarm.c     **** 				alarmLastChangeCount = counter;
 357              		.loc 1 184 0
 358 0316 40F20003 		movw	r3, #:lower16:counter.2907
 359 031a C0F20003 		movt	r3, #:upper16:counter.2907
 360 031e 1A68     		ldr	r2, [r3, #0]
 361 0320 40F20003 		movw	r3, #:lower16:alarmLastChangeCount.2908
 362 0324 C0F20003 		movt	r3, #:upper16:alarmLastChangeCount.2908
 363 0328 1A60     		str	r2, [r3, #0]
 364 032a 06E0     		b	.L2
 365              	.L21:
 366              		.loc 1 96 0
 367 032c 00BF     		nop
 368 032e 04E0     		b	.L2
 369              	.L22:
 370              		.loc 1 114 0
 371 0330 00BF     		nop
 372 0332 02E0     		b	.L2
 373              	.L23:
 374              		.loc 1 132 0
 375 0334 00BF     		nop
 376 0336 00E0     		b	.L2
 377              	.L24:
 378              		.loc 1 151 0
 379 0338 00BF     		nop
 380              	.L2:
 185:.\Alarm.c     **** 			}
 186:.\Alarm.c     **** 			
ARM GAS  C:\Users\Geo\AppData\Local\Temp\ccryViSR.s 			page 11


 187:.\Alarm.c     **** 			break;
 188:.\Alarm.c     **** 	}
 189:.\Alarm.c     **** 	
 190:.\Alarm.c     **** 	// Increment state machine loop counter
 191:.\Alarm.c     **** 	counter++;
 381              		.loc 1 191 0
 382 033a 40F20003 		movw	r3, #:lower16:counter.2907
 383 033e C0F20003 		movt	r3, #:upper16:counter.2907
 384 0342 1B68     		ldr	r3, [r3, #0]
 385 0344 03F10102 		add	r2, r3, #1
 386 0348 40F20003 		movw	r3, #:lower16:counter.2907
 387 034c C0F20003 		movt	r3, #:upper16:counter.2907
 388 0350 1A60     		str	r2, [r3, #0]
 192:.\Alarm.c     **** }
 389              		.loc 1 192 0
 390 0352 80BD     		pop	{r7, pc}
 391              		.cfi_endproc
 392              	.LFE29:
 393              		.size	Alarm_Run, .-Alarm_Run
 394              		.section	.text.Alarm_On,"ax",%progbits
 395              		.align	2
 396              		.global	Alarm_On
 397              		.thumb
 398              		.thumb_func
 399              		.type	Alarm_On, %function
 400              	Alarm_On:
 401              	.LFB30:
 193:.\Alarm.c     **** 
 194:.\Alarm.c     **** void Alarm_On(void)
 195:.\Alarm.c     **** {
 402              		.loc 1 195 0
 403              		.cfi_startproc
 404              		@ args = 0, pretend = 0, frame = 0
 405              		@ frame_needed = 1, uses_anonymous_args = 0
 406              		@ link register save eliminated.
 407 0000 80B4     		push	{r7}
 408              	.LCFI2:
 409              		.cfi_def_cfa_offset 4
 410 0002 00AF     		add	r7, sp, #0
 411              		.cfi_offset 7, -4
 412              	.LCFI3:
 413              		.cfi_def_cfa_register 7
 196:.\Alarm.c     **** 	nextAlarmState = alarmTone1;
 414              		.loc 1 196 0
 415 0004 40F20003 		movw	r3, #:lower16:nextAlarmState
 416 0008 C0F20003 		movt	r3, #:upper16:nextAlarmState
 417 000c 4FF00202 		mov	r2, #2
 418 0010 1A70     		strb	r2, [r3, #0]
 197:.\Alarm.c     **** }
 419              		.loc 1 197 0
 420 0012 BD46     		mov	sp, r7
 421 0014 80BC     		pop	{r7}
 422 0016 7047     		bx	lr
 423              		.cfi_endproc
 424              	.LFE30:
 425              		.size	Alarm_On, .-Alarm_On
 426              		.section	.text.Alarm_Off,"ax",%progbits
ARM GAS  C:\Users\Geo\AppData\Local\Temp\ccryViSR.s 			page 12


 427              		.align	2
 428              		.global	Alarm_Off
 429              		.thumb
 430              		.thumb_func
 431              		.type	Alarm_Off, %function
 432              	Alarm_Off:
 433              	.LFB31:
 198:.\Alarm.c     **** 
 199:.\Alarm.c     **** void Alarm_Off(void)
 200:.\Alarm.c     **** {
 434              		.loc 1 200 0
 435              		.cfi_startproc
 436              		@ args = 0, pretend = 0, frame = 0
 437              		@ frame_needed = 1, uses_anonymous_args = 0
 438              		@ link register save eliminated.
 439 0000 80B4     		push	{r7}
 440              	.LCFI4:
 441              		.cfi_def_cfa_offset 4
 442 0002 00AF     		add	r7, sp, #0
 443              		.cfi_offset 7, -4
 444              	.LCFI5:
 445              		.cfi_def_cfa_register 7
 201:.\Alarm.c     **** 	nextAlarmState = alarmOff;
 446              		.loc 1 201 0
 447 0004 40F20003 		movw	r3, #:lower16:nextAlarmState
 448 0008 C0F20003 		movt	r3, #:upper16:nextAlarmState
 449 000c 4FF00102 		mov	r2, #1
 450 0010 1A70     		strb	r2, [r3, #0]
 202:.\Alarm.c     **** }
 451              		.loc 1 202 0
 452 0012 BD46     		mov	sp, r7
 453 0014 80BC     		pop	{r7}
 454 0016 7047     		bx	lr
 455              		.cfi_endproc
 456              	.LFE31:
 457              		.size	Alarm_Off, .-Alarm_Off
 458              		.section	.text.Alarm_IsTriggered,"ax",%progbits
 459              		.align	2
 460              		.global	Alarm_IsTriggered
 461              		.thumb
 462              		.thumb_func
 463              		.type	Alarm_IsTriggered, %function
 464              	Alarm_IsTriggered:
 465              	.LFB32:
 203:.\Alarm.c     **** 
 204:.\Alarm.c     **** void Alarm_IsTriggered(void)
 205:.\Alarm.c     **** {
 466              		.loc 1 205 0
 467              		.cfi_startproc
 468              		@ args = 0, pretend = 0, frame = 0
 469              		@ frame_needed = 1, uses_anonymous_args = 0
 470              		@ link register save eliminated.
 471 0000 80B4     		push	{r7}
 472              	.LCFI6:
 473              		.cfi_def_cfa_offset 4
 474 0002 00AF     		add	r7, sp, #0
 475              		.cfi_offset 7, -4
ARM GAS  C:\Users\Geo\AppData\Local\Temp\ccryViSR.s 			page 13


 476              	.LCFI7:
 477              		.cfi_def_cfa_register 7
 206:.\Alarm.c     **** 
 207:.\Alarm.c     **** }
 478              		.loc 1 207 0
 479 0004 BD46     		mov	sp, r7
 480 0006 80BC     		pop	{r7}
 481 0008 7047     		bx	lr
 482              		.cfi_endproc
 483              	.LFE32:
 484              		.size	Alarm_IsTriggered, .-Alarm_IsTriggered
 485 000a 00BF     		.section	.text.Alarm_EmitBeep,"ax",%progbits
 486              		.align	2
 487              		.global	Alarm_EmitBeep
 488              		.thumb
 489              		.thumb_func
 490              		.type	Alarm_EmitBeep, %function
 491              	Alarm_EmitBeep:
 492              	.LFB33:
 208:.\Alarm.c     **** 
 209:.\Alarm.c     **** void Alarm_EmitBeep(void)
 210:.\Alarm.c     **** {
 493              		.loc 1 210 0
 494              		.cfi_startproc
 495              		@ args = 0, pretend = 0, frame = 0
 496              		@ frame_needed = 1, uses_anonymous_args = 0
 497              		@ link register save eliminated.
 498 0000 80B4     		push	{r7}
 499              	.LCFI8:
 500              		.cfi_def_cfa_offset 4
 501 0002 00AF     		add	r7, sp, #0
 502              		.cfi_offset 7, -4
 503              	.LCFI9:
 504              		.cfi_def_cfa_register 7
 211:.\Alarm.c     **** 	if(nextAlarmState == alarmOff)
 505              		.loc 1 211 0
 506 0004 40F20003 		movw	r3, #:lower16:nextAlarmState
 507 0008 C0F20003 		movt	r3, #:upper16:nextAlarmState
 508 000c 1B78     		ldrb	r3, [r3, #0]	@ zero_extendqisi2
 509 000e 012B     		cmp	r3, #1
 510 0010 06D1     		bne	.L33
 212:.\Alarm.c     **** 	{
 213:.\Alarm.c     **** 		nextAlarmState = beep;
 511              		.loc 1 213 0
 512 0012 40F20003 		movw	r3, #:lower16:nextAlarmState
 513 0016 C0F20003 		movt	r3, #:upper16:nextAlarmState
 514 001a 4FF00402 		mov	r2, #4
 515 001e 1A70     		strb	r2, [r3, #0]
 516              	.L33:
 214:.\Alarm.c     **** 	}
 215:.\Alarm.c     **** }
 517              		.loc 1 215 0
 518 0020 BD46     		mov	sp, r7
 519 0022 80BC     		pop	{r7}
 520 0024 7047     		bx	lr
 521              		.cfi_endproc
 522              	.LFE33:
ARM GAS  C:\Users\Geo\AppData\Local\Temp\ccryViSR.s 			page 14


 523              		.size	Alarm_EmitBeep, .-Alarm_EmitBeep
 524 0026 00BF     		.section	.text.Alarm_EmitMotorOnSound,"ax",%progbits
 525              		.align	2
 526              		.global	Alarm_EmitMotorOnSound
 527              		.thumb
 528              		.thumb_func
 529              		.type	Alarm_EmitMotorOnSound, %function
 530              	Alarm_EmitMotorOnSound:
 531              	.LFB34:
 216:.\Alarm.c     **** 
 217:.\Alarm.c     **** void Alarm_EmitMotorOnSound(motorOnSoundDirection_t motorOnSoundDirection)
 218:.\Alarm.c     **** {
 532              		.loc 1 218 0
 533              		.cfi_startproc
 534              		@ args = 0, pretend = 0, frame = 8
 535              		@ frame_needed = 1, uses_anonymous_args = 0
 536              		@ link register save eliminated.
 537 0000 80B4     		push	{r7}
 538              	.LCFI10:
 539              		.cfi_def_cfa_offset 4
 540 0002 83B0     		sub	sp, sp, #12
 541              	.LCFI11:
 542              		.cfi_def_cfa_offset 16
 543 0004 00AF     		add	r7, sp, #0
 544              		.cfi_offset 7, -4
 545              	.LCFI12:
 546              		.cfi_def_cfa_register 7
 547 0006 0346     		mov	r3, r0
 548 0008 FB71     		strb	r3, [r7, #7]
 219:.\Alarm.c     **** 	_motorOnSoundDirection = motorOnSoundDirection;
 549              		.loc 1 219 0
 550 000a 40F20003 		movw	r3, #:lower16:_motorOnSoundDirection
 551 000e C0F20003 		movt	r3, #:upper16:_motorOnSoundDirection
 552 0012 FA79     		ldrb	r2, [r7, #7]
 553 0014 1A70     		strb	r2, [r3, #0]
 220:.\Alarm.c     **** 	nextAlarmState = motorOnSound;
 554              		.loc 1 220 0
 555 0016 40F20003 		movw	r3, #:lower16:nextAlarmState
 556 001a C0F20003 		movt	r3, #:upper16:nextAlarmState
 557 001e 4FF00502 		mov	r2, #5
 558 0022 1A70     		strb	r2, [r3, #0]
 221:.\Alarm.c     **** }
 559              		.loc 1 221 0
 560 0024 07F10C07 		add	r7, r7, #12
 561 0028 BD46     		mov	sp, r7
 562 002a 80BC     		pop	{r7}
 563 002c 7047     		bx	lr
 564              		.cfi_endproc
 565              	.LFE34:
 566              		.size	Alarm_EmitMotorOnSound, .-Alarm_EmitMotorOnSound
 567 002e 00BF     		.bss
 568              	prevAlarmState.2917:
 569 0001 00       		.space	1
 570 0002 0000     		.align	2
 571              	counter.2907:
 572 0004 00000000 		.space	4
 573              		.align	2
ARM GAS  C:\Users\Geo\AppData\Local\Temp\ccryViSR.s 			page 15


 574              	alarmLastChangeCount.2908:
 575 0008 00000000 		.space	4
 576              		.data
 577 0001 000000   		.align	2
 578              		.type	alarmTone1RunTimeCounts.2909, %object
 579              		.size	alarmTone1RunTimeCounts.2909, 4
 580              	alarmTone1RunTimeCounts.2909:
 581 0004 19000000 		.word	25
 582              		.align	2
 583              		.type	alarmTone2RunTimeCounts.2910, %object
 584              		.size	alarmTone2RunTimeCounts.2910, 4
 585              	alarmTone2RunTimeCounts.2910:
 586 0008 19000000 		.word	25
 587              		.align	2
 588              		.type	beepRunTimeCounts.2911, %object
 589              		.size	beepRunTimeCounts.2911, 4
 590              	beepRunTimeCounts.2911:
 591 000c 0A000000 		.word	10
 592              		.align	1
 593              		.type	baseToneCounts.2914, %object
 594              		.size	baseToneCounts.2914, 2
 595              	baseToneCounts.2914:
 596 0010 401F     		.short	8000
 597              		.bss
 598              		.align	1
 599              	currentToneCounts.2915:
 600 000c 0000     		.space	2
 601              		.align	1
 602              	toneCount.2916:
 603 000e 0000     		.space	2
 604              		.data
 605 0012 0000     		.align	2
 606              		.type	motorOnToneTimeCounts.2912, %object
 607              		.size	motorOnToneTimeCounts.2912, 4
 608              	motorOnToneTimeCounts.2912:
 609 0014 05000000 		.word	5
 610              		.align	1
 611              		.type	toneJumpCounts.2913, %object
 612              		.size	toneJumpCounts.2913, 2
 613              	toneJumpCounts.2913:
 614 0018 C800     		.short	200
 615 001a 0000     		.text
 616              	.Letext0: