ARM GAS  C:\Users\Geo\AppData\Local\Temp\ccnnArMw.s 			page 1


   1              		.syntax unified
   2              		.cpu cortex-m3
   3              		.fpu softvfp
   4              		.eabi_attribute 20, 1
   5              		.eabi_attribute 21, 1
   6              		.eabi_attribute 23, 3
   7              		.eabi_attribute 24, 1
   8              		.eabi_attribute 25, 1
   9              		.eabi_attribute 26, 1
  10              		.eabi_attribute 30, 6
  11              		.eabi_attribute 18, 4
  12              		.thumb
  13              		.file	"CyDmac.c"
  14              		.section	.debug_abbrev,"",%progbits
  15              	.Ldebug_abbrev0:
  16              		.section	.debug_info,"",%progbits
  17              	.Ldebug_info0:
  18              		.section	.debug_line,"",%progbits
  19              	.Ldebug_line0:
  20 0000 AC020000 		.text
  20      02006A00 
  20      00000201 
  20      FB0E0D00 
  20      01010101 
  21              	.Ltext0:
  22              		.cfi_sections	.debug_frame
  23              		.bss
  24              	CyDmaTdCurrentNumber:
  25 0000 00       		.space	1
  26              	CyDmaTdFreeIndex:
  27 0001 00       		.space	1
  28 0002 0000     		.align	2
  29              	CyDmaChannels:
  30 0004 00000000 		.space	4
  31              		.section	.text.CyDmacConfigure,"ax",%progbits
  32              		.align	2
  33              		.global	CyDmacConfigure
  34              		.thumb
  35              		.thumb_func
  36              		.type	CyDmacConfigure, %function
  37              	CyDmacConfigure:
  38              	.LFB0:
  39              		.file 1 ".\\Generated_Source\\PSoC5\\CyDmac.c"
   1:.\Generated_Source\PSoC5/CyDmac.c **** /*******************************************************************************
   2:.\Generated_Source\PSoC5/CyDmac.c **** * File Name: CyDmac.c  
   3:.\Generated_Source\PSoC5/CyDmac.c **** * Version 2.40
   4:.\Generated_Source\PSoC5/CyDmac.c **** *
   5:.\Generated_Source\PSoC5/CyDmac.c **** *  Description:
   6:.\Generated_Source\PSoC5/CyDmac.c **** *   Provides an API for the DMAC component. The API includes functions
   7:.\Generated_Source\PSoC5/CyDmac.c **** *   for the DMA controller, DMA channels and Transfer Descriptors.
   8:.\Generated_Source\PSoC5/CyDmac.c **** *
   9:.\Generated_Source\PSoC5/CyDmac.c **** *   This API is the library version not the auto generated code that gets
  10:.\Generated_Source\PSoC5/CyDmac.c **** *   generated when the user places a DMA component on the schematic.
  11:.\Generated_Source\PSoC5/CyDmac.c **** *   The auto generated code would use the APi's in this module.
  12:.\Generated_Source\PSoC5/CyDmac.c **** *
  13:.\Generated_Source\PSoC5/CyDmac.c **** *  Note:
  14:.\Generated_Source\PSoC5/CyDmac.c **** *   This code is endian agnostic.
ARM GAS  C:\Users\Geo\AppData\Local\Temp\ccnnArMw.s 			page 2


  15:.\Generated_Source\PSoC5/CyDmac.c **** *
  16:.\Generated_Source\PSoC5/CyDmac.c **** *   The Transfer Descriptor memory can be used as regular memory if the TD's
  17:.\Generated_Source\PSoC5/CyDmac.c **** *   are not being used.
  18:.\Generated_Source\PSoC5/CyDmac.c **** *
  19:.\Generated_Source\PSoC5/CyDmac.c **** *   This code uses the first byte of each TD to manage
  20:.\Generated_Source\PSoC5/CyDmac.c **** *   the free list of TD's. The user can over write this once the TD is
  21:.\Generated_Source\PSoC5/CyDmac.c **** *   allocated.
  22:.\Generated_Source\PSoC5/CyDmac.c **** *
  23:.\Generated_Source\PSoC5/CyDmac.c **** *  Note: 
  24:.\Generated_Source\PSoC5/CyDmac.c **** *   Documentation of the API's in this file is located in the
  25:.\Generated_Source\PSoC5/CyDmac.c **** *   System Reference Guide provided with PSoC Creator.
  26:.\Generated_Source\PSoC5/CyDmac.c **** * 
  27:.\Generated_Source\PSoC5/CyDmac.c **** *
  28:.\Generated_Source\PSoC5/CyDmac.c **** *******************************************************************************
  29:.\Generated_Source\PSoC5/CyDmac.c **** * Copyright 2008-2011, Cypress Semiconductor Corporation.  All rights reserved.
  30:.\Generated_Source\PSoC5/CyDmac.c **** * You may use this file only in accordance with the license, terms, conditions, 
  31:.\Generated_Source\PSoC5/CyDmac.c **** * disclaimers, and limitations in the end user license agreement accompanying 
  32:.\Generated_Source\PSoC5/CyDmac.c **** * the software package with which this file was provided.
  33:.\Generated_Source\PSoC5/CyDmac.c **** ********************************************************************************/
  34:.\Generated_Source\PSoC5/CyDmac.c **** 
  35:.\Generated_Source\PSoC5/CyDmac.c **** #include <CYDMAC.H>
  36:.\Generated_Source\PSoC5/CyDmac.c **** 
  37:.\Generated_Source\PSoC5/CyDmac.c **** /* Current Number of free elements in the list. */
  38:.\Generated_Source\PSoC5/CyDmac.c **** static uint8 CyDmaTdCurrentNumber;
  39:.\Generated_Source\PSoC5/CyDmac.c **** 
  40:.\Generated_Source\PSoC5/CyDmac.c **** /* Index of the first available TD. */
  41:.\Generated_Source\PSoC5/CyDmac.c **** static uint8 CyDmaTdFreeIndex;
  42:.\Generated_Source\PSoC5/CyDmac.c **** 
  43:.\Generated_Source\PSoC5/CyDmac.c **** /* Bit map of DMA channel ownership. */
  44:.\Generated_Source\PSoC5/CyDmac.c **** static uint32 CyDmaChannels = DMA_CHANNELS_USED__MASK0;
  45:.\Generated_Source\PSoC5/CyDmac.c **** 
  46:.\Generated_Source\PSoC5/CyDmac.c **** /*Pointer type conversions are restricted to avoid conflicts with compiler 
  47:.\Generated_Source\PSoC5/CyDmac.c **** optimizations. */
  48:.\Generated_Source\PSoC5/CyDmac.c **** typedef union { volatile uint8 bytes[2]; uint16 word; } CONVERT_WORD;
  49:.\Generated_Source\PSoC5/CyDmac.c **** 
  50:.\Generated_Source\PSoC5/CyDmac.c **** /*******************************************************************************
  51:.\Generated_Source\PSoC5/CyDmac.c **** * Function Name: CyDmacConfigure
  52:.\Generated_Source\PSoC5/CyDmac.c **** ********************************************************************************
  53:.\Generated_Source\PSoC5/CyDmac.c **** * Summary:
  54:.\Generated_Source\PSoC5/CyDmac.c **** *   Sets the DMAC Configuration register with the default values.
  55:.\Generated_Source\PSoC5/CyDmac.c **** *   Initializes the linked list of Transfer Descriptors.
  56:.\Generated_Source\PSoC5/CyDmac.c **** *
  57:.\Generated_Source\PSoC5/CyDmac.c **** * Parameters:
  58:.\Generated_Source\PSoC5/CyDmac.c **** *   void.
  59:.\Generated_Source\PSoC5/CyDmac.c **** *
  60:.\Generated_Source\PSoC5/CyDmac.c **** *
  61:.\Generated_Source\PSoC5/CyDmac.c **** * Return:
  62:.\Generated_Source\PSoC5/CyDmac.c **** *   void.
  63:.\Generated_Source\PSoC5/CyDmac.c **** *
  64:.\Generated_Source\PSoC5/CyDmac.c **** *
  65:.\Generated_Source\PSoC5/CyDmac.c **** *******************************************************************************/
  66:.\Generated_Source\PSoC5/CyDmac.c **** void CyDmacConfigure(void)
  67:.\Generated_Source\PSoC5/CyDmac.c **** {
  40              		.loc 1 67 0
  41              		.cfi_startproc
  42              		@ args = 0, pretend = 0, frame = 8
  43              		@ frame_needed = 1, uses_anonymous_args = 0
ARM GAS  C:\Users\Geo\AppData\Local\Temp\ccnnArMw.s 			page 3


  44              		@ link register save eliminated.
  45 0000 80B4     		push	{r7}
  46              	.LCFI0:
  47              		.cfi_def_cfa_offset 4
  48 0002 83B0     		sub	sp, sp, #12
  49              	.LCFI1:
  50              		.cfi_def_cfa_offset 16
  51 0004 00AF     		add	r7, sp, #0
  52              		.cfi_offset 7, -4
  53              	.LCFI2:
  54              		.cfi_def_cfa_register 7
  68:.\Generated_Source\PSoC5/CyDmac.c ****     uint8 index;
  69:.\Generated_Source\PSoC5/CyDmac.c **** 
  70:.\Generated_Source\PSoC5/CyDmac.c **** 
  71:.\Generated_Source\PSoC5/CyDmac.c ****     /* Set TD list variables. */
  72:.\Generated_Source\PSoC5/CyDmac.c ****     CyDmaTdFreeIndex = NUMBEROF_TDS - 1;
  55              		.loc 1 72 0
  56 0006 40F20003 		movw	r3, #:lower16:CyDmaTdFreeIndex
  57 000a C0F20003 		movt	r3, #:upper16:CyDmaTdFreeIndex
  58 000e 4FF07F02 		mov	r2, #127
  59 0012 1A70     		strb	r2, [r3, #0]
  73:.\Generated_Source\PSoC5/CyDmac.c ****     CyDmaTdCurrentNumber = NUMBEROF_TDS;
  60              		.loc 1 73 0
  61 0014 40F20003 		movw	r3, #:lower16:CyDmaTdCurrentNumber
  62 0018 C0F20003 		movt	r3, #:upper16:CyDmaTdCurrentNumber
  63 001c 6FF07F02 		mvn	r2, #127
  64 0020 1A70     		strb	r2, [r3, #0]
  74:.\Generated_Source\PSoC5/CyDmac.c **** 
  75:.\Generated_Source\PSoC5/CyDmac.c ****     /* Make TD free list. */
  76:.\Generated_Source\PSoC5/CyDmac.c ****     for(index = NUMBEROF_TDS - 1; index; index--)
  65              		.loc 1 76 0
  66 0022 4FF07F03 		mov	r3, #127
  67 0026 FB71     		strb	r3, [r7, #7]
  68 0028 0FE0     		b	.L2
  69              	.L3:
  77:.\Generated_Source\PSoC5/CyDmac.c ****     {
  78:.\Generated_Source\PSoC5/CyDmac.c ****         DMAC_TDMEM[index].TD0[0] = index - 1;
  70              		.loc 1 78 0
  71 002a FB79     		ldrb	r3, [r7, #7]	@ zero_extendqisi2
  72 002c 4FEAC303 		lsl	r3, r3, #3
  73 0030 03F18043 		add	r3, r3, #1073741824
  74 0034 03F5F043 		add	r3, r3, #30720
  75 0038 FA79     		ldrb	r2, [r7, #7]
  76 003a 02F1FF32 		add	r2, r2, #-1
  77 003e D2B2     		uxtb	r2, r2
  78 0040 1A70     		strb	r2, [r3, #0]
  79              		.loc 1 76 0
  80 0042 FB79     		ldrb	r3, [r7, #7]
  81 0044 03F1FF33 		add	r3, r3, #-1
  82 0048 FB71     		strb	r3, [r7, #7]
  83              	.L2:
  84 004a FB79     		ldrb	r3, [r7, #7]	@ zero_extendqisi2
  85 004c 002B     		cmp	r3, #0
  86 004e ECD1     		bne	.L3
  79:.\Generated_Source\PSoC5/CyDmac.c ****     }
  80:.\Generated_Source\PSoC5/CyDmac.c **** 
  81:.\Generated_Source\PSoC5/CyDmac.c ****     /* Make the last one point to zero. */
ARM GAS  C:\Users\Geo\AppData\Local\Temp\ccnnArMw.s 			page 4


  82:.\Generated_Source\PSoC5/CyDmac.c ****     DMAC_TDMEM[index].TD0[0] = 0;
  87              		.loc 1 82 0
  88 0050 FB79     		ldrb	r3, [r7, #7]	@ zero_extendqisi2
  89 0052 4FEAC303 		lsl	r3, r3, #3
  90 0056 03F18043 		add	r3, r3, #1073741824
  91 005a 03F5F043 		add	r3, r3, #30720
  92 005e 4FF00002 		mov	r2, #0
  93 0062 1A70     		strb	r2, [r3, #0]
  83:.\Generated_Source\PSoC5/CyDmac.c **** }
  94              		.loc 1 83 0
  95 0064 07F10C07 		add	r7, r7, #12
  96 0068 BD46     		mov	sp, r7
  97 006a 80BC     		pop	{r7}
  98 006c 7047     		bx	lr
  99              		.cfi_endproc
 100              	.LFE0:
 101              		.size	CyDmacConfigure, .-CyDmacConfigure
 102 006e 00BF     		.section	.text.CyDmacError,"ax",%progbits
 103              		.align	2
 104              		.global	CyDmacError
 105              		.thumb
 106              		.thumb_func
 107              		.type	CyDmacError, %function
 108              	CyDmacError:
 109              	.LFB1:
  84:.\Generated_Source\PSoC5/CyDmac.c **** 
  85:.\Generated_Source\PSoC5/CyDmac.c **** 
  86:.\Generated_Source\PSoC5/CyDmac.c **** /*******************************************************************************
  87:.\Generated_Source\PSoC5/CyDmac.c **** * Function Name: CyDmacError
  88:.\Generated_Source\PSoC5/CyDmac.c **** ********************************************************************************
  89:.\Generated_Source\PSoC5/CyDmac.c **** * Summary:
  90:.\Generated_Source\PSoC5/CyDmac.c **** * Gets the error bits from the DMAC.
  91:.\Generated_Source\PSoC5/CyDmac.c **** *
  92:.\Generated_Source\PSoC5/CyDmac.c **** * Parameters:
  93:.\Generated_Source\PSoC5/CyDmac.c **** *   void.
  94:.\Generated_Source\PSoC5/CyDmac.c **** *
  95:.\Generated_Source\PSoC5/CyDmac.c **** *
  96:.\Generated_Source\PSoC5/CyDmac.c **** *
  97:.\Generated_Source\PSoC5/CyDmac.c **** * Return:
  98:.\Generated_Source\PSoC5/CyDmac.c **** *   Returns the 4 bits of error data from the DMAC error register.
  99:.\Generated_Source\PSoC5/CyDmac.c **** *
 100:.\Generated_Source\PSoC5/CyDmac.c **** *   should each bit get described here?
 101:.\Generated_Source\PSoC5/CyDmac.c **** *
 102:.\Generated_Source\PSoC5/CyDmac.c **** *
 103:.\Generated_Source\PSoC5/CyDmac.c **** *******************************************************************************/
 104:.\Generated_Source\PSoC5/CyDmac.c **** uint8 CyDmacError(void) 
 105:.\Generated_Source\PSoC5/CyDmac.c **** {
 110              		.loc 1 105 0
 111              		.cfi_startproc
 112              		@ args = 0, pretend = 0, frame = 0
 113              		@ frame_needed = 1, uses_anonymous_args = 0
 114              		@ link register save eliminated.
 115 0000 80B4     		push	{r7}
 116              	.LCFI3:
 117              		.cfi_def_cfa_offset 4
 118 0002 00AF     		add	r7, sp, #0
 119              		.cfi_offset 7, -4
ARM GAS  C:\Users\Geo\AppData\Local\Temp\ccnnArMw.s 			page 5


 120              	.LCFI4:
 121              		.cfi_def_cfa_register 7
 106:.\Generated_Source\PSoC5/CyDmac.c ****     return (0x0Fu & *DMAC_ERR);
 122              		.loc 1 106 0
 123 0004 47F20403 		movw	r3, #:lower16:1073770500
 124 0008 C4F20003 		movt	r3, #:upper16:1073770500
 125 000c 1B68     		ldr	r3, [r3, #0]
 126 000e DBB2     		uxtb	r3, r3
 127 0010 03F00F03 		and	r3, r3, #15
 107:.\Generated_Source\PSoC5/CyDmac.c **** }
 128              		.loc 1 107 0
 129 0014 1846     		mov	r0, r3
 130 0016 BD46     		mov	sp, r7
 131 0018 80BC     		pop	{r7}
 132 001a 7047     		bx	lr
 133              		.cfi_endproc
 134              	.LFE1:
 135              		.size	CyDmacError, .-CyDmacError
 136              		.section	.text.CyDmacClearError,"ax",%progbits
 137              		.align	2
 138              		.global	CyDmacClearError
 139              		.thumb
 140              		.thumb_func
 141              		.type	CyDmacClearError, %function
 142              	CyDmacClearError:
 143              	.LFB2:
 108:.\Generated_Source\PSoC5/CyDmac.c **** 
 109:.\Generated_Source\PSoC5/CyDmac.c **** 
 110:.\Generated_Source\PSoC5/CyDmac.c **** /*******************************************************************************
 111:.\Generated_Source\PSoC5/CyDmac.c **** * Function Name: CyDmacClearError
 112:.\Generated_Source\PSoC5/CyDmac.c **** ********************************************************************************
 113:.\Generated_Source\PSoC5/CyDmac.c **** * Summary:
 114:.\Generated_Source\PSoC5/CyDmac.c **** *   Clears the error bits in the error register of the DMAC..
 115:.\Generated_Source\PSoC5/CyDmac.c **** *
 116:.\Generated_Source\PSoC5/CyDmac.c **** * Parameters:
 117:.\Generated_Source\PSoC5/CyDmac.c **** * error:
 118:.\Generated_Source\PSoC5/CyDmac.c **** *   Clears the error bits in the DMAC error register.
 119:.\Generated_Source\PSoC5/CyDmac.c **** *
 120:.\Generated_Source\PSoC5/CyDmac.c **** *
 121:.\Generated_Source\PSoC5/CyDmac.c **** *
 122:.\Generated_Source\PSoC5/CyDmac.c **** * Return:
 123:.\Generated_Source\PSoC5/CyDmac.c **** *   void.
 124:.\Generated_Source\PSoC5/CyDmac.c **** *
 125:.\Generated_Source\PSoC5/CyDmac.c **** * Theory:
 126:.\Generated_Source\PSoC5/CyDmac.c **** *   Once an error occurs the error bits are sticky and are only cleared
 127:.\Generated_Source\PSoC5/CyDmac.c **** *   by a write to the error register.
 128:.\Generated_Source\PSoC5/CyDmac.c **** *
 129:.\Generated_Source\PSoC5/CyDmac.c **** *******************************************************************************/
 130:.\Generated_Source\PSoC5/CyDmac.c **** void CyDmacClearError(uint8 error) 
 131:.\Generated_Source\PSoC5/CyDmac.c **** {
 144              		.loc 1 131 0
 145              		.cfi_startproc
 146              		@ args = 0, pretend = 0, frame = 8
 147              		@ frame_needed = 1, uses_anonymous_args = 0
 148              		@ link register save eliminated.
 149 0000 80B4     		push	{r7}
 150              	.LCFI5:
ARM GAS  C:\Users\Geo\AppData\Local\Temp\ccnnArMw.s 			page 6


 151              		.cfi_def_cfa_offset 4
 152 0002 83B0     		sub	sp, sp, #12
 153              	.LCFI6:
 154              		.cfi_def_cfa_offset 16
 155 0004 00AF     		add	r7, sp, #0
 156              		.cfi_offset 7, -4
 157              	.LCFI7:
 158              		.cfi_def_cfa_register 7
 159 0006 0346     		mov	r3, r0
 160 0008 FB71     		strb	r3, [r7, #7]
 132:.\Generated_Source\PSoC5/CyDmac.c ****     *DMAC_ERR = 0x0Fu & error;
 161              		.loc 1 132 0
 162 000a 47F20403 		movw	r3, #:lower16:1073770500
 163 000e C4F20003 		movt	r3, #:upper16:1073770500
 164 0012 FA79     		ldrb	r2, [r7, #7]	@ zero_extendqisi2
 165 0014 02F00F02 		and	r2, r2, #15
 166 0018 1A60     		str	r2, [r3, #0]
 133:.\Generated_Source\PSoC5/CyDmac.c **** }
 167              		.loc 1 133 0
 168 001a 07F10C07 		add	r7, r7, #12
 169 001e BD46     		mov	sp, r7
 170 0020 80BC     		pop	{r7}
 171 0022 7047     		bx	lr
 172              		.cfi_endproc
 173              	.LFE2:
 174              		.size	CyDmacClearError, .-CyDmacClearError
 175              		.section	.text.CyDmacErrorAddress,"ax",%progbits
 176              		.align	2
 177              		.global	CyDmacErrorAddress
 178              		.thumb
 179              		.thumb_func
 180              		.type	CyDmacErrorAddress, %function
 181              	CyDmacErrorAddress:
 182              	.LFB3:
 134:.\Generated_Source\PSoC5/CyDmac.c **** 
 135:.\Generated_Source\PSoC5/CyDmac.c **** 
 136:.\Generated_Source\PSoC5/CyDmac.c **** /*******************************************************************************
 137:.\Generated_Source\PSoC5/CyDmac.c **** * Function Name: CyDmacErrorAddress
 138:.\Generated_Source\PSoC5/CyDmac.c **** ********************************************************************************
 139:.\Generated_Source\PSoC5/CyDmac.c **** * Summary:
 140:.\Generated_Source\PSoC5/CyDmac.c **** *   when an BUS_TIMEOUT, UNPOP_ACC and PERIPH_ERR occurs the address
 141:.\Generated_Source\PSoC5/CyDmac.c **** *   of the error is written to the error address register and
 142:.\Generated_Source\PSoC5/CyDmac.c **** *   can be read with this function.
 143:.\Generated_Source\PSoC5/CyDmac.c **** *
 144:.\Generated_Source\PSoC5/CyDmac.c **** *   If there are multiple errors, only the address of the first is
 145:.\Generated_Source\PSoC5/CyDmac.c **** *   saved.
 146:.\Generated_Source\PSoC5/CyDmac.c **** *
 147:.\Generated_Source\PSoC5/CyDmac.c **** * Parameters:
 148:.\Generated_Source\PSoC5/CyDmac.c **** *   void.
 149:.\Generated_Source\PSoC5/CyDmac.c **** *
 150:.\Generated_Source\PSoC5/CyDmac.c **** *
 151:.\Generated_Source\PSoC5/CyDmac.c **** *
 152:.\Generated_Source\PSoC5/CyDmac.c **** * Return:
 153:.\Generated_Source\PSoC5/CyDmac.c **** *   The address that caused the error.
 154:.\Generated_Source\PSoC5/CyDmac.c **** *
 155:.\Generated_Source\PSoC5/CyDmac.c **** *
 156:.\Generated_Source\PSoC5/CyDmac.c **** *******************************************************************************/
ARM GAS  C:\Users\Geo\AppData\Local\Temp\ccnnArMw.s 			page 7


 157:.\Generated_Source\PSoC5/CyDmac.c **** uint32 CyDmacErrorAddress(void) 
 158:.\Generated_Source\PSoC5/CyDmac.c **** {
 183              		.loc 1 158 0
 184              		.cfi_startproc
 185              		@ args = 0, pretend = 0, frame = 0
 186              		@ frame_needed = 1, uses_anonymous_args = 0
 187              		@ link register save eliminated.
 188 0000 80B4     		push	{r7}
 189              	.LCFI8:
 190              		.cfi_def_cfa_offset 4
 191 0002 00AF     		add	r7, sp, #0
 192              		.cfi_offset 7, -4
 193              	.LCFI9:
 194              		.cfi_def_cfa_register 7
 159:.\Generated_Source\PSoC5/CyDmac.c ****     return CY_GET_REG32(DMAC_ERR_ADR);
 195              		.loc 1 159 0
 196 0004 47F20803 		movw	r3, #:lower16:1073770504
 197 0008 C4F20003 		movt	r3, #:upper16:1073770504
 198 000c 1B68     		ldr	r3, [r3, #0]
 160:.\Generated_Source\PSoC5/CyDmac.c **** }
 199              		.loc 1 160 0
 200 000e 1846     		mov	r0, r3
 201 0010 BD46     		mov	sp, r7
 202 0012 80BC     		pop	{r7}
 203 0014 7047     		bx	lr
 204              		.cfi_endproc
 205              	.LFE3:
 206              		.size	CyDmacErrorAddress, .-CyDmacErrorAddress
 207 0016 00BF     		.section	.text.CyDmaChAlloc,"ax",%progbits
 208              		.align	2
 209              		.global	CyDmaChAlloc
 210              		.thumb
 211              		.thumb_func
 212              		.type	CyDmaChAlloc, %function
 213              	CyDmaChAlloc:
 214              	.LFB4:
 161:.\Generated_Source\PSoC5/CyDmac.c **** 
 162:.\Generated_Source\PSoC5/CyDmac.c **** 
 163:.\Generated_Source\PSoC5/CyDmac.c **** /*******************************************************************************
 164:.\Generated_Source\PSoC5/CyDmac.c **** * Function Name: CyDmaChAlloc
 165:.\Generated_Source\PSoC5/CyDmac.c **** ********************************************************************************
 166:.\Generated_Source\PSoC5/CyDmac.c **** * Summary:
 167:.\Generated_Source\PSoC5/CyDmac.c **** *   Allocates a channel of the DMAC to be used by the caller.
 168:.\Generated_Source\PSoC5/CyDmac.c **** *
 169:.\Generated_Source\PSoC5/CyDmac.c **** * Parameters:
 170:.\Generated_Source\PSoC5/CyDmac.c **** *   void.
 171:.\Generated_Source\PSoC5/CyDmac.c **** *
 172:.\Generated_Source\PSoC5/CyDmac.c **** *
 173:.\Generated_Source\PSoC5/CyDmac.c **** *
 174:.\Generated_Source\PSoC5/CyDmac.c **** * Return:
 175:.\Generated_Source\PSoC5/CyDmac.c **** *   The channel that can be used by the caller for DMA activity.
 176:.\Generated_Source\PSoC5/CyDmac.c **** *   DMA_INVALID_CHANNEL if there are no channels left. 
 177:.\Generated_Source\PSoC5/CyDmac.c **** *
 178:.\Generated_Source\PSoC5/CyDmac.c **** *
 179:.\Generated_Source\PSoC5/CyDmac.c **** *******************************************************************************/
 180:.\Generated_Source\PSoC5/CyDmac.c **** uint8 CyDmaChAlloc(void) 
 181:.\Generated_Source\PSoC5/CyDmac.c **** {
ARM GAS  C:\Users\Geo\AppData\Local\Temp\ccnnArMw.s 			page 8


 215              		.loc 1 181 0
 216              		.cfi_startproc
 217              		@ args = 0, pretend = 0, frame = 8
 218              		@ frame_needed = 1, uses_anonymous_args = 0
 219 0000 80B5     		push	{r7, lr}
 220              	.LCFI10:
 221              		.cfi_def_cfa_offset 8
 222 0002 82B0     		sub	sp, sp, #8
 223              	.LCFI11:
 224              		.cfi_def_cfa_offset 16
 225 0004 00AF     		add	r7, sp, #0
 226              		.cfi_offset 14, -4
 227              		.cfi_offset 7, -8
 228              	.LCFI12:
 229              		.cfi_def_cfa_register 7
 182:.\Generated_Source\PSoC5/CyDmac.c ****     uint8 interruptState;
 183:.\Generated_Source\PSoC5/CyDmac.c ****     uint8 index;
 184:.\Generated_Source\PSoC5/CyDmac.c ****     uint32 channel;
 185:.\Generated_Source\PSoC5/CyDmac.c **** 
 186:.\Generated_Source\PSoC5/CyDmac.c **** 
 187:.\Generated_Source\PSoC5/CyDmac.c ****     /* Enter critical section! */
 188:.\Generated_Source\PSoC5/CyDmac.c ****     interruptState = CyEnterCriticalSection();
 230              		.loc 1 188 0
 231 0006 FFF7FEFF 		bl	CyEnterCriticalSection
 232 000a 0346     		mov	r3, r0
 233 000c BB70     		strb	r3, [r7, #2]
 189:.\Generated_Source\PSoC5/CyDmac.c **** 
 190:.\Generated_Source\PSoC5/CyDmac.c ****     /* Look for a free channel. */
 191:.\Generated_Source\PSoC5/CyDmac.c ****     for(index = 0, channel = 1; index < NUMBEROF_CHANNELS; index++, channel <<= 1)
 234              		.loc 1 191 0
 235 000e 4FF00003 		mov	r3, #0
 236 0012 FB70     		strb	r3, [r7, #3]
 237 0014 4FF00103 		mov	r3, #1
 238 0018 7B60     		str	r3, [r7, #4]
 239 001a 1FE0     		b	.L12
 240              	.L15:
 192:.\Generated_Source\PSoC5/CyDmac.c ****     {
 193:.\Generated_Source\PSoC5/CyDmac.c ****         if(!(CyDmaChannels & channel))
 241              		.loc 1 193 0
 242 001c 40F20003 		movw	r3, #:lower16:CyDmaChannels
 243 0020 C0F20003 		movt	r3, #:upper16:CyDmaChannels
 244 0024 1A68     		ldr	r2, [r3, #0]
 245 0026 7B68     		ldr	r3, [r7, #4]
 246 0028 02EA0303 		and	r3, r2, r3
 247 002c 002B     		cmp	r3, #0
 248 002e 0DD1     		bne	.L13
 194:.\Generated_Source\PSoC5/CyDmac.c ****         {
 195:.\Generated_Source\PSoC5/CyDmac.c ****             /* Mark the channel as used. */
 196:.\Generated_Source\PSoC5/CyDmac.c ****             CyDmaChannels |= channel;
 249              		.loc 1 196 0
 250 0030 40F20003 		movw	r3, #:lower16:CyDmaChannels
 251 0034 C0F20003 		movt	r3, #:upper16:CyDmaChannels
 252 0038 1A68     		ldr	r2, [r3, #0]
 253 003a 7B68     		ldr	r3, [r7, #4]
 254 003c 42EA0302 		orr	r2, r2, r3
 255 0040 40F20003 		movw	r3, #:lower16:CyDmaChannels
 256 0044 C0F20003 		movt	r3, #:upper16:CyDmaChannels
ARM GAS  C:\Users\Geo\AppData\Local\Temp\ccnnArMw.s 			page 9


 257 0048 1A60     		str	r2, [r3, #0]
 197:.\Generated_Source\PSoC5/CyDmac.c ****             break;
 258              		.loc 1 197 0
 259 004a 0AE0     		b	.L14
 260              	.L13:
 261              		.loc 1 191 0
 262 004c FB78     		ldrb	r3, [r7, #3]
 263 004e 03F10103 		add	r3, r3, #1
 264 0052 FB70     		strb	r3, [r7, #3]
 265 0054 7B68     		ldr	r3, [r7, #4]
 266 0056 4FEA4303 		lsl	r3, r3, #1
 267 005a 7B60     		str	r3, [r7, #4]
 268              	.L12:
 269 005c FB78     		ldrb	r3, [r7, #3]	@ zero_extendqisi2
 270 005e 172B     		cmp	r3, #23
 271 0060 DCD9     		bls	.L15
 272              	.L14:
 198:.\Generated_Source\PSoC5/CyDmac.c ****         }
 199:.\Generated_Source\PSoC5/CyDmac.c ****     }
 200:.\Generated_Source\PSoC5/CyDmac.c **** 
 201:.\Generated_Source\PSoC5/CyDmac.c ****     if(index >= NUMBEROF_CHANNELS)
 273              		.loc 1 201 0
 274 0062 FB78     		ldrb	r3, [r7, #3]	@ zero_extendqisi2
 275 0064 172B     		cmp	r3, #23
 276 0066 02D9     		bls	.L16
 202:.\Generated_Source\PSoC5/CyDmac.c ****     {
 203:.\Generated_Source\PSoC5/CyDmac.c ****         index = DMA_INVALID_CHANNEL;    
 277              		.loc 1 203 0
 278 0068 4FF0FF33 		mov	r3, #-1
 279 006c FB70     		strb	r3, [r7, #3]
 280              	.L16:
 204:.\Generated_Source\PSoC5/CyDmac.c ****     }
 205:.\Generated_Source\PSoC5/CyDmac.c **** 
 206:.\Generated_Source\PSoC5/CyDmac.c ****     /* Exit critical section! */
 207:.\Generated_Source\PSoC5/CyDmac.c ****     CyExitCriticalSection(interruptState);
 281              		.loc 1 207 0
 282 006e BB78     		ldrb	r3, [r7, #2]	@ zero_extendqisi2
 283 0070 1846     		mov	r0, r3
 284 0072 FFF7FEFF 		bl	CyExitCriticalSection
 208:.\Generated_Source\PSoC5/CyDmac.c **** 
 209:.\Generated_Source\PSoC5/CyDmac.c ****     return index;
 285              		.loc 1 209 0
 286 0076 FB78     		ldrb	r3, [r7, #3]	@ zero_extendqisi2
 210:.\Generated_Source\PSoC5/CyDmac.c **** }
 287              		.loc 1 210 0
 288 0078 1846     		mov	r0, r3
 289 007a 07F10807 		add	r7, r7, #8
 290 007e BD46     		mov	sp, r7
 291 0080 80BD     		pop	{r7, pc}
 292              		.cfi_endproc
 293              	.LFE4:
 294              		.size	CyDmaChAlloc, .-CyDmaChAlloc
 295 0082 00BF     		.section	.text.CyDmaChFree,"ax",%progbits
 296              		.align	2
 297              		.global	CyDmaChFree
 298              		.thumb
 299              		.thumb_func
ARM GAS  C:\Users\Geo\AppData\Local\Temp\ccnnArMw.s 			page 10


 300              		.type	CyDmaChFree, %function
 301              	CyDmaChFree:
 302              	.LFB5:
 211:.\Generated_Source\PSoC5/CyDmac.c **** 
 212:.\Generated_Source\PSoC5/CyDmac.c **** 
 213:.\Generated_Source\PSoC5/CyDmac.c **** /*******************************************************************************
 214:.\Generated_Source\PSoC5/CyDmac.c **** * Function Name: CyDmaChFree
 215:.\Generated_Source\PSoC5/CyDmac.c **** ********************************************************************************
 216:.\Generated_Source\PSoC5/CyDmac.c **** * Summary:
 217:.\Generated_Source\PSoC5/CyDmac.c **** * Frees a channel allocated by DmaChAlloc.
 218:.\Generated_Source\PSoC5/CyDmac.c **** *
 219:.\Generated_Source\PSoC5/CyDmac.c **** * Parameters:
 220:.\Generated_Source\PSoC5/CyDmac.c **** * chHandle:
 221:.\Generated_Source\PSoC5/CyDmac.c **** *   Handle to the DMA channel previously allocated by a call to DmaChAlloc.
 222:.\Generated_Source\PSoC5/CyDmac.c **** *
 223:.\Generated_Source\PSoC5/CyDmac.c **** *
 224:.\Generated_Source\PSoC5/CyDmac.c **** * Return:
 225:.\Generated_Source\PSoC5/CyDmac.c **** *   0 in successful or CYRET_BAD_PARAM.
 226:.\Generated_Source\PSoC5/CyDmac.c **** *
 227:.\Generated_Source\PSoC5/CyDmac.c **** *
 228:.\Generated_Source\PSoC5/CyDmac.c **** *******************************************************************************/
 229:.\Generated_Source\PSoC5/CyDmac.c **** cystatus CyDmaChFree(uint8 chHandle) 
 230:.\Generated_Source\PSoC5/CyDmac.c **** {
 303              		.loc 1 230 0
 304              		.cfi_startproc
 305              		@ args = 0, pretend = 0, frame = 16
 306              		@ frame_needed = 1, uses_anonymous_args = 0
 307 0000 80B5     		push	{r7, lr}
 308              	.LCFI13:
 309              		.cfi_def_cfa_offset 8
 310 0002 84B0     		sub	sp, sp, #16
 311              	.LCFI14:
 312              		.cfi_def_cfa_offset 24
 313 0004 00AF     		add	r7, sp, #0
 314              		.cfi_offset 14, -4
 315              		.cfi_offset 7, -8
 316              	.LCFI15:
 317              		.cfi_def_cfa_register 7
 318 0006 0346     		mov	r3, r0
 319 0008 FB71     		strb	r3, [r7, #7]
 231:.\Generated_Source\PSoC5/CyDmac.c ****     cystatus status;
 232:.\Generated_Source\PSoC5/CyDmac.c **** 
 233:.\Generated_Source\PSoC5/CyDmac.c **** 
 234:.\Generated_Source\PSoC5/CyDmac.c ****     if(chHandle < NUMBEROF_CHANNELS)
 320              		.loc 1 234 0
 321 000a FB79     		ldrb	r3, [r7, #7]	@ zero_extendqisi2
 322 000c 172B     		cmp	r3, #23
 323 000e 1FD8     		bhi	.L19
 324              	.LBB2:
 235:.\Generated_Source\PSoC5/CyDmac.c ****     {
 236:.\Generated_Source\PSoC5/CyDmac.c ****         /* Enter critical section! */
 237:.\Generated_Source\PSoC5/CyDmac.c ****         uint8 interruptState = CyEnterCriticalSection();
 325              		.loc 1 237 0
 326 0010 FFF7FEFF 		bl	CyEnterCriticalSection
 327 0014 0346     		mov	r3, r0
 328 0016 FB73     		strb	r3, [r7, #15]
 238:.\Generated_Source\PSoC5/CyDmac.c **** 
ARM GAS  C:\Users\Geo\AppData\Local\Temp\ccnnArMw.s 			page 11


 239:.\Generated_Source\PSoC5/CyDmac.c ****         /* Clear the bit mask that keeps track of ownership. */
 240:.\Generated_Source\PSoC5/CyDmac.c ****         CyDmaChannels &= ~(1 << chHandle);
 329              		.loc 1 240 0
 330 0018 FB79     		ldrb	r3, [r7, #7]	@ zero_extendqisi2
 331 001a 4FF00102 		mov	r2, #1
 332 001e 02FA03F3 		lsl	r3, r2, r3
 333 0022 6FEA0303 		mvn	r3, r3
 334 0026 1A46     		mov	r2, r3
 335 0028 40F20003 		movw	r3, #:lower16:CyDmaChannels
 336 002c C0F20003 		movt	r3, #:upper16:CyDmaChannels
 337 0030 1B68     		ldr	r3, [r3, #0]
 338 0032 02EA0302 		and	r2, r2, r3
 339 0036 40F20003 		movw	r3, #:lower16:CyDmaChannels
 340 003a C0F20003 		movt	r3, #:upper16:CyDmaChannels
 341 003e 1A60     		str	r2, [r3, #0]
 241:.\Generated_Source\PSoC5/CyDmac.c **** 
 242:.\Generated_Source\PSoC5/CyDmac.c ****         /* Exit critical section! */
 243:.\Generated_Source\PSoC5/CyDmac.c ****         CyExitCriticalSection(interruptState);
 342              		.loc 1 243 0
 343 0040 FB7B     		ldrb	r3, [r7, #15]	@ zero_extendqisi2
 344 0042 1846     		mov	r0, r3
 345 0044 FFF7FEFF 		bl	CyExitCriticalSection
 244:.\Generated_Source\PSoC5/CyDmac.c ****         status = CYRET_SUCCESS;
 346              		.loc 1 244 0
 347 0048 4FF00003 		mov	r3, #0
 348 004c BB60     		str	r3, [r7, #8]
 349 004e 02E0     		b	.L20
 350              	.L19:
 351              	.LBE2:
 245:.\Generated_Source\PSoC5/CyDmac.c ****     }
 246:.\Generated_Source\PSoC5/CyDmac.c ****     else
 247:.\Generated_Source\PSoC5/CyDmac.c ****     {
 248:.\Generated_Source\PSoC5/CyDmac.c ****         status = CYRET_BAD_PARAM;
 352              		.loc 1 248 0
 353 0050 4FF00103 		mov	r3, #1
 354 0054 BB60     		str	r3, [r7, #8]
 355              	.L20:
 249:.\Generated_Source\PSoC5/CyDmac.c ****     }
 250:.\Generated_Source\PSoC5/CyDmac.c **** 
 251:.\Generated_Source\PSoC5/CyDmac.c ****     return status;
 356              		.loc 1 251 0
 357 0056 BB68     		ldr	r3, [r7, #8]
 252:.\Generated_Source\PSoC5/CyDmac.c **** }
 358              		.loc 1 252 0
 359 0058 1846     		mov	r0, r3
 360 005a 07F11007 		add	r7, r7, #16
 361 005e BD46     		mov	sp, r7
 362 0060 80BD     		pop	{r7, pc}
 363              		.cfi_endproc
 364              	.LFE5:
 365              		.size	CyDmaChFree, .-CyDmaChFree
 366 0062 00BF     		.section	.text.CyDmaChEnable,"ax",%progbits
 367              		.align	2
 368              		.global	CyDmaChEnable
 369              		.thumb
 370              		.thumb_func
 371              		.type	CyDmaChEnable, %function
ARM GAS  C:\Users\Geo\AppData\Local\Temp\ccnnArMw.s 			page 12


 372              	CyDmaChEnable:
 373              	.LFB6:
 253:.\Generated_Source\PSoC5/CyDmac.c **** 
 254:.\Generated_Source\PSoC5/CyDmac.c **** 
 255:.\Generated_Source\PSoC5/CyDmac.c **** /*******************************************************************************
 256:.\Generated_Source\PSoC5/CyDmac.c **** * Function Name: CyDmaChEnable
 257:.\Generated_Source\PSoC5/CyDmac.c **** ********************************************************************************
 258:.\Generated_Source\PSoC5/CyDmac.c **** * Summary:
 259:.\Generated_Source\PSoC5/CyDmac.c **** * Enables the DMA channel for execution depending on how it was configured.
 260:.\Generated_Source\PSoC5/CyDmac.c **** *
 261:.\Generated_Source\PSoC5/CyDmac.c **** * Parameters:
 262:.\Generated_Source\PSoC5/CyDmac.c **** * chHandle:
 263:.\Generated_Source\PSoC5/CyDmac.c **** *   Handle to the dma channel to be enabled.
 264:.\Generated_Source\PSoC5/CyDmac.c **** *
 265:.\Generated_Source\PSoC5/CyDmac.c **** * preserveTds;
 266:.\Generated_Source\PSoC5/CyDmac.c **** *   0 if elements of TD should reflect current state of TD execuction.
 267:.\Generated_Source\PSoC5/CyDmac.c **** *   1 if the DMA controller should not change values of the TD.
 268:.\Generated_Source\PSoC5/CyDmac.c **** *
 269:.\Generated_Source\PSoC5/CyDmac.c **** * Return:
 270:.\Generated_Source\PSoC5/CyDmac.c **** *   0 in successful or CYRET_BAD_PARAM.
 271:.\Generated_Source\PSoC5/CyDmac.c **** *
 272:.\Generated_Source\PSoC5/CyDmac.c **** *
 273:.\Generated_Source\PSoC5/CyDmac.c **** *******************************************************************************/
 274:.\Generated_Source\PSoC5/CyDmac.c **** cystatus CyDmaChEnable(uint8 chHandle, uint8 preserveTds) 
 275:.\Generated_Source\PSoC5/CyDmac.c **** {
 374              		.loc 1 275 0
 375              		.cfi_startproc
 376              		@ args = 0, pretend = 0, frame = 16
 377              		@ frame_needed = 1, uses_anonymous_args = 0
 378              		@ link register save eliminated.
 379 0000 80B4     		push	{r7}
 380              	.LCFI16:
 381              		.cfi_def_cfa_offset 4
 382 0002 85B0     		sub	sp, sp, #20
 383              	.LCFI17:
 384              		.cfi_def_cfa_offset 24
 385 0004 00AF     		add	r7, sp, #0
 386              		.cfi_offset 7, -4
 387              	.LCFI18:
 388              		.cfi_def_cfa_register 7
 389 0006 0246     		mov	r2, r0
 390 0008 0B46     		mov	r3, r1
 391 000a FA71     		strb	r2, [r7, #7]
 392 000c BB71     		strb	r3, [r7, #6]
 276:.\Generated_Source\PSoC5/CyDmac.c ****     cystatus status;
 277:.\Generated_Source\PSoC5/CyDmac.c **** 
 278:.\Generated_Source\PSoC5/CyDmac.c **** 
 279:.\Generated_Source\PSoC5/CyDmac.c ****     if(chHandle < NUMBEROF_CHANNELS)
 393              		.loc 1 279 0
 394 000e FB79     		ldrb	r3, [r7, #7]	@ zero_extendqisi2
 395 0010 172B     		cmp	r3, #23
 396 0012 23D8     		bhi	.L23
 280:.\Generated_Source\PSoC5/CyDmac.c ****     {
 281:.\Generated_Source\PSoC5/CyDmac.c ****         DMAC_CH[chHandle].basic_cfg[0] = (DMAC_CH[chHandle].basic_cfg[0] &  ~0x20u) | ((preserveTds
 397              		.loc 1 281 0
 398 0014 FB79     		ldrb	r3, [r7, #7]	@ zero_extendqisi2
 399 0016 4FEA0312 		lsl	r2, r3, #4
ARM GAS  C:\Users\Geo\AppData\Local\Temp\ccnnArMw.s 			page 13


 400 001a 47F21003 		movw	r3, #:lower16:1073770512
 401 001e C4F20003 		movt	r3, #:upper16:1073770512
 402 0022 1344     		add	r3, r2, r3
 403 0024 FA79     		ldrb	r2, [r7, #7]	@ zero_extendqisi2
 404 0026 4FEA0211 		lsl	r1, r2, #4
 405 002a 47F21002 		movw	r2, #:lower16:1073770512
 406 002e C4F20002 		movt	r2, #:upper16:1073770512
 407 0032 0A44     		add	r2, r1, r2
 408 0034 1278     		ldrb	r2, [r2, #0]
 409 0036 D2B2     		uxtb	r2, r2
 410 0038 02F0DF02 		and	r2, r2, #223
 411 003c B979     		ldrb	r1, [r7, #6]	@ zero_extendqisi2
 412 003e 0029     		cmp	r1, #0
 413 0040 02D0     		beq	.L24
 414 0042 4FF02101 		mov	r1, #33
 415 0046 01E0     		b	.L25
 416              	.L24:
 417 0048 4FF00101 		mov	r1, #1
 418              	.L25:
 419 004c 42EA0102 		orr	r2, r2, r1
 420 0050 D2B2     		uxtb	r2, r2
 421 0052 1A70     		strb	r2, [r3, #0]
 282:.\Generated_Source\PSoC5/CyDmac.c ****         status = CYRET_SUCCESS;
 422              		.loc 1 282 0
 423 0054 4FF00003 		mov	r3, #0
 424 0058 FB60     		str	r3, [r7, #12]
 425 005a 02E0     		b	.L26
 426              	.L23:
 283:.\Generated_Source\PSoC5/CyDmac.c ****     }
 284:.\Generated_Source\PSoC5/CyDmac.c ****     else
 285:.\Generated_Source\PSoC5/CyDmac.c ****     {
 286:.\Generated_Source\PSoC5/CyDmac.c ****         status = CYRET_BAD_PARAM;
 427              		.loc 1 286 0
 428 005c 4FF00103 		mov	r3, #1
 429 0060 FB60     		str	r3, [r7, #12]
 430              	.L26:
 287:.\Generated_Source\PSoC5/CyDmac.c ****     }
 288:.\Generated_Source\PSoC5/CyDmac.c **** 
 289:.\Generated_Source\PSoC5/CyDmac.c ****     return status;
 431              		.loc 1 289 0
 432 0062 FB68     		ldr	r3, [r7, #12]
 290:.\Generated_Source\PSoC5/CyDmac.c **** }
 433              		.loc 1 290 0
 434 0064 1846     		mov	r0, r3
 435 0066 07F11407 		add	r7, r7, #20
 436 006a BD46     		mov	sp, r7
 437 006c 80BC     		pop	{r7}
 438 006e 7047     		bx	lr
 439              		.cfi_endproc
 440              	.LFE6:
 441              		.size	CyDmaChEnable, .-CyDmaChEnable
 442              		.section	.text.CyDmaChDisable,"ax",%progbits
 443              		.align	2
 444              		.global	CyDmaChDisable
 445              		.thumb
 446              		.thumb_func
 447              		.type	CyDmaChDisable, %function
ARM GAS  C:\Users\Geo\AppData\Local\Temp\ccnnArMw.s 			page 14


 448              	CyDmaChDisable:
 449              	.LFB7:
 291:.\Generated_Source\PSoC5/CyDmac.c **** 
 292:.\Generated_Source\PSoC5/CyDmac.c **** 
 293:.\Generated_Source\PSoC5/CyDmac.c **** /*******************************************************************************
 294:.\Generated_Source\PSoC5/CyDmac.c **** * Function Name: CyDmaChDisable
 295:.\Generated_Source\PSoC5/CyDmac.c **** ********************************************************************************
 296:.\Generated_Source\PSoC5/CyDmac.c **** * Summary:
 297:.\Generated_Source\PSoC5/CyDmac.c **** *   Disables the DMA channel.
 298:.\Generated_Source\PSoC5/CyDmac.c **** *
 299:.\Generated_Source\PSoC5/CyDmac.c **** * Parameters:
 300:.\Generated_Source\PSoC5/CyDmac.c **** * chHandle:
 301:.\Generated_Source\PSoC5/CyDmac.c **** *   Handle to the dma channel.
 302:.\Generated_Source\PSoC5/CyDmac.c **** *
 303:.\Generated_Source\PSoC5/CyDmac.c **** *
 304:.\Generated_Source\PSoC5/CyDmac.c **** * Return:
 305:.\Generated_Source\PSoC5/CyDmac.c **** *   0 in successful or CYRET_BAD_PARAM.
 306:.\Generated_Source\PSoC5/CyDmac.c **** *
 307:.\Generated_Source\PSoC5/CyDmac.c **** * Theory:
 308:.\Generated_Source\PSoC5/CyDmac.c **** *   Once this function has been called. DmaChStatus can be polled
 309:.\Generated_Source\PSoC5/CyDmac.c **** *   to determine when the Channel has been disabled and determine
 310:.\Generated_Source\PSoC5/CyDmac.c **** *   which TD was being executed.
 311:.\Generated_Source\PSoC5/CyDmac.c **** *
 312:.\Generated_Source\PSoC5/CyDmac.c **** *   If it is currently executing it will
 313:.\Generated_Source\PSoC5/CyDmac.c **** *   allow the current burst to finish naturally.
 314:.\Generated_Source\PSoC5/CyDmac.c **** *
 315:.\Generated_Source\PSoC5/CyDmac.c **** *******************************************************************************/
 316:.\Generated_Source\PSoC5/CyDmac.c **** cystatus CyDmaChDisable(uint8 chHandle) 
 317:.\Generated_Source\PSoC5/CyDmac.c **** {
 450              		.loc 1 317 0
 451              		.cfi_startproc
 452              		@ args = 0, pretend = 0, frame = 16
 453              		@ frame_needed = 1, uses_anonymous_args = 0
 454              		@ link register save eliminated.
 455 0000 80B4     		push	{r7}
 456              	.LCFI19:
 457              		.cfi_def_cfa_offset 4
 458 0002 85B0     		sub	sp, sp, #20
 459              	.LCFI20:
 460              		.cfi_def_cfa_offset 24
 461 0004 00AF     		add	r7, sp, #0
 462              		.cfi_offset 7, -4
 463              	.LCFI21:
 464              		.cfi_def_cfa_register 7
 465 0006 0346     		mov	r3, r0
 466 0008 FB71     		strb	r3, [r7, #7]
 318:.\Generated_Source\PSoC5/CyDmac.c ****     cystatus status;
 319:.\Generated_Source\PSoC5/CyDmac.c **** 
 320:.\Generated_Source\PSoC5/CyDmac.c **** 
 321:.\Generated_Source\PSoC5/CyDmac.c ****     if(chHandle < NUMBEROF_CHANNELS)
 467              		.loc 1 321 0
 468 000a FB79     		ldrb	r3, [r7, #7]	@ zero_extendqisi2
 469 000c 172B     		cmp	r3, #23
 470 000e 18D8     		bhi	.L29
 322:.\Generated_Source\PSoC5/CyDmac.c ****     {
 323:.\Generated_Source\PSoC5/CyDmac.c ****         DMAC_CH[chHandle].basic_cfg[0] &= ~0x21u;
 471              		.loc 1 323 0
ARM GAS  C:\Users\Geo\AppData\Local\Temp\ccnnArMw.s 			page 15


 472 0010 FB79     		ldrb	r3, [r7, #7]	@ zero_extendqisi2
 473 0012 4FEA0312 		lsl	r2, r3, #4
 474 0016 47F21003 		movw	r3, #:lower16:1073770512
 475 001a C4F20003 		movt	r3, #:upper16:1073770512
 476 001e 1344     		add	r3, r2, r3
 477 0020 FA79     		ldrb	r2, [r7, #7]	@ zero_extendqisi2
 478 0022 4FEA0211 		lsl	r1, r2, #4
 479 0026 47F21002 		movw	r2, #:lower16:1073770512
 480 002a C4F20002 		movt	r2, #:upper16:1073770512
 481 002e 0A44     		add	r2, r1, r2
 482 0030 1278     		ldrb	r2, [r2, #0]
 483 0032 D2B2     		uxtb	r2, r2
 484 0034 02F0DE02 		and	r2, r2, #222
 485 0038 1A70     		strb	r2, [r3, #0]
 324:.\Generated_Source\PSoC5/CyDmac.c ****         status = CYRET_SUCCESS;
 486              		.loc 1 324 0
 487 003a 4FF00003 		mov	r3, #0
 488 003e FB60     		str	r3, [r7, #12]
 489 0040 02E0     		b	.L30
 490              	.L29:
 325:.\Generated_Source\PSoC5/CyDmac.c ****     }
 326:.\Generated_Source\PSoC5/CyDmac.c ****     else
 327:.\Generated_Source\PSoC5/CyDmac.c ****     {
 328:.\Generated_Source\PSoC5/CyDmac.c ****         status = CYRET_BAD_PARAM;
 491              		.loc 1 328 0
 492 0042 4FF00103 		mov	r3, #1
 493 0046 FB60     		str	r3, [r7, #12]
 494              	.L30:
 329:.\Generated_Source\PSoC5/CyDmac.c ****     }
 330:.\Generated_Source\PSoC5/CyDmac.c **** 
 331:.\Generated_Source\PSoC5/CyDmac.c ****     return status;
 495              		.loc 1 331 0
 496 0048 FB68     		ldr	r3, [r7, #12]
 332:.\Generated_Source\PSoC5/CyDmac.c **** }
 497              		.loc 1 332 0
 498 004a 1846     		mov	r0, r3
 499 004c 07F11407 		add	r7, r7, #20
 500 0050 BD46     		mov	sp, r7
 501 0052 80BC     		pop	{r7}
 502 0054 7047     		bx	lr
 503              		.cfi_endproc
 504              	.LFE7:
 505              		.size	CyDmaChDisable, .-CyDmaChDisable
 506 0056 00BF     		.section	.text.CyDmaClearPendingDrq,"ax",%progbits
 507              		.align	2
 508              		.global	CyDmaClearPendingDrq
 509              		.thumb
 510              		.thumb_func
 511              		.type	CyDmaClearPendingDrq, %function
 512              	CyDmaClearPendingDrq:
 513              	.LFB8:
 333:.\Generated_Source\PSoC5/CyDmac.c **** 
 334:.\Generated_Source\PSoC5/CyDmac.c **** /*******************************************************************************
 335:.\Generated_Source\PSoC5/CyDmac.c **** * Function Name: CyDmaClearPendingDrq
 336:.\Generated_Source\PSoC5/CyDmac.c **** ********************************************************************************
 337:.\Generated_Source\PSoC5/CyDmac.c **** * Summary:
 338:.\Generated_Source\PSoC5/CyDmac.c **** *   Clears pending DMA data request.
ARM GAS  C:\Users\Geo\AppData\Local\Temp\ccnnArMw.s 			page 16


 339:.\Generated_Source\PSoC5/CyDmac.c **** *
 340:.\Generated_Source\PSoC5/CyDmac.c **** * Parameters:
 341:.\Generated_Source\PSoC5/CyDmac.c **** * chHandle:
 342:.\Generated_Source\PSoC5/CyDmac.c **** *   Handle to the dma channel.
 343:.\Generated_Source\PSoC5/CyDmac.c **** *
 344:.\Generated_Source\PSoC5/CyDmac.c **** *
 345:.\Generated_Source\PSoC5/CyDmac.c **** * Return:
 346:.\Generated_Source\PSoC5/CyDmac.c **** *   0 in successful or CYRET_BAD_PARAM.
 347:.\Generated_Source\PSoC5/CyDmac.c **** *
 348:.\Generated_Source\PSoC5/CyDmac.c **** *******************************************************************************/
 349:.\Generated_Source\PSoC5/CyDmac.c **** cystatus CyDmaClearPendingDrq(uint8 chHandle) 
 350:.\Generated_Source\PSoC5/CyDmac.c **** {
 514              		.loc 1 350 0
 515              		.cfi_startproc
 516              		@ args = 0, pretend = 0, frame = 16
 517              		@ frame_needed = 1, uses_anonymous_args = 0
 518              		@ link register save eliminated.
 519 0000 80B4     		push	{r7}
 520              	.LCFI22:
 521              		.cfi_def_cfa_offset 4
 522 0002 85B0     		sub	sp, sp, #20
 523              	.LCFI23:
 524              		.cfi_def_cfa_offset 24
 525 0004 00AF     		add	r7, sp, #0
 526              		.cfi_offset 7, -4
 527              	.LCFI24:
 528              		.cfi_def_cfa_register 7
 529 0006 0346     		mov	r3, r0
 530 0008 FB71     		strb	r3, [r7, #7]
 351:.\Generated_Source\PSoC5/CyDmac.c ****     cystatus status;
 352:.\Generated_Source\PSoC5/CyDmac.c ****     
 353:.\Generated_Source\PSoC5/CyDmac.c ****     if(chHandle < NUMBEROF_CHANNELS)
 531              		.loc 1 353 0
 532 000a FB79     		ldrb	r3, [r7, #7]	@ zero_extendqisi2
 533 000c 172B     		cmp	r3, #23
 534 000e 2FD8     		bhi	.L33
 354:.\Generated_Source\PSoC5/CyDmac.c ****     {
 355:.\Generated_Source\PSoC5/CyDmac.c ****         DMAC_CH[chHandle].action[0] |= CPU_TERM_CHAIN;
 535              		.loc 1 355 0
 536 0010 FB79     		ldrb	r3, [r7, #7]	@ zero_extendqisi2
 537 0012 4FEA0312 		lsl	r2, r3, #4
 538 0016 47F21003 		movw	r3, #:lower16:1073770512
 539 001a C4F20003 		movt	r3, #:upper16:1073770512
 540 001e 1344     		add	r3, r2, r3
 541 0020 FA79     		ldrb	r2, [r7, #7]	@ zero_extendqisi2
 542 0022 4FEA0211 		lsl	r1, r2, #4
 543 0026 47F21002 		movw	r2, #:lower16:1073770512
 544 002a C4F20002 		movt	r2, #:upper16:1073770512
 545 002e 0A44     		add	r2, r1, r2
 546 0030 1279     		ldrb	r2, [r2, #4]
 547 0032 D2B2     		uxtb	r2, r2
 548 0034 42F00402 		orr	r2, r2, #4
 549 0038 D2B2     		uxtb	r2, r2
 550 003a 1A71     		strb	r2, [r3, #4]
 356:.\Generated_Source\PSoC5/CyDmac.c ****         DMAC_CH[chHandle].basic_cfg[0] |= 0x01u;
 551              		.loc 1 356 0
 552 003c FB79     		ldrb	r3, [r7, #7]	@ zero_extendqisi2
ARM GAS  C:\Users\Geo\AppData\Local\Temp\ccnnArMw.s 			page 17


 553 003e 4FEA0312 		lsl	r2, r3, #4
 554 0042 47F21003 		movw	r3, #:lower16:1073770512
 555 0046 C4F20003 		movt	r3, #:upper16:1073770512
 556 004a 1344     		add	r3, r2, r3
 557 004c FA79     		ldrb	r2, [r7, #7]	@ zero_extendqisi2
 558 004e 4FEA0211 		lsl	r1, r2, #4
 559 0052 47F21002 		movw	r2, #:lower16:1073770512
 560 0056 C4F20002 		movt	r2, #:upper16:1073770512
 561 005a 0A44     		add	r2, r1, r2
 562 005c 1278     		ldrb	r2, [r2, #0]
 563 005e D2B2     		uxtb	r2, r2
 564 0060 42F00102 		orr	r2, r2, #1
 565 0064 D2B2     		uxtb	r2, r2
 566 0066 1A70     		strb	r2, [r3, #0]
 357:.\Generated_Source\PSoC5/CyDmac.c ****         status = CYRET_SUCCESS;
 567              		.loc 1 357 0
 568 0068 4FF00003 		mov	r3, #0
 569 006c FB60     		str	r3, [r7, #12]
 570 006e 02E0     		b	.L34
 571              	.L33:
 358:.\Generated_Source\PSoC5/CyDmac.c ****     }
 359:.\Generated_Source\PSoC5/CyDmac.c ****     else
 360:.\Generated_Source\PSoC5/CyDmac.c ****     {
 361:.\Generated_Source\PSoC5/CyDmac.c ****         status = CYRET_BAD_PARAM;
 572              		.loc 1 361 0
 573 0070 4FF00103 		mov	r3, #1
 574 0074 FB60     		str	r3, [r7, #12]
 575              	.L34:
 362:.\Generated_Source\PSoC5/CyDmac.c ****     }
 363:.\Generated_Source\PSoC5/CyDmac.c ****     
 364:.\Generated_Source\PSoC5/CyDmac.c ****     return status;
 576              		.loc 1 364 0
 577 0076 FB68     		ldr	r3, [r7, #12]
 365:.\Generated_Source\PSoC5/CyDmac.c **** }
 578              		.loc 1 365 0
 579 0078 1846     		mov	r0, r3
 580 007a 07F11407 		add	r7, r7, #20
 581 007e BD46     		mov	sp, r7
 582 0080 80BC     		pop	{r7}
 583 0082 7047     		bx	lr
 584              		.cfi_endproc
 585              	.LFE8:
 586              		.size	CyDmaClearPendingDrq, .-CyDmaClearPendingDrq
 587              		.section	.text.CyDmaChPriority,"ax",%progbits
 588              		.align	2
 589              		.global	CyDmaChPriority
 590              		.thumb
 591              		.thumb_func
 592              		.type	CyDmaChPriority, %function
 593              	CyDmaChPriority:
 594              	.LFB9:
 366:.\Generated_Source\PSoC5/CyDmac.c **** 
 367:.\Generated_Source\PSoC5/CyDmac.c **** 
 368:.\Generated_Source\PSoC5/CyDmac.c **** /*******************************************************************************
 369:.\Generated_Source\PSoC5/CyDmac.c **** * Function Name: CyDmaChPriority
 370:.\Generated_Source\PSoC5/CyDmac.c **** ********************************************************************************
 371:.\Generated_Source\PSoC5/CyDmac.c **** * Summary:
ARM GAS  C:\Users\Geo\AppData\Local\Temp\ccnnArMw.s 			page 18


 372:.\Generated_Source\PSoC5/CyDmac.c **** * Sets the priority of a DMA channel.
 373:.\Generated_Source\PSoC5/CyDmac.c **** *
 374:.\Generated_Source\PSoC5/CyDmac.c **** * Parameters:
 375:.\Generated_Source\PSoC5/CyDmac.c **** * chHandle:
 376:.\Generated_Source\PSoC5/CyDmac.c **** *   Handle to the dma channel.
 377:.\Generated_Source\PSoC5/CyDmac.c **** *
 378:.\Generated_Source\PSoC5/CyDmac.c **** * priority:
 379:.\Generated_Source\PSoC5/CyDmac.c **** *   Priority to set the channel to, 0 - 7.
 380:.\Generated_Source\PSoC5/CyDmac.c **** *
 381:.\Generated_Source\PSoC5/CyDmac.c **** *
 382:.\Generated_Source\PSoC5/CyDmac.c **** *
 383:.\Generated_Source\PSoC5/CyDmac.c **** * Return:
 384:.\Generated_Source\PSoC5/CyDmac.c **** *   0 in successful or CYRET_BAD_PARAM.
 385:.\Generated_Source\PSoC5/CyDmac.c **** *
 386:.\Generated_Source\PSoC5/CyDmac.c **** *
 387:.\Generated_Source\PSoC5/CyDmac.c **** *******************************************************************************/
 388:.\Generated_Source\PSoC5/CyDmac.c **** cystatus CyDmaChPriority(uint8 chHandle, uint8 priority) 
 389:.\Generated_Source\PSoC5/CyDmac.c **** {
 595              		.loc 1 389 0
 596              		.cfi_startproc
 597              		@ args = 0, pretend = 0, frame = 16
 598              		@ frame_needed = 1, uses_anonymous_args = 0
 599              		@ link register save eliminated.
 600 0000 80B4     		push	{r7}
 601              	.LCFI25:
 602              		.cfi_def_cfa_offset 4
 603 0002 85B0     		sub	sp, sp, #20
 604              	.LCFI26:
 605              		.cfi_def_cfa_offset 24
 606 0004 00AF     		add	r7, sp, #0
 607              		.cfi_offset 7, -4
 608              	.LCFI27:
 609              		.cfi_def_cfa_register 7
 610 0006 0246     		mov	r2, r0
 611 0008 0B46     		mov	r3, r1
 612 000a FA71     		strb	r2, [r7, #7]
 613 000c BB71     		strb	r3, [r7, #6]
 390:.\Generated_Source\PSoC5/CyDmac.c ****     uint8 Value;
 391:.\Generated_Source\PSoC5/CyDmac.c ****     cystatus status;
 392:.\Generated_Source\PSoC5/CyDmac.c **** 
 393:.\Generated_Source\PSoC5/CyDmac.c **** 
 394:.\Generated_Source\PSoC5/CyDmac.c ****     if(chHandle < NUMBEROF_CHANNELS)
 614              		.loc 1 394 0
 615 000e FB79     		ldrb	r3, [r7, #7]	@ zero_extendqisi2
 616 0010 172B     		cmp	r3, #23
 617 0012 23D8     		bhi	.L37
 395:.\Generated_Source\PSoC5/CyDmac.c ****     {
 396:.\Generated_Source\PSoC5/CyDmac.c ****         Value = DMAC_CH[chHandle].basic_cfg[0] & ~(0x0Eu);
 618              		.loc 1 396 0
 619 0014 FB79     		ldrb	r3, [r7, #7]	@ zero_extendqisi2
 620 0016 4FEA0312 		lsl	r2, r3, #4
 621 001a 47F21003 		movw	r3, #:lower16:1073770512
 622 001e C4F20003 		movt	r3, #:upper16:1073770512
 623 0022 1344     		add	r3, r2, r3
 624 0024 1B78     		ldrb	r3, [r3, #0]
 625 0026 DBB2     		uxtb	r3, r3
 626 0028 23F00E03 		bic	r3, r3, #14
ARM GAS  C:\Users\Geo\AppData\Local\Temp\ccnnArMw.s 			page 19


 627 002c FB72     		strb	r3, [r7, #11]
 397:.\Generated_Source\PSoC5/CyDmac.c ****         DMAC_CH[chHandle].basic_cfg[0] = Value | ((priority & 0x7u) << 0x01u);
 628              		.loc 1 397 0
 629 002e FB79     		ldrb	r3, [r7, #7]	@ zero_extendqisi2
 630 0030 4FEA0312 		lsl	r2, r3, #4
 631 0034 47F21003 		movw	r3, #:lower16:1073770512
 632 0038 C4F20003 		movt	r3, #:upper16:1073770512
 633 003c 1344     		add	r3, r2, r3
 634 003e BA79     		ldrb	r2, [r7, #6]	@ zero_extendqisi2
 635 0040 02F00702 		and	r2, r2, #7
 636 0044 4FEA4202 		lsl	r2, r2, #1
 637 0048 D1B2     		uxtb	r1, r2
 638 004a FA7A     		ldrb	r2, [r7, #11]
 639 004c 41EA0202 		orr	r2, r1, r2
 640 0050 D2B2     		uxtb	r2, r2
 641 0052 1A70     		strb	r2, [r3, #0]
 398:.\Generated_Source\PSoC5/CyDmac.c ****         status = CYRET_SUCCESS;
 642              		.loc 1 398 0
 643 0054 4FF00003 		mov	r3, #0
 644 0058 FB60     		str	r3, [r7, #12]
 645 005a 02E0     		b	.L38
 646              	.L37:
 399:.\Generated_Source\PSoC5/CyDmac.c ****     }
 400:.\Generated_Source\PSoC5/CyDmac.c ****     else
 401:.\Generated_Source\PSoC5/CyDmac.c ****     {
 402:.\Generated_Source\PSoC5/CyDmac.c ****         status = CYRET_BAD_PARAM;
 647              		.loc 1 402 0
 648 005c 4FF00103 		mov	r3, #1
 649 0060 FB60     		str	r3, [r7, #12]
 650              	.L38:
 403:.\Generated_Source\PSoC5/CyDmac.c ****     }
 404:.\Generated_Source\PSoC5/CyDmac.c **** 
 405:.\Generated_Source\PSoC5/CyDmac.c ****     return status;
 651              		.loc 1 405 0
 652 0062 FB68     		ldr	r3, [r7, #12]
 406:.\Generated_Source\PSoC5/CyDmac.c **** }
 653              		.loc 1 406 0
 654 0064 1846     		mov	r0, r3
 655 0066 07F11407 		add	r7, r7, #20
 656 006a BD46     		mov	sp, r7
 657 006c 80BC     		pop	{r7}
 658 006e 7047     		bx	lr
 659              		.cfi_endproc
 660              	.LFE9:
 661              		.size	CyDmaChPriority, .-CyDmaChPriority
 662              		.section	.text.CyDmaChSetExtendedAddress,"ax",%progbits
 663              		.align	2
 664              		.global	CyDmaChSetExtendedAddress
 665              		.thumb
 666              		.thumb_func
 667              		.type	CyDmaChSetExtendedAddress, %function
 668              	CyDmaChSetExtendedAddress:
 669              	.LFB10:
 407:.\Generated_Source\PSoC5/CyDmac.c **** 
 408:.\Generated_Source\PSoC5/CyDmac.c **** 
 409:.\Generated_Source\PSoC5/CyDmac.c **** /*******************************************************************************
 410:.\Generated_Source\PSoC5/CyDmac.c **** * Function Name: CyDmaChSetExtendedAddress
ARM GAS  C:\Users\Geo\AppData\Local\Temp\ccnnArMw.s 			page 20


 411:.\Generated_Source\PSoC5/CyDmac.c **** ********************************************************************************
 412:.\Generated_Source\PSoC5/CyDmac.c **** * Summary:
 413:.\Generated_Source\PSoC5/CyDmac.c **** *   Sets the high 16 bits of the source and destination addresses for
 414:.\Generated_Source\PSoC5/CyDmac.c **** *   the DMA channel (all TD's in the chain).
 415:.\Generated_Source\PSoC5/CyDmac.c **** *
 416:.\Generated_Source\PSoC5/CyDmac.c **** * Parameters:
 417:.\Generated_Source\PSoC5/CyDmac.c **** * chHandle:
 418:.\Generated_Source\PSoC5/CyDmac.c **** *   Handle to the dma channel.
 419:.\Generated_Source\PSoC5/CyDmac.c **** *
 420:.\Generated_Source\PSoC5/CyDmac.c **** * source:
 421:.\Generated_Source\PSoC5/CyDmac.c **** *   The source of the DMA transfer.
 422:.\Generated_Source\PSoC5/CyDmac.c **** *
 423:.\Generated_Source\PSoC5/CyDmac.c **** * destination:
 424:.\Generated_Source\PSoC5/CyDmac.c **** *   The destination of the DMA transfer.
 425:.\Generated_Source\PSoC5/CyDmac.c **** *
 426:.\Generated_Source\PSoC5/CyDmac.c **** *
 427:.\Generated_Source\PSoC5/CyDmac.c **** *
 428:.\Generated_Source\PSoC5/CyDmac.c **** * Return:
 429:.\Generated_Source\PSoC5/CyDmac.c **** *   0 in successful or CYRET_BAD_PARAM.
 430:.\Generated_Source\PSoC5/CyDmac.c **** *
 431:.\Generated_Source\PSoC5/CyDmac.c **** *
 432:.\Generated_Source\PSoC5/CyDmac.c **** *******************************************************************************/
 433:.\Generated_Source\PSoC5/CyDmac.c **** cystatus CyDmaChSetExtendedAddress(uint8 chHandle, uint16 source, uint16 destination) 
 434:.\Generated_Source\PSoC5/CyDmac.c **** {
 670              		.loc 1 434 0
 671              		.cfi_startproc
 672              		@ args = 0, pretend = 0, frame = 16
 673              		@ frame_needed = 1, uses_anonymous_args = 0
 674              		@ link register save eliminated.
 675 0000 80B4     		push	{r7}
 676              	.LCFI28:
 677              		.cfi_def_cfa_offset 4
 678 0002 85B0     		sub	sp, sp, #20
 679              	.LCFI29:
 680              		.cfi_def_cfa_offset 24
 681 0004 00AF     		add	r7, sp, #0
 682              		.cfi_offset 7, -4
 683              	.LCFI30:
 684              		.cfi_def_cfa_register 7
 685 0006 1346     		mov	r3, r2
 686 0008 0246     		mov	r2, r0
 687 000a FA71     		strb	r2, [r7, #7]
 688 000c 0A46     		mov	r2, r1	@ movhi
 689 000e BA80     		strh	r2, [r7, #4]	@ movhi
 690 0010 7B80     		strh	r3, [r7, #2]	@ movhi
 435:.\Generated_Source\PSoC5/CyDmac.c ****     cystatus status;
 436:.\Generated_Source\PSoC5/CyDmac.c **** 
 437:.\Generated_Source\PSoC5/CyDmac.c **** #if CYDEV_CHIP_MEMBER_USED == CYDEV_CHIP_MEMBER_5A
 438:.\Generated_Source\PSoC5/CyDmac.c ****     /* 0x1FFF8000-0x1FFFFFFF needs to use alias at 0x20008000-0x2000FFFF */
 439:.\Generated_Source\PSoC5/CyDmac.c ****     if (source == 0x1FFF)
 691              		.loc 1 439 0
 692 0012 BA88     		ldrh	r2, [r7, #4]
 693 0014 41F6FF73 		movw	r3, #8191
 694 0018 9A42     		cmp	r2, r3
 695 001a 02D1     		bne	.L41
 440:.\Generated_Source\PSoC5/CyDmac.c ****         source = 0x2000;
 696              		.loc 1 440 0
ARM GAS  C:\Users\Geo\AppData\Local\Temp\ccnnArMw.s 			page 21


 697 001c 4FF40053 		mov	r3, #8192
 698 0020 BB80     		strh	r3, [r7, #4]	@ movhi
 699              	.L41:
 441:.\Generated_Source\PSoC5/CyDmac.c ****     if (destination == 0x1FFF)
 700              		.loc 1 441 0
 701 0022 7A88     		ldrh	r2, [r7, #2]
 702 0024 41F6FF73 		movw	r3, #8191
 703 0028 9A42     		cmp	r2, r3
 704 002a 02D1     		bne	.L42
 442:.\Generated_Source\PSoC5/CyDmac.c ****         destination = 0x2000;
 705              		.loc 1 442 0
 706 002c 4FF40053 		mov	r3, #8192
 707 0030 7B80     		strh	r3, [r7, #2]	@ movhi
 708              	.L42:
 443:.\Generated_Source\PSoC5/CyDmac.c **** #endif
 444:.\Generated_Source\PSoC5/CyDmac.c **** 
 445:.\Generated_Source\PSoC5/CyDmac.c ****     if(chHandle < NUMBEROF_CHANNELS)
 709              		.loc 1 445 0
 710 0032 FB79     		ldrb	r3, [r7, #7]	@ zero_extendqisi2
 711 0034 172B     		cmp	r3, #23
 712 0036 1DD8     		bhi	.L43
 713              	.LBB3:
 446:.\Generated_Source\PSoC5/CyDmac.c ****     {
 447:.\Generated_Source\PSoC5/CyDmac.c ****         /* Set Source address. */
 448:.\Generated_Source\PSoC5/CyDmac.c ****         CONVERT_WORD *convert = (CONVERT_WORD *)&DMAC_CFGMEM[chHandle].CFG1[0];
 714              		.loc 1 448 0
 715 0038 FB79     		ldrb	r3, [r7, #7]	@ zero_extendqisi2
 716 003a 4FEAC303 		lsl	r3, r3, #3
 717 003e 03F18043 		add	r3, r3, #1073741824
 718 0042 03F5EC43 		add	r3, r3, #30208
 719 0046 03F10403 		add	r3, r3, #4
 720 004a FB60     		str	r3, [r7, #12]
 449:.\Generated_Source\PSoC5/CyDmac.c ****         CY_SET_REG16(&convert->word, source);
 721              		.loc 1 449 0
 722 004c FB68     		ldr	r3, [r7, #12]
 723 004e BA88     		ldrh	r2, [r7, #4]	@ movhi
 724 0050 1A80     		strh	r2, [r3, #0]	@ movhi
 450:.\Generated_Source\PSoC5/CyDmac.c **** 
 451:.\Generated_Source\PSoC5/CyDmac.c ****         /* Set Destination address. */
 452:.\Generated_Source\PSoC5/CyDmac.c ****         CY_SET_REG16((reg16 *) &DMAC_CFGMEM[chHandle].CFG1[2], destination);
 725              		.loc 1 452 0
 726 0052 FB79     		ldrb	r3, [r7, #7]	@ zero_extendqisi2
 727 0054 4FEAC303 		lsl	r3, r3, #3
 728 0058 03F18043 		add	r3, r3, #1073741824
 729 005c 03F5EC43 		add	r3, r3, #30208
 730 0060 03F10403 		add	r3, r3, #4
 731 0064 03F10203 		add	r3, r3, #2
 732 0068 7A88     		ldrh	r2, [r7, #2]	@ movhi
 733 006a 1A80     		strh	r2, [r3, #0]	@ movhi
 453:.\Generated_Source\PSoC5/CyDmac.c ****         status = CYRET_SUCCESS;
 734              		.loc 1 453 0
 735 006c 4FF00003 		mov	r3, #0
 736 0070 BB60     		str	r3, [r7, #8]
 737 0072 02E0     		b	.L44
 738              	.L43:
 739              	.LBE3:
 454:.\Generated_Source\PSoC5/CyDmac.c ****     }
ARM GAS  C:\Users\Geo\AppData\Local\Temp\ccnnArMw.s 			page 22


 455:.\Generated_Source\PSoC5/CyDmac.c ****     else
 456:.\Generated_Source\PSoC5/CyDmac.c ****     {
 457:.\Generated_Source\PSoC5/CyDmac.c ****         status = CYRET_BAD_PARAM;
 740              		.loc 1 457 0
 741 0074 4FF00103 		mov	r3, #1
 742 0078 BB60     		str	r3, [r7, #8]
 743              	.L44:
 458:.\Generated_Source\PSoC5/CyDmac.c ****     }
 459:.\Generated_Source\PSoC5/CyDmac.c **** 
 460:.\Generated_Source\PSoC5/CyDmac.c ****     return status;
 744              		.loc 1 460 0
 745 007a BB68     		ldr	r3, [r7, #8]
 461:.\Generated_Source\PSoC5/CyDmac.c **** }
 746              		.loc 1 461 0
 747 007c 1846     		mov	r0, r3
 748 007e 07F11407 		add	r7, r7, #20
 749 0082 BD46     		mov	sp, r7
 750 0084 80BC     		pop	{r7}
 751 0086 7047     		bx	lr
 752              		.cfi_endproc
 753              	.LFE10:
 754              		.size	CyDmaChSetExtendedAddress, .-CyDmaChSetExtendedAddress
 755              		.section	.text.CyDmaChSetInitialTd,"ax",%progbits
 756              		.align	2
 757              		.global	CyDmaChSetInitialTd
 758              		.thumb
 759              		.thumb_func
 760              		.type	CyDmaChSetInitialTd, %function
 761              	CyDmaChSetInitialTd:
 762              	.LFB11:
 462:.\Generated_Source\PSoC5/CyDmac.c **** 
 463:.\Generated_Source\PSoC5/CyDmac.c **** 
 464:.\Generated_Source\PSoC5/CyDmac.c **** /*******************************************************************************
 465:.\Generated_Source\PSoC5/CyDmac.c **** * Function Name: CyDmaChSetTd
 466:.\Generated_Source\PSoC5/CyDmac.c **** ********************************************************************************
 467:.\Generated_Source\PSoC5/CyDmac.c **** * Summary:
 468:.\Generated_Source\PSoC5/CyDmac.c **** * Set the initial TD for the channel.
 469:.\Generated_Source\PSoC5/CyDmac.c **** *
 470:.\Generated_Source\PSoC5/CyDmac.c **** * Parameters:
 471:.\Generated_Source\PSoC5/CyDmac.c **** * chHandle:
 472:.\Generated_Source\PSoC5/CyDmac.c **** *   Handle to the dma channel.
 473:.\Generated_Source\PSoC5/CyDmac.c **** *
 474:.\Generated_Source\PSoC5/CyDmac.c **** * startTd:
 475:.\Generated_Source\PSoC5/CyDmac.c **** *   Index of TD to set as the first TD associated with the Channel.
 476:.\Generated_Source\PSoC5/CyDmac.c **** *
 477:.\Generated_Source\PSoC5/CyDmac.c **** *
 478:.\Generated_Source\PSoC5/CyDmac.c **** * Return:
 479:.\Generated_Source\PSoC5/CyDmac.c **** *   0 in successful or CYRET_BAD_PARAM.
 480:.\Generated_Source\PSoC5/CyDmac.c **** *
 481:.\Generated_Source\PSoC5/CyDmac.c **** *
 482:.\Generated_Source\PSoC5/CyDmac.c **** *******************************************************************************/
 483:.\Generated_Source\PSoC5/CyDmac.c **** cystatus CyDmaChSetInitialTd(uint8 chHandle, uint8 startTd) 
 484:.\Generated_Source\PSoC5/CyDmac.c **** {
 763              		.loc 1 484 0
 764              		.cfi_startproc
 765              		@ args = 0, pretend = 0, frame = 16
 766              		@ frame_needed = 1, uses_anonymous_args = 0
ARM GAS  C:\Users\Geo\AppData\Local\Temp\ccnnArMw.s 			page 23


 767              		@ link register save eliminated.
 768 0000 80B4     		push	{r7}
 769              	.LCFI31:
 770              		.cfi_def_cfa_offset 4
 771 0002 85B0     		sub	sp, sp, #20
 772              	.LCFI32:
 773              		.cfi_def_cfa_offset 24
 774 0004 00AF     		add	r7, sp, #0
 775              		.cfi_offset 7, -4
 776              	.LCFI33:
 777              		.cfi_def_cfa_register 7
 778 0006 0246     		mov	r2, r0
 779 0008 0B46     		mov	r3, r1
 780 000a FA71     		strb	r2, [r7, #7]
 781 000c BB71     		strb	r3, [r7, #6]
 485:.\Generated_Source\PSoC5/CyDmac.c ****     cystatus status;
 486:.\Generated_Source\PSoC5/CyDmac.c **** 
 487:.\Generated_Source\PSoC5/CyDmac.c **** 
 488:.\Generated_Source\PSoC5/CyDmac.c ****     if(chHandle < NUMBEROF_CHANNELS)
 782              		.loc 1 488 0
 783 000e FB79     		ldrb	r3, [r7, #7]	@ zero_extendqisi2
 784 0010 172B     		cmp	r3, #23
 785 0012 0DD8     		bhi	.L47
 489:.\Generated_Source\PSoC5/CyDmac.c ****     {
 490:.\Generated_Source\PSoC5/CyDmac.c ****         DMAC_CH[chHandle].basic_status[1] = startTd;
 786              		.loc 1 490 0
 787 0014 FB79     		ldrb	r3, [r7, #7]	@ zero_extendqisi2
 788 0016 4FEA0312 		lsl	r2, r3, #4
 789 001a 47F21003 		movw	r3, #:lower16:1073770512
 790 001e C4F20003 		movt	r3, #:upper16:1073770512
 791 0022 1344     		add	r3, r2, r3
 792 0024 BA79     		ldrb	r2, [r7, #6]
 793 0026 5A72     		strb	r2, [r3, #9]
 491:.\Generated_Source\PSoC5/CyDmac.c ****         status = CYRET_SUCCESS;
 794              		.loc 1 491 0
 795 0028 4FF00003 		mov	r3, #0
 796 002c FB60     		str	r3, [r7, #12]
 797 002e 02E0     		b	.L48
 798              	.L47:
 492:.\Generated_Source\PSoC5/CyDmac.c ****     }
 493:.\Generated_Source\PSoC5/CyDmac.c ****     else
 494:.\Generated_Source\PSoC5/CyDmac.c ****     {
 495:.\Generated_Source\PSoC5/CyDmac.c ****         status = CYRET_BAD_PARAM;
 799              		.loc 1 495 0
 800 0030 4FF00103 		mov	r3, #1
 801 0034 FB60     		str	r3, [r7, #12]
 802              	.L48:
 496:.\Generated_Source\PSoC5/CyDmac.c ****     }
 497:.\Generated_Source\PSoC5/CyDmac.c **** 
 498:.\Generated_Source\PSoC5/CyDmac.c ****     return status;
 803              		.loc 1 498 0
 804 0036 FB68     		ldr	r3, [r7, #12]
 499:.\Generated_Source\PSoC5/CyDmac.c **** }
 805              		.loc 1 499 0
 806 0038 1846     		mov	r0, r3
 807 003a 07F11407 		add	r7, r7, #20
 808 003e BD46     		mov	sp, r7
ARM GAS  C:\Users\Geo\AppData\Local\Temp\ccnnArMw.s 			page 24


 809 0040 80BC     		pop	{r7}
 810 0042 7047     		bx	lr
 811              		.cfi_endproc
 812              	.LFE11:
 813              		.size	CyDmaChSetInitialTd, .-CyDmaChSetInitialTd
 814              		.section	.text.CyDmaChSetRequest,"ax",%progbits
 815              		.align	2
 816              		.global	CyDmaChSetRequest
 817              		.thumb
 818              		.thumb_func
 819              		.type	CyDmaChSetRequest, %function
 820              	CyDmaChSetRequest:
 821              	.LFB12:
 500:.\Generated_Source\PSoC5/CyDmac.c **** 
 501:.\Generated_Source\PSoC5/CyDmac.c **** 
 502:.\Generated_Source\PSoC5/CyDmac.c **** /*******************************************************************************
 503:.\Generated_Source\PSoC5/CyDmac.c **** * Function Name: CyDmaChSetRequest
 504:.\Generated_Source\PSoC5/CyDmac.c **** ********************************************************************************
 505:.\Generated_Source\PSoC5/CyDmac.c **** * Summary:
 506:.\Generated_Source\PSoC5/CyDmac.c **** *   Allows the caller to terminate a chain of TD's, terminate one TD or
 507:.\Generated_Source\PSoC5/CyDmac.c **** *   Create a direct request to start the DMA channel.
 508:.\Generated_Source\PSoC5/CyDmac.c **** *
 509:.\Generated_Source\PSoC5/CyDmac.c **** * Parameters:
 510:.\Generated_Source\PSoC5/CyDmac.c **** * chHandle:
 511:.\Generated_Source\PSoC5/CyDmac.c **** *   Handle to the dma channel.
 512:.\Generated_Source\PSoC5/CyDmac.c **** *
 513:.\Generated_Source\PSoC5/CyDmac.c **** * request:
 514:.\Generated_Source\PSoC5/CyDmac.c **** *   3 bit field describing the request.
 515:.\Generated_Source\PSoC5/CyDmac.c **** *
 516:.\Generated_Source\PSoC5/CyDmac.c **** *   CPU_REQ       
 517:.\Generated_Source\PSoC5/CyDmac.c **** *   CPU_TERM_TD   
 518:.\Generated_Source\PSoC5/CyDmac.c **** *   CPU_TERM_CHAIN
 519:.\Generated_Source\PSoC5/CyDmac.c **** *
 520:.\Generated_Source\PSoC5/CyDmac.c **** *
 521:.\Generated_Source\PSoC5/CyDmac.c **** * Return:
 522:.\Generated_Source\PSoC5/CyDmac.c **** *   0 in successful or CYRET_BAD_PARAM.
 523:.\Generated_Source\PSoC5/CyDmac.c **** *
 524:.\Generated_Source\PSoC5/CyDmac.c **** *
 525:.\Generated_Source\PSoC5/CyDmac.c **** *******************************************************************************/
 526:.\Generated_Source\PSoC5/CyDmac.c **** cystatus CyDmaChSetRequest(uint8 chHandle, uint8 request) 
 527:.\Generated_Source\PSoC5/CyDmac.c **** {
 822              		.loc 1 527 0
 823              		.cfi_startproc
 824              		@ args = 0, pretend = 0, frame = 16
 825              		@ frame_needed = 1, uses_anonymous_args = 0
 826              		@ link register save eliminated.
 827 0000 80B4     		push	{r7}
 828              	.LCFI34:
 829              		.cfi_def_cfa_offset 4
 830 0002 85B0     		sub	sp, sp, #20
 831              	.LCFI35:
 832              		.cfi_def_cfa_offset 24
 833 0004 00AF     		add	r7, sp, #0
 834              		.cfi_offset 7, -4
 835              	.LCFI36:
 836              		.cfi_def_cfa_register 7
 837 0006 0246     		mov	r2, r0
ARM GAS  C:\Users\Geo\AppData\Local\Temp\ccnnArMw.s 			page 25


 838 0008 0B46     		mov	r3, r1
 839 000a FA71     		strb	r2, [r7, #7]
 840 000c BB71     		strb	r3, [r7, #6]
 528:.\Generated_Source\PSoC5/CyDmac.c ****     cystatus status;
 529:.\Generated_Source\PSoC5/CyDmac.c **** 
 530:.\Generated_Source\PSoC5/CyDmac.c **** 
 531:.\Generated_Source\PSoC5/CyDmac.c ****     if(chHandle < NUMBEROF_CHANNELS)
 841              		.loc 1 531 0
 842 000e FB79     		ldrb	r3, [r7, #7]	@ zero_extendqisi2
 843 0010 172B     		cmp	r3, #23
 844 0012 1FD8     		bhi	.L51
 532:.\Generated_Source\PSoC5/CyDmac.c ****     {
 533:.\Generated_Source\PSoC5/CyDmac.c ****         DMAC_CH[chHandle].action[0] |= (request & (CPU_REQ | CPU_TERM_TD | CPU_TERM_CHAIN));
 845              		.loc 1 533 0
 846 0014 FB79     		ldrb	r3, [r7, #7]	@ zero_extendqisi2
 847 0016 4FEA0312 		lsl	r2, r3, #4
 848 001a 47F21003 		movw	r3, #:lower16:1073770512
 849 001e C4F20003 		movt	r3, #:upper16:1073770512
 850 0022 1344     		add	r3, r2, r3
 851 0024 FA79     		ldrb	r2, [r7, #7]	@ zero_extendqisi2
 852 0026 4FEA0211 		lsl	r1, r2, #4
 853 002a 47F21002 		movw	r2, #:lower16:1073770512
 854 002e C4F20002 		movt	r2, #:upper16:1073770512
 855 0032 0A44     		add	r2, r1, r2
 856 0034 1279     		ldrb	r2, [r2, #4]
 857 0036 D2B2     		uxtb	r2, r2
 858 0038 1146     		mov	r1, r2
 859 003a BA79     		ldrb	r2, [r7, #6]	@ zero_extendqisi2
 860 003c D2B2     		uxtb	r2, r2
 861 003e 02F00702 		and	r2, r2, #7
 862 0042 41EA0202 		orr	r2, r1, r2
 863 0046 D2B2     		uxtb	r2, r2
 864 0048 D2B2     		uxtb	r2, r2
 865 004a 1A71     		strb	r2, [r3, #4]
 534:.\Generated_Source\PSoC5/CyDmac.c ****         status = CYRET_SUCCESS;
 866              		.loc 1 534 0
 867 004c 4FF00003 		mov	r3, #0
 868 0050 FB60     		str	r3, [r7, #12]
 869 0052 02E0     		b	.L52
 870              	.L51:
 535:.\Generated_Source\PSoC5/CyDmac.c ****     }
 536:.\Generated_Source\PSoC5/CyDmac.c ****     else
 537:.\Generated_Source\PSoC5/CyDmac.c ****     {
 538:.\Generated_Source\PSoC5/CyDmac.c ****         status = CYRET_BAD_PARAM;
 871              		.loc 1 538 0
 872 0054 4FF00103 		mov	r3, #1
 873 0058 FB60     		str	r3, [r7, #12]
 874              	.L52:
 539:.\Generated_Source\PSoC5/CyDmac.c ****     }
 540:.\Generated_Source\PSoC5/CyDmac.c **** 
 541:.\Generated_Source\PSoC5/CyDmac.c ****     return status;
 875              		.loc 1 541 0
 876 005a FB68     		ldr	r3, [r7, #12]
 542:.\Generated_Source\PSoC5/CyDmac.c **** }
 877              		.loc 1 542 0
 878 005c 1846     		mov	r0, r3
 879 005e 07F11407 		add	r7, r7, #20
ARM GAS  C:\Users\Geo\AppData\Local\Temp\ccnnArMw.s 			page 26


 880 0062 BD46     		mov	sp, r7
 881 0064 80BC     		pop	{r7}
 882 0066 7047     		bx	lr
 883              		.cfi_endproc
 884              	.LFE12:
 885              		.size	CyDmaChSetRequest, .-CyDmaChSetRequest
 886              		.section	.text.CyDmaChGetRequest,"ax",%progbits
 887              		.align	2
 888              		.global	CyDmaChGetRequest
 889              		.thumb
 890              		.thumb_func
 891              		.type	CyDmaChGetRequest, %function
 892              	CyDmaChGetRequest:
 893              	.LFB13:
 543:.\Generated_Source\PSoC5/CyDmac.c **** 
 544:.\Generated_Source\PSoC5/CyDmac.c **** 
 545:.\Generated_Source\PSoC5/CyDmac.c **** /*******************************************************************************
 546:.\Generated_Source\PSoC5/CyDmac.c **** * Function Name: CyDmaChGetRequest
 547:.\Generated_Source\PSoC5/CyDmac.c **** ********************************************************************************
 548:.\Generated_Source\PSoC5/CyDmac.c **** * Summary:
 549:.\Generated_Source\PSoC5/CyDmac.c **** *   Allows the caller of DmaChSetRequest to check if the request was
 550:.\Generated_Source\PSoC5/CyDmac.c **** *   satisfied.
 551:.\Generated_Source\PSoC5/CyDmac.c **** *
 552:.\Generated_Source\PSoC5/CyDmac.c **** * Parameters:
 553:.\Generated_Source\PSoC5/CyDmac.c **** * chHandle:
 554:.\Generated_Source\PSoC5/CyDmac.c **** *   Handle to the dma channel.
 555:.\Generated_Source\PSoC5/CyDmac.c **** *
 556:.\Generated_Source\PSoC5/CyDmac.c **** *
 557:.\Generated_Source\PSoC5/CyDmac.c **** *
 558:.\Generated_Source\PSoC5/CyDmac.c **** * Return:
 559:.\Generated_Source\PSoC5/CyDmac.c **** *   The state of the 3 bit field describing the requests previous
 560:.\Generated_Source\PSoC5/CyDmac.c **** *   request. If the bit is cleared the request has be satisfied.
 561:.\Generated_Source\PSoC5/CyDmac.c **** *
 562:.\Generated_Source\PSoC5/CyDmac.c **** *   DMA_INVALID_CHANNEL if the handle is invalid.
 563:.\Generated_Source\PSoC5/CyDmac.c **** *
 564:.\Generated_Source\PSoC5/CyDmac.c **** *
 565:.\Generated_Source\PSoC5/CyDmac.c **** *******************************************************************************/
 566:.\Generated_Source\PSoC5/CyDmac.c **** cystatus CyDmaChGetRequest(uint8 chHandle) 
 567:.\Generated_Source\PSoC5/CyDmac.c **** {
 894              		.loc 1 567 0
 895              		.cfi_startproc
 896              		@ args = 0, pretend = 0, frame = 16
 897              		@ frame_needed = 1, uses_anonymous_args = 0
 898              		@ link register save eliminated.
 899 0000 80B4     		push	{r7}
 900              	.LCFI37:
 901              		.cfi_def_cfa_offset 4
 902 0002 85B0     		sub	sp, sp, #20
 903              	.LCFI38:
 904              		.cfi_def_cfa_offset 24
 905 0004 00AF     		add	r7, sp, #0
 906              		.cfi_offset 7, -4
 907              	.LCFI39:
 908              		.cfi_def_cfa_register 7
 909 0006 0346     		mov	r3, r0
 910 0008 FB71     		strb	r3, [r7, #7]
 568:.\Generated_Source\PSoC5/CyDmac.c ****     cystatus status;
ARM GAS  C:\Users\Geo\AppData\Local\Temp\ccnnArMw.s 			page 27


 569:.\Generated_Source\PSoC5/CyDmac.c **** 
 570:.\Generated_Source\PSoC5/CyDmac.c **** 
 571:.\Generated_Source\PSoC5/CyDmac.c ****     if(chHandle < NUMBEROF_CHANNELS)
 911              		.loc 1 571 0
 912 000a FB79     		ldrb	r3, [r7, #7]	@ zero_extendqisi2
 913 000c 172B     		cmp	r3, #23
 914 000e 0DD8     		bhi	.L55
 572:.\Generated_Source\PSoC5/CyDmac.c ****     {
 573:.\Generated_Source\PSoC5/CyDmac.c ****         status = DMAC_CH[chHandle].action[0] & (CPU_REQ | CPU_TERM_TD | CPU_TERM_CHAIN);
 915              		.loc 1 573 0
 916 0010 FB79     		ldrb	r3, [r7, #7]	@ zero_extendqisi2
 917 0012 4FEA0312 		lsl	r2, r3, #4
 918 0016 47F21003 		movw	r3, #:lower16:1073770512
 919 001a C4F20003 		movt	r3, #:upper16:1073770512
 920 001e 1344     		add	r3, r2, r3
 921 0020 1B79     		ldrb	r3, [r3, #4]
 922 0022 DBB2     		uxtb	r3, r3
 923 0024 03F00703 		and	r3, r3, #7
 924 0028 FB60     		str	r3, [r7, #12]
 925 002a 02E0     		b	.L56
 926              	.L55:
 574:.\Generated_Source\PSoC5/CyDmac.c ****     }
 575:.\Generated_Source\PSoC5/CyDmac.c ****     else
 576:.\Generated_Source\PSoC5/CyDmac.c ****     {
 577:.\Generated_Source\PSoC5/CyDmac.c ****         status = DMA_INVALID_CHANNEL;
 927              		.loc 1 577 0
 928 002c 4FF0FF03 		mov	r3, #255
 929 0030 FB60     		str	r3, [r7, #12]
 930              	.L56:
 578:.\Generated_Source\PSoC5/CyDmac.c ****     }
 579:.\Generated_Source\PSoC5/CyDmac.c **** 
 580:.\Generated_Source\PSoC5/CyDmac.c ****     return status;
 931              		.loc 1 580 0
 932 0032 FB68     		ldr	r3, [r7, #12]
 581:.\Generated_Source\PSoC5/CyDmac.c **** }
 933              		.loc 1 581 0
 934 0034 1846     		mov	r0, r3
 935 0036 07F11407 		add	r7, r7, #20
 936 003a BD46     		mov	sp, r7
 937 003c 80BC     		pop	{r7}
 938 003e 7047     		bx	lr
 939              		.cfi_endproc
 940              	.LFE13:
 941              		.size	CyDmaChGetRequest, .-CyDmaChGetRequest
 942              		.section	.text.CyDmaChStatus,"ax",%progbits
 943              		.align	2
 944              		.global	CyDmaChStatus
 945              		.thumb
 946              		.thumb_func
 947              		.type	CyDmaChStatus, %function
 948              	CyDmaChStatus:
 949              	.LFB14:
 582:.\Generated_Source\PSoC5/CyDmac.c **** 
 583:.\Generated_Source\PSoC5/CyDmac.c **** 
 584:.\Generated_Source\PSoC5/CyDmac.c **** /*******************************************************************************
 585:.\Generated_Source\PSoC5/CyDmac.c **** * Function Name: CyDmaChStatus
 586:.\Generated_Source\PSoC5/CyDmac.c **** ********************************************************************************
ARM GAS  C:\Users\Geo\AppData\Local\Temp\ccnnArMw.s 			page 28


 587:.\Generated_Source\PSoC5/CyDmac.c **** * Summary:
 588:.\Generated_Source\PSoC5/CyDmac.c **** *   Determines the status of the current Transfer descriptor.
 589:.\Generated_Source\PSoC5/CyDmac.c **** *
 590:.\Generated_Source\PSoC5/CyDmac.c **** * Parameters:
 591:.\Generated_Source\PSoC5/CyDmac.c **** * chHandle:
 592:.\Generated_Source\PSoC5/CyDmac.c **** *   Handle to the dma channel.
 593:.\Generated_Source\PSoC5/CyDmac.c **** *
 594:.\Generated_Source\PSoC5/CyDmac.c **** * currentTd:
 595:.\Generated_Source\PSoC5/CyDmac.c **** *   Address to store the Index of the current Transfer Descriptor.
 596:.\Generated_Source\PSoC5/CyDmac.c **** *   Can be NULL if the value is not needed.
 597:.\Generated_Source\PSoC5/CyDmac.c **** *
 598:.\Generated_Source\PSoC5/CyDmac.c **** * state:
 599:.\Generated_Source\PSoC5/CyDmac.c **** *   Address to store the State of the Channel.
 600:.\Generated_Source\PSoC5/CyDmac.c **** *   Can be NULL if the value is not needed.
 601:.\Generated_Source\PSoC5/CyDmac.c **** *
 602:.\Generated_Source\PSoC5/CyDmac.c **** *
 603:.\Generated_Source\PSoC5/CyDmac.c **** * Return:
 604:.\Generated_Source\PSoC5/CyDmac.c **** *   0 in successful or CYRET_BAD_PARAM.
 605:.\Generated_Source\PSoC5/CyDmac.c **** *   
 606:.\Generated_Source\PSoC5/CyDmac.c **** *
 607:.\Generated_Source\PSoC5/CyDmac.c **** * Theory:
 608:.\Generated_Source\PSoC5/CyDmac.c **** *   The caller can check on the activity of the Current TD and the
 609:.\Generated_Source\PSoC5/CyDmac.c **** *   Chain.
 610:.\Generated_Source\PSoC5/CyDmac.c **** *
 611:.\Generated_Source\PSoC5/CyDmac.c **** *******************************************************************************/
 612:.\Generated_Source\PSoC5/CyDmac.c **** cystatus CyDmaChStatus(uint8 chHandle, uint8 * currentTd, uint8 * state) 
 613:.\Generated_Source\PSoC5/CyDmac.c **** {
 950              		.loc 1 613 0
 951              		.cfi_startproc
 952              		@ args = 0, pretend = 0, frame = 24
 953              		@ frame_needed = 1, uses_anonymous_args = 0
 954              		@ link register save eliminated.
 955 0000 80B4     		push	{r7}
 956              	.LCFI40:
 957              		.cfi_def_cfa_offset 4
 958 0002 87B0     		sub	sp, sp, #28
 959              	.LCFI41:
 960              		.cfi_def_cfa_offset 32
 961 0004 00AF     		add	r7, sp, #0
 962              		.cfi_offset 7, -4
 963              	.LCFI42:
 964              		.cfi_def_cfa_register 7
 965 0006 0346     		mov	r3, r0
 966 0008 B960     		str	r1, [r7, #8]
 967 000a 7A60     		str	r2, [r7, #4]
 968 000c FB73     		strb	r3, [r7, #15]
 614:.\Generated_Source\PSoC5/CyDmac.c ****     cystatus status;
 615:.\Generated_Source\PSoC5/CyDmac.c **** 
 616:.\Generated_Source\PSoC5/CyDmac.c **** 
 617:.\Generated_Source\PSoC5/CyDmac.c ****     if(chHandle < NUMBEROF_CHANNELS)
 969              		.loc 1 617 0
 970 000e FB7B     		ldrb	r3, [r7, #15]	@ zero_extendqisi2
 971 0010 172B     		cmp	r3, #23
 972 0012 23D8     		bhi	.L59
 618:.\Generated_Source\PSoC5/CyDmac.c ****     {
 619:.\Generated_Source\PSoC5/CyDmac.c ****         if(currentTd)
 973              		.loc 1 619 0
ARM GAS  C:\Users\Geo\AppData\Local\Temp\ccnnArMw.s 			page 29


 974 0014 BB68     		ldr	r3, [r7, #8]
 975 0016 002B     		cmp	r3, #0
 976 0018 0DD0     		beq	.L60
 620:.\Generated_Source\PSoC5/CyDmac.c ****         {
 621:.\Generated_Source\PSoC5/CyDmac.c ****             *currentTd = DMAC_CH[chHandle].basic_status[1] & 0x7Fu;
 977              		.loc 1 621 0
 978 001a FB7B     		ldrb	r3, [r7, #15]	@ zero_extendqisi2
 979 001c 4FEA0312 		lsl	r2, r3, #4
 980 0020 47F21003 		movw	r3, #:lower16:1073770512
 981 0024 C4F20003 		movt	r3, #:upper16:1073770512
 982 0028 1344     		add	r3, r2, r3
 983 002a 5B7A     		ldrb	r3, [r3, #9]
 984 002c DBB2     		uxtb	r3, r3
 985 002e 03F07F03 		and	r3, r3, #127
 986 0032 BA68     		ldr	r2, [r7, #8]
 987 0034 1370     		strb	r3, [r2, #0]
 988              	.L60:
 622:.\Generated_Source\PSoC5/CyDmac.c ****         }
 623:.\Generated_Source\PSoC5/CyDmac.c **** 
 624:.\Generated_Source\PSoC5/CyDmac.c ****         if(state)
 989              		.loc 1 624 0
 990 0036 7B68     		ldr	r3, [r7, #4]
 991 0038 002B     		cmp	r3, #0
 992 003a 0BD0     		beq	.L61
 625:.\Generated_Source\PSoC5/CyDmac.c ****         {
 626:.\Generated_Source\PSoC5/CyDmac.c ****             *state= DMAC_CH[chHandle].basic_status[0];
 993              		.loc 1 626 0
 994 003c FB7B     		ldrb	r3, [r7, #15]	@ zero_extendqisi2
 995 003e 4FEA0312 		lsl	r2, r3, #4
 996 0042 47F21003 		movw	r3, #:lower16:1073770512
 997 0046 C4F20003 		movt	r3, #:upper16:1073770512
 998 004a 1344     		add	r3, r2, r3
 999 004c 1B7A     		ldrb	r3, [r3, #8]
 1000 004e DAB2     		uxtb	r2, r3
 1001 0050 7B68     		ldr	r3, [r7, #4]
 1002 0052 1A70     		strb	r2, [r3, #0]
 1003              	.L61:
 627:.\Generated_Source\PSoC5/CyDmac.c ****         }
 628:.\Generated_Source\PSoC5/CyDmac.c **** 
 629:.\Generated_Source\PSoC5/CyDmac.c ****         status = CYRET_SUCCESS;
 1004              		.loc 1 629 0
 1005 0054 4FF00003 		mov	r3, #0
 1006 0058 7B61     		str	r3, [r7, #20]
 1007 005a 02E0     		b	.L62
 1008              	.L59:
 630:.\Generated_Source\PSoC5/CyDmac.c ****     }
 631:.\Generated_Source\PSoC5/CyDmac.c ****     else
 632:.\Generated_Source\PSoC5/CyDmac.c ****     {
 633:.\Generated_Source\PSoC5/CyDmac.c ****         status = CYRET_BAD_PARAM;
 1009              		.loc 1 633 0
 1010 005c 4FF00103 		mov	r3, #1
 1011 0060 7B61     		str	r3, [r7, #20]
 1012              	.L62:
 634:.\Generated_Source\PSoC5/CyDmac.c ****     }
 635:.\Generated_Source\PSoC5/CyDmac.c **** 
 636:.\Generated_Source\PSoC5/CyDmac.c ****     return status;
 1013              		.loc 1 636 0
ARM GAS  C:\Users\Geo\AppData\Local\Temp\ccnnArMw.s 			page 30


 1014 0062 7B69     		ldr	r3, [r7, #20]
 637:.\Generated_Source\PSoC5/CyDmac.c **** }
 1015              		.loc 1 637 0
 1016 0064 1846     		mov	r0, r3
 1017 0066 07F11C07 		add	r7, r7, #28
 1018 006a BD46     		mov	sp, r7
 1019 006c 80BC     		pop	{r7}
 1020 006e 7047     		bx	lr
 1021              		.cfi_endproc
 1022              	.LFE14:
 1023              		.size	CyDmaChStatus, .-CyDmaChStatus
 1024              		.section	.text.CyDmaChSetConfiguration,"ax",%progbits
 1025              		.align	2
 1026              		.global	CyDmaChSetConfiguration
 1027              		.thumb
 1028              		.thumb_func
 1029              		.type	CyDmaChSetConfiguration, %function
 1030              	CyDmaChSetConfiguration:
 1031              	.LFB15:
 638:.\Generated_Source\PSoC5/CyDmac.c **** 
 639:.\Generated_Source\PSoC5/CyDmac.c **** 
 640:.\Generated_Source\PSoC5/CyDmac.c **** /*******************************************************************************
 641:.\Generated_Source\PSoC5/CyDmac.c **** * Function Name: CyDmaChSetConfiguration
 642:.\Generated_Source\PSoC5/CyDmac.c **** ********************************************************************************
 643:.\Generated_Source\PSoC5/CyDmac.c **** * Summary:
 644:.\Generated_Source\PSoC5/CyDmac.c **** * Sets Configuration information for the channel.
 645:.\Generated_Source\PSoC5/CyDmac.c **** *
 646:.\Generated_Source\PSoC5/CyDmac.c **** * Parameters:
 647:.\Generated_Source\PSoC5/CyDmac.c **** * chHandle:
 648:.\Generated_Source\PSoC5/CyDmac.c **** *   Handle to the dma channel.
 649:.\Generated_Source\PSoC5/CyDmac.c **** *
 650:.\Generated_Source\PSoC5/CyDmac.c **** * burstCount:
 651:.\Generated_Source\PSoC5/CyDmac.c **** *   Number of bytes in a burst. Valid value 0-127
 652:.\Generated_Source\PSoC5/CyDmac.c **** *
 653:.\Generated_Source\PSoC5/CyDmac.c **** * requestPerBurst:
 654:.\Generated_Source\PSoC5/CyDmac.c **** *   A DMA request is required per burst.
 655:.\Generated_Source\PSoC5/CyDmac.c **** *
 656:.\Generated_Source\PSoC5/CyDmac.c **** * tdDone0:
 657:.\Generated_Source\PSoC5/CyDmac.c **** *   Selects one of the TERMOUT0 interrupt lines to signal completion.
 658:.\Generated_Source\PSoC5/CyDmac.c **** *
 659:.\Generated_Source\PSoC5/CyDmac.c **** * tdDone1:
 660:.\Generated_Source\PSoC5/CyDmac.c **** *   Selects one of the TERMOUT1 interrupt lines to signal complete.
 661:.\Generated_Source\PSoC5/CyDmac.c **** *
 662:.\Generated_Source\PSoC5/CyDmac.c **** *
 663:.\Generated_Source\PSoC5/CyDmac.c **** * tdStop:
 664:.\Generated_Source\PSoC5/CyDmac.c **** *   Selects one of the TERMIN interrupt lines to signal to the DMAC
 665:.\Generated_Source\PSoC5/CyDmac.c **** *   that the TD should terminate.
 666:.\Generated_Source\PSoC5/CyDmac.c **** *
 667:.\Generated_Source\PSoC5/CyDmac.c **** * Return:
 668:.\Generated_Source\PSoC5/CyDmac.c **** *   0 in successful or CYRET_BAD_PARAM.
 669:.\Generated_Source\PSoC5/CyDmac.c **** *
 670:.\Generated_Source\PSoC5/CyDmac.c **** *
 671:.\Generated_Source\PSoC5/CyDmac.c **** *******************************************************************************/
 672:.\Generated_Source\PSoC5/CyDmac.c **** cystatus CyDmaChSetConfiguration(uint8 chHandle, uint8 burstCount, uint8 requestPerBurst, uint8 tdD
 673:.\Generated_Source\PSoC5/CyDmac.c **** {
 1032              		.loc 1 673 0
 1033              		.cfi_startproc
ARM GAS  C:\Users\Geo\AppData\Local\Temp\ccnnArMw.s 			page 31


 1034              		@ args = 8, pretend = 0, frame = 16
 1035              		@ frame_needed = 1, uses_anonymous_args = 0
 1036              		@ link register save eliminated.
 1037 0000 80B4     		push	{r7}
 1038              	.LCFI43:
 1039              		.cfi_def_cfa_offset 4
 1040 0002 85B0     		sub	sp, sp, #20
 1041              	.LCFI44:
 1042              		.cfi_def_cfa_offset 24
 1043 0004 00AF     		add	r7, sp, #0
 1044              		.cfi_offset 7, -4
 1045              	.LCFI45:
 1046              		.cfi_def_cfa_register 7
 1047 0006 F871     		strb	r0, [r7, #7]
 1048 0008 B971     		strb	r1, [r7, #6]
 1049 000a 7A71     		strb	r2, [r7, #5]
 1050 000c 3B71     		strb	r3, [r7, #4]
 674:.\Generated_Source\PSoC5/CyDmac.c ****     cystatus status;
 675:.\Generated_Source\PSoC5/CyDmac.c **** 
 676:.\Generated_Source\PSoC5/CyDmac.c ****     
 677:.\Generated_Source\PSoC5/CyDmac.c ****     if(chHandle < NUMBEROF_CHANNELS)
 1051              		.loc 1 677 0
 1052 000e FB79     		ldrb	r3, [r7, #7]	@ zero_extendqisi2
 1053 0010 172B     		cmp	r3, #23
 1054 0012 3CD8     		bhi	.L65
 678:.\Generated_Source\PSoC5/CyDmac.c ****     {
 679:.\Generated_Source\PSoC5/CyDmac.c ****         DMAC_CFGMEM[chHandle].CFG0[0] = (burstCount & 0x7Fu) | ((requestPerBurst & 0x1u) << 7);
 1055              		.loc 1 679 0
 1056 0014 FB79     		ldrb	r3, [r7, #7]	@ zero_extendqisi2
 1057 0016 4FEAC303 		lsl	r3, r3, #3
 1058 001a 03F18043 		add	r3, r3, #1073741824
 1059 001e 03F5EC43 		add	r3, r3, #30208
 1060 0022 BA79     		ldrb	r2, [r7, #6]	@ zero_extendqisi2
 1061 0024 02F07F02 		and	r2, r2, #127
 1062 0028 7979     		ldrb	r1, [r7, #5]
 1063 002a 4FEAC111 		lsl	r1, r1, #7
 1064 002e C9B2     		uxtb	r1, r1
 1065 0030 42EA0102 		orr	r2, r2, r1
 1066 0034 D2B2     		uxtb	r2, r2
 1067 0036 1A70     		strb	r2, [r3, #0]
 680:.\Generated_Source\PSoC5/CyDmac.c ****         DMAC_CFGMEM[chHandle].CFG0[1] = ((tdDone1 & 0xFu) << 4) | (tdDone0 & 0xFu);
 1068              		.loc 1 680 0
 1069 0038 FB79     		ldrb	r3, [r7, #7]	@ zero_extendqisi2
 1070 003a 4FEAC303 		lsl	r3, r3, #3
 1071 003e 03F18043 		add	r3, r3, #1073741824
 1072 0042 03F5EC43 		add	r3, r3, #30208
 1073 0046 3A7E     		ldrb	r2, [r7, #24]
 1074 0048 4FEA0212 		lsl	r2, r2, #4
 1075 004c D1B2     		uxtb	r1, r2
 1076 004e 3A79     		ldrb	r2, [r7, #4]	@ zero_extendqisi2
 1077 0050 02F00F02 		and	r2, r2, #15
 1078 0054 41EA0202 		orr	r2, r1, r2
 1079 0058 D2B2     		uxtb	r2, r2
 1080 005a 5A70     		strb	r2, [r3, #1]
 681:.\Generated_Source\PSoC5/CyDmac.c ****         DMAC_CFGMEM[chHandle].CFG0[2] = 0x0Fu & tdStop;
 1081              		.loc 1 681 0
 1082 005c FB79     		ldrb	r3, [r7, #7]	@ zero_extendqisi2
ARM GAS  C:\Users\Geo\AppData\Local\Temp\ccnnArMw.s 			page 32


 1083 005e 4FEAC303 		lsl	r3, r3, #3
 1084 0062 03F18043 		add	r3, r3, #1073741824
 1085 0066 03F5EC43 		add	r3, r3, #30208
 1086 006a 3A7F     		ldrb	r2, [r7, #28]	@ zero_extendqisi2
 1087 006c 02F00F02 		and	r2, r2, #15
 1088 0070 9A70     		strb	r2, [r3, #2]
 682:.\Generated_Source\PSoC5/CyDmac.c ****         DMAC_CFGMEM[chHandle].CFG0[3] = 0; /* burstcount_remain. */
 1089              		.loc 1 682 0
 1090 0072 FB79     		ldrb	r3, [r7, #7]	@ zero_extendqisi2
 1091 0074 4FEAC303 		lsl	r3, r3, #3
 1092 0078 03F18043 		add	r3, r3, #1073741824
 1093 007c 03F5EC43 		add	r3, r3, #30208
 1094 0080 4FF00002 		mov	r2, #0
 1095 0084 DA70     		strb	r2, [r3, #3]
 683:.\Generated_Source\PSoC5/CyDmac.c **** 
 684:.\Generated_Source\PSoC5/CyDmac.c ****         status = CYRET_SUCCESS;
 1096              		.loc 1 684 0
 1097 0086 4FF00003 		mov	r3, #0
 1098 008a FB60     		str	r3, [r7, #12]
 1099 008c 02E0     		b	.L66
 1100              	.L65:
 685:.\Generated_Source\PSoC5/CyDmac.c ****     }
 686:.\Generated_Source\PSoC5/CyDmac.c ****     else
 687:.\Generated_Source\PSoC5/CyDmac.c ****     {
 688:.\Generated_Source\PSoC5/CyDmac.c ****         status = CYRET_BAD_PARAM;
 1101              		.loc 1 688 0
 1102 008e 4FF00103 		mov	r3, #1
 1103 0092 FB60     		str	r3, [r7, #12]
 1104              	.L66:
 689:.\Generated_Source\PSoC5/CyDmac.c ****     }
 690:.\Generated_Source\PSoC5/CyDmac.c **** 
 691:.\Generated_Source\PSoC5/CyDmac.c ****     return status;
 1105              		.loc 1 691 0
 1106 0094 FB68     		ldr	r3, [r7, #12]
 692:.\Generated_Source\PSoC5/CyDmac.c **** }
 1107              		.loc 1 692 0
 1108 0096 1846     		mov	r0, r3
 1109 0098 07F11407 		add	r7, r7, #20
 1110 009c BD46     		mov	sp, r7
 1111 009e 80BC     		pop	{r7}
 1112 00a0 7047     		bx	lr
 1113              		.cfi_endproc
 1114              	.LFE15:
 1115              		.size	CyDmaChSetConfiguration, .-CyDmaChSetConfiguration
 1116 00a2 00BF     		.section	.text.CyDmaTdAllocate,"ax",%progbits
 1117              		.align	2
 1118              		.global	CyDmaTdAllocate
 1119              		.thumb
 1120              		.thumb_func
 1121              		.type	CyDmaTdAllocate, %function
 1122              	CyDmaTdAllocate:
 1123              	.LFB16:
 693:.\Generated_Source\PSoC5/CyDmac.c **** 
 694:.\Generated_Source\PSoC5/CyDmac.c **** 
 695:.\Generated_Source\PSoC5/CyDmac.c **** /*******************************************************************************
 696:.\Generated_Source\PSoC5/CyDmac.c **** * Function Name: CyDmaTdAllocate
 697:.\Generated_Source\PSoC5/CyDmac.c **** ********************************************************************************
ARM GAS  C:\Users\Geo\AppData\Local\Temp\ccnnArMw.s 			page 33


 698:.\Generated_Source\PSoC5/CyDmac.c **** * Summary:
 699:.\Generated_Source\PSoC5/CyDmac.c **** *   Removes a Transfer Descriptor from the free list for use by the
 700:.\Generated_Source\PSoC5/CyDmac.c **** *   caller.
 701:.\Generated_Source\PSoC5/CyDmac.c **** *   Zero based index of the TD to be used by the caller. Since there are 128 TDs 
 702:.\Generated_Source\PSoC5/CyDmac.c **** *   minus the reserved TDs (0-23), the value returned would range from 24 to 127 
 703:.\Generated_Source\PSoC5/CyDmac.c **** *   not 24 to 128.
 704:.\Generated_Source\PSoC5/CyDmac.c **** *
 705:.\Generated_Source\PSoC5/CyDmac.c **** * Parameters:
 706:.\Generated_Source\PSoC5/CyDmac.c **** *   void.
 707:.\Generated_Source\PSoC5/CyDmac.c **** *
 708:.\Generated_Source\PSoC5/CyDmac.c **** *
 709:.\Generated_Source\PSoC5/CyDmac.c **** * Return:
 710:.\Generated_Source\PSoC5/CyDmac.c **** *   Zero based index of the Transfer Descriptor to be used by the
 711:.\Generated_Source\PSoC5/CyDmac.c **** *   caller. Zero is a valid TD index. DMA_INVALID_TD implies
 712:.\Generated_Source\PSoC5/CyDmac.c **** *   there are no free TD's available.
 713:.\Generated_Source\PSoC5/CyDmac.c **** *
 714:.\Generated_Source\PSoC5/CyDmac.c **** *
 715:.\Generated_Source\PSoC5/CyDmac.c **** *******************************************************************************/
 716:.\Generated_Source\PSoC5/CyDmac.c **** uint8 CyDmaTdAllocate(void) 
 717:.\Generated_Source\PSoC5/CyDmac.c **** {
 1124              		.loc 1 717 0
 1125              		.cfi_startproc
 1126              		@ args = 0, pretend = 0, frame = 8
 1127              		@ frame_needed = 1, uses_anonymous_args = 0
 1128 0000 80B5     		push	{r7, lr}
 1129              	.LCFI46:
 1130              		.cfi_def_cfa_offset 8
 1131 0002 82B0     		sub	sp, sp, #8
 1132              	.LCFI47:
 1133              		.cfi_def_cfa_offset 16
 1134 0004 00AF     		add	r7, sp, #0
 1135              		.cfi_offset 14, -4
 1136              		.cfi_offset 7, -8
 1137              	.LCFI48:
 1138              		.cfi_def_cfa_register 7
 718:.\Generated_Source\PSoC5/CyDmac.c ****     uint8 interruptState;
 719:.\Generated_Source\PSoC5/CyDmac.c ****     uint8 Element;
 720:.\Generated_Source\PSoC5/CyDmac.c **** 
 721:.\Generated_Source\PSoC5/CyDmac.c **** 
 722:.\Generated_Source\PSoC5/CyDmac.c ****     /* Enter critical section! */
 723:.\Generated_Source\PSoC5/CyDmac.c ****     interruptState = CyEnterCriticalSection();
 1139              		.loc 1 723 0
 1140 0006 FFF7FEFF 		bl	CyEnterCriticalSection
 1141 000a 0346     		mov	r3, r0
 1142 000c BB71     		strb	r3, [r7, #6]
 724:.\Generated_Source\PSoC5/CyDmac.c **** 
 725:.\Generated_Source\PSoC5/CyDmac.c ****     if(CyDmaTdCurrentNumber > NUMBEROF_CHANNELS)
 1143              		.loc 1 725 0
 1144 000e 40F20003 		movw	r3, #:lower16:CyDmaTdCurrentNumber
 1145 0012 C0F20003 		movt	r3, #:upper16:CyDmaTdCurrentNumber
 1146 0016 1B78     		ldrb	r3, [r3, #0]	@ zero_extendqisi2
 1147 0018 182B     		cmp	r3, #24
 1148 001a 21D9     		bls	.L69
 726:.\Generated_Source\PSoC5/CyDmac.c ****     {
 727:.\Generated_Source\PSoC5/CyDmac.c ****         /* Get pointer to the Next available. */
 728:.\Generated_Source\PSoC5/CyDmac.c ****         Element = CyDmaTdFreeIndex;
 1149              		.loc 1 728 0
ARM GAS  C:\Users\Geo\AppData\Local\Temp\ccnnArMw.s 			page 34


 1150 001c 40F20003 		movw	r3, #:lower16:CyDmaTdFreeIndex
 1151 0020 C0F20003 		movt	r3, #:upper16:CyDmaTdFreeIndex
 1152 0024 1B78     		ldrb	r3, [r3, #0]
 1153 0026 FB71     		strb	r3, [r7, #7]
 729:.\Generated_Source\PSoC5/CyDmac.c **** 
 730:.\Generated_Source\PSoC5/CyDmac.c ****         /* Decrement the count. */
 731:.\Generated_Source\PSoC5/CyDmac.c ****         CyDmaTdCurrentNumber--;
 1154              		.loc 1 731 0
 1155 0028 40F20003 		movw	r3, #:lower16:CyDmaTdCurrentNumber
 1156 002c C0F20003 		movt	r3, #:upper16:CyDmaTdCurrentNumber
 1157 0030 1B78     		ldrb	r3, [r3, #0]	@ zero_extendqisi2
 1158 0032 03F1FF33 		add	r3, r3, #-1
 1159 0036 DAB2     		uxtb	r2, r3
 1160 0038 40F20003 		movw	r3, #:lower16:CyDmaTdCurrentNumber
 1161 003c C0F20003 		movt	r3, #:upper16:CyDmaTdCurrentNumber
 1162 0040 1A70     		strb	r2, [r3, #0]
 732:.\Generated_Source\PSoC5/CyDmac.c **** 
 733:.\Generated_Source\PSoC5/CyDmac.c ****         /* Update the next available pointer. */
 734:.\Generated_Source\PSoC5/CyDmac.c ****         CyDmaTdFreeIndex = DMAC_TDMEM[Element].TD0[0];
 1163              		.loc 1 734 0
 1164 0042 FB79     		ldrb	r3, [r7, #7]	@ zero_extendqisi2
 1165 0044 4FEAC303 		lsl	r3, r3, #3
 1166 0048 03F18043 		add	r3, r3, #1073741824
 1167 004c 03F5F043 		add	r3, r3, #30720
 1168 0050 1B78     		ldrb	r3, [r3, #0]
 1169 0052 DAB2     		uxtb	r2, r3
 1170 0054 40F20003 		movw	r3, #:lower16:CyDmaTdFreeIndex
 1171 0058 C0F20003 		movt	r3, #:upper16:CyDmaTdFreeIndex
 1172 005c 1A70     		strb	r2, [r3, #0]
 1173 005e 02E0     		b	.L70
 1174              	.L69:
 735:.\Generated_Source\PSoC5/CyDmac.c ****     }
 736:.\Generated_Source\PSoC5/CyDmac.c ****     else
 737:.\Generated_Source\PSoC5/CyDmac.c ****     {
 738:.\Generated_Source\PSoC5/CyDmac.c ****         Element = DMA_INVALID_TD;
 1175              		.loc 1 738 0
 1176 0060 4FF0FF33 		mov	r3, #-1
 1177 0064 FB71     		strb	r3, [r7, #7]
 1178              	.L70:
 739:.\Generated_Source\PSoC5/CyDmac.c ****     }
 740:.\Generated_Source\PSoC5/CyDmac.c **** 
 741:.\Generated_Source\PSoC5/CyDmac.c ****     /* Exit critical section! */
 742:.\Generated_Source\PSoC5/CyDmac.c ****     CyExitCriticalSection(interruptState);
 1179              		.loc 1 742 0
 1180 0066 BB79     		ldrb	r3, [r7, #6]	@ zero_extendqisi2
 1181 0068 1846     		mov	r0, r3
 1182 006a FFF7FEFF 		bl	CyExitCriticalSection
 743:.\Generated_Source\PSoC5/CyDmac.c **** 
 744:.\Generated_Source\PSoC5/CyDmac.c ****     return Element;
 1183              		.loc 1 744 0
 1184 006e FB79     		ldrb	r3, [r7, #7]	@ zero_extendqisi2
 745:.\Generated_Source\PSoC5/CyDmac.c **** }
 1185              		.loc 1 745 0
 1186 0070 1846     		mov	r0, r3
 1187 0072 07F10807 		add	r7, r7, #8
 1188 0076 BD46     		mov	sp, r7
 1189 0078 80BD     		pop	{r7, pc}
ARM GAS  C:\Users\Geo\AppData\Local\Temp\ccnnArMw.s 			page 35


 1190              		.cfi_endproc
 1191              	.LFE16:
 1192              		.size	CyDmaTdAllocate, .-CyDmaTdAllocate
 1193 007a 00BF     		.section	.text.CyDmaTdFree,"ax",%progbits
 1194              		.align	2
 1195              		.global	CyDmaTdFree
 1196              		.thumb
 1197              		.thumb_func
 1198              		.type	CyDmaTdFree, %function
 1199              	CyDmaTdFree:
 1200              	.LFB17:
 746:.\Generated_Source\PSoC5/CyDmac.c **** 
 747:.\Generated_Source\PSoC5/CyDmac.c **** 
 748:.\Generated_Source\PSoC5/CyDmac.c **** /*******************************************************************************
 749:.\Generated_Source\PSoC5/CyDmac.c **** * Function Name: CyDmaTdFree
 750:.\Generated_Source\PSoC5/CyDmac.c **** ********************************************************************************
 751:.\Generated_Source\PSoC5/CyDmac.c **** * Summary:
 752:.\Generated_Source\PSoC5/CyDmac.c **** *   Returns a Transfer Descriptor back to the free list.
 753:.\Generated_Source\PSoC5/CyDmac.c **** *
 754:.\Generated_Source\PSoC5/CyDmac.c **** * Parameters:
 755:.\Generated_Source\PSoC5/CyDmac.c **** * tdHandle:
 756:.\Generated_Source\PSoC5/CyDmac.c **** *   Zero based index of the Transfer Descriptor to be freed.
 757:.\Generated_Source\PSoC5/CyDmac.c **** *
 758:.\Generated_Source\PSoC5/CyDmac.c **** *
 759:.\Generated_Source\PSoC5/CyDmac.c **** * Return:
 760:.\Generated_Source\PSoC5/CyDmac.c **** *   void.
 761:.\Generated_Source\PSoC5/CyDmac.c **** *
 762:.\Generated_Source\PSoC5/CyDmac.c **** *
 763:.\Generated_Source\PSoC5/CyDmac.c **** *******************************************************************************/
 764:.\Generated_Source\PSoC5/CyDmac.c **** void CyDmaTdFree(uint8 tdHandle) 
 765:.\Generated_Source\PSoC5/CyDmac.c **** {
 1201              		.loc 1 765 0
 1202              		.cfi_startproc
 1203              		@ args = 0, pretend = 0, frame = 16
 1204              		@ frame_needed = 1, uses_anonymous_args = 0
 1205 0000 80B5     		push	{r7, lr}
 1206              	.LCFI49:
 1207              		.cfi_def_cfa_offset 8
 1208 0002 84B0     		sub	sp, sp, #16
 1209              	.LCFI50:
 1210              		.cfi_def_cfa_offset 24
 1211 0004 00AF     		add	r7, sp, #0
 1212              		.cfi_offset 14, -4
 1213              		.cfi_offset 7, -8
 1214              	.LCFI51:
 1215              		.cfi_def_cfa_register 7
 1216 0006 0346     		mov	r3, r0
 1217 0008 FB71     		strb	r3, [r7, #7]
 766:.\Generated_Source\PSoC5/CyDmac.c ****     if(tdHandle < NUMBEROF_TDS)
 1218              		.loc 1 766 0
 1219 000a FB79     		ldrb	r3, [r7, #7]	@ zero_extendqisi2
 1220 000c 5BB2     		sxtb	r3, r3
 1221 000e 002B     		cmp	r3, #0
 1222 0010 27DB     		blt	.L74
 1223              	.LBB4:
 767:.\Generated_Source\PSoC5/CyDmac.c ****     {
 768:.\Generated_Source\PSoC5/CyDmac.c ****         /* Enter critical section! */
ARM GAS  C:\Users\Geo\AppData\Local\Temp\ccnnArMw.s 			page 36


 769:.\Generated_Source\PSoC5/CyDmac.c ****         uint8 interruptState = CyEnterCriticalSection();
 1224              		.loc 1 769 0
 1225 0012 FFF7FEFF 		bl	CyEnterCriticalSection
 1226 0016 0346     		mov	r3, r0
 1227 0018 FB73     		strb	r3, [r7, #15]
 770:.\Generated_Source\PSoC5/CyDmac.c **** 
 771:.\Generated_Source\PSoC5/CyDmac.c ****         /* Get pointer to the Next available. */
 772:.\Generated_Source\PSoC5/CyDmac.c ****         DMAC_TDMEM[tdHandle].TD0[0] = CyDmaTdFreeIndex;
 1228              		.loc 1 772 0
 1229 001a FB79     		ldrb	r3, [r7, #7]	@ zero_extendqisi2
 1230 001c 4FEAC303 		lsl	r3, r3, #3
 1231 0020 03F18043 		add	r3, r3, #1073741824
 1232 0024 03F5F043 		add	r3, r3, #30720
 1233 0028 40F20002 		movw	r2, #:lower16:CyDmaTdFreeIndex
 1234 002c C0F20002 		movt	r2, #:upper16:CyDmaTdFreeIndex
 1235 0030 1278     		ldrb	r2, [r2, #0]	@ zero_extendqisi2
 1236 0032 1A70     		strb	r2, [r3, #0]
 773:.\Generated_Source\PSoC5/CyDmac.c **** 
 774:.\Generated_Source\PSoC5/CyDmac.c ****         /* Set new Next Available. */
 775:.\Generated_Source\PSoC5/CyDmac.c ****         CyDmaTdFreeIndex = tdHandle;
 1237              		.loc 1 775 0
 1238 0034 40F20003 		movw	r3, #:lower16:CyDmaTdFreeIndex
 1239 0038 C0F20003 		movt	r3, #:upper16:CyDmaTdFreeIndex
 1240 003c FA79     		ldrb	r2, [r7, #7]
 1241 003e 1A70     		strb	r2, [r3, #0]
 776:.\Generated_Source\PSoC5/CyDmac.c **** 
 777:.\Generated_Source\PSoC5/CyDmac.c ****         /* Keep track of how many left. */
 778:.\Generated_Source\PSoC5/CyDmac.c ****         CyDmaTdCurrentNumber++;
 1242              		.loc 1 778 0
 1243 0040 40F20003 		movw	r3, #:lower16:CyDmaTdCurrentNumber
 1244 0044 C0F20003 		movt	r3, #:upper16:CyDmaTdCurrentNumber
 1245 0048 1B78     		ldrb	r3, [r3, #0]	@ zero_extendqisi2
 1246 004a 03F10103 		add	r3, r3, #1
 1247 004e DAB2     		uxtb	r2, r3
 1248 0050 40F20003 		movw	r3, #:lower16:CyDmaTdCurrentNumber
 1249 0054 C0F20003 		movt	r3, #:upper16:CyDmaTdCurrentNumber
 1250 0058 1A70     		strb	r2, [r3, #0]
 779:.\Generated_Source\PSoC5/CyDmac.c **** 
 780:.\Generated_Source\PSoC5/CyDmac.c ****         /* Exit critical section! */
 781:.\Generated_Source\PSoC5/CyDmac.c ****         CyExitCriticalSection(interruptState);
 1251              		.loc 1 781 0
 1252 005a FB7B     		ldrb	r3, [r7, #15]	@ zero_extendqisi2
 1253 005c 1846     		mov	r0, r3
 1254 005e FFF7FEFF 		bl	CyExitCriticalSection
 1255              	.L74:
 1256              	.LBE4:
 782:.\Generated_Source\PSoC5/CyDmac.c ****     }
 783:.\Generated_Source\PSoC5/CyDmac.c **** }
 1257              		.loc 1 783 0
 1258 0062 07F11007 		add	r7, r7, #16
 1259 0066 BD46     		mov	sp, r7
 1260 0068 80BD     		pop	{r7, pc}
 1261              		.cfi_endproc
 1262              	.LFE17:
 1263              		.size	CyDmaTdFree, .-CyDmaTdFree
 1264 006a 00BF     		.section	.text.CyDmaTdFreeCount,"ax",%progbits
 1265              		.align	2
ARM GAS  C:\Users\Geo\AppData\Local\Temp\ccnnArMw.s 			page 37


 1266              		.global	CyDmaTdFreeCount
 1267              		.thumb
 1268              		.thumb_func
 1269              		.type	CyDmaTdFreeCount, %function
 1270              	CyDmaTdFreeCount:
 1271              	.LFB18:
 784:.\Generated_Source\PSoC5/CyDmac.c **** 
 785:.\Generated_Source\PSoC5/CyDmac.c **** 
 786:.\Generated_Source\PSoC5/CyDmac.c **** /*******************************************************************************
 787:.\Generated_Source\PSoC5/CyDmac.c **** * Function Name: CyDmaTdFreeCount
 788:.\Generated_Source\PSoC5/CyDmac.c **** ********************************************************************************
 789:.\Generated_Source\PSoC5/CyDmac.c **** * Summary:
 790:.\Generated_Source\PSoC5/CyDmac.c **** *   Returns the number of free Transfer Descriptors available to be
 791:.\Generated_Source\PSoC5/CyDmac.c **** *   allocated.
 792:.\Generated_Source\PSoC5/CyDmac.c **** *
 793:.\Generated_Source\PSoC5/CyDmac.c **** * Parameters:
 794:.\Generated_Source\PSoC5/CyDmac.c **** *   void.
 795:.\Generated_Source\PSoC5/CyDmac.c **** *
 796:.\Generated_Source\PSoC5/CyDmac.c **** * Return:
 797:.\Generated_Source\PSoC5/CyDmac.c **** *   The number of free Transfer Descriptors.
 798:.\Generated_Source\PSoC5/CyDmac.c **** *
 799:.\Generated_Source\PSoC5/CyDmac.c **** *
 800:.\Generated_Source\PSoC5/CyDmac.c **** *******************************************************************************/
 801:.\Generated_Source\PSoC5/CyDmac.c **** uint8 CyDmaTdFreeCount(void) 
 802:.\Generated_Source\PSoC5/CyDmac.c **** {
 1272              		.loc 1 802 0
 1273              		.cfi_startproc
 1274              		@ args = 0, pretend = 0, frame = 0
 1275              		@ frame_needed = 1, uses_anonymous_args = 0
 1276              		@ link register save eliminated.
 1277 0000 80B4     		push	{r7}
 1278              	.LCFI52:
 1279              		.cfi_def_cfa_offset 4
 1280 0002 00AF     		add	r7, sp, #0
 1281              		.cfi_offset 7, -4
 1282              	.LCFI53:
 1283              		.cfi_def_cfa_register 7
 803:.\Generated_Source\PSoC5/CyDmac.c ****     return (CyDmaTdCurrentNumber - NUMBEROF_CHANNELS);
 1284              		.loc 1 803 0
 1285 0004 40F20003 		movw	r3, #:lower16:CyDmaTdCurrentNumber
 1286 0008 C0F20003 		movt	r3, #:upper16:CyDmaTdCurrentNumber
 1287 000c 1B78     		ldrb	r3, [r3, #0]	@ zero_extendqisi2
 1288 000e A3F11803 		sub	r3, r3, #24
 1289 0012 DBB2     		uxtb	r3, r3
 804:.\Generated_Source\PSoC5/CyDmac.c **** }
 1290              		.loc 1 804 0
 1291 0014 1846     		mov	r0, r3
 1292 0016 BD46     		mov	sp, r7
 1293 0018 80BC     		pop	{r7}
 1294 001a 7047     		bx	lr
 1295              		.cfi_endproc
 1296              	.LFE18:
 1297              		.size	CyDmaTdFreeCount, .-CyDmaTdFreeCount
 1298              		.section	.text.CyDmaTdSetConfiguration,"ax",%progbits
 1299              		.align	2
 1300              		.global	CyDmaTdSetConfiguration
 1301              		.thumb
ARM GAS  C:\Users\Geo\AppData\Local\Temp\ccnnArMw.s 			page 38


 1302              		.thumb_func
 1303              		.type	CyDmaTdSetConfiguration, %function
 1304              	CyDmaTdSetConfiguration:
 1305              	.LFB19:
 805:.\Generated_Source\PSoC5/CyDmac.c **** 
 806:.\Generated_Source\PSoC5/CyDmac.c **** 
 807:.\Generated_Source\PSoC5/CyDmac.c **** /*******************************************************************************
 808:.\Generated_Source\PSoC5/CyDmac.c **** * Function Name: CyDmaTdSetConfiguration
 809:.\Generated_Source\PSoC5/CyDmac.c **** ********************************************************************************
 810:.\Generated_Source\PSoC5/CyDmac.c **** * Summary:
 811:.\Generated_Source\PSoC5/CyDmac.c **** * Configures the TD.
 812:.\Generated_Source\PSoC5/CyDmac.c **** *
 813:.\Generated_Source\PSoC5/CyDmac.c **** * Parameters:
 814:.\Generated_Source\PSoC5/CyDmac.c **** * tdHandle:
 815:.\Generated_Source\PSoC5/CyDmac.c **** *   Handle to the TD.
 816:.\Generated_Source\PSoC5/CyDmac.c **** *
 817:.\Generated_Source\PSoC5/CyDmac.c **** * transferCount:
 818:.\Generated_Source\PSoC5/CyDmac.c **** *   Size of the data transfer (in bytes) for this Transfer Descriptor.
 819:.\Generated_Source\PSoC5/CyDmac.c **** *
 820:.\Generated_Source\PSoC5/CyDmac.c **** * nextTd:
 821:.\Generated_Source\PSoC5/CyDmac.c **** *   Zero based index of the next Transfer Descriptor in the TD chain.
 822:.\Generated_Source\PSoC5/CyDmac.c **** *   Zero is a valid pointer to the next TD, DMA_END_CHAIN_TD is end of chain.
 823:.\Generated_Source\PSoC5/CyDmac.c **** *
 824:.\Generated_Source\PSoC5/CyDmac.c **** * configuration:
 825:.\Generated_Source\PSoC5/CyDmac.c **** *   Bit field with the following meaning.   
 826:.\Generated_Source\PSoC5/CyDmac.c **** *   
 827:.\Generated_Source\PSoC5/CyDmac.c **** *   bit 7 swap_en 0
 828:.\Generated_Source\PSoC5/CyDmac.c **** *   bit 6 swap_size
 829:.\Generated_Source\PSoC5/CyDmac.c **** *   bit 5 auto_exec_next
 830:.\Generated_Source\PSoC5/CyDmac.c **** *   bit 4 termin_en
 831:.\Generated_Source\PSoC5/CyDmac.c **** *   bit 3 termout1_en
 832:.\Generated_Source\PSoC5/CyDmac.c **** *   bit 2 termout0_en
 833:.\Generated_Source\PSoC5/CyDmac.c **** *   bit 1 inc_dst_adr
 834:.\Generated_Source\PSoC5/CyDmac.c **** *   bit 0 inc_src_adr
 835:.\Generated_Source\PSoC5/CyDmac.c **** *   
 836:.\Generated_Source\PSoC5/CyDmac.c **** *   As defined in HeaderFile
 837:.\Generated_Source\PSoC5/CyDmac.c **** *   
 838:.\Generated_Source\PSoC5/CyDmac.c **** *
 839:.\Generated_Source\PSoC5/CyDmac.c **** * Return:
 840:.\Generated_Source\PSoC5/CyDmac.c **** *   0 in successful or CYRET_BAD_PARAM.
 841:.\Generated_Source\PSoC5/CyDmac.c **** *
 842:.\Generated_Source\PSoC5/CyDmac.c **** *
 843:.\Generated_Source\PSoC5/CyDmac.c **** *******************************************************************************/
 844:.\Generated_Source\PSoC5/CyDmac.c **** cystatus CyDmaTdSetConfiguration(uint8 tdHandle, uint16 transferCount, uint8 nextTd, uint8 configur
 845:.\Generated_Source\PSoC5/CyDmac.c **** {
 1306              		.loc 1 845 0
 1307              		.cfi_startproc
 1308              		@ args = 0, pretend = 0, frame = 16
 1309              		@ frame_needed = 1, uses_anonymous_args = 0
 1310              		@ link register save eliminated.
 1311 0000 80B4     		push	{r7}
 1312              	.LCFI54:
 1313              		.cfi_def_cfa_offset 4
 1314 0002 85B0     		sub	sp, sp, #20
 1315              	.LCFI55:
 1316              		.cfi_def_cfa_offset 24
 1317 0004 00AF     		add	r7, sp, #0
ARM GAS  C:\Users\Geo\AppData\Local\Temp\ccnnArMw.s 			page 39


 1318              		.cfi_offset 7, -4
 1319              	.LCFI56:
 1320              		.cfi_def_cfa_register 7
 1321 0006 F871     		strb	r0, [r7, #7]
 1322 0008 B980     		strh	r1, [r7, #4]	@ movhi
 1323 000a FA70     		strb	r2, [r7, #3]
 1324 000c BB70     		strb	r3, [r7, #2]
 846:.\Generated_Source\PSoC5/CyDmac.c ****     cystatus status;
 847:.\Generated_Source\PSoC5/CyDmac.c **** 
 848:.\Generated_Source\PSoC5/CyDmac.c **** 
 849:.\Generated_Source\PSoC5/CyDmac.c ****     if(tdHandle < NUMBEROF_TDS && !(0xF000u & transferCount))
 1325              		.loc 1 849 0
 1326 000e FB79     		ldrb	r3, [r7, #7]	@ zero_extendqisi2
 1327 0010 5BB2     		sxtb	r3, r3
 1328 0012 002B     		cmp	r3, #0
 1329 0014 25DB     		blt	.L78
 1330 0016 BB88     		ldrh	r3, [r7, #4]
 1331 0018 03F47043 		and	r3, r3, #61440
 1332 001c 002B     		cmp	r3, #0
 1333 001e 20D1     		bne	.L78
 1334              	.LBB5:
 850:.\Generated_Source\PSoC5/CyDmac.c ****     {
 851:.\Generated_Source\PSoC5/CyDmac.c ****         /* Set 12 bits transfer count. */
 852:.\Generated_Source\PSoC5/CyDmac.c ****         CONVERT_WORD *convert = (CONVERT_WORD *)&DMAC_TDMEM[tdHandle].TD0[0];
 1335              		.loc 1 852 0
 1336 0020 FB79     		ldrb	r3, [r7, #7]	@ zero_extendqisi2
 1337 0022 4FEAC303 		lsl	r3, r3, #3
 1338 0026 03F18043 		add	r3, r3, #1073741824
 1339 002a 03F5F043 		add	r3, r3, #30720
 1340 002e FB60     		str	r3, [r7, #12]
 853:.\Generated_Source\PSoC5/CyDmac.c ****         CY_SET_REG16(&convert->word, transferCount);
 1341              		.loc 1 853 0
 1342 0030 FB68     		ldr	r3, [r7, #12]
 1343 0032 BA88     		ldrh	r2, [r7, #4]	@ movhi
 1344 0034 1A80     		strh	r2, [r3, #0]	@ movhi
 854:.\Generated_Source\PSoC5/CyDmac.c **** 
 855:.\Generated_Source\PSoC5/CyDmac.c ****         /* Set Next TD pointer. */
 856:.\Generated_Source\PSoC5/CyDmac.c ****         DMAC_TDMEM[tdHandle].TD0[2] = nextTd;
 1345              		.loc 1 856 0
 1346 0036 FB79     		ldrb	r3, [r7, #7]	@ zero_extendqisi2
 1347 0038 4FEAC303 		lsl	r3, r3, #3
 1348 003c 03F18043 		add	r3, r3, #1073741824
 1349 0040 03F5F043 		add	r3, r3, #30720
 1350 0044 FA78     		ldrb	r2, [r7, #3]
 1351 0046 9A70     		strb	r2, [r3, #2]
 857:.\Generated_Source\PSoC5/CyDmac.c **** 
 858:.\Generated_Source\PSoC5/CyDmac.c ****         /* Configure the TD */
 859:.\Generated_Source\PSoC5/CyDmac.c ****         DMAC_TDMEM[tdHandle].TD0[3] = configuration;
 1352              		.loc 1 859 0
 1353 0048 FB79     		ldrb	r3, [r7, #7]	@ zero_extendqisi2
 1354 004a 4FEAC303 		lsl	r3, r3, #3
 1355 004e 03F18043 		add	r3, r3, #1073741824
 1356 0052 03F5F043 		add	r3, r3, #30720
 1357 0056 BA78     		ldrb	r2, [r7, #2]
 1358 0058 DA70     		strb	r2, [r3, #3]
 860:.\Generated_Source\PSoC5/CyDmac.c **** 
 861:.\Generated_Source\PSoC5/CyDmac.c ****         status = CYRET_SUCCESS;
ARM GAS  C:\Users\Geo\AppData\Local\Temp\ccnnArMw.s 			page 40


 1359              		.loc 1 861 0
 1360 005a 4FF00003 		mov	r3, #0
 1361 005e BB60     		str	r3, [r7, #8]
 1362              	.LBE5:
 1363              		.loc 1 849 0
 1364 0060 02E0     		b	.L79
 1365              	.L78:
 862:.\Generated_Source\PSoC5/CyDmac.c ****     }
 863:.\Generated_Source\PSoC5/CyDmac.c ****     else
 864:.\Generated_Source\PSoC5/CyDmac.c ****     {
 865:.\Generated_Source\PSoC5/CyDmac.c ****         status = CYRET_BAD_PARAM;
 1366              		.loc 1 865 0
 1367 0062 4FF00103 		mov	r3, #1
 1368 0066 BB60     		str	r3, [r7, #8]
 1369              	.L79:
 866:.\Generated_Source\PSoC5/CyDmac.c ****     }
 867:.\Generated_Source\PSoC5/CyDmac.c **** 
 868:.\Generated_Source\PSoC5/CyDmac.c ****     return status;
 1370              		.loc 1 868 0
 1371 0068 BB68     		ldr	r3, [r7, #8]
 869:.\Generated_Source\PSoC5/CyDmac.c **** }
 1372              		.loc 1 869 0
 1373 006a 1846     		mov	r0, r3
 1374 006c 07F11407 		add	r7, r7, #20
 1375 0070 BD46     		mov	sp, r7
 1376 0072 80BC     		pop	{r7}
 1377 0074 7047     		bx	lr
 1378              		.cfi_endproc
 1379              	.LFE19:
 1380              		.size	CyDmaTdSetConfiguration, .-CyDmaTdSetConfiguration
 1381 0076 00BF     		.section	.text.CyDmaTdGetConfiguration,"ax",%progbits
 1382              		.align	2
 1383              		.global	CyDmaTdGetConfiguration
 1384              		.thumb
 1385              		.thumb_func
 1386              		.type	CyDmaTdGetConfiguration, %function
 1387              	CyDmaTdGetConfiguration:
 1388              	.LFB20:
 870:.\Generated_Source\PSoC5/CyDmac.c **** 
 871:.\Generated_Source\PSoC5/CyDmac.c **** 
 872:.\Generated_Source\PSoC5/CyDmac.c **** /*******************************************************************************
 873:.\Generated_Source\PSoC5/CyDmac.c **** * Function Name: CyDmaTdGetConfiguration
 874:.\Generated_Source\PSoC5/CyDmac.c **** ********************************************************************************
 875:.\Generated_Source\PSoC5/CyDmac.c **** * Summary:
 876:.\Generated_Source\PSoC5/CyDmac.c **** * Gets the configuration for the Configures.
 877:.\Generated_Source\PSoC5/CyDmac.c **** *
 878:.\Generated_Source\PSoC5/CyDmac.c **** *   if NULL is passed for a pointer parameter, that value will be
 879:.\Generated_Source\PSoC5/CyDmac.c **** *   skipped. The user can requestion only the values they are
 880:.\Generated_Source\PSoC5/CyDmac.c **** *   interested in.
 881:.\Generated_Source\PSoC5/CyDmac.c **** *
 882:.\Generated_Source\PSoC5/CyDmac.c **** * Parameters:
 883:.\Generated_Source\PSoC5/CyDmac.c **** * tdHandle:
 884:.\Generated_Source\PSoC5/CyDmac.c **** *   Handle to the TD.
 885:.\Generated_Source\PSoC5/CyDmac.c **** *
 886:.\Generated_Source\PSoC5/CyDmac.c **** * transferCount:
 887:.\Generated_Source\PSoC5/CyDmac.c **** *   Address to store the Size of the data transfer (in bytes) for
 888:.\Generated_Source\PSoC5/CyDmac.c **** *   this Transfer Descriptor.
ARM GAS  C:\Users\Geo\AppData\Local\Temp\ccnnArMw.s 			page 41


 889:.\Generated_Source\PSoC5/CyDmac.c **** *
 890:.\Generated_Source\PSoC5/CyDmac.c **** * nextTd:
 891:.\Generated_Source\PSoC5/CyDmac.c **** *   Address to store the Zero based index of the next Transfer
 892:.\Generated_Source\PSoC5/CyDmac.c **** *   Descriptor in the TD chain.
 893:.\Generated_Source\PSoC5/CyDmac.c **** *
 894:.\Generated_Source\PSoC5/CyDmac.c **** * configurattion:
 895:.\Generated_Source\PSoC5/CyDmac.c **** *   Address to store the Bit field of configuration bits.
 896:.\Generated_Source\PSoC5/CyDmac.c **** *   
 897:.\Generated_Source\PSoC5/CyDmac.c **** *   bit 7 swap_en 0
 898:.\Generated_Source\PSoC5/CyDmac.c **** *   bit 6 swap_size
 899:.\Generated_Source\PSoC5/CyDmac.c **** *   bit 5 auto_exec_next
 900:.\Generated_Source\PSoC5/CyDmac.c **** *   bit 4 termin_en
 901:.\Generated_Source\PSoC5/CyDmac.c **** *   bit 3 termout1_en
 902:.\Generated_Source\PSoC5/CyDmac.c **** *   bit 2 termout0_en
 903:.\Generated_Source\PSoC5/CyDmac.c **** *   bit 1 inc_dst_adr
 904:.\Generated_Source\PSoC5/CyDmac.c **** *   bit 0 inc_src_adr
 905:.\Generated_Source\PSoC5/CyDmac.c **** *   
 906:.\Generated_Source\PSoC5/CyDmac.c **** *   As defined in HeaderFile
 907:.\Generated_Source\PSoC5/CyDmac.c **** *   
 908:.\Generated_Source\PSoC5/CyDmac.c **** *
 909:.\Generated_Source\PSoC5/CyDmac.c **** * Return:
 910:.\Generated_Source\PSoC5/CyDmac.c **** *   0 in successful or CYRET_BAD_PARAM.
 911:.\Generated_Source\PSoC5/CyDmac.c **** *
 912:.\Generated_Source\PSoC5/CyDmac.c **** *
 913:.\Generated_Source\PSoC5/CyDmac.c **** *******************************************************************************/
 914:.\Generated_Source\PSoC5/CyDmac.c **** cystatus CyDmaTdGetConfiguration(uint8 tdHandle, uint16 * transferCount, uint8 * nextTd, uint8 * co
 915:.\Generated_Source\PSoC5/CyDmac.c **** {
 1389              		.loc 1 915 0
 1390              		.cfi_startproc
 1391              		@ args = 0, pretend = 0, frame = 24
 1392              		@ frame_needed = 1, uses_anonymous_args = 0
 1393              		@ link register save eliminated.
 1394 0000 80B4     		push	{r7}
 1395              	.LCFI57:
 1396              		.cfi_def_cfa_offset 4
 1397 0002 87B0     		sub	sp, sp, #28
 1398              	.LCFI58:
 1399              		.cfi_def_cfa_offset 32
 1400 0004 00AF     		add	r7, sp, #0
 1401              		.cfi_offset 7, -4
 1402              	.LCFI59:
 1403              		.cfi_def_cfa_register 7
 1404 0006 B960     		str	r1, [r7, #8]
 1405 0008 7A60     		str	r2, [r7, #4]
 1406 000a 3B60     		str	r3, [r7, #0]
 1407 000c 0346     		mov	r3, r0
 1408 000e FB73     		strb	r3, [r7, #15]
 916:.\Generated_Source\PSoC5/CyDmac.c ****     cystatus status;
 917:.\Generated_Source\PSoC5/CyDmac.c **** 
 918:.\Generated_Source\PSoC5/CyDmac.c **** 
 919:.\Generated_Source\PSoC5/CyDmac.c ****     if(tdHandle < NUMBEROF_TDS)
 1409              		.loc 1 919 0
 1410 0010 FB7B     		ldrb	r3, [r7, #15]	@ zero_extendqisi2
 1411 0012 5BB2     		sxtb	r3, r3
 1412 0014 002B     		cmp	r3, #0
 1413 0016 33DB     		blt	.L82
 920:.\Generated_Source\PSoC5/CyDmac.c ****     {
ARM GAS  C:\Users\Geo\AppData\Local\Temp\ccnnArMw.s 			page 42


 921:.\Generated_Source\PSoC5/CyDmac.c ****         /* If we have a pointer. */
 922:.\Generated_Source\PSoC5/CyDmac.c ****         if(transferCount)
 1414              		.loc 1 922 0
 1415 0018 BB68     		ldr	r3, [r7, #8]
 1416 001a 002B     		cmp	r3, #0
 1417 001c 10D0     		beq	.L83
 1418              	.LBB6:
 923:.\Generated_Source\PSoC5/CyDmac.c ****         {
 924:.\Generated_Source\PSoC5/CyDmac.c ****             /* Get the 12 bitss of the transfer count. */
 925:.\Generated_Source\PSoC5/CyDmac.c ****             CONVERT_WORD *convert = (CONVERT_WORD *)&DMAC_TDMEM[tdHandle].TD0[0];
 1419              		.loc 1 925 0
 1420 001e FB7B     		ldrb	r3, [r7, #15]	@ zero_extendqisi2
 1421 0020 4FEAC303 		lsl	r3, r3, #3
 1422 0024 03F18043 		add	r3, r3, #1073741824
 1423 0028 03F5F043 		add	r3, r3, #30720
 1424 002c 7B61     		str	r3, [r7, #20]
 926:.\Generated_Source\PSoC5/CyDmac.c ****             *transferCount = 0x0FFFu & CY_GET_REG16(&convert->word);
 1425              		.loc 1 926 0
 1426 002e 7B69     		ldr	r3, [r7, #20]
 1427 0030 1B88     		ldrh	r3, [r3, #0]	@ movhi
 1428 0032 9BB2     		uxth	r3, r3
 1429 0034 4FEA0353 		lsl	r3, r3, #20
 1430 0038 4FEA1353 		lsr	r3, r3, #20
 1431 003c BA68     		ldr	r2, [r7, #8]
 1432 003e 1380     		strh	r3, [r2, #0]	@ movhi
 1433              	.L83:
 1434              	.LBE6:
 927:.\Generated_Source\PSoC5/CyDmac.c ****         }
 928:.\Generated_Source\PSoC5/CyDmac.c **** 
 929:.\Generated_Source\PSoC5/CyDmac.c ****         /* If we have a pointer. */
 930:.\Generated_Source\PSoC5/CyDmac.c ****         if(nextTd)
 1435              		.loc 1 930 0
 1436 0040 7B68     		ldr	r3, [r7, #4]
 1437 0042 002B     		cmp	r3, #0
 1438 0044 0AD0     		beq	.L84
 931:.\Generated_Source\PSoC5/CyDmac.c ****         {
 932:.\Generated_Source\PSoC5/CyDmac.c ****             /* Get the Next TD pointer. */
 933:.\Generated_Source\PSoC5/CyDmac.c ****             *nextTd = DMAC_TDMEM[tdHandle].TD0[2];
 1439              		.loc 1 933 0
 1440 0046 FB7B     		ldrb	r3, [r7, #15]	@ zero_extendqisi2
 1441 0048 4FEAC303 		lsl	r3, r3, #3
 1442 004c 03F18043 		add	r3, r3, #1073741824
 1443 0050 03F5F043 		add	r3, r3, #30720
 1444 0054 9B78     		ldrb	r3, [r3, #2]
 1445 0056 DAB2     		uxtb	r2, r3
 1446 0058 7B68     		ldr	r3, [r7, #4]
 1447 005a 1A70     		strb	r2, [r3, #0]
 1448              	.L84:
 934:.\Generated_Source\PSoC5/CyDmac.c ****         }
 935:.\Generated_Source\PSoC5/CyDmac.c **** 
 936:.\Generated_Source\PSoC5/CyDmac.c ****         /* If we have a pointer. */
 937:.\Generated_Source\PSoC5/CyDmac.c ****         if(configuration)
 1449              		.loc 1 937 0
 1450 005c 3B68     		ldr	r3, [r7, #0]
 1451 005e 002B     		cmp	r3, #0
 1452 0060 0AD0     		beq	.L85
 938:.\Generated_Source\PSoC5/CyDmac.c ****         {
ARM GAS  C:\Users\Geo\AppData\Local\Temp\ccnnArMw.s 			page 43


 939:.\Generated_Source\PSoC5/CyDmac.c ****             /* Get the configuration the TD */
 940:.\Generated_Source\PSoC5/CyDmac.c ****             *configuration = DMAC_TDMEM[tdHandle].TD0[3];
 1453              		.loc 1 940 0
 1454 0062 FB7B     		ldrb	r3, [r7, #15]	@ zero_extendqisi2
 1455 0064 4FEAC303 		lsl	r3, r3, #3
 1456 0068 03F18043 		add	r3, r3, #1073741824
 1457 006c 03F5F043 		add	r3, r3, #30720
 1458 0070 DB78     		ldrb	r3, [r3, #3]
 1459 0072 DAB2     		uxtb	r2, r3
 1460 0074 3B68     		ldr	r3, [r7, #0]
 1461 0076 1A70     		strb	r2, [r3, #0]
 1462              	.L85:
 941:.\Generated_Source\PSoC5/CyDmac.c ****         }
 942:.\Generated_Source\PSoC5/CyDmac.c **** 
 943:.\Generated_Source\PSoC5/CyDmac.c ****         status = CYRET_SUCCESS;
 1463              		.loc 1 943 0
 1464 0078 4FF00003 		mov	r3, #0
 1465 007c 3B61     		str	r3, [r7, #16]
 1466 007e 02E0     		b	.L86
 1467              	.L82:
 944:.\Generated_Source\PSoC5/CyDmac.c ****     }
 945:.\Generated_Source\PSoC5/CyDmac.c ****     else
 946:.\Generated_Source\PSoC5/CyDmac.c ****     {
 947:.\Generated_Source\PSoC5/CyDmac.c ****         status = CYRET_BAD_PARAM;
 1468              		.loc 1 947 0
 1469 0080 4FF00103 		mov	r3, #1
 1470 0084 3B61     		str	r3, [r7, #16]
 1471              	.L86:
 948:.\Generated_Source\PSoC5/CyDmac.c ****     }
 949:.\Generated_Source\PSoC5/CyDmac.c **** 
 950:.\Generated_Source\PSoC5/CyDmac.c ****     return status;
 1472              		.loc 1 950 0
 1473 0086 3B69     		ldr	r3, [r7, #16]
 951:.\Generated_Source\PSoC5/CyDmac.c **** }
 1474              		.loc 1 951 0
 1475 0088 1846     		mov	r0, r3
 1476 008a 07F11C07 		add	r7, r7, #28
 1477 008e BD46     		mov	sp, r7
 1478 0090 80BC     		pop	{r7}
 1479 0092 7047     		bx	lr
 1480              		.cfi_endproc
 1481              	.LFE20:
 1482              		.size	CyDmaTdGetConfiguration, .-CyDmaTdGetConfiguration
 1483              		.section	.text.CyDmaTdSetAddress,"ax",%progbits
 1484              		.align	2
 1485              		.global	CyDmaTdSetAddress
 1486              		.thumb
 1487              		.thumb_func
 1488              		.type	CyDmaTdSetAddress, %function
 1489              	CyDmaTdSetAddress:
 1490              	.LFB21:
 952:.\Generated_Source\PSoC5/CyDmac.c **** 
 953:.\Generated_Source\PSoC5/CyDmac.c **** 
 954:.\Generated_Source\PSoC5/CyDmac.c **** /*******************************************************************************
 955:.\Generated_Source\PSoC5/CyDmac.c **** * Function Name: CyDmaTdSetAddress
 956:.\Generated_Source\PSoC5/CyDmac.c **** ********************************************************************************
 957:.\Generated_Source\PSoC5/CyDmac.c **** * Summary:
ARM GAS  C:\Users\Geo\AppData\Local\Temp\ccnnArMw.s 			page 44


 958:.\Generated_Source\PSoC5/CyDmac.c **** *   Sets the lower 16 bits of the source and destination addresses
 959:.\Generated_Source\PSoC5/CyDmac.c **** *   for this TD only.
 960:.\Generated_Source\PSoC5/CyDmac.c **** *
 961:.\Generated_Source\PSoC5/CyDmac.c **** * Parameters:
 962:.\Generated_Source\PSoC5/CyDmac.c **** * tdHandle:
 963:.\Generated_Source\PSoC5/CyDmac.c **** *   Handle to the TD.
 964:.\Generated_Source\PSoC5/CyDmac.c **** *
 965:.\Generated_Source\PSoC5/CyDmac.c **** * source:
 966:.\Generated_Source\PSoC5/CyDmac.c **** *   lower 16 address bits of the Source of the data transfer.
 967:.\Generated_Source\PSoC5/CyDmac.c **** *
 968:.\Generated_Source\PSoC5/CyDmac.c **** * destination:
 969:.\Generated_Source\PSoC5/CyDmac.c **** *   lower 16 address bits of the Destination of the data transfer.
 970:.\Generated_Source\PSoC5/CyDmac.c **** *
 971:.\Generated_Source\PSoC5/CyDmac.c **** *
 972:.\Generated_Source\PSoC5/CyDmac.c **** * Return:
 973:.\Generated_Source\PSoC5/CyDmac.c **** *   0 in successful or CYRET_BAD_PARAM.
 974:.\Generated_Source\PSoC5/CyDmac.c **** *
 975:.\Generated_Source\PSoC5/CyDmac.c **** *
 976:.\Generated_Source\PSoC5/CyDmac.c **** *******************************************************************************/
 977:.\Generated_Source\PSoC5/CyDmac.c **** cystatus CyDmaTdSetAddress(uint8 tdHandle, uint16 source, uint16 destination) 
 978:.\Generated_Source\PSoC5/CyDmac.c **** {
 1491              		.loc 1 978 0
 1492              		.cfi_startproc
 1493              		@ args = 0, pretend = 0, frame = 16
 1494              		@ frame_needed = 1, uses_anonymous_args = 0
 1495              		@ link register save eliminated.
 1496 0000 80B4     		push	{r7}
 1497              	.LCFI60:
 1498              		.cfi_def_cfa_offset 4
 1499 0002 85B0     		sub	sp, sp, #20
 1500              	.LCFI61:
 1501              		.cfi_def_cfa_offset 24
 1502 0004 00AF     		add	r7, sp, #0
 1503              		.cfi_offset 7, -4
 1504              	.LCFI62:
 1505              		.cfi_def_cfa_register 7
 1506 0006 1346     		mov	r3, r2
 1507 0008 0246     		mov	r2, r0
 1508 000a FA71     		strb	r2, [r7, #7]
 1509 000c 0A46     		mov	r2, r1	@ movhi
 1510 000e BA80     		strh	r2, [r7, #4]	@ movhi
 1511 0010 7B80     		strh	r3, [r7, #2]	@ movhi
 979:.\Generated_Source\PSoC5/CyDmac.c ****     cystatus status;
 980:.\Generated_Source\PSoC5/CyDmac.c **** 
 981:.\Generated_Source\PSoC5/CyDmac.c **** 
 982:.\Generated_Source\PSoC5/CyDmac.c ****     if(tdHandle < NUMBEROF_TDS)
 1512              		.loc 1 982 0
 1513 0012 FB79     		ldrb	r3, [r7, #7]	@ zero_extendqisi2
 1514 0014 5BB2     		sxtb	r3, r3
 1515 0016 002B     		cmp	r3, #0
 1516 0018 1DDB     		blt	.L89
 1517              	.LBB7:
 983:.\Generated_Source\PSoC5/CyDmac.c ****     {
 984:.\Generated_Source\PSoC5/CyDmac.c ****         /* Set Source address. */
 985:.\Generated_Source\PSoC5/CyDmac.c ****         CONVERT_WORD *convert = (CONVERT_WORD *)&DMAC_TDMEM[tdHandle].TD1[0];
 1518              		.loc 1 985 0
 1519 001a FB79     		ldrb	r3, [r7, #7]	@ zero_extendqisi2
ARM GAS  C:\Users\Geo\AppData\Local\Temp\ccnnArMw.s 			page 45


 1520 001c 4FEAC303 		lsl	r3, r3, #3
 1521 0020 03F18043 		add	r3, r3, #1073741824
 1522 0024 03F5F043 		add	r3, r3, #30720
 1523 0028 03F10403 		add	r3, r3, #4
 1524 002c FB60     		str	r3, [r7, #12]
 986:.\Generated_Source\PSoC5/CyDmac.c ****         CY_SET_REG16(&convert->word, source);
 1525              		.loc 1 986 0
 1526 002e FB68     		ldr	r3, [r7, #12]
 1527 0030 BA88     		ldrh	r2, [r7, #4]	@ movhi
 1528 0032 1A80     		strh	r2, [r3, #0]	@ movhi
 987:.\Generated_Source\PSoC5/CyDmac.c **** 
 988:.\Generated_Source\PSoC5/CyDmac.c ****         /* Set Destination address. */
 989:.\Generated_Source\PSoC5/CyDmac.c ****         CY_SET_REG16((reg16 *) &DMAC_TDMEM[tdHandle].TD1[2], destination);
 1529              		.loc 1 989 0
 1530 0034 FB79     		ldrb	r3, [r7, #7]	@ zero_extendqisi2
 1531 0036 4FEAC303 		lsl	r3, r3, #3
 1532 003a 03F18043 		add	r3, r3, #1073741824
 1533 003e 03F5F043 		add	r3, r3, #30720
 1534 0042 03F10403 		add	r3, r3, #4
 1535 0046 03F10203 		add	r3, r3, #2
 1536 004a 7A88     		ldrh	r2, [r7, #2]	@ movhi
 1537 004c 1A80     		strh	r2, [r3, #0]	@ movhi
 990:.\Generated_Source\PSoC5/CyDmac.c **** 
 991:.\Generated_Source\PSoC5/CyDmac.c ****         status = CYRET_SUCCESS;
 1538              		.loc 1 991 0
 1539 004e 4FF00003 		mov	r3, #0
 1540 0052 BB60     		str	r3, [r7, #8]
 1541 0054 02E0     		b	.L90
 1542              	.L89:
 1543              	.LBE7:
 992:.\Generated_Source\PSoC5/CyDmac.c ****     }
 993:.\Generated_Source\PSoC5/CyDmac.c ****     else
 994:.\Generated_Source\PSoC5/CyDmac.c ****     {
 995:.\Generated_Source\PSoC5/CyDmac.c ****         status = CYRET_BAD_PARAM;
 1544              		.loc 1 995 0
 1545 0056 4FF00103 		mov	r3, #1
 1546 005a BB60     		str	r3, [r7, #8]
 1547              	.L90:
 996:.\Generated_Source\PSoC5/CyDmac.c ****     }
 997:.\Generated_Source\PSoC5/CyDmac.c **** 
 998:.\Generated_Source\PSoC5/CyDmac.c ****     return status;
 1548              		.loc 1 998 0
 1549 005c BB68     		ldr	r3, [r7, #8]
 999:.\Generated_Source\PSoC5/CyDmac.c **** }
 1550              		.loc 1 999 0
 1551 005e 1846     		mov	r0, r3
 1552 0060 07F11407 		add	r7, r7, #20
 1553 0064 BD46     		mov	sp, r7
 1554 0066 80BC     		pop	{r7}
 1555 0068 7047     		bx	lr
 1556              		.cfi_endproc
 1557              	.LFE21:
 1558              		.size	CyDmaTdSetAddress, .-CyDmaTdSetAddress
 1559 006a 00BF     		.section	.text.CyDmaTdGetAddress,"ax",%progbits
 1560              		.align	2
 1561              		.global	CyDmaTdGetAddress
 1562              		.thumb
ARM GAS  C:\Users\Geo\AppData\Local\Temp\ccnnArMw.s 			page 46


 1563              		.thumb_func
 1564              		.type	CyDmaTdGetAddress, %function
 1565              	CyDmaTdGetAddress:
 1566              	.LFB22:
1000:.\Generated_Source\PSoC5/CyDmac.c **** 
1001:.\Generated_Source\PSoC5/CyDmac.c **** 
1002:.\Generated_Source\PSoC5/CyDmac.c **** /*******************************************************************************
1003:.\Generated_Source\PSoC5/CyDmac.c **** * Function Name: CyDmaTdGetAddress
1004:.\Generated_Source\PSoC5/CyDmac.c **** ********************************************************************************
1005:.\Generated_Source\PSoC5/CyDmac.c **** * Summary:
1006:.\Generated_Source\PSoC5/CyDmac.c **** *   Gets the lower 16 bits of the source and/or destination addresses
1007:.\Generated_Source\PSoC5/CyDmac.c **** *   for this TD only.
1008:.\Generated_Source\PSoC5/CyDmac.c **** *
1009:.\Generated_Source\PSoC5/CyDmac.c **** *   if NULL is passed for a pointer parameter, that value will be
1010:.\Generated_Source\PSoC5/CyDmac.c **** *   skipped. The user can requestion only the values they are
1011:.\Generated_Source\PSoC5/CyDmac.c **** *   interested in.
1012:.\Generated_Source\PSoC5/CyDmac.c **** *
1013:.\Generated_Source\PSoC5/CyDmac.c **** * Parameters:
1014:.\Generated_Source\PSoC5/CyDmac.c **** * tdHandle:
1015:.\Generated_Source\PSoC5/CyDmac.c **** *   Handle to the TD.
1016:.\Generated_Source\PSoC5/CyDmac.c **** *
1017:.\Generated_Source\PSoC5/CyDmac.c **** * source:
1018:.\Generated_Source\PSoC5/CyDmac.c **** *   Address to store the lower 16 address bits of the Source of the
1019:.\Generated_Source\PSoC5/CyDmac.c **** *   data transfer.
1020:.\Generated_Source\PSoC5/CyDmac.c **** *
1021:.\Generated_Source\PSoC5/CyDmac.c **** * destination:
1022:.\Generated_Source\PSoC5/CyDmac.c **** *   Address to store the lower 16 address bits of the Destination of
1023:.\Generated_Source\PSoC5/CyDmac.c **** *   the data transfer.
1024:.\Generated_Source\PSoC5/CyDmac.c **** *
1025:.\Generated_Source\PSoC5/CyDmac.c **** *
1026:.\Generated_Source\PSoC5/CyDmac.c **** * Return:
1027:.\Generated_Source\PSoC5/CyDmac.c **** *   0 in successful or CYRET_BAD_PARAM.
1028:.\Generated_Source\PSoC5/CyDmac.c **** *
1029:.\Generated_Source\PSoC5/CyDmac.c **** *
1030:.\Generated_Source\PSoC5/CyDmac.c **** *******************************************************************************/
1031:.\Generated_Source\PSoC5/CyDmac.c **** cystatus CyDmaTdGetAddress(uint8 tdHandle, uint16 * source, uint16 * destination) 
1032:.\Generated_Source\PSoC5/CyDmac.c **** {
 1567              		.loc 1 1032 0
 1568              		.cfi_startproc
 1569              		@ args = 0, pretend = 0, frame = 24
 1570              		@ frame_needed = 1, uses_anonymous_args = 0
 1571              		@ link register save eliminated.
 1572 0000 80B4     		push	{r7}
 1573              	.LCFI63:
 1574              		.cfi_def_cfa_offset 4
 1575 0002 87B0     		sub	sp, sp, #28
 1576              	.LCFI64:
 1577              		.cfi_def_cfa_offset 32
 1578 0004 00AF     		add	r7, sp, #0
 1579              		.cfi_offset 7, -4
 1580              	.LCFI65:
 1581              		.cfi_def_cfa_register 7
 1582 0006 0346     		mov	r3, r0
 1583 0008 B960     		str	r1, [r7, #8]
 1584 000a 7A60     		str	r2, [r7, #4]
 1585 000c FB73     		strb	r3, [r7, #15]
1033:.\Generated_Source\PSoC5/CyDmac.c ****     cystatus status;
ARM GAS  C:\Users\Geo\AppData\Local\Temp\ccnnArMw.s 			page 47


1034:.\Generated_Source\PSoC5/CyDmac.c **** 
1035:.\Generated_Source\PSoC5/CyDmac.c **** 
1036:.\Generated_Source\PSoC5/CyDmac.c ****     if(tdHandle < NUMBEROF_TDS)
 1586              		.loc 1 1036 0
 1587 000e FB7B     		ldrb	r3, [r7, #15]	@ zero_extendqisi2
 1588 0010 5BB2     		sxtb	r3, r3
 1589 0012 002B     		cmp	r3, #0
 1590 0014 27DB     		blt	.L93
1037:.\Generated_Source\PSoC5/CyDmac.c ****     {
1038:.\Generated_Source\PSoC5/CyDmac.c ****         /* If we have a pointer. */
1039:.\Generated_Source\PSoC5/CyDmac.c ****         if(source)
 1591              		.loc 1 1039 0
 1592 0016 BB68     		ldr	r3, [r7, #8]
 1593 0018 002B     		cmp	r3, #0
 1594 001a 0ED0     		beq	.L94
 1595              	.LBB8:
1040:.\Generated_Source\PSoC5/CyDmac.c ****         {
1041:.\Generated_Source\PSoC5/CyDmac.c ****             /* Get Source address. */
1042:.\Generated_Source\PSoC5/CyDmac.c ****             CONVERT_WORD *convert = (CONVERT_WORD *)&DMAC_TDMEM[tdHandle].TD1[0];
 1596              		.loc 1 1042 0
 1597 001c FB7B     		ldrb	r3, [r7, #15]	@ zero_extendqisi2
 1598 001e 4FEAC303 		lsl	r3, r3, #3
 1599 0022 03F18043 		add	r3, r3, #1073741824
 1600 0026 03F5F043 		add	r3, r3, #30720
 1601 002a 03F10403 		add	r3, r3, #4
 1602 002e 7B61     		str	r3, [r7, #20]
1043:.\Generated_Source\PSoC5/CyDmac.c ****             *source = CY_GET_REG16(&convert->word);
 1603              		.loc 1 1043 0
 1604 0030 7B69     		ldr	r3, [r7, #20]
 1605 0032 1B88     		ldrh	r3, [r3, #0]	@ movhi
 1606 0034 9AB2     		uxth	r2, r3
 1607 0036 BB68     		ldr	r3, [r7, #8]
 1608 0038 1A80     		strh	r2, [r3, #0]	@ movhi
 1609              	.L94:
 1610              	.LBE8:
1044:.\Generated_Source\PSoC5/CyDmac.c ****         }
1045:.\Generated_Source\PSoC5/CyDmac.c **** 
1046:.\Generated_Source\PSoC5/CyDmac.c ****         /* If we have a pointer. */
1047:.\Generated_Source\PSoC5/CyDmac.c ****         if(destination)
 1611              		.loc 1 1047 0
 1612 003a 7B68     		ldr	r3, [r7, #4]
 1613 003c 002B     		cmp	r3, #0
 1614 003e 0ED0     		beq	.L95
1048:.\Generated_Source\PSoC5/CyDmac.c ****         {
1049:.\Generated_Source\PSoC5/CyDmac.c ****             /* Get Destination address. */
1050:.\Generated_Source\PSoC5/CyDmac.c ****             *destination = CY_GET_REG16((reg16 *) &DMAC_TDMEM[tdHandle].TD1[2]);
 1615              		.loc 1 1050 0
 1616 0040 FB7B     		ldrb	r3, [r7, #15]	@ zero_extendqisi2
 1617 0042 4FEAC303 		lsl	r3, r3, #3
 1618 0046 03F18043 		add	r3, r3, #1073741824
 1619 004a 03F5F043 		add	r3, r3, #30720
 1620 004e 03F10403 		add	r3, r3, #4
 1621 0052 03F10203 		add	r3, r3, #2
 1622 0056 1B88     		ldrh	r3, [r3, #0]	@ movhi
 1623 0058 9AB2     		uxth	r2, r3
 1624 005a 7B68     		ldr	r3, [r7, #4]
 1625 005c 1A80     		strh	r2, [r3, #0]	@ movhi
ARM GAS  C:\Users\Geo\AppData\Local\Temp\ccnnArMw.s 			page 48


 1626              	.L95:
1051:.\Generated_Source\PSoC5/CyDmac.c ****         }
1052:.\Generated_Source\PSoC5/CyDmac.c **** 
1053:.\Generated_Source\PSoC5/CyDmac.c ****         status = CYRET_SUCCESS;
 1627              		.loc 1 1053 0
 1628 005e 4FF00003 		mov	r3, #0
 1629 0062 3B61     		str	r3, [r7, #16]
 1630 0064 02E0     		b	.L96
 1631              	.L93:
1054:.\Generated_Source\PSoC5/CyDmac.c ****     }
1055:.\Generated_Source\PSoC5/CyDmac.c ****     else
1056:.\Generated_Source\PSoC5/CyDmac.c ****     {
1057:.\Generated_Source\PSoC5/CyDmac.c ****         status = CYRET_BAD_PARAM;
 1632              		.loc 1 1057 0
 1633 0066 4FF00103 		mov	r3, #1
 1634 006a 3B61     		str	r3, [r7, #16]
 1635              	.L96:
1058:.\Generated_Source\PSoC5/CyDmac.c ****     }
1059:.\Generated_Source\PSoC5/CyDmac.c **** 
1060:.\Generated_Source\PSoC5/CyDmac.c ****     return status;
 1636              		.loc 1 1060 0
 1637 006c 3B69     		ldr	r3, [r7, #16]
1061:.\Generated_Source\PSoC5/CyDmac.c **** }
 1638              		.loc 1 1061 0
 1639 006e 1846     		mov	r0, r3
 1640 0070 07F11C07 		add	r7, r7, #28
 1641 0074 BD46     		mov	sp, r7
 1642 0076 80BC     		pop	{r7}
 1643 0078 7047     		bx	lr
 1644              		.cfi_endproc
 1645              	.LFE22:
 1646              		.size	CyDmaTdGetAddress, .-CyDmaTdGetAddress
 1647 007a 00BF     		.section	.text.CyDmaChRoundRobin,"ax",%progbits
 1648              		.align	2
 1649              		.global	CyDmaChRoundRobin
 1650              		.thumb
 1651              		.thumb_func
 1652              		.type	CyDmaChRoundRobin, %function
 1653              	CyDmaChRoundRobin:
 1654              	.LFB23:
1062:.\Generated_Source\PSoC5/CyDmac.c **** 
1063:.\Generated_Source\PSoC5/CyDmac.c **** /*******************************************************************************
1064:.\Generated_Source\PSoC5/CyDmac.c **** * Function Name: CyDmaChRoundRobin
1065:.\Generated_Source\PSoC5/CyDmac.c **** ********************************************************************************
1066:.\Generated_Source\PSoC5/CyDmac.c **** * Summary:
1067:.\Generated_Source\PSoC5/CyDmac.c **** *   Either enables or disables the Round-Robin scheduling enforcement algorithm. Within a
1068:.\Generated_Source\PSoC5/CyDmac.c **** priority level a Round-Robin fairness algorithm is enforced.
1069:.\Generated_Source\PSoC5/CyDmac.c **** *
1070:.\Generated_Source\PSoC5/CyDmac.c **** * Parameters:
1071:.\Generated_Source\PSoC5/CyDmac.c **** * chHandle:
1072:.\Generated_Source\PSoC5/CyDmac.c **** *   Handle to the dma channel.
1073:.\Generated_Source\PSoC5/CyDmac.c **** * enableRR:
1074:.\Generated_Source\PSoC5/CyDmac.c **** *   0 Disable Round-Robin fairness algorithm
1075:.\Generated_Source\PSoC5/CyDmac.c **** *   1 Enable Round-Robin fairness algorithm
1076:.\Generated_Source\PSoC5/CyDmac.c **** *
1077:.\Generated_Source\PSoC5/CyDmac.c **** * Return:
1078:.\Generated_Source\PSoC5/CyDmac.c **** *   CYRET_SUCCESS if successful or CYRET_BAD_PARAM if chHandle is invalid.
ARM GAS  C:\Users\Geo\AppData\Local\Temp\ccnnArMw.s 			page 49


1079:.\Generated_Source\PSoC5/CyDmac.c **** *
1080:.\Generated_Source\PSoC5/CyDmac.c **** *******************************************************************************/
1081:.\Generated_Source\PSoC5/CyDmac.c **** cystatus CyDmaChRoundRobin(uint8 chHandle, uint8 enableRR)
1082:.\Generated_Source\PSoC5/CyDmac.c **** {
 1655              		.loc 1 1082 0
 1656              		.cfi_startproc
 1657              		@ args = 0, pretend = 0, frame = 16
 1658              		@ frame_needed = 1, uses_anonymous_args = 0
 1659              		@ link register save eliminated.
 1660 0000 80B4     		push	{r7}
 1661              	.LCFI66:
 1662              		.cfi_def_cfa_offset 4
 1663 0002 85B0     		sub	sp, sp, #20
 1664              	.LCFI67:
 1665              		.cfi_def_cfa_offset 24
 1666 0004 00AF     		add	r7, sp, #0
 1667              		.cfi_offset 7, -4
 1668              	.LCFI68:
 1669              		.cfi_def_cfa_register 7
 1670 0006 0246     		mov	r2, r0
 1671 0008 0B46     		mov	r3, r1
 1672 000a FA71     		strb	r2, [r7, #7]
 1673 000c BB71     		strb	r3, [r7, #6]
1083:.\Generated_Source\PSoC5/CyDmac.c ****     cystatus status;
1084:.\Generated_Source\PSoC5/CyDmac.c **** 	
1085:.\Generated_Source\PSoC5/CyDmac.c **** 	if(chHandle < NUMBEROF_CHANNELS)
 1674              		.loc 1 1085 0
 1675 000e FB79     		ldrb	r3, [r7, #7]	@ zero_extendqisi2
 1676 0010 172B     		cmp	r3, #23
 1677 0012 27D8     		bhi	.L99
1086:.\Generated_Source\PSoC5/CyDmac.c **** 	{
1087:.\Generated_Source\PSoC5/CyDmac.c **** 		DMAC_CH[chHandle].basic_cfg[0] = (DMAC_CH[chHandle].basic_cfg[0] &  ~ROUND_ROBIN_ENABLE) | ((enab
 1678              		.loc 1 1087 0
 1679 0014 FB79     		ldrb	r3, [r7, #7]	@ zero_extendqisi2
 1680 0016 4FEA0312 		lsl	r2, r3, #4
 1681 001a 47F21003 		movw	r3, #:lower16:1073770512
 1682 001e C4F20003 		movt	r3, #:upper16:1073770512
 1683 0022 1344     		add	r3, r2, r3
 1684 0024 FA79     		ldrb	r2, [r7, #7]	@ zero_extendqisi2
 1685 0026 4FEA0211 		lsl	r1, r2, #4
 1686 002a 47F21002 		movw	r2, #:lower16:1073770512
 1687 002e C4F20002 		movt	r2, #:upper16:1073770512
 1688 0032 0A44     		add	r2, r1, r2
 1689 0034 1278     		ldrb	r2, [r2, #0]
 1690 0036 D2B2     		uxtb	r2, r2
 1691 0038 D2B2     		uxtb	r2, r2
 1692 003a 02F0EF02 		and	r2, r2, #239
 1693 003e B979     		ldrb	r1, [r7, #6]	@ zero_extendqisi2
 1694 0040 0029     		cmp	r1, #0
 1695 0042 02D0     		beq	.L100
 1696 0044 4FF01001 		mov	r1, #16
 1697 0048 01E0     		b	.L101
 1698              	.L100:
 1699 004a 4FF0EF01 		mov	r1, #239
 1700              	.L101:
 1701 004e 1046     		mov	r0, r2
 1702 0050 0A46     		mov	r2, r1
ARM GAS  C:\Users\Geo\AppData\Local\Temp\ccnnArMw.s 			page 50


 1703 0052 40EA0202 		orr	r2, r0, r2
 1704 0056 D2B2     		uxtb	r2, r2
 1705 0058 D2B2     		uxtb	r2, r2
 1706 005a 1A70     		strb	r2, [r3, #0]
1088:.\Generated_Source\PSoC5/CyDmac.c **** 		status = CYRET_SUCCESS;
 1707              		.loc 1 1088 0
 1708 005c 4FF00003 		mov	r3, #0
 1709 0060 FB60     		str	r3, [r7, #12]
 1710 0062 02E0     		b	.L102
 1711              	.L99:
1089:.\Generated_Source\PSoC5/CyDmac.c **** 	}
1090:.\Generated_Source\PSoC5/CyDmac.c **** 	else
1091:.\Generated_Source\PSoC5/CyDmac.c **** 	{
1092:.\Generated_Source\PSoC5/CyDmac.c **** 		status = CYRET_BAD_PARAM;
 1712              		.loc 1 1092 0
 1713 0064 4FF00103 		mov	r3, #1
 1714 0068 FB60     		str	r3, [r7, #12]
 1715              	.L102:
1093:.\Generated_Source\PSoC5/CyDmac.c **** 	}
1094:.\Generated_Source\PSoC5/CyDmac.c **** 	
1095:.\Generated_Source\PSoC5/CyDmac.c **** 	return status;
 1716              		.loc 1 1095 0
 1717 006a FB68     		ldr	r3, [r7, #12]
1096:.\Generated_Source\PSoC5/CyDmac.c **** }
 1718              		.loc 1 1096 0
 1719 006c 1846     		mov	r0, r3
 1720 006e 07F11407 		add	r7, r7, #20
 1721 0072 BD46     		mov	sp, r7
 1722 0074 80BC     		pop	{r7}
 1723 0076 7047     		bx	lr
 1724              		.cfi_endproc
 1725              	.LFE23:
 1726              		.size	CyDmaChRoundRobin, .-CyDmaChRoundRobin
 1727              		.text
 1728              	.Letext0:
 1729              		.section	.debug_loc,"",%progbits
 1730              	.Ldebug_loc0:
 1731              	.LLST0:
 1732 0000 00000000 		.4byte	.LFB0
 1733 0004 02000000 		.4byte	.LCFI0
 1734 0008 0100     		.2byte	0x1
 1735 000a 5D       		.byte	0x5d
 1736 000b 02000000 		.4byte	.LCFI0
 1737 000f 04000000 		.4byte	.LCFI1
 1738 0013 0200     		.2byte	0x2
 1739 0015 7D       		.byte	0x7d
 1740 0016 04       		.sleb128 4
 1741 0017 04000000 		.4byte	.LCFI1
 1742 001b 06000000 		.4byte	.LCFI2
 1743 001f 0200     		.2byte	0x2
 1744 0021 7D       		.byte	0x7d
 1745 0022 10       		.sleb128 16
 1746 0023 06000000 		.4byte	.LCFI2
 1747 0027 6E000000 		.4byte	.LFE0
 1748 002b 0200     		.2byte	0x2
 1749 002d 77       		.byte	0x77
 1750 002e 10       		.sleb128 16
ARM GAS  C:\Users\Geo\AppData\Local\Temp\ccnnArMw.s 			page 51


 1751 002f 00000000 		.4byte	0x0
 1752 0033 00000000 		.4byte	0x0
 1753              	.LLST1:
 1754 0037 00000000 		.4byte	.LFB1
 1755 003b 02000000 		.4byte	.LCFI3
 1756 003f 0100     		.2byte	0x1
 1757 0041 5D       		.byte	0x5d
 1758 0042 02000000 		.4byte	.LCFI3
 1759 0046 04000000 		.4byte	.LCFI4
 1760 004a 0200     		.2byte	0x2
 1761 004c 7D       		.byte	0x7d
 1762 004d 04       		.sleb128 4
 1763 004e 04000000 		.4byte	.LCFI4
 1764 0052 1C000000 		.4byte	.LFE1
 1765 0056 0200     		.2byte	0x2
 1766 0058 77       		.byte	0x77
 1767 0059 04       		.sleb128 4
 1768 005a 00000000 		.4byte	0x0
 1769 005e 00000000 		.4byte	0x0
 1770              	.LLST2:
 1771 0062 00000000 		.4byte	.LFB2
 1772 0066 02000000 		.4byte	.LCFI5
 1773 006a 0100     		.2byte	0x1
 1774 006c 5D       		.byte	0x5d
 1775 006d 02000000 		.4byte	.LCFI5
 1776 0071 04000000 		.4byte	.LCFI6
 1777 0075 0200     		.2byte	0x2
 1778 0077 7D       		.byte	0x7d
 1779 0078 04       		.sleb128 4
 1780 0079 04000000 		.4byte	.LCFI6
 1781 007d 06000000 		.4byte	.LCFI7
 1782 0081 0200     		.2byte	0x2
 1783 0083 7D       		.byte	0x7d
 1784 0084 10       		.sleb128 16
 1785 0085 06000000 		.4byte	.LCFI7
 1786 0089 24000000 		.4byte	.LFE2
 1787 008d 0200     		.2byte	0x2
 1788 008f 77       		.byte	0x77
 1789 0090 10       		.sleb128 16
 1790 0091 00000000 		.4byte	0x0
 1791 0095 00000000 		.4byte	0x0
 1792              	.LLST3:
 1793 0099 00000000 		.4byte	.LFB3
 1794 009d 02000000 		.4byte	.LCFI8
 1795 00a1 0100     		.2byte	0x1
 1796 00a3 5D       		.byte	0x5d
 1797 00a4 02000000 		.4byte	.LCFI8
 1798 00a8 04000000 		.4byte	.LCFI9
 1799 00ac 0200     		.2byte	0x2
 1800 00ae 7D       		.byte	0x7d
 1801 00af 04       		.sleb128 4
 1802 00b0 04000000 		.4byte	.LCFI9
 1803 00b4 16000000 		.4byte	.LFE3
 1804 00b8 0200     		.2byte	0x2
 1805 00ba 77       		.byte	0x77
 1806 00bb 04       		.sleb128 4
 1807 00bc 00000000 		.4byte	0x0
ARM GAS  C:\Users\Geo\AppData\Local\Temp\ccnnArMw.s 			page 52


 1808 00c0 00000000 		.4byte	0x0
 1809              	.LLST4:
 1810 00c4 00000000 		.4byte	.LFB4
 1811 00c8 02000000 		.4byte	.LCFI10
 1812 00cc 0100     		.2byte	0x1
 1813 00ce 5D       		.byte	0x5d
 1814 00cf 02000000 		.4byte	.LCFI10
 1815 00d3 04000000 		.4byte	.LCFI11
 1816 00d7 0200     		.2byte	0x2
 1817 00d9 7D       		.byte	0x7d
 1818 00da 08       		.sleb128 8
 1819 00db 04000000 		.4byte	.LCFI11
 1820 00df 06000000 		.4byte	.LCFI12
 1821 00e3 0200     		.2byte	0x2
 1822 00e5 7D       		.byte	0x7d
 1823 00e6 10       		.sleb128 16
 1824 00e7 06000000 		.4byte	.LCFI12
 1825 00eb 82000000 		.4byte	.LFE4
 1826 00ef 0200     		.2byte	0x2
 1827 00f1 77       		.byte	0x77
 1828 00f2 10       		.sleb128 16
 1829 00f3 00000000 		.4byte	0x0
 1830 00f7 00000000 		.4byte	0x0
 1831              	.LLST5:
 1832 00fb 00000000 		.4byte	.LFB5
 1833 00ff 02000000 		.4byte	.LCFI13
 1834 0103 0100     		.2byte	0x1
 1835 0105 5D       		.byte	0x5d
 1836 0106 02000000 		.4byte	.LCFI13
 1837 010a 04000000 		.4byte	.LCFI14
 1838 010e 0200     		.2byte	0x2
 1839 0110 7D       		.byte	0x7d
 1840 0111 08       		.sleb128 8
 1841 0112 04000000 		.4byte	.LCFI14
 1842 0116 06000000 		.4byte	.LCFI15
 1843 011a 0200     		.2byte	0x2
 1844 011c 7D       		.byte	0x7d
 1845 011d 18       		.sleb128 24
 1846 011e 06000000 		.4byte	.LCFI15
 1847 0122 62000000 		.4byte	.LFE5
 1848 0126 0200     		.2byte	0x2
 1849 0128 77       		.byte	0x77
 1850 0129 18       		.sleb128 24
 1851 012a 00000000 		.4byte	0x0
 1852 012e 00000000 		.4byte	0x0
 1853              	.LLST6:
 1854 0132 00000000 		.4byte	.LFB6
 1855 0136 02000000 		.4byte	.LCFI16
 1856 013a 0100     		.2byte	0x1
 1857 013c 5D       		.byte	0x5d
 1858 013d 02000000 		.4byte	.LCFI16
 1859 0141 04000000 		.4byte	.LCFI17
 1860 0145 0200     		.2byte	0x2
 1861 0147 7D       		.byte	0x7d
 1862 0148 04       		.sleb128 4
 1863 0149 04000000 		.4byte	.LCFI17
 1864 014d 06000000 		.4byte	.LCFI18
ARM GAS  C:\Users\Geo\AppData\Local\Temp\ccnnArMw.s 			page 53


 1865 0151 0200     		.2byte	0x2
 1866 0153 7D       		.byte	0x7d
 1867 0154 18       		.sleb128 24
 1868 0155 06000000 		.4byte	.LCFI18
 1869 0159 70000000 		.4byte	.LFE6
 1870 015d 0200     		.2byte	0x2
 1871 015f 77       		.byte	0x77
 1872 0160 18       		.sleb128 24
 1873 0161 00000000 		.4byte	0x0
 1874 0165 00000000 		.4byte	0x0
 1875              	.LLST7:
 1876 0169 00000000 		.4byte	.LFB7
 1877 016d 02000000 		.4byte	.LCFI19
 1878 0171 0100     		.2byte	0x1
 1879 0173 5D       		.byte	0x5d
 1880 0174 02000000 		.4byte	.LCFI19
 1881 0178 04000000 		.4byte	.LCFI20
 1882 017c 0200     		.2byte	0x2
 1883 017e 7D       		.byte	0x7d
 1884 017f 04       		.sleb128 4
 1885 0180 04000000 		.4byte	.LCFI20
 1886 0184 06000000 		.4byte	.LCFI21
 1887 0188 0200     		.2byte	0x2
 1888 018a 7D       		.byte	0x7d
 1889 018b 18       		.sleb128 24
 1890 018c 06000000 		.4byte	.LCFI21
 1891 0190 56000000 		.4byte	.LFE7
 1892 0194 0200     		.2byte	0x2
 1893 0196 77       		.byte	0x77
 1894 0197 18       		.sleb128 24
 1895 0198 00000000 		.4byte	0x0
 1896 019c 00000000 		.4byte	0x0
 1897              	.LLST8:
 1898 01a0 00000000 		.4byte	.LFB8
 1899 01a4 02000000 		.4byte	.LCFI22
 1900 01a8 0100     		.2byte	0x1
 1901 01aa 5D       		.byte	0x5d
 1902 01ab 02000000 		.4byte	.LCFI22
 1903 01af 04000000 		.4byte	.LCFI23
 1904 01b3 0200     		.2byte	0x2
 1905 01b5 7D       		.byte	0x7d
 1906 01b6 04       		.sleb128 4
 1907 01b7 04000000 		.4byte	.LCFI23
 1908 01bb 06000000 		.4byte	.LCFI24
 1909 01bf 0200     		.2byte	0x2
 1910 01c1 7D       		.byte	0x7d
 1911 01c2 18       		.sleb128 24
 1912 01c3 06000000 		.4byte	.LCFI24
 1913 01c7 84000000 		.4byte	.LFE8
 1914 01cb 0200     		.2byte	0x2
 1915 01cd 77       		.byte	0x77
 1916 01ce 18       		.sleb128 24
 1917 01cf 00000000 		.4byte	0x0
 1918 01d3 00000000 		.4byte	0x0
 1919              	.LLST9:
 1920 01d7 00000000 		.4byte	.LFB9
 1921 01db 02000000 		.4byte	.LCFI25
ARM GAS  C:\Users\Geo\AppData\Local\Temp\ccnnArMw.s 			page 54


 1922 01df 0100     		.2byte	0x1
 1923 01e1 5D       		.byte	0x5d
 1924 01e2 02000000 		.4byte	.LCFI25
 1925 01e6 04000000 		.4byte	.LCFI26
 1926 01ea 0200     		.2byte	0x2
 1927 01ec 7D       		.byte	0x7d
 1928 01ed 04       		.sleb128 4
 1929 01ee 04000000 		.4byte	.LCFI26
 1930 01f2 06000000 		.4byte	.LCFI27
 1931 01f6 0200     		.2byte	0x2
 1932 01f8 7D       		.byte	0x7d
 1933 01f9 18       		.sleb128 24
 1934 01fa 06000000 		.4byte	.LCFI27
 1935 01fe 70000000 		.4byte	.LFE9
 1936 0202 0200     		.2byte	0x2
 1937 0204 77       		.byte	0x77
 1938 0205 18       		.sleb128 24
 1939 0206 00000000 		.4byte	0x0
 1940 020a 00000000 		.4byte	0x0
 1941              	.LLST10:
 1942 020e 00000000 		.4byte	.LFB10
 1943 0212 02000000 		.4byte	.LCFI28
 1944 0216 0100     		.2byte	0x1
 1945 0218 5D       		.byte	0x5d
 1946 0219 02000000 		.4byte	.LCFI28
 1947 021d 04000000 		.4byte	.LCFI29
 1948 0221 0200     		.2byte	0x2
 1949 0223 7D       		.byte	0x7d
 1950 0224 04       		.sleb128 4
 1951 0225 04000000 		.4byte	.LCFI29
 1952 0229 06000000 		.4byte	.LCFI30
 1953 022d 0200     		.2byte	0x2
 1954 022f 7D       		.byte	0x7d
 1955 0230 18       		.sleb128 24
 1956 0231 06000000 		.4byte	.LCFI30
 1957 0235 88000000 		.4byte	.LFE10
 1958 0239 0200     		.2byte	0x2
 1959 023b 77       		.byte	0x77
 1960 023c 18       		.sleb128 24
 1961 023d 00000000 		.4byte	0x0
 1962 0241 00000000 		.4byte	0x0
 1963              	.LLST11:
 1964 0245 00000000 		.4byte	.LFB11
 1965 0249 02000000 		.4byte	.LCFI31
 1966 024d 0100     		.2byte	0x1
 1967 024f 5D       		.byte	0x5d
 1968 0250 02000000 		.4byte	.LCFI31
 1969 0254 04000000 		.4byte	.LCFI32
 1970 0258 0200     		.2byte	0x2
 1971 025a 7D       		.byte	0x7d
 1972 025b 04       		.sleb128 4
 1973 025c 04000000 		.4byte	.LCFI32
 1974 0260 06000000 		.4byte	.LCFI33
 1975 0264 0200     		.2byte	0x2
 1976 0266 7D       		.byte	0x7d
 1977 0267 18       		.sleb128 24
 1978 0268 06000000 		.4byte	.LCFI33
ARM GAS  C:\Users\Geo\AppData\Local\Temp\ccnnArMw.s 			page 55


 1979 026c 44000000 		.4byte	.LFE11
 1980 0270 0200     		.2byte	0x2
 1981 0272 77       		.byte	0x77
 1982 0273 18       		.sleb128 24
 1983 0274 00000000 		.4byte	0x0
 1984 0278 00000000 		.4byte	0x0
 1985              	.LLST12:
 1986 027c 00000000 		.4byte	.LFB12
 1987 0280 02000000 		.4byte	.LCFI34
 1988 0284 0100     		.2byte	0x1
 1989 0286 5D       		.byte	0x5d
 1990 0287 02000000 		.4byte	.LCFI34
 1991 028b 04000000 		.4byte	.LCFI35
 1992 028f 0200     		.2byte	0x2
 1993 0291 7D       		.byte	0x7d
 1994 0292 04       		.sleb128 4
 1995 0293 04000000 		.4byte	.LCFI35
 1996 0297 06000000 		.4byte	.LCFI36
 1997 029b 0200     		.2byte	0x2
 1998 029d 7D       		.byte	0x7d
 1999 029e 18       		.sleb128 24
 2000 029f 06000000 		.4byte	.LCFI36
 2001 02a3 68000000 		.4byte	.LFE12
 2002 02a7 0200     		.2byte	0x2
 2003 02a9 77       		.byte	0x77
 2004 02aa 18       		.sleb128 24
 2005 02ab 00000000 		.4byte	0x0
 2006 02af 00000000 		.4byte	0x0
 2007              	.LLST13:
 2008 02b3 00000000 		.4byte	.LFB13
 2009 02b7 02000000 		.4byte	.LCFI37
 2010 02bb 0100     		.2byte	0x1
 2011 02bd 5D       		.byte	0x5d
 2012 02be 02000000 		.4byte	.LCFI37
 2013 02c2 04000000 		.4byte	.LCFI38
 2014 02c6 0200     		.2byte	0x2
 2015 02c8 7D       		.byte	0x7d
 2016 02c9 04       		.sleb128 4
 2017 02ca 04000000 		.4byte	.LCFI38
 2018 02ce 06000000 		.4byte	.LCFI39
 2019 02d2 0200     		.2byte	0x2
 2020 02d4 7D       		.byte	0x7d
 2021 02d5 18       		.sleb128 24
 2022 02d6 06000000 		.4byte	.LCFI39
 2023 02da 40000000 		.4byte	.LFE13
 2024 02de 0200     		.2byte	0x2
 2025 02e0 77       		.byte	0x77
 2026 02e1 18       		.sleb128 24
 2027 02e2 00000000 		.4byte	0x0
 2028 02e6 00000000 		.4byte	0x0
 2029              	.LLST14:
 2030 02ea 00000000 		.4byte	.LFB14
 2031 02ee 02000000 		.4byte	.LCFI40
 2032 02f2 0100     		.2byte	0x1
 2033 02f4 5D       		.byte	0x5d
 2034 02f5 02000000 		.4byte	.LCFI40
 2035 02f9 04000000 		.4byte	.LCFI41
ARM GAS  C:\Users\Geo\AppData\Local\Temp\ccnnArMw.s 			page 56


 2036 02fd 0200     		.2byte	0x2
 2037 02ff 7D       		.byte	0x7d
 2038 0300 04       		.sleb128 4
 2039 0301 04000000 		.4byte	.LCFI41
 2040 0305 06000000 		.4byte	.LCFI42
 2041 0309 0200     		.2byte	0x2
 2042 030b 7D       		.byte	0x7d
 2043 030c 20       		.sleb128 32
 2044 030d 06000000 		.4byte	.LCFI42
 2045 0311 70000000 		.4byte	.LFE14
 2046 0315 0200     		.2byte	0x2
 2047 0317 77       		.byte	0x77
 2048 0318 20       		.sleb128 32
 2049 0319 00000000 		.4byte	0x0
 2050 031d 00000000 		.4byte	0x0
 2051              	.LLST15:
 2052 0321 00000000 		.4byte	.LFB15
 2053 0325 02000000 		.4byte	.LCFI43
 2054 0329 0100     		.2byte	0x1
 2055 032b 5D       		.byte	0x5d
 2056 032c 02000000 		.4byte	.LCFI43
 2057 0330 04000000 		.4byte	.LCFI44
 2058 0334 0200     		.2byte	0x2
 2059 0336 7D       		.byte	0x7d
 2060 0337 04       		.sleb128 4
 2061 0338 04000000 		.4byte	.LCFI44
 2062 033c 06000000 		.4byte	.LCFI45
 2063 0340 0200     		.2byte	0x2
 2064 0342 7D       		.byte	0x7d
 2065 0343 18       		.sleb128 24
 2066 0344 06000000 		.4byte	.LCFI45
 2067 0348 A2000000 		.4byte	.LFE15
 2068 034c 0200     		.2byte	0x2
 2069 034e 77       		.byte	0x77
 2070 034f 18       		.sleb128 24
 2071 0350 00000000 		.4byte	0x0
 2072 0354 00000000 		.4byte	0x0
 2073              	.LLST16:
 2074 0358 00000000 		.4byte	.LFB16
 2075 035c 02000000 		.4byte	.LCFI46
 2076 0360 0100     		.2byte	0x1
 2077 0362 5D       		.byte	0x5d
 2078 0363 02000000 		.4byte	.LCFI46
 2079 0367 04000000 		.4byte	.LCFI47
 2080 036b 0200     		.2byte	0x2
 2081 036d 7D       		.byte	0x7d
 2082 036e 08       		.sleb128 8
 2083 036f 04000000 		.4byte	.LCFI47
 2084 0373 06000000 		.4byte	.LCFI48
 2085 0377 0200     		.2byte	0x2
 2086 0379 7D       		.byte	0x7d
 2087 037a 10       		.sleb128 16
 2088 037b 06000000 		.4byte	.LCFI48
 2089 037f 7A000000 		.4byte	.LFE16
 2090 0383 0200     		.2byte	0x2
 2091 0385 77       		.byte	0x77
 2092 0386 10       		.sleb128 16
ARM GAS  C:\Users\Geo\AppData\Local\Temp\ccnnArMw.s 			page 57


 2093 0387 00000000 		.4byte	0x0
 2094 038b 00000000 		.4byte	0x0
 2095              	.LLST17:
 2096 038f 00000000 		.4byte	.LFB17
 2097 0393 02000000 		.4byte	.LCFI49
 2098 0397 0100     		.2byte	0x1
 2099 0399 5D       		.byte	0x5d
 2100 039a 02000000 		.4byte	.LCFI49
 2101 039e 04000000 		.4byte	.LCFI50
 2102 03a2 0200     		.2byte	0x2
 2103 03a4 7D       		.byte	0x7d
 2104 03a5 08       		.sleb128 8
 2105 03a6 04000000 		.4byte	.LCFI50
 2106 03aa 06000000 		.4byte	.LCFI51
 2107 03ae 0200     		.2byte	0x2
 2108 03b0 7D       		.byte	0x7d
 2109 03b1 18       		.sleb128 24
 2110 03b2 06000000 		.4byte	.LCFI51
 2111 03b6 6A000000 		.4byte	.LFE17
 2112 03ba 0200     		.2byte	0x2
 2113 03bc 77       		.byte	0x77
 2114 03bd 18       		.sleb128 24
 2115 03be 00000000 		.4byte	0x0
 2116 03c2 00000000 		.4byte	0x0
 2117              	.LLST18:
 2118 03c6 00000000 		.4byte	.LFB18
 2119 03ca 02000000 		.4byte	.LCFI52
 2120 03ce 0100     		.2byte	0x1
 2121 03d0 5D       		.byte	0x5d
 2122 03d1 02000000 		.4byte	.LCFI52
 2123 03d5 04000000 		.4byte	.LCFI53
 2124 03d9 0200     		.2byte	0x2
 2125 03db 7D       		.byte	0x7d
 2126 03dc 04       		.sleb128 4
 2127 03dd 04000000 		.4byte	.LCFI53
 2128 03e1 1C000000 		.4byte	.LFE18
 2129 03e5 0200     		.2byte	0x2
 2130 03e7 77       		.byte	0x77
 2131 03e8 04       		.sleb128 4
 2132 03e9 00000000 		.4byte	0x0
 2133 03ed 00000000 		.4byte	0x0
 2134              	.LLST19:
 2135 03f1 00000000 		.4byte	.LFB19
 2136 03f5 02000000 		.4byte	.LCFI54
 2137 03f9 0100     		.2byte	0x1
 2138 03fb 5D       		.byte	0x5d
 2139 03fc 02000000 		.4byte	.LCFI54
 2140 0400 04000000 		.4byte	.LCFI55
 2141 0404 0200     		.2byte	0x2
 2142 0406 7D       		.byte	0x7d
 2143 0407 04       		.sleb128 4
 2144 0408 04000000 		.4byte	.LCFI55
 2145 040c 06000000 		.4byte	.LCFI56
 2146 0410 0200     		.2byte	0x2
 2147 0412 7D       		.byte	0x7d
 2148 0413 18       		.sleb128 24
 2149 0414 06000000 		.4byte	.LCFI56
ARM GAS  C:\Users\Geo\AppData\Local\Temp\ccnnArMw.s 			page 58


 2150 0418 76000000 		.4byte	.LFE19
 2151 041c 0200     		.2byte	0x2
 2152 041e 77       		.byte	0x77
 2153 041f 18       		.sleb128 24
 2154 0420 00000000 		.4byte	0x0
 2155 0424 00000000 		.4byte	0x0
 2156              	.LLST20:
 2157 0428 00000000 		.4byte	.LFB20
 2158 042c 02000000 		.4byte	.LCFI57
 2159 0430 0100     		.2byte	0x1
 2160 0432 5D       		.byte	0x5d
 2161 0433 02000000 		.4byte	.LCFI57
 2162 0437 04000000 		.4byte	.LCFI58
 2163 043b 0200     		.2byte	0x2
 2164 043d 7D       		.byte	0x7d
 2165 043e 04       		.sleb128 4
 2166 043f 04000000 		.4byte	.LCFI58
 2167 0443 06000000 		.4byte	.LCFI59
 2168 0447 0200     		.2byte	0x2
 2169 0449 7D       		.byte	0x7d
 2170 044a 20       		.sleb128 32
 2171 044b 06000000 		.4byte	.LCFI59
 2172 044f 94000000 		.4byte	.LFE20
 2173 0453 0200     		.2byte	0x2
 2174 0455 77       		.byte	0x77
 2175 0456 20       		.sleb128 32
 2176 0457 00000000 		.4byte	0x0
 2177 045b 00000000 		.4byte	0x0
 2178              	.LLST21:
 2179 045f 00000000 		.4byte	.LFB21
 2180 0463 02000000 		.4byte	.LCFI60
 2181 0467 0100     		.2byte	0x1
 2182 0469 5D       		.byte	0x5d
 2183 046a 02000000 		.4byte	.LCFI60
 2184 046e 04000000 		.4byte	.LCFI61
 2185 0472 0200     		.2byte	0x2
 2186 0474 7D       		.byte	0x7d
 2187 0475 04       		.sleb128 4
 2188 0476 04000000 		.4byte	.LCFI61
 2189 047a 06000000 		.4byte	.LCFI62
 2190 047e 0200     		.2byte	0x2
 2191 0480 7D       		.byte	0x7d
 2192 0481 18       		.sleb128 24
 2193 0482 06000000 		.4byte	.LCFI62
 2194 0486 6A000000 		.4byte	.LFE21
 2195 048a 0200     		.2byte	0x2
 2196 048c 77       		.byte	0x77
 2197 048d 18       		.sleb128 24
 2198 048e 00000000 		.4byte	0x0
 2199 0492 00000000 		.4byte	0x0
 2200              	.LLST22:
 2201 0496 00000000 		.4byte	.LFB22
 2202 049a 02000000 		.4byte	.LCFI63
 2203 049e 0100     		.2byte	0x1
 2204 04a0 5D       		.byte	0x5d
 2205 04a1 02000000 		.4byte	.LCFI63
 2206 04a5 04000000 		.4byte	.LCFI64
ARM GAS  C:\Users\Geo\AppData\Local\Temp\ccnnArMw.s 			page 59


 2207 04a9 0200     		.2byte	0x2
 2208 04ab 7D       		.byte	0x7d
 2209 04ac 04       		.sleb128 4
 2210 04ad 04000000 		.4byte	.LCFI64
 2211 04b1 06000000 		.4byte	.LCFI65
 2212 04b5 0200     		.2byte	0x2
 2213 04b7 7D       		.byte	0x7d
 2214 04b8 20       		.sleb128 32
 2215 04b9 06000000 		.4byte	.LCFI65
 2216 04bd 7A000000 		.4byte	.LFE22
 2217 04c1 0200     		.2byte	0x2
 2218 04c3 77       		.byte	0x77
 2219 04c4 20       		.sleb128 32
 2220 04c5 00000000 		.4byte	0x0
 2221 04c9 00000000 		.4byte	0x0
 2222              	.LLST23:
 2223 04cd 00000000 		.4byte	.LFB23
 2224 04d1 02000000 		.4byte	.LCFI66
 2225 04d5 0100     		.2byte	0x1
 2226 04d7 5D       		.byte	0x5d
 2227 04d8 02000000 		.4byte	.LCFI66
 2228 04dc 04000000 		.4byte	.LCFI67
 2229 04e0 0200     		.2byte	0x2
 2230 04e2 7D       		.byte	0x7d
 2231 04e3 04       		.sleb128 4
 2232 04e4 04000000 		.4byte	.LCFI67
 2233 04e8 06000000 		.4byte	.LCFI68
 2234 04ec 0200     		.2byte	0x2
 2235 04ee 7D       		.byte	0x7d
 2236 04ef 18       		.sleb128 24
 2237 04f0 06000000 		.4byte	.LCFI68
 2238 04f4 78000000 		.4byte	.LFE23
 2239 04f8 0200     		.2byte	0x2
 2240 04fa 77       		.byte	0x77
 2241 04fb 18       		.sleb128 24
 2242 04fc 00000000 		.4byte	0x0
 2243 0500 00000000 		.4byte	0x0
 2244              		.file 2 "./Generated_Source/PSoC5/CYTYPES.H"
 2245              		.file 3 "./Generated_Source/PSoC5/CYDMAC.H"
 2246              		.section	.debug_info
 2247 0000 33090000 		.4byte	0x933
 2248 0004 0200     		.2byte	0x2
 2249 0006 00000000 		.4byte	.Ldebug_abbrev0
 2250 000a 04       		.byte	0x4
 2251 000b 01       		.uleb128 0x1
 2252 000c 94000000 		.4byte	.LASF80
 2253 0010 01       		.byte	0x1
 2254 0011 9E010000 		.4byte	.LASF81
 2255 0015 A1020000 		.4byte	.LASF82
 2256 0019 00000000 		.4byte	0x0
 2257 001d 00000000 		.4byte	0x0
 2258 0021 00000000 		.4byte	.Ldebug_ranges0+0x0
 2259 0025 00000000 		.4byte	.Ldebug_line0
 2260 0029 02       		.uleb128 0x2
 2261 002a 01       		.byte	0x1
 2262 002b 06       		.byte	0x6
 2263 002c B7000000 		.4byte	.LASF0
ARM GAS  C:\Users\Geo\AppData\Local\Temp\ccnnArMw.s 			page 60


 2264 0030 02       		.uleb128 0x2
 2265 0031 01       		.byte	0x1
 2266 0032 08       		.byte	0x8
 2267 0033 3A030000 		.4byte	.LASF1
 2268 0037 02       		.uleb128 0x2
 2269 0038 02       		.byte	0x2
 2270 0039 05       		.byte	0x5
 2271 003a 48030000 		.4byte	.LASF2
 2272 003e 02       		.uleb128 0x2
 2273 003f 02       		.byte	0x2
 2274 0040 07       		.byte	0x7
 2275 0041 F9010000 		.4byte	.LASF3
 2276 0045 02       		.uleb128 0x2
 2277 0046 04       		.byte	0x4
 2278 0047 05       		.byte	0x5
 2279 0048 EE000000 		.4byte	.LASF4
 2280 004c 02       		.uleb128 0x2
 2281 004d 04       		.byte	0x4
 2282 004e 07       		.byte	0x7
 2283 004f 7F010000 		.4byte	.LASF5
 2284 0053 02       		.uleb128 0x2
 2285 0054 08       		.byte	0x8
 2286 0055 05       		.byte	0x5
 2287 0056 A9000000 		.4byte	.LASF6
 2288 005a 02       		.uleb128 0x2
 2289 005b 08       		.byte	0x8
 2290 005c 07       		.byte	0x7
 2291 005d 65000000 		.4byte	.LASF7
 2292 0061 03       		.uleb128 0x3
 2293 0062 04       		.byte	0x4
 2294 0063 05       		.byte	0x5
 2295 0064 696E7400 		.ascii	"int\000"
 2296 0068 02       		.uleb128 0x2
 2297 0069 04       		.byte	0x4
 2298 006a 07       		.byte	0x7
 2299 006b 72010000 		.4byte	.LASF8
 2300 006f 02       		.uleb128 0x2
 2301 0070 01       		.byte	0x1
 2302 0071 08       		.byte	0x8
 2303 0072 91030000 		.4byte	.LASF9
 2304 0076 04       		.uleb128 0x4
 2305 0077 07010000 		.4byte	.LASF10
 2306 007b 02       		.byte	0x2
 2307 007c 51       		.byte	0x51
 2308 007d 30000000 		.4byte	0x30
 2309 0081 04       		.uleb128 0x4
 2310 0082 00000000 		.4byte	.LASF11
 2311 0086 02       		.byte	0x2
 2312 0087 52       		.byte	0x52
 2313 0088 3E000000 		.4byte	0x3e
 2314 008c 04       		.uleb128 0x4
 2315 008d 27010000 		.4byte	.LASF12
 2316 0091 02       		.byte	0x2
 2317 0092 53       		.byte	0x53
 2318 0093 4C000000 		.4byte	0x4c
 2319 0097 05       		.uleb128 0x5
 2320 0098 43040000 		.4byte	.LASF13
ARM GAS  C:\Users\Geo\AppData\Local\Temp\ccnnArMw.s 			page 61


 2321 009c 02       		.byte	0x2
 2322 009d 0B01     		.2byte	0x10b
 2323 009f 4C000000 		.4byte	0x4c
 2324 00a3 06       		.uleb128 0x6
 2325 00a4 04       		.byte	0x4
 2326 00a5 07       		.byte	0x7
 2327 00a6 07       		.uleb128 0x7
 2328 00a7 00030000 		.4byte	.LASF18
 2329 00ab 10       		.byte	0x10
 2330 00ac 03       		.byte	0x3
 2331 00ad 2F       		.byte	0x2f
 2332 00ae EB000000 		.4byte	0xeb
 2333 00b2 08       		.uleb128 0x8
 2334 00b3 EF010000 		.4byte	.LASF14
 2335 00b7 03       		.byte	0x3
 2336 00b8 30       		.byte	0x30
 2337 00b9 FB000000 		.4byte	0xfb
 2338 00bd 02       		.byte	0x2
 2339 00be 23       		.byte	0x23
 2340 00bf 00       		.uleb128 0x0
 2341 00c0 08       		.uleb128 0x8
 2342 00c1 34010000 		.4byte	.LASF15
 2343 00c5 03       		.byte	0x3
 2344 00c6 31       		.byte	0x31
 2345 00c7 00010000 		.4byte	0x100
 2346 00cb 02       		.byte	0x2
 2347 00cc 23       		.byte	0x23
 2348 00cd 04       		.uleb128 0x4
 2349 00ce 08       		.uleb128 0x8
 2350 00cf 3E020000 		.4byte	.LASF16
 2351 00d3 03       		.byte	0x3
 2352 00d4 32       		.byte	0x32
 2353 00d5 05010000 		.4byte	0x105
 2354 00d9 02       		.byte	0x2
 2355 00da 23       		.byte	0x23
 2356 00db 08       		.uleb128 0x8
 2357 00dc 08       		.uleb128 0x8
 2358 00dd 3B010000 		.4byte	.LASF17
 2359 00e1 03       		.byte	0x3
 2360 00e2 33       		.byte	0x33
 2361 00e3 0A010000 		.4byte	0x10a
 2362 00e7 02       		.byte	0x2
 2363 00e8 23       		.byte	0x23
 2364 00e9 0C       		.uleb128 0xc
 2365 00ea 00       		.byte	0x0
 2366 00eb 09       		.uleb128 0x9
 2367 00ec 76000000 		.4byte	0x76
 2368 00f0 FB000000 		.4byte	0xfb
 2369 00f4 0A       		.uleb128 0xa
 2370 00f5 A3000000 		.4byte	0xa3
 2371 00f9 03       		.byte	0x3
 2372 00fa 00       		.byte	0x0
 2373 00fb 0B       		.uleb128 0xb
 2374 00fc EB000000 		.4byte	0xeb
 2375 0100 0B       		.uleb128 0xb
 2376 0101 EB000000 		.4byte	0xeb
 2377 0105 0B       		.uleb128 0xb
ARM GAS  C:\Users\Geo\AppData\Local\Temp\ccnnArMw.s 			page 62


 2378 0106 EB000000 		.4byte	0xeb
 2379 010a 0B       		.uleb128 0xb
 2380 010b EB000000 		.4byte	0xeb
 2381 010f 07       		.uleb128 0x7
 2382 0110 91010000 		.4byte	.LASF19
 2383 0114 08       		.byte	0x8
 2384 0115 03       		.byte	0x3
 2385 0116 38       		.byte	0x38
 2386 0117 38010000 		.4byte	0x138
 2387 011b 08       		.uleb128 0x8
 2388 011c 04040000 		.4byte	.LASF20
 2389 0120 03       		.byte	0x3
 2390 0121 39       		.byte	0x39
 2391 0122 38010000 		.4byte	0x138
 2392 0126 02       		.byte	0x2
 2393 0127 23       		.byte	0x23
 2394 0128 00       		.uleb128 0x0
 2395 0129 08       		.uleb128 0x8
 2396 012a 09040000 		.4byte	.LASF21
 2397 012e 03       		.byte	0x3
 2398 012f 3A       		.byte	0x3a
 2399 0130 3D010000 		.4byte	0x13d
 2400 0134 02       		.byte	0x2
 2401 0135 23       		.byte	0x23
 2402 0136 04       		.uleb128 0x4
 2403 0137 00       		.byte	0x0
 2404 0138 0B       		.uleb128 0xb
 2405 0139 EB000000 		.4byte	0xeb
 2406 013d 0B       		.uleb128 0xb
 2407 013e EB000000 		.4byte	0xeb
 2408 0142 07       		.uleb128 0x7
 2409 0143 0D010000 		.4byte	.LASF22
 2410 0147 08       		.byte	0x8
 2411 0148 03       		.byte	0x3
 2412 0149 3F       		.byte	0x3f
 2413 014a 6B010000 		.4byte	0x16b
 2414 014e 0C       		.uleb128 0xc
 2415 014f 54443000 		.ascii	"TD0\000"
 2416 0153 03       		.byte	0x3
 2417 0154 40       		.byte	0x40
 2418 0155 6B010000 		.4byte	0x16b
 2419 0159 02       		.byte	0x2
 2420 015a 23       		.byte	0x23
 2421 015b 00       		.uleb128 0x0
 2422 015c 0C       		.uleb128 0xc
 2423 015d 54443100 		.ascii	"TD1\000"
 2424 0161 03       		.byte	0x3
 2425 0162 41       		.byte	0x41
 2426 0163 70010000 		.4byte	0x170
 2427 0167 02       		.byte	0x2
 2428 0168 23       		.byte	0x23
 2429 0169 04       		.uleb128 0x4
 2430 016a 00       		.byte	0x0
 2431 016b 0B       		.uleb128 0xb
 2432 016c EB000000 		.4byte	0xeb
 2433 0170 0B       		.uleb128 0xb
 2434 0171 EB000000 		.4byte	0xeb
ARM GAS  C:\Users\Geo\AppData\Local\Temp\ccnnArMw.s 			page 63


 2435 0175 0D       		.uleb128 0xd
 2436 0176 02       		.byte	0x2
 2437 0177 01       		.byte	0x1
 2438 0178 30       		.byte	0x30
 2439 0179 94010000 		.4byte	0x194
 2440 017d 0E       		.uleb128 0xe
 2441 017e 2E010000 		.4byte	.LASF23
 2442 0182 01       		.byte	0x1
 2443 0183 30       		.byte	0x30
 2444 0184 A4010000 		.4byte	0x1a4
 2445 0188 0E       		.uleb128 0xe
 2446 0189 CA030000 		.4byte	.LASF24
 2447 018d 01       		.byte	0x1
 2448 018e 30       		.byte	0x30
 2449 018f 81000000 		.4byte	0x81
 2450 0193 00       		.byte	0x0
 2451 0194 09       		.uleb128 0x9
 2452 0195 76000000 		.4byte	0x76
 2453 0199 A4010000 		.4byte	0x1a4
 2454 019d 0A       		.uleb128 0xa
 2455 019e A3000000 		.4byte	0xa3
 2456 01a2 01       		.byte	0x1
 2457 01a3 00       		.byte	0x0
 2458 01a4 0B       		.uleb128 0xb
 2459 01a5 94010000 		.4byte	0x194
 2460 01a9 04       		.uleb128 0x4
 2461 01aa 8E020000 		.4byte	.LASF25
 2462 01ae 01       		.byte	0x1
 2463 01af 30       		.byte	0x30
 2464 01b0 75010000 		.4byte	0x175
 2465 01b4 0F       		.uleb128 0xf
 2466 01b5 01       		.byte	0x1
 2467 01b6 55000000 		.4byte	.LASF26
 2468 01ba 01       		.byte	0x1
 2469 01bb 42       		.byte	0x42
 2470 01bc 01       		.byte	0x1
 2471 01bd 00000000 		.4byte	.LFB0
 2472 01c1 6E000000 		.4byte	.LFE0
 2473 01c5 00000000 		.4byte	.LLST0
 2474 01c9 DC010000 		.4byte	0x1dc
 2475 01cd 10       		.uleb128 0x10
 2476 01ce A8030000 		.4byte	.LASF30
 2477 01d2 01       		.byte	0x1
 2478 01d3 44       		.byte	0x44
 2479 01d4 76000000 		.4byte	0x76
 2480 01d8 02       		.byte	0x2
 2481 01d9 91       		.byte	0x91
 2482 01da 77       		.sleb128 -9
 2483 01db 00       		.byte	0x0
 2484 01dc 11       		.uleb128 0x11
 2485 01dd 01       		.byte	0x1
 2486 01de 1A020000 		.4byte	.LASF28
 2487 01e2 01       		.byte	0x1
 2488 01e3 68       		.byte	0x68
 2489 01e4 01       		.byte	0x1
 2490 01e5 76000000 		.4byte	0x76
 2491 01e9 00000000 		.4byte	.LFB1
ARM GAS  C:\Users\Geo\AppData\Local\Temp\ccnnArMw.s 			page 64


 2492 01ed 1C000000 		.4byte	.LFE1
 2493 01f1 37000000 		.4byte	.LLST1
 2494 01f5 0F       		.uleb128 0xf
 2495 01f6 01       		.byte	0x1
 2496 01f7 26020000 		.4byte	.LASF27
 2497 01fb 01       		.byte	0x1
 2498 01fc 82       		.byte	0x82
 2499 01fd 01       		.byte	0x1
 2500 01fe 00000000 		.4byte	.LFB2
 2501 0202 24000000 		.4byte	.LFE2
 2502 0206 62000000 		.4byte	.LLST2
 2503 020a 1D020000 		.4byte	0x21d
 2504 020e 12       		.uleb128 0x12
 2505 020f 9B020000 		.4byte	.LASF35
 2506 0213 01       		.byte	0x1
 2507 0214 82       		.byte	0x82
 2508 0215 76000000 		.4byte	0x76
 2509 0219 02       		.byte	0x2
 2510 021a 91       		.byte	0x91
 2511 021b 77       		.sleb128 -9
 2512 021c 00       		.byte	0x0
 2513 021d 11       		.uleb128 0x11
 2514 021e 01       		.byte	0x1
 2515 021f 07000000 		.4byte	.LASF29
 2516 0223 01       		.byte	0x1
 2517 0224 9D       		.byte	0x9d
 2518 0225 01       		.byte	0x1
 2519 0226 8C000000 		.4byte	0x8c
 2520 022a 00000000 		.4byte	.LFB3
 2521 022e 16000000 		.4byte	.LFE3
 2522 0232 99000000 		.4byte	.LLST3
 2523 0236 13       		.uleb128 0x13
 2524 0237 01       		.byte	0x1
 2525 0238 DB000000 		.4byte	.LASF33
 2526 023c 01       		.byte	0x1
 2527 023d B4       		.byte	0xb4
 2528 023e 01       		.byte	0x1
 2529 023f 76000000 		.4byte	0x76
 2530 0243 00000000 		.4byte	.LFB4
 2531 0247 82000000 		.4byte	.LFE4
 2532 024b C4000000 		.4byte	.LLST4
 2533 024f 7E020000 		.4byte	0x27e
 2534 0253 10       		.uleb128 0x10
 2535 0254 C3000000 		.4byte	.LASF31
 2536 0258 01       		.byte	0x1
 2537 0259 B6       		.byte	0xb6
 2538 025a 76000000 		.4byte	0x76
 2539 025e 02       		.byte	0x2
 2540 025f 91       		.byte	0x91
 2541 0260 72       		.sleb128 -14
 2542 0261 10       		.uleb128 0x10
 2543 0262 A8030000 		.4byte	.LASF30
 2544 0266 01       		.byte	0x1
 2545 0267 B7       		.byte	0xb7
 2546 0268 76000000 		.4byte	0x76
 2547 026c 02       		.byte	0x2
 2548 026d 91       		.byte	0x91
ARM GAS  C:\Users\Geo\AppData\Local\Temp\ccnnArMw.s 			page 65


 2549 026e 73       		.sleb128 -13
 2550 026f 10       		.uleb128 0x10
 2551 0270 62030000 		.4byte	.LASF32
 2552 0274 01       		.byte	0x1
 2553 0275 B8       		.byte	0xb8
 2554 0276 8C000000 		.4byte	0x8c
 2555 027a 02       		.byte	0x2
 2556 027b 91       		.byte	0x91
 2557 027c 74       		.sleb128 -12
 2558 027d 00       		.byte	0x0
 2559 027e 13       		.uleb128 0x13
 2560 027f 01       		.byte	0x1
 2561 0280 64040000 		.4byte	.LASF34
 2562 0284 01       		.byte	0x1
 2563 0285 E5       		.byte	0xe5
 2564 0286 01       		.byte	0x1
 2565 0287 97000000 		.4byte	0x97
 2566 028b 00000000 		.4byte	.LFB5
 2567 028f 62000000 		.4byte	.LFE5
 2568 0293 FB000000 		.4byte	.LLST5
 2569 0297 D0020000 		.4byte	0x2d0
 2570 029b 12       		.uleb128 0x12
 2571 029c 59030000 		.4byte	.LASF36
 2572 02a0 01       		.byte	0x1
 2573 02a1 E5       		.byte	0xe5
 2574 02a2 76000000 		.4byte	0x76
 2575 02a6 02       		.byte	0x2
 2576 02a7 91       		.byte	0x91
 2577 02a8 6F       		.sleb128 -17
 2578 02a9 10       		.uleb128 0x10
 2579 02aa 0E040000 		.4byte	.LASF37
 2580 02ae 01       		.byte	0x1
 2581 02af E7       		.byte	0xe7
 2582 02b0 97000000 		.4byte	0x97
 2583 02b4 02       		.byte	0x2
 2584 02b5 91       		.byte	0x91
 2585 02b6 70       		.sleb128 -16
 2586 02b7 14       		.uleb128 0x14
 2587 02b8 10000000 		.4byte	.LBB2
 2588 02bc 50000000 		.4byte	.LBE2
 2589 02c0 10       		.uleb128 0x10
 2590 02c1 C3000000 		.4byte	.LASF31
 2591 02c5 01       		.byte	0x1
 2592 02c6 ED       		.byte	0xed
 2593 02c7 76000000 		.4byte	0x76
 2594 02cb 02       		.byte	0x2
 2595 02cc 91       		.byte	0x91
 2596 02cd 77       		.sleb128 -9
 2597 02ce 00       		.byte	0x0
 2598 02cf 00       		.byte	0x0
 2599 02d0 15       		.uleb128 0x15
 2600 02d1 01       		.byte	0x1
 2601 02d2 36000000 		.4byte	.LASF38
 2602 02d6 01       		.byte	0x1
 2603 02d7 1201     		.2byte	0x112
 2604 02d9 01       		.byte	0x1
 2605 02da 97000000 		.4byte	0x97
ARM GAS  C:\Users\Geo\AppData\Local\Temp\ccnnArMw.s 			page 66


 2606 02de 00000000 		.4byte	.LFB6
 2607 02e2 70000000 		.4byte	.LFE6
 2608 02e6 32010000 		.4byte	.LLST6
 2609 02ea 1C030000 		.4byte	0x31c
 2610 02ee 16       		.uleb128 0x16
 2611 02ef 59030000 		.4byte	.LASF36
 2612 02f3 01       		.byte	0x1
 2613 02f4 1201     		.2byte	0x112
 2614 02f6 76000000 		.4byte	0x76
 2615 02fa 02       		.byte	0x2
 2616 02fb 91       		.byte	0x91
 2617 02fc 6F       		.sleb128 -17
 2618 02fd 16       		.uleb128 0x16
 2619 02fe BE030000 		.4byte	.LASF39
 2620 0302 01       		.byte	0x1
 2621 0303 1201     		.2byte	0x112
 2622 0305 76000000 		.4byte	0x76
 2623 0309 02       		.byte	0x2
 2624 030a 91       		.byte	0x91
 2625 030b 6E       		.sleb128 -18
 2626 030c 17       		.uleb128 0x17
 2627 030d 0E040000 		.4byte	.LASF37
 2628 0311 01       		.byte	0x1
 2629 0312 1401     		.2byte	0x114
 2630 0314 97000000 		.4byte	0x97
 2631 0318 02       		.byte	0x2
 2632 0319 91       		.byte	0x91
 2633 031a 74       		.sleb128 -12
 2634 031b 00       		.byte	0x0
 2635 031c 15       		.uleb128 0x15
 2636 031d 01       		.byte	0x1
 2637 031e 78030000 		.4byte	.LASF40
 2638 0322 01       		.byte	0x1
 2639 0323 3C01     		.2byte	0x13c
 2640 0325 01       		.byte	0x1
 2641 0326 97000000 		.4byte	0x97
 2642 032a 00000000 		.4byte	.LFB7
 2643 032e 56000000 		.4byte	.LFE7
 2644 0332 69010000 		.4byte	.LLST7
 2645 0336 59030000 		.4byte	0x359
 2646 033a 16       		.uleb128 0x16
 2647 033b 59030000 		.4byte	.LASF36
 2648 033f 01       		.byte	0x1
 2649 0340 3C01     		.2byte	0x13c
 2650 0342 76000000 		.4byte	0x76
 2651 0346 02       		.byte	0x2
 2652 0347 91       		.byte	0x91
 2653 0348 6F       		.sleb128 -17
 2654 0349 17       		.uleb128 0x17
 2655 034a 0E040000 		.4byte	.LASF37
 2656 034e 01       		.byte	0x1
 2657 034f 3E01     		.2byte	0x13e
 2658 0351 97000000 		.4byte	0x97
 2659 0355 02       		.byte	0x2
 2660 0356 91       		.byte	0x91
 2661 0357 74       		.sleb128 -12
 2662 0358 00       		.byte	0x0
ARM GAS  C:\Users\Geo\AppData\Local\Temp\ccnnArMw.s 			page 67


 2663 0359 15       		.uleb128 0x15
 2664 035a 01       		.byte	0x1
 2665 035b 65020000 		.4byte	.LASF41
 2666 035f 01       		.byte	0x1
 2667 0360 5D01     		.2byte	0x15d
 2668 0362 01       		.byte	0x1
 2669 0363 97000000 		.4byte	0x97
 2670 0367 00000000 		.4byte	.LFB8
 2671 036b 84000000 		.4byte	.LFE8
 2672 036f A0010000 		.4byte	.LLST8
 2673 0373 96030000 		.4byte	0x396
 2674 0377 16       		.uleb128 0x16
 2675 0378 59030000 		.4byte	.LASF36
 2676 037c 01       		.byte	0x1
 2677 037d 5D01     		.2byte	0x15d
 2678 037f 76000000 		.4byte	0x76
 2679 0383 02       		.byte	0x2
 2680 0384 91       		.byte	0x91
 2681 0385 6F       		.sleb128 -17
 2682 0386 17       		.uleb128 0x17
 2683 0387 0E040000 		.4byte	.LASF37
 2684 038b 01       		.byte	0x1
 2685 038c 5F01     		.2byte	0x15f
 2686 038e 97000000 		.4byte	0x97
 2687 0392 02       		.byte	0x2
 2688 0393 91       		.byte	0x91
 2689 0394 74       		.sleb128 -12
 2690 0395 00       		.byte	0x0
 2691 0396 15       		.uleb128 0x15
 2692 0397 01       		.byte	0x1
 2693 0398 62010000 		.4byte	.LASF42
 2694 039c 01       		.byte	0x1
 2695 039d 8401     		.2byte	0x184
 2696 039f 01       		.byte	0x1
 2697 03a0 97000000 		.4byte	0x97
 2698 03a4 00000000 		.4byte	.LFB9
 2699 03a8 70000000 		.4byte	.LFE9
 2700 03ac D7010000 		.4byte	.LLST9
 2701 03b0 F1030000 		.4byte	0x3f1
 2702 03b4 16       		.uleb128 0x16
 2703 03b5 59030000 		.4byte	.LASF36
 2704 03b9 01       		.byte	0x1
 2705 03ba 8401     		.2byte	0x184
 2706 03bc 76000000 		.4byte	0x76
 2707 03c0 02       		.byte	0x2
 2708 03c1 91       		.byte	0x91
 2709 03c2 6F       		.sleb128 -17
 2710 03c3 16       		.uleb128 0x16
 2711 03c4 85020000 		.4byte	.LASF43
 2712 03c8 01       		.byte	0x1
 2713 03c9 8401     		.2byte	0x184
 2714 03cb 76000000 		.4byte	0x76
 2715 03cf 02       		.byte	0x2
 2716 03d0 91       		.byte	0x91
 2717 03d1 6E       		.sleb128 -18
 2718 03d2 17       		.uleb128 0x17
 2719 03d3 DF030000 		.4byte	.LASF44
ARM GAS  C:\Users\Geo\AppData\Local\Temp\ccnnArMw.s 			page 68


 2720 03d7 01       		.byte	0x1
 2721 03d8 8601     		.2byte	0x186
 2722 03da 76000000 		.4byte	0x76
 2723 03de 02       		.byte	0x2
 2724 03df 91       		.byte	0x91
 2725 03e0 73       		.sleb128 -13
 2726 03e1 17       		.uleb128 0x17
 2727 03e2 0E040000 		.4byte	.LASF37
 2728 03e6 01       		.byte	0x1
 2729 03e7 8701     		.2byte	0x187
 2730 03e9 97000000 		.4byte	0x97
 2731 03ed 02       		.byte	0x2
 2732 03ee 91       		.byte	0x91
 2733 03ef 74       		.sleb128 -12
 2734 03f0 00       		.byte	0x0
 2735 03f1 15       		.uleb128 0x15
 2736 03f2 01       		.byte	0x1
 2737 03f3 C0010000 		.4byte	.LASF45
 2738 03f7 01       		.byte	0x1
 2739 03f8 B101     		.2byte	0x1b1
 2740 03fa 01       		.byte	0x1
 2741 03fb 97000000 		.4byte	0x97
 2742 03ff 00000000 		.4byte	.LFB10
 2743 0403 88000000 		.4byte	.LFE10
 2744 0407 0E020000 		.4byte	.LLST10
 2745 040b 65040000 		.4byte	0x465
 2746 040f 16       		.uleb128 0x16
 2747 0410 59030000 		.4byte	.LASF36
 2748 0414 01       		.byte	0x1
 2749 0415 B101     		.2byte	0x1b1
 2750 0417 76000000 		.4byte	0x76
 2751 041b 02       		.byte	0x2
 2752 041c 91       		.byte	0x91
 2753 041d 6F       		.sleb128 -17
 2754 041e 16       		.uleb128 0x16
 2755 041f 37020000 		.4byte	.LASF46
 2756 0423 01       		.byte	0x1
 2757 0424 B101     		.2byte	0x1b1
 2758 0426 81000000 		.4byte	0x81
 2759 042a 02       		.byte	0x2
 2760 042b 91       		.byte	0x91
 2761 042c 6C       		.sleb128 -20
 2762 042d 16       		.uleb128 0x16
 2763 042e 56010000 		.4byte	.LASF47
 2764 0432 01       		.byte	0x1
 2765 0433 B101     		.2byte	0x1b1
 2766 0435 81000000 		.4byte	0x81
 2767 0439 02       		.byte	0x2
 2768 043a 91       		.byte	0x91
 2769 043b 6A       		.sleb128 -22
 2770 043c 17       		.uleb128 0x17
 2771 043d 0E040000 		.4byte	.LASF37
 2772 0441 01       		.byte	0x1
 2773 0442 B301     		.2byte	0x1b3
 2774 0444 97000000 		.4byte	0x97
 2775 0448 02       		.byte	0x2
 2776 0449 91       		.byte	0x91
ARM GAS  C:\Users\Geo\AppData\Local\Temp\ccnnArMw.s 			page 69


 2777 044a 70       		.sleb128 -16
 2778 044b 14       		.uleb128 0x14
 2779 044c 38000000 		.4byte	.LBB3
 2780 0450 74000000 		.4byte	.LBE3
 2781 0454 17       		.uleb128 0x17
 2782 0455 CF030000 		.4byte	.LASF48
 2783 0459 01       		.byte	0x1
 2784 045a C001     		.2byte	0x1c0
 2785 045c 65040000 		.4byte	0x465
 2786 0460 02       		.byte	0x2
 2787 0461 91       		.byte	0x91
 2788 0462 74       		.sleb128 -12
 2789 0463 00       		.byte	0x0
 2790 0464 00       		.byte	0x0
 2791 0465 18       		.uleb128 0x18
 2792 0466 04       		.byte	0x4
 2793 0467 A9010000 		.4byte	0x1a9
 2794 046b 15       		.uleb128 0x15
 2795 046c 01       		.byte	0x1
 2796 046d 2F040000 		.4byte	.LASF49
 2797 0471 01       		.byte	0x1
 2798 0472 E301     		.2byte	0x1e3
 2799 0474 01       		.byte	0x1
 2800 0475 97000000 		.4byte	0x97
 2801 0479 00000000 		.4byte	.LFB11
 2802 047d 44000000 		.4byte	.LFE11
 2803 0481 45020000 		.4byte	.LLST11
 2804 0485 B7040000 		.4byte	0x4b7
 2805 0489 16       		.uleb128 0x16
 2806 048a 59030000 		.4byte	.LASF36
 2807 048e 01       		.byte	0x1
 2808 048f E301     		.2byte	0x1e3
 2809 0491 76000000 		.4byte	0x76
 2810 0495 02       		.byte	0x2
 2811 0496 91       		.byte	0x91
 2812 0497 6F       		.sleb128 -17
 2813 0498 16       		.uleb128 0x16
 2814 0499 D7030000 		.4byte	.LASF50
 2815 049d 01       		.byte	0x1
 2816 049e E301     		.2byte	0x1e3
 2817 04a0 76000000 		.4byte	0x76
 2818 04a4 02       		.byte	0x2
 2819 04a5 91       		.byte	0x91
 2820 04a6 6E       		.sleb128 -18
 2821 04a7 17       		.uleb128 0x17
 2822 04a8 0E040000 		.4byte	.LASF37
 2823 04ac 01       		.byte	0x1
 2824 04ad E501     		.2byte	0x1e5
 2825 04af 97000000 		.4byte	0x97
 2826 04b3 02       		.byte	0x2
 2827 04b4 91       		.byte	0x91
 2828 04b5 74       		.sleb128 -12
 2829 04b6 00       		.byte	0x0
 2830 04b7 15       		.uleb128 0x15
 2831 04b8 01       		.byte	0x1
 2832 04b9 28030000 		.4byte	.LASF51
 2833 04bd 01       		.byte	0x1
ARM GAS  C:\Users\Geo\AppData\Local\Temp\ccnnArMw.s 			page 70


 2834 04be 0E02     		.2byte	0x20e
 2835 04c0 01       		.byte	0x1
 2836 04c1 97000000 		.4byte	0x97
 2837 04c5 00000000 		.4byte	.LFB12
 2838 04c9 68000000 		.4byte	.LFE12
 2839 04cd 7C020000 		.4byte	.LLST12
 2840 04d1 03050000 		.4byte	0x503
 2841 04d5 16       		.uleb128 0x16
 2842 04d6 59030000 		.4byte	.LASF36
 2843 04da 01       		.byte	0x1
 2844 04db 0E02     		.2byte	0x20e
 2845 04dd 76000000 		.4byte	0x76
 2846 04e1 02       		.byte	0x2
 2847 04e2 91       		.byte	0x91
 2848 04e3 6F       		.sleb128 -17
 2849 04e4 16       		.uleb128 0x16
 2850 04e5 5D020000 		.4byte	.LASF52
 2851 04e9 01       		.byte	0x1
 2852 04ea 0E02     		.2byte	0x20e
 2853 04ec 76000000 		.4byte	0x76
 2854 04f0 02       		.byte	0x2
 2855 04f1 91       		.byte	0x91
 2856 04f2 6E       		.sleb128 -18
 2857 04f3 17       		.uleb128 0x17
 2858 04f4 0E040000 		.4byte	.LASF37
 2859 04f8 01       		.byte	0x1
 2860 04f9 1002     		.2byte	0x210
 2861 04fb 97000000 		.4byte	0x97
 2862 04ff 02       		.byte	0x2
 2863 0500 91       		.byte	0x91
 2864 0501 74       		.sleb128 -12
 2865 0502 00       		.byte	0x0
 2866 0503 15       		.uleb128 0x15
 2867 0504 01       		.byte	0x1
 2868 0505 15040000 		.4byte	.LASF53
 2869 0509 01       		.byte	0x1
 2870 050a 3602     		.2byte	0x236
 2871 050c 01       		.byte	0x1
 2872 050d 97000000 		.4byte	0x97
 2873 0511 00000000 		.4byte	.LFB13
 2874 0515 40000000 		.4byte	.LFE13
 2875 0519 B3020000 		.4byte	.LLST13
 2876 051d 40050000 		.4byte	0x540
 2877 0521 16       		.uleb128 0x16
 2878 0522 59030000 		.4byte	.LASF36
 2879 0526 01       		.byte	0x1
 2880 0527 3602     		.2byte	0x236
 2881 0529 76000000 		.4byte	0x76
 2882 052d 02       		.byte	0x2
 2883 052e 91       		.byte	0x91
 2884 052f 6F       		.sleb128 -17
 2885 0530 17       		.uleb128 0x17
 2886 0531 0E040000 		.4byte	.LASF37
 2887 0535 01       		.byte	0x1
 2888 0536 3802     		.2byte	0x238
 2889 0538 97000000 		.4byte	0x97
 2890 053c 02       		.byte	0x2
ARM GAS  C:\Users\Geo\AppData\Local\Temp\ccnnArMw.s 			page 71


 2891 053d 91       		.byte	0x91
 2892 053e 74       		.sleb128 -12
 2893 053f 00       		.byte	0x0
 2894 0540 15       		.uleb128 0x15
 2895 0541 01       		.byte	0x1
 2896 0542 6A030000 		.4byte	.LASF54
 2897 0546 01       		.byte	0x1
 2898 0547 6402     		.2byte	0x264
 2899 0549 01       		.byte	0x1
 2900 054a 97000000 		.4byte	0x97
 2901 054e 00000000 		.4byte	.LFB14
 2902 0552 70000000 		.4byte	.LFE14
 2903 0556 EA020000 		.4byte	.LLST14
 2904 055a 9B050000 		.4byte	0x59b
 2905 055e 16       		.uleb128 0x16
 2906 055f 59030000 		.4byte	.LASF36
 2907 0563 01       		.byte	0x1
 2908 0564 6402     		.2byte	0x264
 2909 0566 76000000 		.4byte	0x76
 2910 056a 02       		.byte	0x2
 2911 056b 91       		.byte	0x91
 2912 056c 6F       		.sleb128 -17
 2913 056d 16       		.uleb128 0x16
 2914 056e 87030000 		.4byte	.LASF55
 2915 0572 01       		.byte	0x1
 2916 0573 6402     		.2byte	0x264
 2917 0575 9B050000 		.4byte	0x59b
 2918 0579 02       		.byte	0x2
 2919 057a 91       		.byte	0x91
 2920 057b 68       		.sleb128 -24
 2921 057c 16       		.uleb128 0x16
 2922 057d E8000000 		.4byte	.LASF56
 2923 0581 01       		.byte	0x1
 2924 0582 6402     		.2byte	0x264
 2925 0584 9B050000 		.4byte	0x59b
 2926 0588 02       		.byte	0x2
 2927 0589 91       		.byte	0x91
 2928 058a 64       		.sleb128 -28
 2929 058b 17       		.uleb128 0x17
 2930 058c 0E040000 		.4byte	.LASF37
 2931 0590 01       		.byte	0x1
 2932 0591 6602     		.2byte	0x266
 2933 0593 97000000 		.4byte	0x97
 2934 0597 02       		.byte	0x2
 2935 0598 91       		.byte	0x91
 2936 0599 74       		.sleb128 -12
 2937 059a 00       		.byte	0x0
 2938 059b 18       		.uleb128 0x18
 2939 059c 04       		.byte	0x4
 2940 059d 76000000 		.4byte	0x76
 2941 05a1 15       		.uleb128 0x15
 2942 05a2 01       		.byte	0x1
 2943 05a3 4C040000 		.4byte	.LASF57
 2944 05a7 01       		.byte	0x1
 2945 05a8 A002     		.2byte	0x2a0
 2946 05aa 01       		.byte	0x1
 2947 05ab 97000000 		.4byte	0x97
ARM GAS  C:\Users\Geo\AppData\Local\Temp\ccnnArMw.s 			page 72


 2948 05af 00000000 		.4byte	.LFB15
 2949 05b3 A2000000 		.4byte	.LFE15
 2950 05b7 21030000 		.4byte	.LLST15
 2951 05bb 29060000 		.4byte	0x629
 2952 05bf 16       		.uleb128 0x16
 2953 05c0 59030000 		.4byte	.LASF36
 2954 05c4 01       		.byte	0x1
 2955 05c5 A002     		.2byte	0x2a0
 2956 05c7 76000000 		.4byte	0x76
 2957 05cb 02       		.byte	0x2
 2958 05cc 91       		.byte	0x91
 2959 05cd 6F       		.sleb128 -17
 2960 05ce 16       		.uleb128 0x16
 2961 05cf 7A020000 		.4byte	.LASF58
 2962 05d3 01       		.byte	0x1
 2963 05d4 A002     		.2byte	0x2a0
 2964 05d6 76000000 		.4byte	0x76
 2965 05da 02       		.byte	0x2
 2966 05db 91       		.byte	0x91
 2967 05dc 6E       		.sleb128 -18
 2968 05dd 16       		.uleb128 0x16
 2969 05de AE030000 		.4byte	.LASF59
 2970 05e2 01       		.byte	0x1
 2971 05e3 A002     		.2byte	0x2a0
 2972 05e5 76000000 		.4byte	0x76
 2973 05e9 02       		.byte	0x2
 2974 05ea 91       		.byte	0x91
 2975 05eb 6D       		.sleb128 -19
 2976 05ec 16       		.uleb128 0x16
 2977 05ed F7000000 		.4byte	.LASF60
 2978 05f1 01       		.byte	0x1
 2979 05f2 A002     		.2byte	0x2a0
 2980 05f4 76000000 		.4byte	0x76
 2981 05f8 02       		.byte	0x2
 2982 05f9 91       		.byte	0x91
 2983 05fa 6C       		.sleb128 -20
 2984 05fb 16       		.uleb128 0x16
 2985 05fc FF000000 		.4byte	.LASF61
 2986 0600 01       		.byte	0x1
 2987 0601 A002     		.2byte	0x2a0
 2988 0603 76000000 		.4byte	0x76
 2989 0607 02       		.byte	0x2
 2990 0608 91       		.byte	0x91
 2991 0609 00       		.sleb128 0
 2992 060a 16       		.uleb128 0x16
 2993 060b 52030000 		.4byte	.LASF62
 2994 060f 01       		.byte	0x1
 2995 0610 A002     		.2byte	0x2a0
 2996 0612 76000000 		.4byte	0x76
 2997 0616 02       		.byte	0x2
 2998 0617 91       		.byte	0x91
 2999 0618 04       		.sleb128 4
 3000 0619 17       		.uleb128 0x17
 3001 061a 0E040000 		.4byte	.LASF37
 3002 061e 01       		.byte	0x1
 3003 061f A202     		.2byte	0x2a2
 3004 0621 97000000 		.4byte	0x97
ARM GAS  C:\Users\Geo\AppData\Local\Temp\ccnnArMw.s 			page 73


 3005 0625 02       		.byte	0x2
 3006 0626 91       		.byte	0x91
 3007 0627 74       		.sleb128 -12
 3008 0628 00       		.byte	0x0
 3009 0629 15       		.uleb128 0x15
 3010 062a 01       		.byte	0x1
 3011 062b 1A000000 		.4byte	.LASF63
 3012 062f 01       		.byte	0x1
 3013 0630 CC02     		.2byte	0x2cc
 3014 0632 01       		.byte	0x1
 3015 0633 76000000 		.4byte	0x76
 3016 0637 00000000 		.4byte	.LFB16
 3017 063b 7A000000 		.4byte	.LFE16
 3018 063f 58030000 		.4byte	.LLST16
 3019 0643 66060000 		.4byte	0x666
 3020 0647 17       		.uleb128 0x17
 3021 0648 C3000000 		.4byte	.LASF31
 3022 064c 01       		.byte	0x1
 3023 064d CE02     		.2byte	0x2ce
 3024 064f 76000000 		.4byte	0x76
 3025 0653 02       		.byte	0x2
 3026 0654 91       		.byte	0x91
 3027 0655 76       		.sleb128 -10
 3028 0656 17       		.uleb128 0x17
 3029 0657 27040000 		.4byte	.LASF64
 3030 065b 01       		.byte	0x1
 3031 065c CF02     		.2byte	0x2cf
 3032 065e 76000000 		.4byte	0x76
 3033 0662 02       		.byte	0x2
 3034 0663 91       		.byte	0x91
 3035 0664 77       		.sleb128 -9
 3036 0665 00       		.byte	0x0
 3037 0666 19       		.uleb128 0x19
 3038 0667 01       		.byte	0x1
 3039 0668 2A000000 		.4byte	.LASF65
 3040 066c 01       		.byte	0x1
 3041 066d FC02     		.2byte	0x2fc
 3042 066f 01       		.byte	0x1
 3043 0670 00000000 		.4byte	.LFB17
 3044 0674 6A000000 		.4byte	.LFE17
 3045 0678 8F030000 		.4byte	.LLST17
 3046 067c A9060000 		.4byte	0x6a9
 3047 0680 16       		.uleb128 0x16
 3048 0681 A0000000 		.4byte	.LASF66
 3049 0685 01       		.byte	0x1
 3050 0686 FC02     		.2byte	0x2fc
 3051 0688 76000000 		.4byte	0x76
 3052 068c 02       		.byte	0x2
 3053 068d 91       		.byte	0x91
 3054 068e 6F       		.sleb128 -17
 3055 068f 14       		.uleb128 0x14
 3056 0690 12000000 		.4byte	.LBB4
 3057 0694 62000000 		.4byte	.LBE4
 3058 0698 17       		.uleb128 0x17
 3059 0699 C3000000 		.4byte	.LASF31
 3060 069d 01       		.byte	0x1
 3061 069e 0103     		.2byte	0x301
ARM GAS  C:\Users\Geo\AppData\Local\Temp\ccnnArMw.s 			page 74


 3062 06a0 76000000 		.4byte	0x76
 3063 06a4 02       		.byte	0x2
 3064 06a5 91       		.byte	0x91
 3065 06a6 77       		.sleb128 -9
 3066 06a7 00       		.byte	0x0
 3067 06a8 00       		.byte	0x0
 3068 06a9 1A       		.uleb128 0x1a
 3069 06aa 01       		.byte	0x1
 3070 06ab 44000000 		.4byte	.LASF67
 3071 06af 01       		.byte	0x1
 3072 06b0 2103     		.2byte	0x321
 3073 06b2 01       		.byte	0x1
 3074 06b3 76000000 		.4byte	0x76
 3075 06b7 00000000 		.4byte	.LFB18
 3076 06bb 1C000000 		.4byte	.LFE18
 3077 06bf C6030000 		.4byte	.LLST18
 3078 06c3 15       		.uleb128 0x15
 3079 06c4 01       		.byte	0x1
 3080 06c5 7C000000 		.4byte	.LASF68
 3081 06c9 01       		.byte	0x1
 3082 06ca 4C03     		.2byte	0x34c
 3083 06cc 01       		.byte	0x1
 3084 06cd 97000000 		.4byte	0x97
 3085 06d1 00000000 		.4byte	.LFB19
 3086 06d5 76000000 		.4byte	.LFE19
 3087 06d9 F1030000 		.4byte	.LLST19
 3088 06dd 46070000 		.4byte	0x746
 3089 06e1 16       		.uleb128 0x16
 3090 06e2 A0000000 		.4byte	.LASF66
 3091 06e6 01       		.byte	0x1
 3092 06e7 4C03     		.2byte	0x34c
 3093 06e9 76000000 		.4byte	0x76
 3094 06ed 02       		.byte	0x2
 3095 06ee 91       		.byte	0x91
 3096 06ef 6F       		.sleb128 -17
 3097 06f0 16       		.uleb128 0x16
 3098 06f1 F6030000 		.4byte	.LASF69
 3099 06f5 01       		.byte	0x1
 3100 06f6 4C03     		.2byte	0x34c
 3101 06f8 81000000 		.4byte	0x81
 3102 06fc 02       		.byte	0x2
 3103 06fd 91       		.byte	0x91
 3104 06fe 6C       		.sleb128 -20
 3105 06ff 16       		.uleb128 0x16
 3106 0700 21030000 		.4byte	.LASF70
 3107 0704 01       		.byte	0x1
 3108 0705 4C03     		.2byte	0x34c
 3109 0707 76000000 		.4byte	0x76
 3110 070b 02       		.byte	0x2
 3111 070c 91       		.byte	0x91
 3112 070d 6B       		.sleb128 -21
 3113 070e 16       		.uleb128 0x16
 3114 070f 0C020000 		.4byte	.LASF71
 3115 0713 01       		.byte	0x1
 3116 0714 4C03     		.2byte	0x34c
 3117 0716 76000000 		.4byte	0x76
 3118 071a 02       		.byte	0x2
ARM GAS  C:\Users\Geo\AppData\Local\Temp\ccnnArMw.s 			page 75


 3119 071b 91       		.byte	0x91
 3120 071c 6A       		.sleb128 -22
 3121 071d 17       		.uleb128 0x17
 3122 071e 0E040000 		.4byte	.LASF37
 3123 0722 01       		.byte	0x1
 3124 0723 4E03     		.2byte	0x34e
 3125 0725 97000000 		.4byte	0x97
 3126 0729 02       		.byte	0x2
 3127 072a 91       		.byte	0x91
 3128 072b 70       		.sleb128 -16
 3129 072c 14       		.uleb128 0x14
 3130 072d 20000000 		.4byte	.LBB5
 3131 0731 60000000 		.4byte	.LBE5
 3132 0735 17       		.uleb128 0x17
 3133 0736 CF030000 		.4byte	.LASF48
 3134 073a 01       		.byte	0x1
 3135 073b 5403     		.2byte	0x354
 3136 073d 65040000 		.4byte	0x465
 3137 0741 02       		.byte	0x2
 3138 0742 91       		.byte	0x91
 3139 0743 74       		.sleb128 -12
 3140 0744 00       		.byte	0x0
 3141 0745 00       		.byte	0x0
 3142 0746 15       		.uleb128 0x15
 3143 0747 01       		.byte	0x1
 3144 0748 09030000 		.4byte	.LASF72
 3145 074c 01       		.byte	0x1
 3146 074d 9203     		.2byte	0x392
 3147 074f 01       		.byte	0x1
 3148 0750 97000000 		.4byte	0x97
 3149 0754 00000000 		.4byte	.LFB20
 3150 0758 94000000 		.4byte	.LFE20
 3151 075c 28040000 		.4byte	.LLST20
 3152 0760 C9070000 		.4byte	0x7c9
 3153 0764 16       		.uleb128 0x16
 3154 0765 A0000000 		.4byte	.LASF66
 3155 0769 01       		.byte	0x1
 3156 076a 9203     		.2byte	0x392
 3157 076c 76000000 		.4byte	0x76
 3158 0770 02       		.byte	0x2
 3159 0771 91       		.byte	0x91
 3160 0772 6F       		.sleb128 -17
 3161 0773 16       		.uleb128 0x16
 3162 0774 F6030000 		.4byte	.LASF69
 3163 0778 01       		.byte	0x1
 3164 0779 9203     		.2byte	0x392
 3165 077b C9070000 		.4byte	0x7c9
 3166 077f 02       		.byte	0x2
 3167 0780 91       		.byte	0x91
 3168 0781 68       		.sleb128 -24
 3169 0782 16       		.uleb128 0x16
 3170 0783 21030000 		.4byte	.LASF70
 3171 0787 01       		.byte	0x1
 3172 0788 9203     		.2byte	0x392
 3173 078a 9B050000 		.4byte	0x59b
 3174 078e 02       		.byte	0x2
 3175 078f 91       		.byte	0x91
ARM GAS  C:\Users\Geo\AppData\Local\Temp\ccnnArMw.s 			page 76


 3176 0790 64       		.sleb128 -28
 3177 0791 16       		.uleb128 0x16
 3178 0792 0C020000 		.4byte	.LASF71
 3179 0796 01       		.byte	0x1
 3180 0797 9203     		.2byte	0x392
 3181 0799 9B050000 		.4byte	0x59b
 3182 079d 02       		.byte	0x2
 3183 079e 91       		.byte	0x91
 3184 079f 60       		.sleb128 -32
 3185 07a0 17       		.uleb128 0x17
 3186 07a1 0E040000 		.4byte	.LASF37
 3187 07a5 01       		.byte	0x1
 3188 07a6 9403     		.2byte	0x394
 3189 07a8 97000000 		.4byte	0x97
 3190 07ac 02       		.byte	0x2
 3191 07ad 91       		.byte	0x91
 3192 07ae 70       		.sleb128 -16
 3193 07af 14       		.uleb128 0x14
 3194 07b0 1E000000 		.4byte	.LBB6
 3195 07b4 40000000 		.4byte	.LBE6
 3196 07b8 17       		.uleb128 0x17
 3197 07b9 CF030000 		.4byte	.LASF48
 3198 07bd 01       		.byte	0x1
 3199 07be 9D03     		.2byte	0x39d
 3200 07c0 65040000 		.4byte	0x465
 3201 07c4 02       		.byte	0x2
 3202 07c5 91       		.byte	0x91
 3203 07c6 74       		.sleb128 -12
 3204 07c7 00       		.byte	0x0
 3205 07c8 00       		.byte	0x0
 3206 07c9 18       		.uleb128 0x18
 3207 07ca 04       		.byte	0x4
 3208 07cb 81000000 		.4byte	0x81
 3209 07cf 15       		.uleb128 0x15
 3210 07d0 01       		.byte	0x1
 3211 07d1 4B020000 		.4byte	.LASF73
 3212 07d5 01       		.byte	0x1
 3213 07d6 D103     		.2byte	0x3d1
 3214 07d8 01       		.byte	0x1
 3215 07d9 97000000 		.4byte	0x97
 3216 07dd 00000000 		.4byte	.LFB21
 3217 07e1 6A000000 		.4byte	.LFE21
 3218 07e5 5F040000 		.4byte	.LLST21
 3219 07e9 43080000 		.4byte	0x843
 3220 07ed 16       		.uleb128 0x16
 3221 07ee A0000000 		.4byte	.LASF66
 3222 07f2 01       		.byte	0x1
 3223 07f3 D103     		.2byte	0x3d1
 3224 07f5 76000000 		.4byte	0x76
 3225 07f9 02       		.byte	0x2
 3226 07fa 91       		.byte	0x91
 3227 07fb 6F       		.sleb128 -17
 3228 07fc 16       		.uleb128 0x16
 3229 07fd 37020000 		.4byte	.LASF46
 3230 0801 01       		.byte	0x1
 3231 0802 D103     		.2byte	0x3d1
 3232 0804 81000000 		.4byte	0x81
ARM GAS  C:\Users\Geo\AppData\Local\Temp\ccnnArMw.s 			page 77


 3233 0808 02       		.byte	0x2
 3234 0809 91       		.byte	0x91
 3235 080a 6C       		.sleb128 -20
 3236 080b 16       		.uleb128 0x16
 3237 080c 56010000 		.4byte	.LASF47
 3238 0810 01       		.byte	0x1
 3239 0811 D103     		.2byte	0x3d1
 3240 0813 81000000 		.4byte	0x81
 3241 0817 02       		.byte	0x2
 3242 0818 91       		.byte	0x91
 3243 0819 6A       		.sleb128 -22
 3244 081a 17       		.uleb128 0x17
 3245 081b 0E040000 		.4byte	.LASF37
 3246 081f 01       		.byte	0x1
 3247 0820 D303     		.2byte	0x3d3
 3248 0822 97000000 		.4byte	0x97
 3249 0826 02       		.byte	0x2
 3250 0827 91       		.byte	0x91
 3251 0828 70       		.sleb128 -16
 3252 0829 14       		.uleb128 0x14
 3253 082a 1A000000 		.4byte	.LBB7
 3254 082e 56000000 		.4byte	.LBE7
 3255 0832 17       		.uleb128 0x17
 3256 0833 CF030000 		.4byte	.LASF48
 3257 0837 01       		.byte	0x1
 3258 0838 D903     		.2byte	0x3d9
 3259 083a 65040000 		.4byte	0x465
 3260 083e 02       		.byte	0x2
 3261 083f 91       		.byte	0x91
 3262 0840 74       		.sleb128 -12
 3263 0841 00       		.byte	0x0
 3264 0842 00       		.byte	0x0
 3265 0843 15       		.uleb128 0x15
 3266 0844 01       		.byte	0x1
 3267 0845 96030000 		.4byte	.LASF74
 3268 0849 01       		.byte	0x1
 3269 084a 0704     		.2byte	0x407
 3270 084c 01       		.byte	0x1
 3271 084d 97000000 		.4byte	0x97
 3272 0851 00000000 		.4byte	.LFB22
 3273 0855 7A000000 		.4byte	.LFE22
 3274 0859 96040000 		.4byte	.LLST22
 3275 085d B7080000 		.4byte	0x8b7
 3276 0861 16       		.uleb128 0x16
 3277 0862 A0000000 		.4byte	.LASF66
 3278 0866 01       		.byte	0x1
 3279 0867 0704     		.2byte	0x407
 3280 0869 76000000 		.4byte	0x76
 3281 086d 02       		.byte	0x2
 3282 086e 91       		.byte	0x91
 3283 086f 6F       		.sleb128 -17
 3284 0870 16       		.uleb128 0x16
 3285 0871 37020000 		.4byte	.LASF46
 3286 0875 01       		.byte	0x1
 3287 0876 0704     		.2byte	0x407
 3288 0878 C9070000 		.4byte	0x7c9
 3289 087c 02       		.byte	0x2
ARM GAS  C:\Users\Geo\AppData\Local\Temp\ccnnArMw.s 			page 78


 3290 087d 91       		.byte	0x91
 3291 087e 68       		.sleb128 -24
 3292 087f 16       		.uleb128 0x16
 3293 0880 56010000 		.4byte	.LASF47
 3294 0884 01       		.byte	0x1
 3295 0885 0704     		.2byte	0x407
 3296 0887 C9070000 		.4byte	0x7c9
 3297 088b 02       		.byte	0x2
 3298 088c 91       		.byte	0x91
 3299 088d 64       		.sleb128 -28
 3300 088e 17       		.uleb128 0x17
 3301 088f 0E040000 		.4byte	.LASF37
 3302 0893 01       		.byte	0x1
 3303 0894 0904     		.2byte	0x409
 3304 0896 97000000 		.4byte	0x97
 3305 089a 02       		.byte	0x2
 3306 089b 91       		.byte	0x91
 3307 089c 70       		.sleb128 -16
 3308 089d 14       		.uleb128 0x14
 3309 089e 1C000000 		.4byte	.LBB8
 3310 08a2 3A000000 		.4byte	.LBE8
 3311 08a6 17       		.uleb128 0x17
 3312 08a7 CF030000 		.4byte	.LASF48
 3313 08ab 01       		.byte	0x1
 3314 08ac 1204     		.2byte	0x412
 3315 08ae 65040000 		.4byte	0x465
 3316 08b2 02       		.byte	0x2
 3317 08b3 91       		.byte	0x91
 3318 08b4 74       		.sleb128 -12
 3319 08b5 00       		.byte	0x0
 3320 08b6 00       		.byte	0x0
 3321 08b7 15       		.uleb128 0x15
 3322 08b8 01       		.byte	0x1
 3323 08b9 44010000 		.4byte	.LASF75
 3324 08bd 01       		.byte	0x1
 3325 08be 3904     		.2byte	0x439
 3326 08c0 01       		.byte	0x1
 3327 08c1 97000000 		.4byte	0x97
 3328 08c5 00000000 		.4byte	.LFB23
 3329 08c9 78000000 		.4byte	.LFE23
 3330 08cd CD040000 		.4byte	.LLST23
 3331 08d1 03090000 		.4byte	0x903
 3332 08d5 16       		.uleb128 0x16
 3333 08d6 59030000 		.4byte	.LASF36
 3334 08da 01       		.byte	0x1
 3335 08db 3904     		.2byte	0x439
 3336 08dd 76000000 		.4byte	0x76
 3337 08e1 02       		.byte	0x2
 3338 08e2 91       		.byte	0x91
 3339 08e3 6F       		.sleb128 -17
 3340 08e4 16       		.uleb128 0x16
 3341 08e5 D2000000 		.4byte	.LASF76
 3342 08e9 01       		.byte	0x1
 3343 08ea 3904     		.2byte	0x439
 3344 08ec 76000000 		.4byte	0x76
 3345 08f0 02       		.byte	0x2
 3346 08f1 91       		.byte	0x91
ARM GAS  C:\Users\Geo\AppData\Local\Temp\ccnnArMw.s 			page 79


 3347 08f2 6E       		.sleb128 -18
 3348 08f3 17       		.uleb128 0x17
 3349 08f4 0E040000 		.4byte	.LASF37
 3350 08f8 01       		.byte	0x1
 3351 08f9 3B04     		.2byte	0x43b
 3352 08fb 97000000 		.4byte	0x97
 3353 08ff 02       		.byte	0x2
 3354 0900 91       		.byte	0x91
 3355 0901 74       		.sleb128 -12
 3356 0902 00       		.byte	0x0
 3357 0903 10       		.uleb128 0x10
 3358 0904 DA010000 		.4byte	.LASF77
 3359 0908 01       		.byte	0x1
 3360 0909 26       		.byte	0x26
 3361 090a 76000000 		.4byte	0x76
 3362 090e 05       		.byte	0x5
 3363 090f 03       		.byte	0x3
 3364 0910 00000000 		.4byte	CyDmaTdCurrentNumber
 3365 0914 10       		.uleb128 0x10
 3366 0915 E5030000 		.4byte	.LASF78
 3367 0919 01       		.byte	0x1
 3368 091a 29       		.byte	0x29
 3369 091b 76000000 		.4byte	0x76
 3370 091f 05       		.byte	0x5
 3371 0920 03       		.byte	0x3
 3372 0921 01000000 		.4byte	CyDmaTdFreeIndex
 3373 0925 10       		.uleb128 0x10
 3374 0926 19010000 		.4byte	.LASF79
 3375 092a 01       		.byte	0x1
 3376 092b 2C       		.byte	0x2c
 3377 092c 8C000000 		.4byte	0x8c
 3378 0930 05       		.byte	0x5
 3379 0931 03       		.byte	0x3
 3380 0932 04000000 		.4byte	CyDmaChannels
 3381 0936 00       		.byte	0x0
 3382              		.section	.debug_abbrev
 3383 0000 01       		.uleb128 0x1
 3384 0001 11       		.uleb128 0x11
 3385 0002 01       		.byte	0x1
 3386 0003 25       		.uleb128 0x25
 3387 0004 0E       		.uleb128 0xe
 3388 0005 13       		.uleb128 0x13
 3389 0006 0B       		.uleb128 0xb
 3390 0007 03       		.uleb128 0x3
 3391 0008 0E       		.uleb128 0xe
 3392 0009 1B       		.uleb128 0x1b
 3393 000a 0E       		.uleb128 0xe
 3394 000b 11       		.uleb128 0x11
 3395 000c 01       		.uleb128 0x1
 3396 000d 52       		.uleb128 0x52
 3397 000e 01       		.uleb128 0x1
 3398 000f 55       		.uleb128 0x55
 3399 0010 06       		.uleb128 0x6
 3400 0011 10       		.uleb128 0x10
 3401 0012 06       		.uleb128 0x6
 3402 0013 00       		.byte	0x0
 3403 0014 00       		.byte	0x0
ARM GAS  C:\Users\Geo\AppData\Local\Temp\ccnnArMw.s 			page 80


 3404 0015 02       		.uleb128 0x2
 3405 0016 24       		.uleb128 0x24
 3406 0017 00       		.byte	0x0
 3407 0018 0B       		.uleb128 0xb
 3408 0019 0B       		.uleb128 0xb
 3409 001a 3E       		.uleb128 0x3e
 3410 001b 0B       		.uleb128 0xb
 3411 001c 03       		.uleb128 0x3
 3412 001d 0E       		.uleb128 0xe
 3413 001e 00       		.byte	0x0
 3414 001f 00       		.byte	0x0
 3415 0020 03       		.uleb128 0x3
 3416 0021 24       		.uleb128 0x24
 3417 0022 00       		.byte	0x0
 3418 0023 0B       		.uleb128 0xb
 3419 0024 0B       		.uleb128 0xb
 3420 0025 3E       		.uleb128 0x3e
 3421 0026 0B       		.uleb128 0xb
 3422 0027 03       		.uleb128 0x3
 3423 0028 08       		.uleb128 0x8
 3424 0029 00       		.byte	0x0
 3425 002a 00       		.byte	0x0
 3426 002b 04       		.uleb128 0x4
 3427 002c 16       		.uleb128 0x16
 3428 002d 00       		.byte	0x0
 3429 002e 03       		.uleb128 0x3
 3430 002f 0E       		.uleb128 0xe
 3431 0030 3A       		.uleb128 0x3a
 3432 0031 0B       		.uleb128 0xb
 3433 0032 3B       		.uleb128 0x3b
 3434 0033 0B       		.uleb128 0xb
 3435 0034 49       		.uleb128 0x49
 3436 0035 13       		.uleb128 0x13
 3437 0036 00       		.byte	0x0
 3438 0037 00       		.byte	0x0
 3439 0038 05       		.uleb128 0x5
 3440 0039 16       		.uleb128 0x16
 3441 003a 00       		.byte	0x0
 3442 003b 03       		.uleb128 0x3
 3443 003c 0E       		.uleb128 0xe
 3444 003d 3A       		.uleb128 0x3a
 3445 003e 0B       		.uleb128 0xb
 3446 003f 3B       		.uleb128 0x3b
 3447 0040 05       		.uleb128 0x5
 3448 0041 49       		.uleb128 0x49
 3449 0042 13       		.uleb128 0x13
 3450 0043 00       		.byte	0x0
 3451 0044 00       		.byte	0x0
 3452 0045 06       		.uleb128 0x6
 3453 0046 24       		.uleb128 0x24
 3454 0047 00       		.byte	0x0
 3455 0048 0B       		.uleb128 0xb
 3456 0049 0B       		.uleb128 0xb
 3457 004a 3E       		.uleb128 0x3e
 3458 004b 0B       		.uleb128 0xb
 3459 004c 00       		.byte	0x0
 3460 004d 00       		.byte	0x0
ARM GAS  C:\Users\Geo\AppData\Local\Temp\ccnnArMw.s 			page 81


 3461 004e 07       		.uleb128 0x7
 3462 004f 13       		.uleb128 0x13
 3463 0050 01       		.byte	0x1
 3464 0051 03       		.uleb128 0x3
 3465 0052 0E       		.uleb128 0xe
 3466 0053 0B       		.uleb128 0xb
 3467 0054 0B       		.uleb128 0xb
 3468 0055 3A       		.uleb128 0x3a
 3469 0056 0B       		.uleb128 0xb
 3470 0057 3B       		.uleb128 0x3b
 3471 0058 0B       		.uleb128 0xb
 3472 0059 01       		.uleb128 0x1
 3473 005a 13       		.uleb128 0x13
 3474 005b 00       		.byte	0x0
 3475 005c 00       		.byte	0x0
 3476 005d 08       		.uleb128 0x8
 3477 005e 0D       		.uleb128 0xd
 3478 005f 00       		.byte	0x0
 3479 0060 03       		.uleb128 0x3
 3480 0061 0E       		.uleb128 0xe
 3481 0062 3A       		.uleb128 0x3a
 3482 0063 0B       		.uleb128 0xb
 3483 0064 3B       		.uleb128 0x3b
 3484 0065 0B       		.uleb128 0xb
 3485 0066 49       		.uleb128 0x49
 3486 0067 13       		.uleb128 0x13
 3487 0068 38       		.uleb128 0x38
 3488 0069 0A       		.uleb128 0xa
 3489 006a 00       		.byte	0x0
 3490 006b 00       		.byte	0x0
 3491 006c 09       		.uleb128 0x9
 3492 006d 01       		.uleb128 0x1
 3493 006e 01       		.byte	0x1
 3494 006f 49       		.uleb128 0x49
 3495 0070 13       		.uleb128 0x13
 3496 0071 01       		.uleb128 0x1
 3497 0072 13       		.uleb128 0x13
 3498 0073 00       		.byte	0x0
 3499 0074 00       		.byte	0x0
 3500 0075 0A       		.uleb128 0xa
 3501 0076 21       		.uleb128 0x21
 3502 0077 00       		.byte	0x0
 3503 0078 49       		.uleb128 0x49
 3504 0079 13       		.uleb128 0x13
 3505 007a 2F       		.uleb128 0x2f
 3506 007b 0B       		.uleb128 0xb
 3507 007c 00       		.byte	0x0
 3508 007d 00       		.byte	0x0
 3509 007e 0B       		.uleb128 0xb
 3510 007f 35       		.uleb128 0x35
 3511 0080 00       		.byte	0x0
 3512 0081 49       		.uleb128 0x49
 3513 0082 13       		.uleb128 0x13
 3514 0083 00       		.byte	0x0
 3515 0084 00       		.byte	0x0
 3516 0085 0C       		.uleb128 0xc
 3517 0086 0D       		.uleb128 0xd
ARM GAS  C:\Users\Geo\AppData\Local\Temp\ccnnArMw.s 			page 82


 3518 0087 00       		.byte	0x0
 3519 0088 03       		.uleb128 0x3
 3520 0089 08       		.uleb128 0x8
 3521 008a 3A       		.uleb128 0x3a
 3522 008b 0B       		.uleb128 0xb
 3523 008c 3B       		.uleb128 0x3b
 3524 008d 0B       		.uleb128 0xb
 3525 008e 49       		.uleb128 0x49
 3526 008f 13       		.uleb128 0x13
 3527 0090 38       		.uleb128 0x38
 3528 0091 0A       		.uleb128 0xa
 3529 0092 00       		.byte	0x0
 3530 0093 00       		.byte	0x0
 3531 0094 0D       		.uleb128 0xd
 3532 0095 17       		.uleb128 0x17
 3533 0096 01       		.byte	0x1
 3534 0097 0B       		.uleb128 0xb
 3535 0098 0B       		.uleb128 0xb
 3536 0099 3A       		.uleb128 0x3a
 3537 009a 0B       		.uleb128 0xb
 3538 009b 3B       		.uleb128 0x3b
 3539 009c 0B       		.uleb128 0xb
 3540 009d 01       		.uleb128 0x1
 3541 009e 13       		.uleb128 0x13
 3542 009f 00       		.byte	0x0
 3543 00a0 00       		.byte	0x0
 3544 00a1 0E       		.uleb128 0xe
 3545 00a2 0D       		.uleb128 0xd
 3546 00a3 00       		.byte	0x0
 3547 00a4 03       		.uleb128 0x3
 3548 00a5 0E       		.uleb128 0xe
 3549 00a6 3A       		.uleb128 0x3a
 3550 00a7 0B       		.uleb128 0xb
 3551 00a8 3B       		.uleb128 0x3b
 3552 00a9 0B       		.uleb128 0xb
 3553 00aa 49       		.uleb128 0x49
 3554 00ab 13       		.uleb128 0x13
 3555 00ac 00       		.byte	0x0
 3556 00ad 00       		.byte	0x0
 3557 00ae 0F       		.uleb128 0xf
 3558 00af 2E       		.uleb128 0x2e
 3559 00b0 01       		.byte	0x1
 3560 00b1 3F       		.uleb128 0x3f
 3561 00b2 0C       		.uleb128 0xc
 3562 00b3 03       		.uleb128 0x3
 3563 00b4 0E       		.uleb128 0xe
 3564 00b5 3A       		.uleb128 0x3a
 3565 00b6 0B       		.uleb128 0xb
 3566 00b7 3B       		.uleb128 0x3b
 3567 00b8 0B       		.uleb128 0xb
 3568 00b9 27       		.uleb128 0x27
 3569 00ba 0C       		.uleb128 0xc
 3570 00bb 11       		.uleb128 0x11
 3571 00bc 01       		.uleb128 0x1
 3572 00bd 12       		.uleb128 0x12
 3573 00be 01       		.uleb128 0x1
 3574 00bf 40       		.uleb128 0x40
ARM GAS  C:\Users\Geo\AppData\Local\Temp\ccnnArMw.s 			page 83


 3575 00c0 06       		.uleb128 0x6
 3576 00c1 01       		.uleb128 0x1
 3577 00c2 13       		.uleb128 0x13
 3578 00c3 00       		.byte	0x0
 3579 00c4 00       		.byte	0x0
 3580 00c5 10       		.uleb128 0x10
 3581 00c6 34       		.uleb128 0x34
 3582 00c7 00       		.byte	0x0
 3583 00c8 03       		.uleb128 0x3
 3584 00c9 0E       		.uleb128 0xe
 3585 00ca 3A       		.uleb128 0x3a
 3586 00cb 0B       		.uleb128 0xb
 3587 00cc 3B       		.uleb128 0x3b
 3588 00cd 0B       		.uleb128 0xb
 3589 00ce 49       		.uleb128 0x49
 3590 00cf 13       		.uleb128 0x13
 3591 00d0 02       		.uleb128 0x2
 3592 00d1 0A       		.uleb128 0xa
 3593 00d2 00       		.byte	0x0
 3594 00d3 00       		.byte	0x0
 3595 00d4 11       		.uleb128 0x11
 3596 00d5 2E       		.uleb128 0x2e
 3597 00d6 00       		.byte	0x0
 3598 00d7 3F       		.uleb128 0x3f
 3599 00d8 0C       		.uleb128 0xc
 3600 00d9 03       		.uleb128 0x3
 3601 00da 0E       		.uleb128 0xe
 3602 00db 3A       		.uleb128 0x3a
 3603 00dc 0B       		.uleb128 0xb
 3604 00dd 3B       		.uleb128 0x3b
 3605 00de 0B       		.uleb128 0xb
 3606 00df 27       		.uleb128 0x27
 3607 00e0 0C       		.uleb128 0xc
 3608 00e1 49       		.uleb128 0x49
 3609 00e2 13       		.uleb128 0x13
 3610 00e3 11       		.uleb128 0x11
 3611 00e4 01       		.uleb128 0x1
 3612 00e5 12       		.uleb128 0x12
 3613 00e6 01       		.uleb128 0x1
 3614 00e7 40       		.uleb128 0x40
 3615 00e8 06       		.uleb128 0x6
 3616 00e9 00       		.byte	0x0
 3617 00ea 00       		.byte	0x0
 3618 00eb 12       		.uleb128 0x12
 3619 00ec 05       		.uleb128 0x5
 3620 00ed 00       		.byte	0x0
 3621 00ee 03       		.uleb128 0x3
 3622 00ef 0E       		.uleb128 0xe
 3623 00f0 3A       		.uleb128 0x3a
 3624 00f1 0B       		.uleb128 0xb
 3625 00f2 3B       		.uleb128 0x3b
 3626 00f3 0B       		.uleb128 0xb
 3627 00f4 49       		.uleb128 0x49
 3628 00f5 13       		.uleb128 0x13
 3629 00f6 02       		.uleb128 0x2
 3630 00f7 0A       		.uleb128 0xa
 3631 00f8 00       		.byte	0x0
ARM GAS  C:\Users\Geo\AppData\Local\Temp\ccnnArMw.s 			page 84


 3632 00f9 00       		.byte	0x0
 3633 00fa 13       		.uleb128 0x13
 3634 00fb 2E       		.uleb128 0x2e
 3635 00fc 01       		.byte	0x1
 3636 00fd 3F       		.uleb128 0x3f
 3637 00fe 0C       		.uleb128 0xc
 3638 00ff 03       		.uleb128 0x3
 3639 0100 0E       		.uleb128 0xe
 3640 0101 3A       		.uleb128 0x3a
 3641 0102 0B       		.uleb128 0xb
 3642 0103 3B       		.uleb128 0x3b
 3643 0104 0B       		.uleb128 0xb
 3644 0105 27       		.uleb128 0x27
 3645 0106 0C       		.uleb128 0xc
 3646 0107 49       		.uleb128 0x49
 3647 0108 13       		.uleb128 0x13
 3648 0109 11       		.uleb128 0x11
 3649 010a 01       		.uleb128 0x1
 3650 010b 12       		.uleb128 0x12
 3651 010c 01       		.uleb128 0x1
 3652 010d 40       		.uleb128 0x40
 3653 010e 06       		.uleb128 0x6
 3654 010f 01       		.uleb128 0x1
 3655 0110 13       		.uleb128 0x13
 3656 0111 00       		.byte	0x0
 3657 0112 00       		.byte	0x0
 3658 0113 14       		.uleb128 0x14
 3659 0114 0B       		.uleb128 0xb
 3660 0115 01       		.byte	0x1
 3661 0116 11       		.uleb128 0x11
 3662 0117 01       		.uleb128 0x1
 3663 0118 12       		.uleb128 0x12
 3664 0119 01       		.uleb128 0x1
 3665 011a 00       		.byte	0x0
 3666 011b 00       		.byte	0x0
 3667 011c 15       		.uleb128 0x15
 3668 011d 2E       		.uleb128 0x2e
 3669 011e 01       		.byte	0x1
 3670 011f 3F       		.uleb128 0x3f
 3671 0120 0C       		.uleb128 0xc
 3672 0121 03       		.uleb128 0x3
 3673 0122 0E       		.uleb128 0xe
 3674 0123 3A       		.uleb128 0x3a
 3675 0124 0B       		.uleb128 0xb
 3676 0125 3B       		.uleb128 0x3b
 3677 0126 05       		.uleb128 0x5
 3678 0127 27       		.uleb128 0x27
 3679 0128 0C       		.uleb128 0xc
 3680 0129 49       		.uleb128 0x49
 3681 012a 13       		.uleb128 0x13
 3682 012b 11       		.uleb128 0x11
 3683 012c 01       		.uleb128 0x1
 3684 012d 12       		.uleb128 0x12
 3685 012e 01       		.uleb128 0x1
 3686 012f 40       		.uleb128 0x40
 3687 0130 06       		.uleb128 0x6
 3688 0131 01       		.uleb128 0x1
ARM GAS  C:\Users\Geo\AppData\Local\Temp\ccnnArMw.s 			page 85


 3689 0132 13       		.uleb128 0x13
 3690 0133 00       		.byte	0x0
 3691 0134 00       		.byte	0x0
 3692 0135 16       		.uleb128 0x16
 3693 0136 05       		.uleb128 0x5
 3694 0137 00       		.byte	0x0
 3695 0138 03       		.uleb128 0x3
 3696 0139 0E       		.uleb128 0xe
 3697 013a 3A       		.uleb128 0x3a
 3698 013b 0B       		.uleb128 0xb
 3699 013c 3B       		.uleb128 0x3b
 3700 013d 05       		.uleb128 0x5
 3701 013e 49       		.uleb128 0x49
 3702 013f 13       		.uleb128 0x13
 3703 0140 02       		.uleb128 0x2
 3704 0141 0A       		.uleb128 0xa
 3705 0142 00       		.byte	0x0
 3706 0143 00       		.byte	0x0
 3707 0144 17       		.uleb128 0x17
 3708 0145 34       		.uleb128 0x34
 3709 0146 00       		.byte	0x0
 3710 0147 03       		.uleb128 0x3
 3711 0148 0E       		.uleb128 0xe
 3712 0149 3A       		.uleb128 0x3a
 3713 014a 0B       		.uleb128 0xb
 3714 014b 3B       		.uleb128 0x3b
 3715 014c 05       		.uleb128 0x5
 3716 014d 49       		.uleb128 0x49
 3717 014e 13       		.uleb128 0x13
 3718 014f 02       		.uleb128 0x2
 3719 0150 0A       		.uleb128 0xa
 3720 0151 00       		.byte	0x0
 3721 0152 00       		.byte	0x0
 3722 0153 18       		.uleb128 0x18
 3723 0154 0F       		.uleb128 0xf
 3724 0155 00       		.byte	0x0
 3725 0156 0B       		.uleb128 0xb
 3726 0157 0B       		.uleb128 0xb
 3727 0158 49       		.uleb128 0x49
 3728 0159 13       		.uleb128 0x13
 3729 015a 00       		.byte	0x0
 3730 015b 00       		.byte	0x0
 3731 015c 19       		.uleb128 0x19
 3732 015d 2E       		.uleb128 0x2e
 3733 015e 01       		.byte	0x1
 3734 015f 3F       		.uleb128 0x3f
 3735 0160 0C       		.uleb128 0xc
 3736 0161 03       		.uleb128 0x3
 3737 0162 0E       		.uleb128 0xe
 3738 0163 3A       		.uleb128 0x3a
 3739 0164 0B       		.uleb128 0xb
 3740 0165 3B       		.uleb128 0x3b
 3741 0166 05       		.uleb128 0x5
 3742 0167 27       		.uleb128 0x27
 3743 0168 0C       		.uleb128 0xc
 3744 0169 11       		.uleb128 0x11
 3745 016a 01       		.uleb128 0x1
ARM GAS  C:\Users\Geo\AppData\Local\Temp\ccnnArMw.s 			page 86


 3746 016b 12       		.uleb128 0x12
 3747 016c 01       		.uleb128 0x1
 3748 016d 40       		.uleb128 0x40
 3749 016e 06       		.uleb128 0x6
 3750 016f 01       		.uleb128 0x1
 3751 0170 13       		.uleb128 0x13
 3752 0171 00       		.byte	0x0
 3753 0172 00       		.byte	0x0
 3754 0173 1A       		.uleb128 0x1a
 3755 0174 2E       		.uleb128 0x2e
 3756 0175 00       		.byte	0x0
 3757 0176 3F       		.uleb128 0x3f
 3758 0177 0C       		.uleb128 0xc
 3759 0178 03       		.uleb128 0x3
 3760 0179 0E       		.uleb128 0xe
 3761 017a 3A       		.uleb128 0x3a
 3762 017b 0B       		.uleb128 0xb
 3763 017c 3B       		.uleb128 0x3b
 3764 017d 05       		.uleb128 0x5
 3765 017e 27       		.uleb128 0x27
 3766 017f 0C       		.uleb128 0xc
 3767 0180 49       		.uleb128 0x49
 3768 0181 13       		.uleb128 0x13
 3769 0182 11       		.uleb128 0x11
 3770 0183 01       		.uleb128 0x1
 3771 0184 12       		.uleb128 0x12
 3772 0185 01       		.uleb128 0x1
 3773 0186 40       		.uleb128 0x40
 3774 0187 06       		.uleb128 0x6
 3775 0188 00       		.byte	0x0
 3776 0189 00       		.byte	0x0
 3777 018a 00       		.byte	0x0
 3778              		.section	.debug_pubnames,"",%progbits
 3779 0000 14020000 		.4byte	0x214
 3780 0004 0200     		.2byte	0x2
 3781 0006 00000000 		.4byte	.Ldebug_info0
 3782 000a 37090000 		.4byte	0x937
 3783 000e B4010000 		.4byte	0x1b4
 3784 0012 4379446D 		.ascii	"CyDmacConfigure\000"
 3784      6163436F 
 3784      6E666967 
 3784      75726500 
 3785 0022 DC010000 		.4byte	0x1dc
 3786 0026 4379446D 		.ascii	"CyDmacError\000"
 3786      61634572 
 3786      726F7200 
 3787 0032 F5010000 		.4byte	0x1f5
 3788 0036 4379446D 		.ascii	"CyDmacClearError\000"
 3788      6163436C 
 3788      65617245 
 3788      72726F72 
 3788      00
 3789 0047 1D020000 		.4byte	0x21d
 3790 004b 4379446D 		.ascii	"CyDmacErrorAddress\000"
 3790      61634572 
 3790      726F7241 
 3790      64647265 
ARM GAS  C:\Users\Geo\AppData\Local\Temp\ccnnArMw.s 			page 87


 3790      737300
 3791 005e 36020000 		.4byte	0x236
 3792 0062 4379446D 		.ascii	"CyDmaChAlloc\000"
 3792      61436841 
 3792      6C6C6F63 
 3792      00
 3793 006f 7E020000 		.4byte	0x27e
 3794 0073 4379446D 		.ascii	"CyDmaChFree\000"
 3794      61436846 
 3794      72656500 
 3795 007f D0020000 		.4byte	0x2d0
 3796 0083 4379446D 		.ascii	"CyDmaChEnable\000"
 3796      61436845 
 3796      6E61626C 
 3796      6500
 3797 0091 1C030000 		.4byte	0x31c
 3798 0095 4379446D 		.ascii	"CyDmaChDisable\000"
 3798      61436844 
 3798      69736162 
 3798      6C6500
 3799 00a4 59030000 		.4byte	0x359
 3800 00a8 4379446D 		.ascii	"CyDmaClearPendingDrq\000"
 3800      61436C65 
 3800      61725065 
 3800      6E64696E 
 3800      67447271 
 3801 00bd 96030000 		.4byte	0x396
 3802 00c1 4379446D 		.ascii	"CyDmaChPriority\000"
 3802      61436850 
 3802      72696F72 
 3802      69747900 
 3803 00d1 F1030000 		.4byte	0x3f1
 3804 00d5 4379446D 		.ascii	"CyDmaChSetExtendedAddress\000"
 3804      61436853 
 3804      65744578 
 3804      74656E64 
 3804      65644164 
 3805 00ef 6B040000 		.4byte	0x46b
 3806 00f3 4379446D 		.ascii	"CyDmaChSetInitialTd\000"
 3806      61436853 
 3806      6574496E 
 3806      69746961 
 3806      6C546400 
 3807 0107 B7040000 		.4byte	0x4b7
 3808 010b 4379446D 		.ascii	"CyDmaChSetRequest\000"
 3808      61436853 
 3808      65745265 
 3808      71756573 
 3808      7400
 3809 011d 03050000 		.4byte	0x503
 3810 0121 4379446D 		.ascii	"CyDmaChGetRequest\000"
 3810      61436847 
 3810      65745265 
 3810      71756573 
 3810      7400
 3811 0133 40050000 		.4byte	0x540
 3812 0137 4379446D 		.ascii	"CyDmaChStatus\000"
ARM GAS  C:\Users\Geo\AppData\Local\Temp\ccnnArMw.s 			page 88


 3812      61436853 
 3812      74617475 
 3812      7300
 3813 0145 A1050000 		.4byte	0x5a1
 3814 0149 4379446D 		.ascii	"CyDmaChSetConfiguration\000"
 3814      61436853 
 3814      6574436F 
 3814      6E666967 
 3814      75726174 
 3815 0161 29060000 		.4byte	0x629
 3816 0165 4379446D 		.ascii	"CyDmaTdAllocate\000"
 3816      61546441 
 3816      6C6C6F63 
 3816      61746500 
 3817 0175 66060000 		.4byte	0x666
 3818 0179 4379446D 		.ascii	"CyDmaTdFree\000"
 3818      61546446 
 3818      72656500 
 3819 0185 A9060000 		.4byte	0x6a9
 3820 0189 4379446D 		.ascii	"CyDmaTdFreeCount\000"
 3820      61546446 
 3820      72656543 
 3820      6F756E74 
 3820      00
 3821 019a C3060000 		.4byte	0x6c3
 3822 019e 4379446D 		.ascii	"CyDmaTdSetConfiguration\000"
 3822      61546453 
 3822      6574436F 
 3822      6E666967 
 3822      75726174 
 3823 01b6 46070000 		.4byte	0x746
 3824 01ba 4379446D 		.ascii	"CyDmaTdGetConfiguration\000"
 3824      61546447 
 3824      6574436F 
 3824      6E666967 
 3824      75726174 
 3825 01d2 CF070000 		.4byte	0x7cf
 3826 01d6 4379446D 		.ascii	"CyDmaTdSetAddress\000"
 3826      61546453 
 3826      65744164 
 3826      64726573 
 3826      7300
 3827 01e8 43080000 		.4byte	0x843
 3828 01ec 4379446D 		.ascii	"CyDmaTdGetAddress\000"
 3828      61546447 
 3828      65744164 
 3828      64726573 
 3828      7300
 3829 01fe B7080000 		.4byte	0x8b7
 3830 0202 4379446D 		.ascii	"CyDmaChRoundRobin\000"
 3830      61436852 
 3830      6F756E64 
 3830      526F6269 
 3830      6E00
 3831 0214 00000000 		.4byte	0x0
 3832              		.section	.debug_aranges,"",%progbits
 3833 0000 D4000000 		.4byte	0xd4
ARM GAS  C:\Users\Geo\AppData\Local\Temp\ccnnArMw.s 			page 89


 3834 0004 0200     		.2byte	0x2
 3835 0006 00000000 		.4byte	.Ldebug_info0
 3836 000a 04       		.byte	0x4
 3837 000b 00       		.byte	0x0
 3838 000c 0000     		.2byte	0x0
 3839 000e 0000     		.2byte	0x0
 3840 0010 00000000 		.4byte	.LFB0
 3841 0014 6E000000 		.4byte	.LFE0-.LFB0
 3842 0018 00000000 		.4byte	.LFB1
 3843 001c 1C000000 		.4byte	.LFE1-.LFB1
 3844 0020 00000000 		.4byte	.LFB2
 3845 0024 24000000 		.4byte	.LFE2-.LFB2
 3846 0028 00000000 		.4byte	.LFB3
 3847 002c 16000000 		.4byte	.LFE3-.LFB3
 3848 0030 00000000 		.4byte	.LFB4
 3849 0034 82000000 		.4byte	.LFE4-.LFB4
 3850 0038 00000000 		.4byte	.LFB5
 3851 003c 62000000 		.4byte	.LFE5-.LFB5
 3852 0040 00000000 		.4byte	.LFB6
 3853 0044 70000000 		.4byte	.LFE6-.LFB6
 3854 0048 00000000 		.4byte	.LFB7
 3855 004c 56000000 		.4byte	.LFE7-.LFB7
 3856 0050 00000000 		.4byte	.LFB8
 3857 0054 84000000 		.4byte	.LFE8-.LFB8
 3858 0058 00000000 		.4byte	.LFB9
 3859 005c 70000000 		.4byte	.LFE9-.LFB9
 3860 0060 00000000 		.4byte	.LFB10
 3861 0064 88000000 		.4byte	.LFE10-.LFB10
 3862 0068 00000000 		.4byte	.LFB11
 3863 006c 44000000 		.4byte	.LFE11-.LFB11
 3864 0070 00000000 		.4byte	.LFB12
 3865 0074 68000000 		.4byte	.LFE12-.LFB12
 3866 0078 00000000 		.4byte	.LFB13
 3867 007c 40000000 		.4byte	.LFE13-.LFB13
 3868 0080 00000000 		.4byte	.LFB14
 3869 0084 70000000 		.4byte	.LFE14-.LFB14
 3870 0088 00000000 		.4byte	.LFB15
 3871 008c A2000000 		.4byte	.LFE15-.LFB15
 3872 0090 00000000 		.4byte	.LFB16
 3873 0094 7A000000 		.4byte	.LFE16-.LFB16
 3874 0098 00000000 		.4byte	.LFB17
 3875 009c 6A000000 		.4byte	.LFE17-.LFB17
 3876 00a0 00000000 		.4byte	.LFB18
 3877 00a4 1C000000 		.4byte	.LFE18-.LFB18
 3878 00a8 00000000 		.4byte	.LFB19
 3879 00ac 76000000 		.4byte	.LFE19-.LFB19
 3880 00b0 00000000 		.4byte	.LFB20
 3881 00b4 94000000 		.4byte	.LFE20-.LFB20
 3882 00b8 00000000 		.4byte	.LFB21
 3883 00bc 6A000000 		.4byte	.LFE21-.LFB21
 3884 00c0 00000000 		.4byte	.LFB22
 3885 00c4 7A000000 		.4byte	.LFE22-.LFB22
 3886 00c8 00000000 		.4byte	.LFB23
 3887 00cc 78000000 		.4byte	.LFE23-.LFB23
 3888 00d0 00000000 		.4byte	0x0
 3889 00d4 00000000 		.4byte	0x0
 3890              		.section	.debug_ranges,"",%progbits
ARM GAS  C:\Users\Geo\AppData\Local\Temp\ccnnArMw.s 			page 90


 3891              	.Ldebug_ranges0:
 3892 0000 00000000 		.4byte	.Ltext0
 3893 0004 00000000 		.4byte	.Letext0
 3894 0008 00000000 		.4byte	.LFB0
 3895 000c 6E000000 		.4byte	.LFE0
 3896 0010 00000000 		.4byte	.LFB1
 3897 0014 1C000000 		.4byte	.LFE1
 3898 0018 00000000 		.4byte	.LFB2
 3899 001c 24000000 		.4byte	.LFE2
 3900 0020 00000000 		.4byte	.LFB3
 3901 0024 16000000 		.4byte	.LFE3
 3902 0028 00000000 		.4byte	.LFB4
 3903 002c 82000000 		.4byte	.LFE4
 3904 0030 00000000 		.4byte	.LFB5
 3905 0034 62000000 		.4byte	.LFE5
 3906 0038 00000000 		.4byte	.LFB6
 3907 003c 70000000 		.4byte	.LFE6
 3908 0040 00000000 		.4byte	.LFB7
 3909 0044 56000000 		.4byte	.LFE7
 3910 0048 00000000 		.4byte	.LFB8
 3911 004c 84000000 		.4byte	.LFE8
 3912 0050 00000000 		.4byte	.LFB9
 3913 0054 70000000 		.4byte	.LFE9
 3914 0058 00000000 		.4byte	.LFB10
 3915 005c 88000000 		.4byte	.LFE10
 3916 0060 00000000 		.4byte	.LFB11
 3917 0064 44000000 		.4byte	.LFE11
 3918 0068 00000000 		.4byte	.LFB12
 3919 006c 68000000 		.4byte	.LFE12
 3920 0070 00000000 		.4byte	.LFB13
 3921 0074 40000000 		.4byte	.LFE13
 3922 0078 00000000 		.4byte	.LFB14
 3923 007c 70000000 		.4byte	.LFE14
 3924 0080 00000000 		.4byte	.LFB15
 3925 0084 A2000000 		.4byte	.LFE15
 3926 0088 00000000 		.4byte	.LFB16
 3927 008c 7A000000 		.4byte	.LFE16
 3928 0090 00000000 		.4byte	.LFB17
 3929 0094 6A000000 		.4byte	.LFE17
 3930 0098 00000000 		.4byte	.LFB18
 3931 009c 1C000000 		.4byte	.LFE18
 3932 00a0 00000000 		.4byte	.LFB19
 3933 00a4 76000000 		.4byte	.LFE19
 3934 00a8 00000000 		.4byte	.LFB20
 3935 00ac 94000000 		.4byte	.LFE20
 3936 00b0 00000000 		.4byte	.LFB21
 3937 00b4 6A000000 		.4byte	.LFE21
 3938 00b8 00000000 		.4byte	.LFB22
 3939 00bc 7A000000 		.4byte	.LFE22
 3940 00c0 00000000 		.4byte	.LFB23
 3941 00c4 78000000 		.4byte	.LFE23
 3942 00c8 00000000 		.4byte	0x0
 3943 00cc 00000000 		.4byte	0x0
 3944              		.section	.debug_str,"MS",%progbits,1
 3945              	.LASF11:
 3946 0000 75696E74 		.ascii	"uint16\000"
 3946      313600
ARM GAS  C:\Users\Geo\AppData\Local\Temp\ccnnArMw.s 			page 91


 3947              	.LASF29:
 3948 0007 4379446D 		.ascii	"CyDmacErrorAddress\000"
 3948      61634572 
 3948      726F7241 
 3948      64647265 
 3948      737300
 3949              	.LASF63:
 3950 001a 4379446D 		.ascii	"CyDmaTdAllocate\000"
 3950      61546441 
 3950      6C6C6F63 
 3950      61746500 
 3951              	.LASF65:
 3952 002a 4379446D 		.ascii	"CyDmaTdFree\000"
 3952      61546446 
 3952      72656500 
 3953              	.LASF38:
 3954 0036 4379446D 		.ascii	"CyDmaChEnable\000"
 3954      61436845 
 3954      6E61626C 
 3954      6500
 3955              	.LASF67:
 3956 0044 4379446D 		.ascii	"CyDmaTdFreeCount\000"
 3956      61546446 
 3956      72656543 
 3956      6F756E74 
 3956      00
 3957              	.LASF26:
 3958 0055 4379446D 		.ascii	"CyDmacConfigure\000"
 3958      6163436F 
 3958      6E666967 
 3958      75726500 
 3959              	.LASF7:
 3960 0065 6C6F6E67 		.ascii	"long long unsigned int\000"
 3960      206C6F6E 
 3960      6720756E 
 3960      7369676E 
 3960      65642069 
 3961              	.LASF68:
 3962 007c 4379446D 		.ascii	"CyDmaTdSetConfiguration\000"
 3962      61546453 
 3962      6574436F 
 3962      6E666967 
 3962      75726174 
 3963              	.LASF80:
 3964 0094 474E5520 		.ascii	"GNU C 4.4.1\000"
 3964      4320342E 
 3964      342E3100 
 3965              	.LASF66:
 3966 00a0 74644861 		.ascii	"tdHandle\000"
 3966      6E646C65 
 3966      00
 3967              	.LASF6:
 3968 00a9 6C6F6E67 		.ascii	"long long int\000"
 3968      206C6F6E 
 3968      6720696E 
 3968      7400
 3969              	.LASF0:
ARM GAS  C:\Users\Geo\AppData\Local\Temp\ccnnArMw.s 			page 92


 3970 00b7 7369676E 		.ascii	"signed char\000"
 3970      65642063 
 3970      68617200 
 3971              	.LASF31:
 3972 00c3 696E7465 		.ascii	"interruptState\000"
 3972      72727570 
 3972      74537461 
 3972      746500
 3973              	.LASF76:
 3974 00d2 656E6162 		.ascii	"enableRR\000"
 3974      6C655252 
 3974      00
 3975              	.LASF33:
 3976 00db 4379446D 		.ascii	"CyDmaChAlloc\000"
 3976      61436841 
 3976      6C6C6F63 
 3976      00
 3977              	.LASF56:
 3978 00e8 73746174 		.ascii	"state\000"
 3978      6500
 3979              	.LASF4:
 3980 00ee 6C6F6E67 		.ascii	"long int\000"
 3980      20696E74 
 3980      00
 3981              	.LASF60:
 3982 00f7 7464446F 		.ascii	"tdDone0\000"
 3982      6E653000 
 3983              	.LASF61:
 3984 00ff 7464446F 		.ascii	"tdDone1\000"
 3984      6E653100 
 3985              	.LASF10:
 3986 0107 75696E74 		.ascii	"uint8\000"
 3986      3800
 3987              	.LASF22:
 3988 010d 5F646D61 		.ascii	"_dmac_tdmem\000"
 3988      635F7464 
 3988      6D656D00 
 3989              	.LASF79:
 3990 0119 4379446D 		.ascii	"CyDmaChannels\000"
 3990      61436861 
 3990      6E6E656C 
 3990      7300
 3991              	.LASF12:
 3992 0127 75696E74 		.ascii	"uint32\000"
 3992      333200
 3993              	.LASF23:
 3994 012e 62797465 		.ascii	"bytes\000"
 3994      7300
 3995              	.LASF15:
 3996 0134 61637469 		.ascii	"action\000"
 3996      6F6E00
 3997              	.LASF17:
 3998 013b 72657365 		.ascii	"reserved\000"
 3998      72766564 
 3998      00
 3999              	.LASF75:
 4000 0144 4379446D 		.ascii	"CyDmaChRoundRobin\000"
ARM GAS  C:\Users\Geo\AppData\Local\Temp\ccnnArMw.s 			page 93


 4000      61436852 
 4000      6F756E64 
 4000      526F6269 
 4000      6E00
 4001              	.LASF47:
 4002 0156 64657374 		.ascii	"destination\000"
 4002      696E6174 
 4002      696F6E00 
 4003              	.LASF42:
 4004 0162 4379446D 		.ascii	"CyDmaChPriority\000"
 4004      61436850 
 4004      72696F72 
 4004      69747900 
 4005              	.LASF8:
 4006 0172 756E7369 		.ascii	"unsigned int\000"
 4006      676E6564 
 4006      20696E74 
 4006      00
 4007              	.LASF5:
 4008 017f 6C6F6E67 		.ascii	"long unsigned int\000"
 4008      20756E73 
 4008      69676E65 
 4008      6420696E 
 4008      7400
 4009              	.LASF19:
 4010 0191 5F646D61 		.ascii	"_dmac_cfgmem\000"
 4010      635F6366 
 4010      676D656D 
 4010      00
 4011              	.LASF81:
 4012 019e 2E5C4765 		.ascii	".\\Generated_Source\\PSoC5\\CyDmac.c\000"
 4012      6E657261 
 4012      7465645F 
 4012      536F7572 
 4012      63655C50 
 4013              	.LASF45:
 4014 01c0 4379446D 		.ascii	"CyDmaChSetExtendedAddress\000"
 4014      61436853 
 4014      65744578 
 4014      74656E64 
 4014      65644164 
 4015              	.LASF77:
 4016 01da 4379446D 		.ascii	"CyDmaTdCurrentNumber\000"
 4016      61546443 
 4016      75727265 
 4016      6E744E75 
 4016      6D626572 
 4017              	.LASF14:
 4018 01ef 62617369 		.ascii	"basic_cfg\000"
 4018      635F6366 
 4018      6700
 4019              	.LASF3:
 4020 01f9 73686F72 		.ascii	"short unsigned int\000"
 4020      7420756E 
 4020      7369676E 
 4020      65642069 
 4020      6E7400
ARM GAS  C:\Users\Geo\AppData\Local\Temp\ccnnArMw.s 			page 94


 4021              	.LASF71:
 4022 020c 636F6E66 		.ascii	"configuration\000"
 4022      69677572 
 4022      6174696F 
 4022      6E00
 4023              	.LASF28:
 4024 021a 4379446D 		.ascii	"CyDmacError\000"
 4024      61634572 
 4024      726F7200 
 4025              	.LASF27:
 4026 0226 4379446D 		.ascii	"CyDmacClearError\000"
 4026      6163436C 
 4026      65617245 
 4026      72726F72 
 4026      00
 4027              	.LASF46:
 4028 0237 736F7572 		.ascii	"source\000"
 4028      636500
 4029              	.LASF16:
 4030 023e 62617369 		.ascii	"basic_status\000"
 4030      635F7374 
 4030      61747573 
 4030      00
 4031              	.LASF73:
 4032 024b 4379446D 		.ascii	"CyDmaTdSetAddress\000"
 4032      61546453 
 4032      65744164 
 4032      64726573 
 4032      7300
 4033              	.LASF52:
 4034 025d 72657175 		.ascii	"request\000"
 4034      65737400 
 4035              	.LASF41:
 4036 0265 4379446D 		.ascii	"CyDmaClearPendingDrq\000"
 4036      61436C65 
 4036      61725065 
 4036      6E64696E 
 4036      67447271 
 4037              	.LASF58:
 4038 027a 62757273 		.ascii	"burstCount\000"
 4038      74436F75 
 4038      6E7400
 4039              	.LASF43:
 4040 0285 7072696F 		.ascii	"priority\000"
 4040      72697479 
 4040      00
 4041              	.LASF25:
 4042 028e 434F4E56 		.ascii	"CONVERT_WORD\000"
 4042      4552545F 
 4042      574F5244 
 4042      00
 4043              	.LASF35:
 4044 029b 6572726F 		.ascii	"error\000"
 4044      7200
 4045              	.LASF82:
 4046 02a1 433A5C55 		.ascii	"C:\\Users\\Geo\\Documents\\Projects\\Electric Skate"
 4046      73657273 
ARM GAS  C:\Users\Geo\AppData\Local\Temp\ccnnArMw.s 			page 95


 4046      5C47656F 
 4046      5C446F63 
 4046      756D656E 
 4047 02cf 626F6172 		.ascii	"board\\Firmware\\PSoC\\Skateboard Motherboard.cydsn"
 4047      645C4669 
 4047      726D7761 
 4047      72655C50 
 4047      536F435C 
 4048 02ff 00       		.ascii	"\000"
 4049              	.LASF18:
 4050 0300 5F646D61 		.ascii	"_dmac_ch\000"
 4050      635F6368 
 4050      00
 4051              	.LASF72:
 4052 0309 4379446D 		.ascii	"CyDmaTdGetConfiguration\000"
 4052      61546447 
 4052      6574436F 
 4052      6E666967 
 4052      75726174 
 4053              	.LASF70:
 4054 0321 6E657874 		.ascii	"nextTd\000"
 4054      546400
 4055              	.LASF51:
 4056 0328 4379446D 		.ascii	"CyDmaChSetRequest\000"
 4056      61436853 
 4056      65745265 
 4056      71756573 
 4056      7400
 4057              	.LASF1:
 4058 033a 756E7369 		.ascii	"unsigned char\000"
 4058      676E6564 
 4058      20636861 
 4058      7200
 4059              	.LASF2:
 4060 0348 73686F72 		.ascii	"short int\000"
 4060      7420696E 
 4060      7400
 4061              	.LASF62:
 4062 0352 74645374 		.ascii	"tdStop\000"
 4062      6F7000
 4063              	.LASF36:
 4064 0359 63684861 		.ascii	"chHandle\000"
 4064      6E646C65 
 4064      00
 4065              	.LASF32:
 4066 0362 6368616E 		.ascii	"channel\000"
 4066      6E656C00 
 4067              	.LASF54:
 4068 036a 4379446D 		.ascii	"CyDmaChStatus\000"
 4068      61436853 
 4068      74617475 
 4068      7300
 4069              	.LASF40:
 4070 0378 4379446D 		.ascii	"CyDmaChDisable\000"
 4070      61436844 
 4070      69736162 
 4070      6C6500
ARM GAS  C:\Users\Geo\AppData\Local\Temp\ccnnArMw.s 			page 96


 4071              	.LASF55:
 4072 0387 63757272 		.ascii	"currentTd\000"
 4072      656E7454 
 4072      6400
 4073              	.LASF9:
 4074 0391 63686172 		.ascii	"char\000"
 4074      00
 4075              	.LASF74:
 4076 0396 4379446D 		.ascii	"CyDmaTdGetAddress\000"
 4076      61546447 
 4076      65744164 
 4076      64726573 
 4076      7300
 4077              	.LASF30:
 4078 03a8 696E6465 		.ascii	"index\000"
 4078      7800
 4079              	.LASF59:
 4080 03ae 72657175 		.ascii	"requestPerBurst\000"
 4080      65737450 
 4080      65724275 
 4080      72737400 
 4081              	.LASF39:
 4082 03be 70726573 		.ascii	"preserveTds\000"
 4082      65727665 
 4082      54647300 
 4083              	.LASF24:
 4084 03ca 776F7264 		.ascii	"word\000"
 4084      00
 4085              	.LASF48:
 4086 03cf 636F6E76 		.ascii	"convert\000"
 4086      65727400 
 4087              	.LASF50:
 4088 03d7 73746172 		.ascii	"startTd\000"
 4088      74546400 
 4089              	.LASF44:
 4090 03df 56616C75 		.ascii	"Value\000"
 4090      6500
 4091              	.LASF78:
 4092 03e5 4379446D 		.ascii	"CyDmaTdFreeIndex\000"
 4092      61546446 
 4092      72656549 
 4092      6E646578 
 4092      00
 4093              	.LASF69:
 4094 03f6 7472616E 		.ascii	"transferCount\000"
 4094      73666572 
 4094      436F756E 
 4094      7400
 4095              	.LASF20:
 4096 0404 43464730 		.ascii	"CFG0\000"
 4096      00
 4097              	.LASF21:
 4098 0409 43464731 		.ascii	"CFG1\000"
 4098      00
 4099              	.LASF37:
 4100 040e 73746174 		.ascii	"status\000"
 4100      757300
ARM GAS  C:\Users\Geo\AppData\Local\Temp\ccnnArMw.s 			page 97


 4101              	.LASF53:
 4102 0415 4379446D 		.ascii	"CyDmaChGetRequest\000"
 4102      61436847 
 4102      65745265 
 4102      71756573 
 4102      7400
 4103              	.LASF64:
 4104 0427 456C656D 		.ascii	"Element\000"
 4104      656E7400 
 4105              	.LASF49:
 4106 042f 4379446D 		.ascii	"CyDmaChSetInitialTd\000"
 4106      61436853 
 4106      6574496E 
 4106      69746961 
 4106      6C546400 
 4107              	.LASF13:
 4108 0443 63797374 		.ascii	"cystatus\000"
 4108      61747573 
 4108      00
 4109              	.LASF57:
 4110 044c 4379446D 		.ascii	"CyDmaChSetConfiguration\000"
 4110      61436853 
 4110      6574436F 
 4110      6E666967 
 4110      75726174 
 4111              	.LASF34:
 4112 0464 4379446D 		.ascii	"CyDmaChFree\000"
 4112      61436846 
 4112      72656500 
 4113              		.ident	"GCC: (Sourcery G++ Lite 2010q1-188) 4.4.1"
