ARM GAS  C:\Users\Geo\AppData\Local\Temp\ccKuRrRd.s 			page 1


   1              		.syntax unified
   2              		.cpu cortex-m3
   3              		.fpu softvfp
   4              		.eabi_attribute 20, 1
   5              		.eabi_attribute 21, 1
   6              		.eabi_attribute 23, 3
   7              		.eabi_attribute 24, 1
   8              		.eabi_attribute 25, 1
   9              		.eabi_attribute 26, 1
  10              		.eabi_attribute 30, 6
  11              		.eabi_attribute 18, 4
  12              		.thumb
  13              		.file	"cyPm.c"
  20 0000 23030000 		.text
  20      02006700 
  20      00000201 
  20      FB0E0D00 
  20      01010101 
  21              	.Ltext0:
  22              		.cfi_sections	.debug_frame
  23              		.bss
  24              		.align	2
  25              	cyPmBackup:
  26 0000 00000000 		.space	161
  26      00000000 
  26      00000000 
  26      00000000 
  26      00000000 
  27 00a1 000000   		.align	2
  28              	cyPmClockBackup:
  29 00a4 00000000 		.space	16
  29      00000000 
  29      00000000 
  29      00000000 
  30              		.section	.rodata
  31              		.align	2
  32              		.type	cyPmImoFreqMhz2Reg, %object
  33              		.size	cyPmImoFreqMhz2Reg, 7
  34              	cyPmImoFreqMhz2Reg:
  35 0000 02       		.byte	2
  36 0001 01       		.byte	1
  37 0002 03       		.byte	3
  38 0003 00       		.byte	0
  39 0004 04       		.byte	4
  40 0005 05       		.byte	5
  41 0006 06       		.byte	6
  42 0007 00       		.align	2
  43              		.type	cyPmImoFreqReg2Mhz, %object
  44              		.size	cyPmImoFreqReg2Mhz, 7
  45              	cyPmImoFreqReg2Mhz:
  46 0008 0C       		.byte	12
ARM GAS  C:\Users\Geo\AppData\Local\Temp\ccKuRrRd.s 			page 2


  47 0009 06       		.byte	6
  48 000a 18       		.byte	24
  49 000b 03       		.byte	3
  50 000c 30       		.byte	48
  51 000d 3E       		.byte	62
  52 000e 4A       		.byte	74
  53 000f 00       		.section	.text.CyPmSaveClocks,"ax",%progbits
  54              		.align	2
  55              		.global	CyPmSaveClocks
  56              		.thumb
  57              		.thumb_func
  58              		.type	CyPmSaveClocks, %function
  59              	CyPmSaveClocks:
  60              	.LFB0:
  61              		.file 1 ".\\Generated_Source\\PSoC5\\cyPm.c"
   1:.\Generated_Source\PSoC5/cyPm.c **** /*******************************************************************************
   2:.\Generated_Source\PSoC5/cyPm.c **** * File Name: cyPm.c
   3:.\Generated_Source\PSoC5/cyPm.c **** * Version 2.40
   4:.\Generated_Source\PSoC5/cyPm.c **** *
   5:.\Generated_Source\PSoC5/cyPm.c **** * Description:
   6:.\Generated_Source\PSoC5/cyPm.c **** *  Provides an API for the power management.
   7:.\Generated_Source\PSoC5/cyPm.c **** *
   8:.\Generated_Source\PSoC5/cyPm.c **** * Note:
   9:.\Generated_Source\PSoC5/cyPm.c **** *  Documentation of the API's in this file is located in the
  10:.\Generated_Source\PSoC5/cyPm.c **** *  System Reference Guide provided with PSoC Creator.
  11:.\Generated_Source\PSoC5/cyPm.c **** *
  12:.\Generated_Source\PSoC5/cyPm.c **** ********************************************************************************
  13:.\Generated_Source\PSoC5/cyPm.c **** * Copyright 2008-2011, Cypress Semiconductor Corporation.  All rights reserved.
  14:.\Generated_Source\PSoC5/cyPm.c **** * You may use this file only in accordance with the license, terms, conditions,
  15:.\Generated_Source\PSoC5/cyPm.c **** * disclaimers, and limitations in the end user license agreement accompanying
  16:.\Generated_Source\PSoC5/cyPm.c **** * the software package with which this file was provided.
  17:.\Generated_Source\PSoC5/cyPm.c **** *******************************************************************************/
  18:.\Generated_Source\PSoC5/cyPm.c **** 
  19:.\Generated_Source\PSoC5/cyPm.c **** #include "cyPm.h"
  20:.\Generated_Source\PSoC5/cyPm.c **** 
  21:.\Generated_Source\PSoC5/cyPm.c **** static CY_PM_BACKUP_STRUCT          cyPmBackup;
  22:.\Generated_Source\PSoC5/cyPm.c **** static CY_PM_CLOCK_BACKUP_STRUCT    cyPmClockBackup;
  23:.\Generated_Source\PSoC5/cyPm.c **** 
  24:.\Generated_Source\PSoC5/cyPm.c **** /* Convertion table between CyIMO_SetFreq() parameters and register's value */
  25:.\Generated_Source\PSoC5/cyPm.c **** static const uint8 CYCODE cyPmImoFreqMhz2Reg[7u] = {
  26:.\Generated_Source\PSoC5/cyPm.c ****     CY_IMO_FREQ_12MHZ, CY_IMO_FREQ_6MHZ,  CY_IMO_FREQ_24MHZ, CY_IMO_FREQ_3MHZ,
  27:.\Generated_Source\PSoC5/cyPm.c ****     CY_IMO_FREQ_48MHZ, CY_IMO_FREQ_62MHZ, CY_IMO_FREQ_74MHZ};
  28:.\Generated_Source\PSoC5/cyPm.c **** 
  29:.\Generated_Source\PSoC5/cyPm.c **** /* Convertion table between register's values and frequency in MHz  */
  30:.\Generated_Source\PSoC5/cyPm.c **** static const uint8 CYCODE cyPmImoFreqReg2Mhz[7u] = {12u, 6u, 24u, 3u, 48u, 62u, 74u};
  31:.\Generated_Source\PSoC5/cyPm.c **** 
  32:.\Generated_Source\PSoC5/cyPm.c **** /* Function Prototypes */
  33:.\Generated_Source\PSoC5/cyPm.c **** /* Device is PSoC 3 */
  34:.\Generated_Source\PSoC5/cyPm.c **** #if(CY_PSOC3)
  35:.\Generated_Source\PSoC5/cyPm.c **** 
  36:.\Generated_Source\PSoC5/cyPm.c ****     static void CyPmCtwSaveSet(uint8 ctwInterval);
  37:.\Generated_Source\PSoC5/cyPm.c ****     static void CyPmFtwSaveSet(uint8 ftwInterval);
  38:.\Generated_Source\PSoC5/cyPm.c ****     static void CyPmOppsSaveSet(void);
  39:.\Generated_Source\PSoC5/cyPm.c **** 
  40:.\Generated_Source\PSoC5/cyPm.c **** #endif  /* (CY_PSOC3) */
  41:.\Generated_Source\PSoC5/cyPm.c **** 
  42:.\Generated_Source\PSoC5/cyPm.c **** static void CyPmHibSaveSet(void);
ARM GAS  C:\Users\Geo\AppData\Local\Temp\ccKuRrRd.s 			page 3


  43:.\Generated_Source\PSoC5/cyPm.c **** static void CyPmHibRestore(void) ;
  44:.\Generated_Source\PSoC5/cyPm.c **** 
  45:.\Generated_Source\PSoC5/cyPm.c **** static void CyPmHibSlpSaveSet(void);
  46:.\Generated_Source\PSoC5/cyPm.c **** static void CyPmHibSlpRestore(void);
  47:.\Generated_Source\PSoC5/cyPm.c **** 
  48:.\Generated_Source\PSoC5/cyPm.c **** /* Device is PSoC 5 */
  49:.\Generated_Source\PSoC5/cyPm.c **** #if(CY_PSOC5)
  50:.\Generated_Source\PSoC5/cyPm.c **** 
  51:.\Generated_Source\PSoC5/cyPm.c ****     /***************************************************************************
  52:.\Generated_Source\PSoC5/cyPm.c ****     * The PICU interupt event is not allowed to act as wakeup source for PSoC 5.
  53:.\Generated_Source\PSoC5/cyPm.c ****     * To prevent accidental wakeup all the PICU interrupts are disabled before
  54:.\Generated_Source\PSoC5/cyPm.c ****     * Sleep and Hibernate low power modes entry. In case of Sleep mode registers
  55:.\Generated_Source\PSoC5/cyPm.c ****     * values must be restored on wakeup, but in case of Hibernate low power mode
  56:.\Generated_Source\PSoC5/cyPm.c ****     * there is no sense in saving/restoring registers values as the only wakeup
  57:.\Generated_Source\PSoC5/cyPm.c ****     * source for this mode is external reset (XRES). For more information refer
  58:.\Generated_Source\PSoC5/cyPm.c ****     * to the PSoC 5 device TRM.
  59:.\Generated_Source\PSoC5/cyPm.c ****     ***************************************************************************/
  60:.\Generated_Source\PSoC5/cyPm.c **** 
  61:.\Generated_Source\PSoC5/cyPm.c ****     static void CyPmSavePicuInterrupts(void);
  62:.\Generated_Source\PSoC5/cyPm.c ****     static void CyPmDisablePicuInterrupts(void) ;
  63:.\Generated_Source\PSoC5/cyPm.c ****     static void CyPmRestorePicuInterrupts(void) ;
  64:.\Generated_Source\PSoC5/cyPm.c **** 
  65:.\Generated_Source\PSoC5/cyPm.c **** #endif  /* (CY_PSOC5) */
  66:.\Generated_Source\PSoC5/cyPm.c **** 
  67:.\Generated_Source\PSoC5/cyPm.c **** /*******************************************************************************
  68:.\Generated_Source\PSoC5/cyPm.c **** * Function Name: CyPmSaveClocks
  69:.\Generated_Source\PSoC5/cyPm.c **** ********************************************************************************
  70:.\Generated_Source\PSoC5/cyPm.c **** *
  71:.\Generated_Source\PSoC5/cyPm.c **** * Summary:
  72:.\Generated_Source\PSoC5/cyPm.c **** *  This function is called in preparation for entering sleep or hibernate low
  73:.\Generated_Source\PSoC5/cyPm.c **** *  power modes. Saves all state of the clocking system that does not persist
  74:.\Generated_Source\PSoC5/cyPm.c **** *  during sleep/hibernate or that needs to be altered in preparation for
  75:.\Generated_Source\PSoC5/cyPm.c **** *  sleep/hibernate. Shutdowns all the digital and analog clock dividers.
  76:.\Generated_Source\PSoC5/cyPm.c **** *
  77:.\Generated_Source\PSoC5/cyPm.c **** *  Switches the master clock over to the IMO and shuts down the PLL and MHz
  78:.\Generated_Source\PSoC5/cyPm.c **** *  Crystal. The IMO frequency is set to either 12 MHz or 48 MHz to match the
  79:.\Generated_Source\PSoC5/cyPm.c **** *  Design-Wide Resources System Editor "Enable Fast IMO During Startup" setting.
  80:.\Generated_Source\PSoC5/cyPm.c **** *  The ILO and 32 KHz oscillators are not impacted. The current Flash wait state
  81:.\Generated_Source\PSoC5/cyPm.c **** *  setting is saved and the Flash wait state setting is set for the current IMO
  82:.\Generated_Source\PSoC5/cyPm.c **** *  speed.
  83:.\Generated_Source\PSoC5/cyPm.c **** *
  84:.\Generated_Source\PSoC5/cyPm.c **** *  Note If the Master Clock source is routed through the DSI inputs, then it
  85:.\Generated_Source\PSoC5/cyPm.c **** *  must be set manually to another source before using the
  86:.\Generated_Source\PSoC5/cyPm.c **** *  CyPmSaveClocks()/CyPmRestoreClocks() functions.
  87:.\Generated_Source\PSoC5/cyPm.c **** *
  88:.\Generated_Source\PSoC5/cyPm.c **** * Parameters:
  89:.\Generated_Source\PSoC5/cyPm.c **** *  None
  90:.\Generated_Source\PSoC5/cyPm.c **** *
  91:.\Generated_Source\PSoC5/cyPm.c **** * Return:
  92:.\Generated_Source\PSoC5/cyPm.c **** *  None
  93:.\Generated_Source\PSoC5/cyPm.c **** *
  94:.\Generated_Source\PSoC5/cyPm.c **** * Reentrant:
  95:.\Generated_Source\PSoC5/cyPm.c **** *  No
  96:.\Generated_Source\PSoC5/cyPm.c **** *
  97:.\Generated_Source\PSoC5/cyPm.c **** * Side Effects:
  98:.\Generated_Source\PSoC5/cyPm.c **** *  All peripheral clocks are going to be off after this API method call.
  99:.\Generated_Source\PSoC5/cyPm.c **** *
ARM GAS  C:\Users\Geo\AppData\Local\Temp\ccKuRrRd.s 			page 4


 100:.\Generated_Source\PSoC5/cyPm.c **** *******************************************************************************/
 101:.\Generated_Source\PSoC5/cyPm.c **** void CyPmSaveClocks(void)
 102:.\Generated_Source\PSoC5/cyPm.c **** {
  62              		.loc 1 102 0
  63              		.cfi_startproc
  64              		@ args = 0, pretend = 0, frame = 0
  65              		@ frame_needed = 1, uses_anonymous_args = 0
  66 0000 80B5     		push	{r7, lr}
  67              	.LCFI0:
  68              		.cfi_def_cfa_offset 8
  69 0002 00AF     		add	r7, sp, #0
  70              		.cfi_offset 14, -4
  71              		.cfi_offset 7, -8
  72              	.LCFI1:
  73              		.cfi_def_cfa_register 7
 103:.\Generated_Source\PSoC5/cyPm.c ****     /* Digital and analog clocks - save enable state and disable them all */
 104:.\Generated_Source\PSoC5/cyPm.c ****     cyPmClockBackup.enClkA = CY_PM_ACT_CFG1_REG & CY_PM_ACT_EN_CLK_A_MASK;
  74              		.loc 1 104 0
  75 0004 44F2A133 		movw	r3, #:lower16:1073759137
  76 0008 C4F20003 		movt	r3, #:upper16:1073759137
  77 000c 1B78     		ldrb	r3, [r3, #0]
  78 000e DBB2     		uxtb	r3, r3
  79 0010 1A46     		mov	r2, r3
  80 0012 02F00F02 		and	r2, r2, #15
  81 0016 40F20003 		movw	r3, #:lower16:cyPmClockBackup
  82 001a C0F20003 		movt	r3, #:upper16:cyPmClockBackup
  83 001e 1A70     		strb	r2, [r3, #0]
 105:.\Generated_Source\PSoC5/cyPm.c ****     cyPmClockBackup.enClkD = CY_PM_ACT_CFG2_REG;
  84              		.loc 1 105 0
  85 0020 44F2A233 		movw	r3, #:lower16:1073759138
  86 0024 C4F20003 		movt	r3, #:upper16:1073759138
  87 0028 1B78     		ldrb	r3, [r3, #0]
  88 002a DAB2     		uxtb	r2, r3
  89 002c 40F20003 		movw	r3, #:lower16:cyPmClockBackup
  90 0030 C0F20003 		movt	r3, #:upper16:cyPmClockBackup
  91 0034 5A70     		strb	r2, [r3, #1]
 106:.\Generated_Source\PSoC5/cyPm.c ****     CY_PM_ACT_CFG1_REG &= ~CY_PM_ACT_EN_CLK_A_MASK;
  92              		.loc 1 106 0
  93 0036 44F2A133 		movw	r3, #:lower16:1073759137
  94 003a C4F20003 		movt	r3, #:upper16:1073759137
  95 003e 44F2A132 		movw	r2, #:lower16:1073759137
  96 0042 C4F20002 		movt	r2, #:upper16:1073759137
  97 0046 1278     		ldrb	r2, [r2, #0]
  98 0048 D2B2     		uxtb	r2, r2
  99 004a 02F0F002 		and	r2, r2, #240
 100 004e 1A70     		strb	r2, [r3, #0]
 107:.\Generated_Source\PSoC5/cyPm.c ****     CY_PM_ACT_CFG2_REG &= ~CY_PM_ACT_EN_CLK_D_MASK;
 101              		.loc 1 107 0
 102 0050 44F2A233 		movw	r3, #:lower16:1073759138
 103 0054 C4F20003 		movt	r3, #:upper16:1073759138
 104 0058 1B78     		ldrb	r3, [r3, #0]
 105 005a 44F2A233 		movw	r3, #:lower16:1073759138
 106 005e C4F20003 		movt	r3, #:upper16:1073759138
 107 0062 4FF00002 		mov	r2, #0
 108 0066 1A70     		strb	r2, [r3, #0]
 108:.\Generated_Source\PSoC5/cyPm.c **** 
 109:.\Generated_Source\PSoC5/cyPm.c ****     /* Save current flash wait cycles and set the maximum value */
ARM GAS  C:\Users\Geo\AppData\Local\Temp\ccKuRrRd.s 			page 5


 110:.\Generated_Source\PSoC5/cyPm.c ****     cyPmClockBackup.flashWaitCycles = CY_PM_CACHE_CR_CYCLES_MASK & CY_PM_CACHE_CR_REG;
 109              		.loc 1 110 0
 110 0068 44F60003 		movw	r3, #:lower16:1073760256
 111 006c C4F20003 		movt	r3, #:upper16:1073760256
 112 0070 1B78     		ldrb	r3, [r3, #0]
 113 0072 DBB2     		uxtb	r3, r3
 114 0074 1A46     		mov	r2, r3
 115 0076 02F0C002 		and	r2, r2, #192
 116 007a 40F20003 		movw	r3, #:lower16:cyPmClockBackup
 117 007e C0F20003 		movt	r3, #:upper16:cyPmClockBackup
 118 0082 5A71     		strb	r2, [r3, #5]
 111:.\Generated_Source\PSoC5/cyPm.c ****     CyFlash_SetWaitCycles(CY_PM_MAX_FLASH_WAIT_CYCLES);
 119              		.loc 1 111 0
 120 0084 4FF03700 		mov	r0, #55
 121 0088 FFF7FEFF 		bl	CyFlash_SetWaitCycles
 112:.\Generated_Source\PSoC5/cyPm.c **** 
 113:.\Generated_Source\PSoC5/cyPm.c ****     /* IMO - save current IMO MHz OSC frequency and USB mode is on bit */
 114:.\Generated_Source\PSoC5/cyPm.c ****     cyPmClockBackup.imoFreq = CY_PM_FASTCLK_IMO_CR_REG & CY_PM_FASTCLK_IMO_CR_FREQ_MASK;
 122              		.loc 1 114 0
 123 008c 44F20023 		movw	r3, #:lower16:1073758720
 124 0090 C4F20003 		movt	r3, #:upper16:1073758720
 125 0094 1B78     		ldrb	r3, [r3, #0]
 126 0096 DBB2     		uxtb	r3, r3
 127 0098 1A46     		mov	r2, r3
 128 009a 02F00702 		and	r2, r2, #7
 129 009e 40F20003 		movw	r3, #:lower16:cyPmClockBackup
 130 00a2 C0F20003 		movt	r3, #:upper16:cyPmClockBackup
 131 00a6 DA70     		strb	r2, [r3, #3]
 115:.\Generated_Source\PSoC5/cyPm.c ****     cyPmClockBackup.imoUsbClk = CY_PM_FASTCLK_IMO_CR_REG & CY_PM_FASTCLK_IMO_CR_USB;
 132              		.loc 1 115 0
 133 00a8 44F20023 		movw	r3, #:lower16:1073758720
 134 00ac C4F20003 		movt	r3, #:upper16:1073758720
 135 00b0 1B78     		ldrb	r3, [r3, #0]
 136 00b2 DBB2     		uxtb	r3, r3
 137 00b4 1A46     		mov	r2, r3
 138 00b6 02F04002 		and	r2, r2, #64
 139 00ba 40F20003 		movw	r3, #:lower16:cyPmClockBackup
 140 00be C0F20003 		movt	r3, #:upper16:cyPmClockBackup
 141 00c2 1A71     		strb	r2, [r3, #4]
 116:.\Generated_Source\PSoC5/cyPm.c **** 
 117:.\Generated_Source\PSoC5/cyPm.c ****     /* IMO doubler - save enable state */
 118:.\Generated_Source\PSoC5/cyPm.c ****     if(0u != (CY_PM_FASTCLK_IMO_CR_REG & CY_PM_FASTCLK_IMO_CR_F2XON))
 142              		.loc 1 118 0
 143 00c4 44F20023 		movw	r3, #:lower16:1073758720
 144 00c8 C4F20003 		movt	r3, #:upper16:1073758720
 145 00cc 1B78     		ldrb	r3, [r3, #0]
 146 00ce DBB2     		uxtb	r3, r3
 147 00d0 03F01003 		and	r3, r3, #16
 148 00d4 002B     		cmp	r3, #0
 149 00d6 07D0     		beq	.L2
 119:.\Generated_Source\PSoC5/cyPm.c ****     {
 120:.\Generated_Source\PSoC5/cyPm.c ****         /* IMO doubler enabled - save and disable */
 121:.\Generated_Source\PSoC5/cyPm.c ****         cyPmClockBackup.imo2x = CY_PM_ENABLED;
 150              		.loc 1 121 0
 151 00d8 40F20003 		movw	r3, #:lower16:cyPmClockBackup
 152 00dc C0F20003 		movt	r3, #:upper16:cyPmClockBackup
 153 00e0 4FF00102 		mov	r2, #1
ARM GAS  C:\Users\Geo\AppData\Local\Temp\ccKuRrRd.s 			page 6


 154 00e4 5A72     		strb	r2, [r3, #9]
 155 00e6 06E0     		b	.L3
 156              	.L2:
 122:.\Generated_Source\PSoC5/cyPm.c ****     }
 123:.\Generated_Source\PSoC5/cyPm.c ****     else
 124:.\Generated_Source\PSoC5/cyPm.c ****     {
 125:.\Generated_Source\PSoC5/cyPm.c ****         /* IMO doubler disabled */
 126:.\Generated_Source\PSoC5/cyPm.c ****         cyPmClockBackup.imo2x = CY_PM_DISABLED;
 157              		.loc 1 126 0
 158 00e8 40F20003 		movw	r3, #:lower16:cyPmClockBackup
 159 00ec C0F20003 		movt	r3, #:upper16:cyPmClockBackup
 160 00f0 4FF00002 		mov	r2, #0
 161 00f4 5A72     		strb	r2, [r3, #9]
 162              	.L3:
 127:.\Generated_Source\PSoC5/cyPm.c ****     }
 128:.\Generated_Source\PSoC5/cyPm.c **** 
 129:.\Generated_Source\PSoC5/cyPm.c ****     /* IMO - set appropriate frequency for LPM */
 130:.\Generated_Source\PSoC5/cyPm.c ****     CyIMO_SetFreq(CY_PM_IMO_FREQ_LPM);
 163              		.loc 1 130 0
 164 00f6 4FF00200 		mov	r0, #2
 165 00fa FFF7FEFF 		bl	CyIMO_SetFreq
 131:.\Generated_Source\PSoC5/cyPm.c **** 
 132:.\Generated_Source\PSoC5/cyPm.c ****     /* IMO - save enable state and enable without wait to settle */
 133:.\Generated_Source\PSoC5/cyPm.c ****     if(0u != (CY_PM_ACT_CFG0_IMO & CY_PM_ACT_CFG0_REG))
 166              		.loc 1 133 0
 167 00fe 44F2A033 		movw	r3, #:lower16:1073759136
 168 0102 C4F20003 		movt	r3, #:upper16:1073759136
 169 0106 1B78     		ldrb	r3, [r3, #0]
 170 0108 DBB2     		uxtb	r3, r3
 171 010a 03F01003 		and	r3, r3, #16
 172 010e 002B     		cmp	r3, #0
 173 0110 07D0     		beq	.L4
 134:.\Generated_Source\PSoC5/cyPm.c ****     {
 135:.\Generated_Source\PSoC5/cyPm.c ****         /* IMO - save enabled state */
 136:.\Generated_Source\PSoC5/cyPm.c ****         cyPmClockBackup.imoEnable = CY_PM_ENABLED;
 174              		.loc 1 136 0
 175 0112 40F20003 		movw	r3, #:lower16:cyPmClockBackup
 176 0116 C0F20003 		movt	r3, #:upper16:cyPmClockBackup
 177 011a 4FF00102 		mov	r2, #1
 178 011e 9A71     		strb	r2, [r3, #6]
 179 0120 0AE0     		b	.L5
 180              	.L4:
 137:.\Generated_Source\PSoC5/cyPm.c ****     }
 138:.\Generated_Source\PSoC5/cyPm.c ****     else
 139:.\Generated_Source\PSoC5/cyPm.c ****     {
 140:.\Generated_Source\PSoC5/cyPm.c ****         /* IMO - save disabled state */
 141:.\Generated_Source\PSoC5/cyPm.c ****         cyPmClockBackup.imoEnable = CY_PM_DISABLED;
 181              		.loc 1 141 0
 182 0122 40F20003 		movw	r3, #:lower16:cyPmClockBackup
 183 0126 C0F20003 		movt	r3, #:upper16:cyPmClockBackup
 184 012a 4FF00002 		mov	r2, #0
 185 012e 9A71     		strb	r2, [r3, #6]
 142:.\Generated_Source\PSoC5/cyPm.c **** 
 143:.\Generated_Source\PSoC5/cyPm.c ****         /* IMO - enable */
 144:.\Generated_Source\PSoC5/cyPm.c ****         CyIMO_Start(CY_PM_IMO_NO_WAIT_TO_SETTLE);
 186              		.loc 1 144 0
 187 0130 4FF00000 		mov	r0, #0
ARM GAS  C:\Users\Geo\AppData\Local\Temp\ccKuRrRd.s 			page 7


 188 0134 FFF7FEFF 		bl	CyIMO_Start
 189              	.L5:
 145:.\Generated_Source\PSoC5/cyPm.c ****     }
 146:.\Generated_Source\PSoC5/cyPm.c **** 
 147:.\Generated_Source\PSoC5/cyPm.c ****     /* IMO - save the current IMOCLK source and set to IMO if not yet */
 148:.\Generated_Source\PSoC5/cyPm.c ****     if(0u != (CY_PM_FASTCLK_IMO_CR_REG & CY_PM_FASTCLK_IMO_CR_XCLKEN))
 190              		.loc 1 148 0
 191 0138 44F20023 		movw	r3, #:lower16:1073758720
 192 013c C4F20003 		movt	r3, #:upper16:1073758720
 193 0140 1B78     		ldrb	r3, [r3, #0]
 194 0142 DBB2     		uxtb	r3, r3
 195 0144 03F02003 		and	r3, r3, #32
 196 0148 002B     		cmp	r3, #0
 197 014a 18D0     		beq	.L6
 149:.\Generated_Source\PSoC5/cyPm.c ****     {
 150:.\Generated_Source\PSoC5/cyPm.c ****         /* DSI or XTAL CLK */
 151:.\Generated_Source\PSoC5/cyPm.c ****         cyPmClockBackup.imoClkSrc =
 152:.\Generated_Source\PSoC5/cyPm.c ****             (0u == (CY_PM_CLKDIST_CR_REG & CY_PM_CLKDIST_IMO2X_SRC)) ? CY_IMO_SOURCE_DSI : CY_IMO_S
 198              		.loc 1 152 0
 199 014c 44F20003 		movw	r3, #:lower16:1073758208
 200 0150 C4F20003 		movt	r3, #:upper16:1073758208
 201 0154 1B78     		ldrb	r3, [r3, #0]
 202 0156 DBB2     		uxtb	r3, r3
 203 0158 03F04003 		and	r3, r3, #64
 204              		.loc 1 151 0
 205 015c 002B     		cmp	r3, #0
 206 015e 02D1     		bne	.L7
 207 0160 4FF00202 		mov	r2, #2
 208 0164 01E0     		b	.L8
 209              	.L7:
 210 0166 4FF00102 		mov	r2, #1
 211              	.L8:
 212 016a 40F20003 		movw	r3, #:lower16:cyPmClockBackup
 213 016e C0F20003 		movt	r3, #:upper16:cyPmClockBackup
 214 0172 DA71     		strb	r2, [r3, #7]
 153:.\Generated_Source\PSoC5/cyPm.c **** 
 154:.\Generated_Source\PSoC5/cyPm.c ****         /* IMO -  set IMOCLK source to MHz OSC */
 155:.\Generated_Source\PSoC5/cyPm.c ****         CyIMO_SetSource(CY_IMO_SOURCE_IMO);
 215              		.loc 1 155 0
 216 0174 4FF00000 		mov	r0, #0
 217 0178 FFF7FEFF 		bl	CyIMO_SetSource
 218 017c 06E0     		b	.L9
 219              	.L6:
 156:.\Generated_Source\PSoC5/cyPm.c ****     }
 157:.\Generated_Source\PSoC5/cyPm.c ****     else
 158:.\Generated_Source\PSoC5/cyPm.c ****     {
 159:.\Generated_Source\PSoC5/cyPm.c ****         /* IMO */
 160:.\Generated_Source\PSoC5/cyPm.c ****         cyPmClockBackup.imoClkSrc = CY_IMO_SOURCE_IMO;
 220              		.loc 1 160 0
 221 017e 40F20003 		movw	r3, #:lower16:cyPmClockBackup
 222 0182 C0F20003 		movt	r3, #:upper16:cyPmClockBackup
 223 0186 4FF00002 		mov	r2, #0
 224 018a DA71     		strb	r2, [r3, #7]
 225              	.L9:
 161:.\Generated_Source\PSoC5/cyPm.c ****     }
 162:.\Generated_Source\PSoC5/cyPm.c **** 
 163:.\Generated_Source\PSoC5/cyPm.c ****     /* Save clk_imo source */
ARM GAS  C:\Users\Geo\AppData\Local\Temp\ccKuRrRd.s 			page 8


 164:.\Generated_Source\PSoC5/cyPm.c ****     cyPmClockBackup.clkImoSrc = CY_PM_CLKDIST_CR_REG & CY_PM_CLKDIST_IMO_OUT_MASK;
 226              		.loc 1 164 0
 227 018c 44F20003 		movw	r3, #:lower16:1073758208
 228 0190 C4F20003 		movt	r3, #:upper16:1073758208
 229 0194 1B78     		ldrb	r3, [r3, #0]
 230 0196 DBB2     		uxtb	r3, r3
 231 0198 1A46     		mov	r2, r3
 232 019a 02F03002 		and	r2, r2, #48
 233 019e 40F20003 		movw	r3, #:lower16:cyPmClockBackup
 234 01a2 C0F20003 		movt	r3, #:upper16:cyPmClockBackup
 235 01a6 1A72     		strb	r2, [r3, #8]
 165:.\Generated_Source\PSoC5/cyPm.c **** 
 166:.\Generated_Source\PSoC5/cyPm.c ****     /* If IMOCLK2X or SPC OSC is source for clk_imo, set it to IMOCLK */
 167:.\Generated_Source\PSoC5/cyPm.c ****     if(CY_PM_CLKDIST_IMO_OUT_IMO != cyPmClockBackup.clkImoSrc)
 236              		.loc 1 167 0
 237 01a8 40F20003 		movw	r3, #:lower16:cyPmClockBackup
 238 01ac C0F20003 		movt	r3, #:upper16:cyPmClockBackup
 239 01b0 1B7A     		ldrb	r3, [r3, #8]	@ zero_extendqisi2
 240 01b2 002B     		cmp	r3, #0
 241 01b4 0CD0     		beq	.L10
 168:.\Generated_Source\PSoC5/cyPm.c ****     {
 169:.\Generated_Source\PSoC5/cyPm.c ****         /* Set IMOCLK to source for clk_imo */
 170:.\Generated_Source\PSoC5/cyPm.c ****         CY_PM_CLKDIST_CR_REG = (CY_PM_CLKDIST_CR_REG & ~CY_PM_CLKDIST_IMO_OUT_MASK) |
 242              		.loc 1 170 0
 243 01b6 44F20003 		movw	r3, #:lower16:1073758208
 244 01ba C4F20003 		movt	r3, #:upper16:1073758208
 245 01be 44F20002 		movw	r2, #:lower16:1073758208
 246 01c2 C4F20002 		movt	r2, #:upper16:1073758208
 247 01c6 1278     		ldrb	r2, [r2, #0]
 248 01c8 D2B2     		uxtb	r2, r2
 249 01ca 02F0CF02 		and	r2, r2, #207
 250 01ce 1A70     		strb	r2, [r3, #0]
 251              	.L10:
 171:.\Generated_Source\PSoC5/cyPm.c ****                                 CY_PM_CLKDIST_IMO_OUT_IMO;
 172:.\Generated_Source\PSoC5/cyPm.c ****     }    /* Need to change nothing if IMOCLK is source clk_imo */
 173:.\Generated_Source\PSoC5/cyPm.c **** 
 174:.\Generated_Source\PSoC5/cyPm.c ****     /* IMO doubler - disable it (saved above) */
 175:.\Generated_Source\PSoC5/cyPm.c ****     if(0u != (CY_PM_FASTCLK_IMO_CR_REG & CY_PM_FASTCLK_IMO_CR_F2XON))
 252              		.loc 1 175 0
 253 01d0 44F20023 		movw	r3, #:lower16:1073758720
 254 01d4 C4F20003 		movt	r3, #:upper16:1073758720
 255 01d8 1B78     		ldrb	r3, [r3, #0]
 256 01da DBB2     		uxtb	r3, r3
 257 01dc 03F01003 		and	r3, r3, #16
 258 01e0 002B     		cmp	r3, #0
 259 01e2 01D0     		beq	.L11
 176:.\Generated_Source\PSoC5/cyPm.c ****     {
 177:.\Generated_Source\PSoC5/cyPm.c ****         CyIMO_DisableDoubler();
 260              		.loc 1 177 0
 261 01e4 FFF7FEFF 		bl	CyIMO_DisableDoubler
 262              	.L11:
 178:.\Generated_Source\PSoC5/cyPm.c ****     }
 179:.\Generated_Source\PSoC5/cyPm.c **** 
 180:.\Generated_Source\PSoC5/cyPm.c ****     /* Master clock - save divider and set it to divide-by-one (if no yet) */
 181:.\Generated_Source\PSoC5/cyPm.c ****     cyPmClockBackup.clkSyncDiv = CY_PM_CLKDIST_MSTR0_REG;
 263              		.loc 1 181 0
 264 01e8 44F20403 		movw	r3, #:lower16:1073758212
ARM GAS  C:\Users\Geo\AppData\Local\Temp\ccKuRrRd.s 			page 9


 265 01ec C4F20003 		movt	r3, #:upper16:1073758212
 266 01f0 1B78     		ldrb	r3, [r3, #0]
 267 01f2 DAB2     		uxtb	r2, r3
 268 01f4 40F20003 		movw	r3, #:lower16:cyPmClockBackup
 269 01f8 C0F20003 		movt	r3, #:upper16:cyPmClockBackup
 270 01fc 9A72     		strb	r2, [r3, #10]
 182:.\Generated_Source\PSoC5/cyPm.c ****     if(CY_PM_DIV_BY_ONE != cyPmClockBackup.clkSyncDiv)
 271              		.loc 1 182 0
 272 01fe 40F20003 		movw	r3, #:lower16:cyPmClockBackup
 273 0202 C0F20003 		movt	r3, #:upper16:cyPmClockBackup
 274 0206 9B7A     		ldrb	r3, [r3, #10]	@ zero_extendqisi2
 275 0208 002B     		cmp	r3, #0
 276 020a 03D0     		beq	.L12
 183:.\Generated_Source\PSoC5/cyPm.c ****     {
 184:.\Generated_Source\PSoC5/cyPm.c ****         CyMasterClk_SetDivider(CY_PM_DIV_BY_ONE);
 277              		.loc 1 184 0
 278 020c 4FF00000 		mov	r0, #0
 279 0210 FFF7FEFF 		bl	CyMasterClk_SetDivider
 280              	.L12:
 185:.\Generated_Source\PSoC5/cyPm.c ****     }    /* Need to change nothing if master clock divider is 1 */
 186:.\Generated_Source\PSoC5/cyPm.c **** 
 187:.\Generated_Source\PSoC5/cyPm.c ****     /* Master clock - save current source */
 188:.\Generated_Source\PSoC5/cyPm.c ****     cyPmClockBackup.masterClkSrc = CY_PM_CLKDIST_MSTR1_REG & CY_PM_MASTER_CLK_SRC_MASK;
 281              		.loc 1 188 0
 282 0214 44F20503 		movw	r3, #:lower16:1073758213
 283 0218 C4F20003 		movt	r3, #:upper16:1073758213
 284 021c 1B78     		ldrb	r3, [r3, #0]
 285 021e DBB2     		uxtb	r3, r3
 286 0220 1A46     		mov	r2, r3
 287 0222 02F00302 		and	r2, r2, #3
 288 0226 40F20003 		movw	r3, #:lower16:cyPmClockBackup
 289 022a C0F20003 		movt	r3, #:upper16:cyPmClockBackup
 290 022e 9A70     		strb	r2, [r3, #2]
 189:.\Generated_Source\PSoC5/cyPm.c **** 
 190:.\Generated_Source\PSoC5/cyPm.c ****     /* Master clock source - set it to IMO if not yet. */
 191:.\Generated_Source\PSoC5/cyPm.c ****     if(CY_MASTER_SOURCE_IMO != cyPmClockBackup.masterClkSrc)
 291              		.loc 1 191 0
 292 0230 40F20003 		movw	r3, #:lower16:cyPmClockBackup
 293 0234 C0F20003 		movt	r3, #:upper16:cyPmClockBackup
 294 0238 9B78     		ldrb	r3, [r3, #2]	@ zero_extendqisi2
 295 023a 002B     		cmp	r3, #0
 296 023c 03D0     		beq	.L13
 192:.\Generated_Source\PSoC5/cyPm.c ****     {
 193:.\Generated_Source\PSoC5/cyPm.c ****         CyMasterClk_SetSource(CY_MASTER_SOURCE_IMO);
 297              		.loc 1 193 0
 298 023e 4FF00000 		mov	r0, #0
 299 0242 FFF7FEFF 		bl	CyMasterClk_SetSource
 300              	.L13:
 194:.\Generated_Source\PSoC5/cyPm.c ****     }    /* Need to change nothing if master clock source is IMO */
 195:.\Generated_Source\PSoC5/cyPm.c **** 
 196:.\Generated_Source\PSoC5/cyPm.c ****     /* Bus clock - save divider and set it, if needed, to divide-by-one */
 197:.\Generated_Source\PSoC5/cyPm.c ****     cyPmClockBackup.clkBusDiv = ((uint16) CY_PM_CLK_BUS_MSB_DIV_REG << 8u) | CY_PM_CLK_BUS_LSB_DIV_
 301              		.loc 1 197 0
 302 0246 44F20703 		movw	r3, #:lower16:1073758215
 303 024a C4F20003 		movt	r3, #:upper16:1073758215
 304 024e 1B78     		ldrb	r3, [r3, #0]
 305 0250 DBB2     		uxtb	r3, r3
ARM GAS  C:\Users\Geo\AppData\Local\Temp\ccKuRrRd.s 			page 10


 306 0252 4FEA0323 		lsl	r3, r3, #8
 307 0256 9AB2     		uxth	r2, r3
 308 0258 44F20603 		movw	r3, #:lower16:1073758214
 309 025c C4F20003 		movt	r3, #:upper16:1073758214
 310 0260 1B78     		ldrb	r3, [r3, #0]
 311 0262 DBB2     		uxtb	r3, r3
 312 0264 42EA0303 		orr	r3, r2, r3
 313 0268 9BB2     		uxth	r3, r3
 314 026a 9AB2     		uxth	r2, r3
 315 026c 40F20003 		movw	r3, #:lower16:cyPmClockBackup
 316 0270 C0F20003 		movt	r3, #:upper16:cyPmClockBackup
 317 0274 9A81     		strh	r2, [r3, #12]	@ movhi
 198:.\Generated_Source\PSoC5/cyPm.c ****     if(CY_PM_BUS_CLK_DIV_BY_ONE != cyPmClockBackup.clkBusDiv)
 318              		.loc 1 198 0
 319 0276 40F20003 		movw	r3, #:lower16:cyPmClockBackup
 320 027a C0F20003 		movt	r3, #:upper16:cyPmClockBackup
 321 027e 9B89     		ldrh	r3, [r3, #12]
 322 0280 002B     		cmp	r3, #0
 323 0282 03D0     		beq	.L14
 199:.\Generated_Source\PSoC5/cyPm.c ****     {
 200:.\Generated_Source\PSoC5/cyPm.c ****         CyBusClk_SetDivider(CY_PM_BUS_CLK_DIV_BY_ONE);
 324              		.loc 1 200 0
 325 0284 4FF00000 		mov	r0, #0
 326 0288 FFF7FEFF 		bl	CyBusClk_SetDivider
 327              	.L14:
 201:.\Generated_Source\PSoC5/cyPm.c ****     }    /* Do nothing if saved and actual values are equal */
 202:.\Generated_Source\PSoC5/cyPm.c **** 
 203:.\Generated_Source\PSoC5/cyPm.c ****     /* Set number of wait cycles for the flash according CPU frequency in MHz */
 204:.\Generated_Source\PSoC5/cyPm.c ****     CyFlash_SetWaitCycles(CY_PM_GET_CPU_FREQ_MHZ);
 328              		.loc 1 204 0
 329 028c 44F20023 		movw	r3, #:lower16:1073758720
 330 0290 C4F20003 		movt	r3, #:upper16:1073758720
 331 0294 1B78     		ldrb	r3, [r3, #0]
 332 0296 DBB2     		uxtb	r3, r3
 333 0298 03F00702 		and	r2, r3, #7
 334 029c 40F20003 		movw	r3, #:lower16:cyPmImoFreqReg2Mhz
 335 02a0 C0F20003 		movt	r3, #:upper16:cyPmImoFreqReg2Mhz
 336 02a4 9B5C     		ldrb	r3, [r3, r2]	@ zero_extendqisi2
 337 02a6 1846     		mov	r0, r3
 338 02a8 FFF7FEFF 		bl	CyFlash_SetWaitCycles
 205:.\Generated_Source\PSoC5/cyPm.c **** 
 206:.\Generated_Source\PSoC5/cyPm.c ****     /* PLL - check enable state, disable if needed */
 207:.\Generated_Source\PSoC5/cyPm.c ****     if(0u != (CY_PM_FASTCLK_PLL_CFG0_REG & CY_PM_PLL_CFG0_ENABLE))
 339              		.loc 1 207 0
 340 02ac 44F22023 		movw	r3, #:lower16:1073758752
 341 02b0 C4F20003 		movt	r3, #:upper16:1073758752
 342 02b4 1B78     		ldrb	r3, [r3, #0]
 343 02b6 DBB2     		uxtb	r3, r3
 344 02b8 03F00103 		and	r3, r3, #1
 345 02bc DBB2     		uxtb	r3, r3
 346 02be 002B     		cmp	r3, #0
 347 02c0 09D0     		beq	.L15
 208:.\Generated_Source\PSoC5/cyPm.c ****     {
 209:.\Generated_Source\PSoC5/cyPm.c ****         /* PLL is enabled - save state and disable */
 210:.\Generated_Source\PSoC5/cyPm.c ****         cyPmClockBackup.pllEnableState = CY_PM_ENABLED;
 348              		.loc 1 210 0
 349 02c2 40F20003 		movw	r3, #:lower16:cyPmClockBackup
ARM GAS  C:\Users\Geo\AppData\Local\Temp\ccKuRrRd.s 			page 11


 350 02c6 C0F20003 		movt	r3, #:upper16:cyPmClockBackup
 351 02ca 4FF00102 		mov	r2, #1
 352 02ce 9A73     		strb	r2, [r3, #14]
 211:.\Generated_Source\PSoC5/cyPm.c ****         CyPLL_OUT_Stop();
 353              		.loc 1 211 0
 354 02d0 FFF7FEFF 		bl	CyPLL_OUT_Stop
 355 02d4 06E0     		b	.L16
 356              	.L15:
 212:.\Generated_Source\PSoC5/cyPm.c ****     }
 213:.\Generated_Source\PSoC5/cyPm.c ****     else
 214:.\Generated_Source\PSoC5/cyPm.c ****     {
 215:.\Generated_Source\PSoC5/cyPm.c ****         /* PLL is disabled - save state */
 216:.\Generated_Source\PSoC5/cyPm.c ****         cyPmClockBackup.pllEnableState = CY_PM_DISABLED;
 357              		.loc 1 216 0
 358 02d6 40F20003 		movw	r3, #:lower16:cyPmClockBackup
 359 02da C0F20003 		movt	r3, #:upper16:cyPmClockBackup
 360 02de 4FF00002 		mov	r2, #0
 361 02e2 9A73     		strb	r2, [r3, #14]
 362              	.L16:
 217:.\Generated_Source\PSoC5/cyPm.c ****     }
 218:.\Generated_Source\PSoC5/cyPm.c **** 
 219:.\Generated_Source\PSoC5/cyPm.c ****     /* MHz ECO - check enable state and disable if needed */
 220:.\Generated_Source\PSoC5/cyPm.c ****     if(0u != (CY_PM_FASTCLK_XMHZ_CSR_REG & CY_PM_XMHZ_CSR_ENABLE))
 363              		.loc 1 220 0
 364 02e4 44F21023 		movw	r3, #:lower16:1073758736
 365 02e8 C4F20003 		movt	r3, #:upper16:1073758736
 366 02ec 1B78     		ldrb	r3, [r3, #0]
 367 02ee DBB2     		uxtb	r3, r3
 368 02f0 03F00103 		and	r3, r3, #1
 369 02f4 DBB2     		uxtb	r3, r3
 370 02f6 002B     		cmp	r3, #0
 371 02f8 09D0     		beq	.L17
 221:.\Generated_Source\PSoC5/cyPm.c ****     {
 222:.\Generated_Source\PSoC5/cyPm.c ****         /* MHz ECO is enabled - save state and disable */
 223:.\Generated_Source\PSoC5/cyPm.c ****         cyPmClockBackup.xmhzEnableState = CY_PM_ENABLED;
 372              		.loc 1 223 0
 373 02fa 40F20003 		movw	r3, #:lower16:cyPmClockBackup
 374 02fe C0F20003 		movt	r3, #:upper16:cyPmClockBackup
 375 0302 4FF00102 		mov	r2, #1
 376 0306 DA73     		strb	r2, [r3, #15]
 224:.\Generated_Source\PSoC5/cyPm.c ****         CyXTAL_Stop();
 377              		.loc 1 224 0
 378 0308 FFF7FEFF 		bl	CyXTAL_Stop
 379 030c 06E0     		b	.L19
 380              	.L17:
 225:.\Generated_Source\PSoC5/cyPm.c ****     }
 226:.\Generated_Source\PSoC5/cyPm.c ****     else
 227:.\Generated_Source\PSoC5/cyPm.c ****     {
 228:.\Generated_Source\PSoC5/cyPm.c ****         /* MHz ECO is disabled - save state */
 229:.\Generated_Source\PSoC5/cyPm.c ****         cyPmClockBackup.xmhzEnableState = CY_PM_DISABLED;
 381              		.loc 1 229 0
 382 030e 40F20003 		movw	r3, #:lower16:cyPmClockBackup
 383 0312 C0F20003 		movt	r3, #:upper16:cyPmClockBackup
 384 0316 4FF00002 		mov	r2, #0
 385 031a DA73     		strb	r2, [r3, #15]
 386              	.L19:
 230:.\Generated_Source\PSoC5/cyPm.c ****     }
ARM GAS  C:\Users\Geo\AppData\Local\Temp\ccKuRrRd.s 			page 12


 231:.\Generated_Source\PSoC5/cyPm.c **** }
 387              		.loc 1 231 0
 388 031c 80BD     		pop	{r7, pc}
 389              		.cfi_endproc
 390              	.LFE0:
 391              		.size	CyPmSaveClocks, .-CyPmSaveClocks
 392 031e 00BF     		.section	.text.CyPmRestoreClocks,"ax",%progbits
 393              		.align	2
 394              		.global	CyPmRestoreClocks
 395              		.thumb
 396              		.thumb_func
 397              		.type	CyPmRestoreClocks, %function
 398              	CyPmRestoreClocks:
 399              	.LFB1:
 232:.\Generated_Source\PSoC5/cyPm.c **** 
 233:.\Generated_Source\PSoC5/cyPm.c **** 
 234:.\Generated_Source\PSoC5/cyPm.c **** /*******************************************************************************
 235:.\Generated_Source\PSoC5/cyPm.c **** * Function Name: CyPmRestoreClocks
 236:.\Generated_Source\PSoC5/cyPm.c **** ********************************************************************************
 237:.\Generated_Source\PSoC5/cyPm.c **** *
 238:.\Generated_Source\PSoC5/cyPm.c **** * Summary:
 239:.\Generated_Source\PSoC5/cyPm.c **** *  Restores any state that was preserved by the last call to CyPmSaveClocks().
 240:.\Generated_Source\PSoC5/cyPm.c **** *  The Flash wait state setting is also restored.
 241:.\Generated_Source\PSoC5/cyPm.c **** *
 242:.\Generated_Source\PSoC5/cyPm.c **** *  Note If the Master Clock source is routed through the DSI inputs, then it
 243:.\Generated_Source\PSoC5/cyPm.c **** *  must be set manually to another source before using the
 244:.\Generated_Source\PSoC5/cyPm.c **** *  CyPmSaveClocks()/CyPmRestoreClocks() functions.
 245:.\Generated_Source\PSoC5/cyPm.c **** *
 246:.\Generated_Source\PSoC5/cyPm.c **** *  PSoC3 ES3: The merge region could be used to process state when the megahertz
 247:.\Generated_Source\PSoC5/cyPm.c **** *  crystal is not ready after the hold-off timeout.
 248:.\Generated_Source\PSoC5/cyPm.c **** *
 249:.\Generated_Source\PSoC5/cyPm.c **** *  PSoC5: The 130 ms is given for the megahertz crystal to stabilize. It's
 250:.\Generated_Source\PSoC5/cyPm.c **** *  readiness is not verified after the hold-off timeout.
 251:.\Generated_Source\PSoC5/cyPm.c **** *
 252:.\Generated_Source\PSoC5/cyPm.c **** * Parameters:
 253:.\Generated_Source\PSoC5/cyPm.c **** *  None
 254:.\Generated_Source\PSoC5/cyPm.c **** *
 255:.\Generated_Source\PSoC5/cyPm.c **** * Return:
 256:.\Generated_Source\PSoC5/cyPm.c **** *  None
 257:.\Generated_Source\PSoC5/cyPm.c **** *
 258:.\Generated_Source\PSoC5/cyPm.c **** *******************************************************************************/
 259:.\Generated_Source\PSoC5/cyPm.c **** void CyPmRestoreClocks(void) 
 260:.\Generated_Source\PSoC5/cyPm.c **** {
 400              		.loc 1 260 0
 401              		.cfi_startproc
 402              		@ args = 0, pretend = 0, frame = 0
 403              		@ frame_needed = 1, uses_anonymous_args = 0
 404 0000 80B5     		push	{r7, lr}
 405              	.LCFI2:
 406              		.cfi_def_cfa_offset 8
 407 0002 00AF     		add	r7, sp, #0
 408              		.cfi_offset 14, -4
 409              		.cfi_offset 7, -8
 410              	.LCFI3:
 411              		.cfi_def_cfa_register 7
 261:.\Generated_Source\PSoC5/cyPm.c ****     #if !(CY_PSOC5_ES1 || CY_PSOC3_ES2)
 262:.\Generated_Source\PSoC5/cyPm.c **** 
ARM GAS  C:\Users\Geo\AppData\Local\Temp\ccKuRrRd.s 			page 13


 263:.\Generated_Source\PSoC5/cyPm.c ****         cystatus status = CYRET_TIMEOUT;
 264:.\Generated_Source\PSoC5/cyPm.c ****         uint16 i;
 265:.\Generated_Source\PSoC5/cyPm.c **** 
 266:.\Generated_Source\PSoC5/cyPm.c ****     #endif  /* !(CY_PSOC5_ES1 || CY_PSOC3_ES2) */
 267:.\Generated_Source\PSoC5/cyPm.c **** 
 268:.\Generated_Source\PSoC5/cyPm.c **** 
 269:.\Generated_Source\PSoC5/cyPm.c ****     /* MHz ECO restore state */
 270:.\Generated_Source\PSoC5/cyPm.c ****     if(CY_PM_ENABLED == cyPmClockBackup.xmhzEnableState)
 412              		.loc 1 270 0
 413 0004 40F20003 		movw	r3, #:lower16:cyPmClockBackup
 414 0008 C0F20003 		movt	r3, #:upper16:cyPmClockBackup
 415 000c DB7B     		ldrb	r3, [r3, #15]	@ zero_extendqisi2
 416 000e 012B     		cmp	r3, #1
 417 0010 1AD1     		bne	.L21
 271:.\Generated_Source\PSoC5/cyPm.c ****     {
 272:.\Generated_Source\PSoC5/cyPm.c ****         /***********************************************************************
 273:.\Generated_Source\PSoC5/cyPm.c ****         * Enabling XMHZ XTAL. The actual CyXTAL_Start() with non zero wait
 274:.\Generated_Source\PSoC5/cyPm.c ****         * period uses FTW for period measurement. This could cause a problem
 275:.\Generated_Source\PSoC5/cyPm.c ****         * if CTW/FTW is used as a wake up time in the low power modes APIs.
 276:.\Generated_Source\PSoC5/cyPm.c ****         * So, the XTAL wait procedure is implemented with a software delay.
 277:.\Generated_Source\PSoC5/cyPm.c ****         ***********************************************************************/
 278:.\Generated_Source\PSoC5/cyPm.c **** 
 279:.\Generated_Source\PSoC5/cyPm.c ****         /* Enable XMHZ XTAL with no wait */
 280:.\Generated_Source\PSoC5/cyPm.c ****         CyXTAL_Start(CY_PM_XTAL_MHZ_NO_WAIT);
 418              		.loc 1 280 0
 419 0012 4FF00000 		mov	r0, #0
 420 0016 FFF7FEFF 		bl	CyXTAL_Start
 281:.\Generated_Source\PSoC5/cyPm.c **** 
 282:.\Generated_Source\PSoC5/cyPm.c ****         /* Device is PSoC 3 and the revision is ES2 or earlier, or
 283:.\Generated_Source\PSoC5/cyPm.c ****         *  device is PSoC 5 and the revision is ES1 or earlier.
 284:.\Generated_Source\PSoC5/cyPm.c ****         */
 285:.\Generated_Source\PSoC5/cyPm.c ****         #if(CY_PSOC3_ES2 || CY_PSOC5_ES1)
 286:.\Generated_Source\PSoC5/cyPm.c **** 
 287:.\Generated_Source\PSoC5/cyPm.c ****             /* Make a 130 milliseconds delay */
 288:.\Generated_Source\PSoC5/cyPm.c ****             CyDelayCycles(CY_PM_WAIT_200_US * CY_PM_MHZ_XTAL_WAIT_NUM_OF_200_US * CY_PM_GET_CPU_FRE
 421              		.loc 1 288 0
 422 001a 44F20023 		movw	r3, #:lower16:1073758720
 423 001e C4F20003 		movt	r3, #:upper16:1073758720
 424 0022 1B78     		ldrb	r3, [r3, #0]
 425 0024 DBB2     		uxtb	r3, r3
 426 0026 03F00702 		and	r2, r3, #7
 427 002a 40F20003 		movw	r3, #:lower16:cyPmImoFreqReg2Mhz
 428 002e C0F20003 		movt	r3, #:upper16:cyPmImoFreqReg2Mhz
 429 0032 9B5C     		ldrb	r3, [r3, r2]	@ zero_extendqisi2
 430 0034 1A46     		mov	r2, r3
 431 0036 4FF6D033 		movw	r3, #:lower16:130000
 432 003a C0F20103 		movt	r3, #:upper16:130000
 433 003e 03FB02F3 		mul	r3, r3, r2
 434 0042 1846     		mov	r0, r3
 435 0044 FFF7FEFF 		bl	CyDelayCycles
 436              	.L21:
 289:.\Generated_Source\PSoC5/cyPm.c **** 
 290:.\Generated_Source\PSoC5/cyPm.c ****         #else
 291:.\Generated_Source\PSoC5/cyPm.c **** 
 292:.\Generated_Source\PSoC5/cyPm.c ****             /* Read XERR bit to clear it */
 293:.\Generated_Source\PSoC5/cyPm.c ****             (void) CY_PM_FASTCLK_XMHZ_CSR_REG;
 294:.\Generated_Source\PSoC5/cyPm.c **** 
ARM GAS  C:\Users\Geo\AppData\Local\Temp\ccKuRrRd.s 			page 14


 295:.\Generated_Source\PSoC5/cyPm.c ****             /* Wait */
 296:.\Generated_Source\PSoC5/cyPm.c ****             for(i = CY_PM_MHZ_XTAL_WAIT_NUM_OF_200_US; i > 0u; i--)
 297:.\Generated_Source\PSoC5/cyPm.c ****             {
 298:.\Generated_Source\PSoC5/cyPm.c ****                 /* Make a 200 microseconds delay */
 299:.\Generated_Source\PSoC5/cyPm.c ****                 CyDelayCycles(CY_PM_WAIT_200_US * CY_PM_GET_CPU_FREQ_MHZ);
 300:.\Generated_Source\PSoC5/cyPm.c **** 
 301:.\Generated_Source\PSoC5/cyPm.c ****                 /* High output indicates oscillator failure */
 302:.\Generated_Source\PSoC5/cyPm.c ****                 if(0u == (CY_PM_FASTCLK_XMHZ_CSR_REG & CY_PM_XMHZ_CSR_XERR))
 303:.\Generated_Source\PSoC5/cyPm.c ****                 {
 304:.\Generated_Source\PSoC5/cyPm.c ****                     status = CYRET_SUCCESS;
 305:.\Generated_Source\PSoC5/cyPm.c ****                     break;
 306:.\Generated_Source\PSoC5/cyPm.c ****                 }
 307:.\Generated_Source\PSoC5/cyPm.c ****             }
 308:.\Generated_Source\PSoC5/cyPm.c **** 
 309:.\Generated_Source\PSoC5/cyPm.c ****             if(CYRET_TIMEOUT == status)
 310:.\Generated_Source\PSoC5/cyPm.c ****             {
 311:.\Generated_Source\PSoC5/cyPm.c ****                 /*******************************************************************
 312:.\Generated_Source\PSoC5/cyPm.c ****                 * Process the situation when megahertz crystal is not ready.
 313:.\Generated_Source\PSoC5/cyPm.c ****                 * Time to stabialize value is crystal specific.
 314:.\Generated_Source\PSoC5/cyPm.c ****                 *******************************************************************/
 315:.\Generated_Source\PSoC5/cyPm.c **** 
 316:.\Generated_Source\PSoC5/cyPm.c ****                 /* `#START_MHZ_ECO_TIMEOUT` */
 317:.\Generated_Source\PSoC5/cyPm.c **** 
 318:.\Generated_Source\PSoC5/cyPm.c ****                 /* `#END` */
 319:.\Generated_Source\PSoC5/cyPm.c ****             }
 320:.\Generated_Source\PSoC5/cyPm.c **** 
 321:.\Generated_Source\PSoC5/cyPm.c ****         #endif  /* (CY_PSOC3_ES2 || CY_PSOC5_ES1) */
 322:.\Generated_Source\PSoC5/cyPm.c **** 
 323:.\Generated_Source\PSoC5/cyPm.c ****     }   /* (CY_PM_ENABLED == cyPmClockBackup.xmhzEnableState) */
 324:.\Generated_Source\PSoC5/cyPm.c **** 
 325:.\Generated_Source\PSoC5/cyPm.c **** 
 326:.\Generated_Source\PSoC5/cyPm.c ****     /* Temprorary set the maximum flash wait cycles */
 327:.\Generated_Source\PSoC5/cyPm.c ****     CyFlash_SetWaitCycles(CY_PM_MAX_FLASH_WAIT_CYCLES);
 437              		.loc 1 327 0
 438 0048 4FF03700 		mov	r0, #55
 439 004c FFF7FEFF 		bl	CyFlash_SetWaitCycles
 328:.\Generated_Source\PSoC5/cyPm.c **** 
 329:.\Generated_Source\PSoC5/cyPm.c ****     /* The XTAL and DSI clocks are ready to be source for Master clock. */
 330:.\Generated_Source\PSoC5/cyPm.c ****     if((CY_PM_MASTER_CLK_SRC_XTAL == cyPmClockBackup.masterClkSrc) ||
 440              		.loc 1 330 0
 441 0050 40F20003 		movw	r3, #:lower16:cyPmClockBackup
 442 0054 C0F20003 		movt	r3, #:upper16:cyPmClockBackup
 443 0058 9B78     		ldrb	r3, [r3, #2]	@ zero_extendqisi2
 444 005a 022B     		cmp	r3, #2
 445 005c 06D0     		beq	.L22
 331:.\Generated_Source\PSoC5/cyPm.c ****        (CY_PM_MASTER_CLK_SRC_DSI  == cyPmClockBackup.masterClkSrc))
 446              		.loc 1 331 0
 447 005e 40F20003 		movw	r3, #:lower16:cyPmClockBackup
 448 0062 C0F20003 		movt	r3, #:upper16:cyPmClockBackup
 449 0066 9B78     		ldrb	r3, [r3, #2]	@ zero_extendqisi2
 450              		.loc 1 330 0
 451 0068 032B     		cmp	r3, #3
 452 006a 1CD1     		bne	.L23
 453              	.L22:
 332:.\Generated_Source\PSoC5/cyPm.c ****     {
 333:.\Generated_Source\PSoC5/cyPm.c ****         /* Restore Master clock's divider */
 334:.\Generated_Source\PSoC5/cyPm.c ****         if(CY_PM_CLKDIST_MSTR0_REG != cyPmClockBackup.clkSyncDiv)
ARM GAS  C:\Users\Geo\AppData\Local\Temp\ccKuRrRd.s 			page 15


 454              		.loc 1 334 0
 455 006c 44F20403 		movw	r3, #:lower16:1073758212
 456 0070 C4F20003 		movt	r3, #:upper16:1073758212
 457 0074 1B78     		ldrb	r3, [r3, #0]
 458 0076 DAB2     		uxtb	r2, r3
 459 0078 40F20003 		movw	r3, #:lower16:cyPmClockBackup
 460 007c C0F20003 		movt	r3, #:upper16:cyPmClockBackup
 461 0080 9B7A     		ldrb	r3, [r3, #10]	@ zero_extendqisi2
 462 0082 9A42     		cmp	r2, r3
 463 0084 07D0     		beq	.L24
 335:.\Generated_Source\PSoC5/cyPm.c ****         {
 336:.\Generated_Source\PSoC5/cyPm.c ****             /* Restore Master clock divider */
 337:.\Generated_Source\PSoC5/cyPm.c ****             CyMasterClk_SetDivider(cyPmClockBackup.clkSyncDiv);
 464              		.loc 1 337 0
 465 0086 40F20003 		movw	r3, #:lower16:cyPmClockBackup
 466 008a C0F20003 		movt	r3, #:upper16:cyPmClockBackup
 467 008e 9B7A     		ldrb	r3, [r3, #10]	@ zero_extendqisi2
 468 0090 1846     		mov	r0, r3
 469 0092 FFF7FEFF 		bl	CyMasterClk_SetDivider
 470              	.L24:
 338:.\Generated_Source\PSoC5/cyPm.c ****         }
 339:.\Generated_Source\PSoC5/cyPm.c **** 
 340:.\Generated_Source\PSoC5/cyPm.c ****         /* Restore Master clock source */
 341:.\Generated_Source\PSoC5/cyPm.c ****         CyMasterClk_SetSource(cyPmClockBackup.masterClkSrc);
 471              		.loc 1 341 0
 472 0096 40F20003 		movw	r3, #:lower16:cyPmClockBackup
 473 009a C0F20003 		movt	r3, #:upper16:cyPmClockBackup
 474 009e 9B78     		ldrb	r3, [r3, #2]	@ zero_extendqisi2
 475 00a0 1846     		mov	r0, r3
 476 00a2 FFF7FEFF 		bl	CyMasterClk_SetSource
 477              	.L23:
 342:.\Generated_Source\PSoC5/cyPm.c ****     }
 343:.\Generated_Source\PSoC5/cyPm.c **** 
 344:.\Generated_Source\PSoC5/cyPm.c ****     /* IMO - restore IMO frequency */
 345:.\Generated_Source\PSoC5/cyPm.c ****     if((0u != (cyPmClockBackup.imoUsbClk & CY_PM_FASTCLK_IMO_CR_USB)) &&
 478              		.loc 1 345 0
 479 00a6 40F20003 		movw	r3, #:lower16:cyPmClockBackup
 480 00aa C0F20003 		movt	r3, #:upper16:cyPmClockBackup
 481 00ae 1B79     		ldrb	r3, [r3, #4]	@ zero_extendqisi2
 482 00b0 03F04003 		and	r3, r3, #64
 483 00b4 002B     		cmp	r3, #0
 484 00b6 11D0     		beq	.L25
 346:.\Generated_Source\PSoC5/cyPm.c ****         (CY_IMO_FREQ_24MHZ == cyPmImoFreqMhz2Reg[cyPmClockBackup.imoFreq]))
 485              		.loc 1 346 0
 486 00b8 40F20003 		movw	r3, #:lower16:cyPmClockBackup
 487 00bc C0F20003 		movt	r3, #:upper16:cyPmClockBackup
 488 00c0 DB78     		ldrb	r3, [r3, #3]	@ zero_extendqisi2
 489 00c2 1A46     		mov	r2, r3
 490 00c4 40F20003 		movw	r3, #:lower16:cyPmImoFreqMhz2Reg
 491 00c8 C0F20003 		movt	r3, #:upper16:cyPmImoFreqMhz2Reg
 492 00cc 9B5C     		ldrb	r3, [r3, r2]	@ zero_extendqisi2
 493              		.loc 1 345 0
 494 00ce 032B     		cmp	r3, #3
 495 00d0 04D1     		bne	.L25
 347:.\Generated_Source\PSoC5/cyPm.c ****     {
 348:.\Generated_Source\PSoC5/cyPm.c ****         /* Restore IMO frequency (24 MHz) and trim it for USB */
 349:.\Generated_Source\PSoC5/cyPm.c ****         CyIMO_SetFreq(CY_IMO_FREQ_USB);
ARM GAS  C:\Users\Geo\AppData\Local\Temp\ccKuRrRd.s 			page 16


 496              		.loc 1 349 0
 497 00d2 4FF00800 		mov	r0, #8
 498 00d6 FFF7FEFF 		bl	CyIMO_SetFreq
 499              		.loc 1 345 0
 500 00da 32E0     		b	.L26
 501              	.L25:
 350:.\Generated_Source\PSoC5/cyPm.c ****     }
 351:.\Generated_Source\PSoC5/cyPm.c ****     else
 352:.\Generated_Source\PSoC5/cyPm.c ****     {
 353:.\Generated_Source\PSoC5/cyPm.c ****         /* Restore IMO frequency */
 354:.\Generated_Source\PSoC5/cyPm.c ****         CyIMO_SetFreq(cyPmImoFreqMhz2Reg[cyPmClockBackup.imoFreq]);
 502              		.loc 1 354 0
 503 00dc 40F20003 		movw	r3, #:lower16:cyPmClockBackup
 504 00e0 C0F20003 		movt	r3, #:upper16:cyPmClockBackup
 505 00e4 DB78     		ldrb	r3, [r3, #3]	@ zero_extendqisi2
 506 00e6 1A46     		mov	r2, r3
 507 00e8 40F20003 		movw	r3, #:lower16:cyPmImoFreqMhz2Reg
 508 00ec C0F20003 		movt	r3, #:upper16:cyPmImoFreqMhz2Reg
 509 00f0 9B5C     		ldrb	r3, [r3, r2]	@ zero_extendqisi2
 510 00f2 1846     		mov	r0, r3
 511 00f4 FFF7FEFF 		bl	CyIMO_SetFreq
 355:.\Generated_Source\PSoC5/cyPm.c ****         
 356:.\Generated_Source\PSoC5/cyPm.c ****         if(0u != (cyPmClockBackup.imoUsbClk & CY_PM_FASTCLK_IMO_CR_USB))
 512              		.loc 1 356 0
 513 00f8 40F20003 		movw	r3, #:lower16:cyPmClockBackup
 514 00fc C0F20003 		movt	r3, #:upper16:cyPmClockBackup
 515 0100 1B79     		ldrb	r3, [r3, #4]	@ zero_extendqisi2
 516 0102 03F04003 		and	r3, r3, #64
 517 0106 002B     		cmp	r3, #0
 518 0108 0ED0     		beq	.L27
 357:.\Generated_Source\PSoC5/cyPm.c ****         {
 358:.\Generated_Source\PSoC5/cyPm.c ****             CY_PM_FASTCLK_IMO_CR_REG |= CY_PM_FASTCLK_IMO_CR_USB;
 519              		.loc 1 358 0
 520 010a 44F20023 		movw	r3, #:lower16:1073758720
 521 010e C4F20003 		movt	r3, #:upper16:1073758720
 522 0112 44F20022 		movw	r2, #:lower16:1073758720
 523 0116 C4F20002 		movt	r2, #:upper16:1073758720
 524 011a 1278     		ldrb	r2, [r2, #0]
 525 011c D2B2     		uxtb	r2, r2
 526 011e 42F04002 		orr	r2, r2, #64
 527 0122 D2B2     		uxtb	r2, r2
 528 0124 1A70     		strb	r2, [r3, #0]
 529 0126 0CE0     		b	.L26
 530              	.L27:
 359:.\Generated_Source\PSoC5/cyPm.c ****         }
 360:.\Generated_Source\PSoC5/cyPm.c ****         else
 361:.\Generated_Source\PSoC5/cyPm.c ****         {
 362:.\Generated_Source\PSoC5/cyPm.c ****             CY_PM_FASTCLK_IMO_CR_REG &= ~CY_PM_FASTCLK_IMO_CR_USB;
 531              		.loc 1 362 0
 532 0128 44F20023 		movw	r3, #:lower16:1073758720
 533 012c C4F20003 		movt	r3, #:upper16:1073758720
 534 0130 44F20022 		movw	r2, #:lower16:1073758720
 535 0134 C4F20002 		movt	r2, #:upper16:1073758720
 536 0138 1278     		ldrb	r2, [r2, #0]
 537 013a D2B2     		uxtb	r2, r2
 538 013c 02F0BF02 		and	r2, r2, #191
 539 0140 1A70     		strb	r2, [r3, #0]
ARM GAS  C:\Users\Geo\AppData\Local\Temp\ccKuRrRd.s 			page 17


 540              	.L26:
 363:.\Generated_Source\PSoC5/cyPm.c ****         }
 364:.\Generated_Source\PSoC5/cyPm.c ****     }
 365:.\Generated_Source\PSoC5/cyPm.c **** 
 366:.\Generated_Source\PSoC5/cyPm.c ****     /* IMO - restore enable state if needed */
 367:.\Generated_Source\PSoC5/cyPm.c ****     if((CY_PM_ENABLED == cyPmClockBackup.imoEnable) &&
 541              		.loc 1 367 0
 542 0142 40F20003 		movw	r3, #:lower16:cyPmClockBackup
 543 0146 C0F20003 		movt	r3, #:upper16:cyPmClockBackup
 544 014a 9B79     		ldrb	r3, [r3, #6]	@ zero_extendqisi2
 545 014c 012B     		cmp	r3, #1
 546 014e 0DD1     		bne	.L28
 368:.\Generated_Source\PSoC5/cyPm.c ****        (0u == (CY_PM_ACT_CFG0_IMO & CY_PM_ACT_CFG0_REG)))
 547              		.loc 1 368 0
 548 0150 44F2A033 		movw	r3, #:lower16:1073759136
 549 0154 C4F20003 		movt	r3, #:upper16:1073759136
 550 0158 1B78     		ldrb	r3, [r3, #0]
 551 015a DBB2     		uxtb	r3, r3
 552 015c 03F01003 		and	r3, r3, #16
 553              		.loc 1 367 0
 554 0160 002B     		cmp	r3, #0
 555 0162 03D1     		bne	.L28
 369:.\Generated_Source\PSoC5/cyPm.c ****     {
 370:.\Generated_Source\PSoC5/cyPm.c ****         /* IMO - restore enabled state */
 371:.\Generated_Source\PSoC5/cyPm.c ****         CyIMO_Start(CY_PM_IMO_NO_WAIT_TO_SETTLE);
 556              		.loc 1 371 0
 557 0164 4FF00000 		mov	r0, #0
 558 0168 FFF7FEFF 		bl	CyIMO_Start
 559              	.L28:
 372:.\Generated_Source\PSoC5/cyPm.c ****     }
 373:.\Generated_Source\PSoC5/cyPm.c **** 
 374:.\Generated_Source\PSoC5/cyPm.c ****     /* IMO - restore disable state if needed */
 375:.\Generated_Source\PSoC5/cyPm.c ****     if((CY_PM_DISABLED == cyPmClockBackup.imoEnable) &&
 560              		.loc 1 375 0
 561 016c 40F20003 		movw	r3, #:lower16:cyPmClockBackup
 562 0170 C0F20003 		movt	r3, #:upper16:cyPmClockBackup
 563 0174 9B79     		ldrb	r3, [r3, #6]	@ zero_extendqisi2
 564 0176 002B     		cmp	r3, #0
 565 0178 0BD1     		bne	.L29
 376:.\Generated_Source\PSoC5/cyPm.c ****        (0u != (CY_PM_ACT_CFG0_IMO & CY_PM_ACT_CFG0_REG)))
 566              		.loc 1 376 0
 567 017a 44F2A033 		movw	r3, #:lower16:1073759136
 568 017e C4F20003 		movt	r3, #:upper16:1073759136
 569 0182 1B78     		ldrb	r3, [r3, #0]
 570 0184 DBB2     		uxtb	r3, r3
 571 0186 03F01003 		and	r3, r3, #16
 572              		.loc 1 375 0
 573 018a 002B     		cmp	r3, #0
 574 018c 01D0     		beq	.L29
 377:.\Generated_Source\PSoC5/cyPm.c ****     {
 378:.\Generated_Source\PSoC5/cyPm.c ****         CyIMO_Stop();
 575              		.loc 1 378 0
 576 018e FFF7FEFF 		bl	CyIMO_Stop
 577              	.L29:
 379:.\Generated_Source\PSoC5/cyPm.c ****     }
 380:.\Generated_Source\PSoC5/cyPm.c **** 
 381:.\Generated_Source\PSoC5/cyPm.c ****     /* IMO - restore IMOCLK source */
ARM GAS  C:\Users\Geo\AppData\Local\Temp\ccKuRrRd.s 			page 18


 382:.\Generated_Source\PSoC5/cyPm.c ****     CyIMO_SetSource(cyPmClockBackup.imoClkSrc);
 578              		.loc 1 382 0
 579 0192 40F20003 		movw	r3, #:lower16:cyPmClockBackup
 580 0196 C0F20003 		movt	r3, #:upper16:cyPmClockBackup
 581 019a DB79     		ldrb	r3, [r3, #7]	@ zero_extendqisi2
 582 019c 1846     		mov	r0, r3
 583 019e FFF7FEFF 		bl	CyIMO_SetSource
 383:.\Generated_Source\PSoC5/cyPm.c **** 
 384:.\Generated_Source\PSoC5/cyPm.c ****     /* Restore IMO doubler enable state (turned off by CyPmSaveClocks()) */
 385:.\Generated_Source\PSoC5/cyPm.c ****     if(CY_PM_ENABLED == cyPmClockBackup.imo2x)
 584              		.loc 1 385 0
 585 01a2 40F20003 		movw	r3, #:lower16:cyPmClockBackup
 586 01a6 C0F20003 		movt	r3, #:upper16:cyPmClockBackup
 587 01aa 5B7A     		ldrb	r3, [r3, #9]	@ zero_extendqisi2
 588 01ac 012B     		cmp	r3, #1
 589 01ae 01D1     		bne	.L30
 386:.\Generated_Source\PSoC5/cyPm.c ****     {
 387:.\Generated_Source\PSoC5/cyPm.c ****         CyIMO_EnableDoubler();
 590              		.loc 1 387 0
 591 01b0 FFF7FEFF 		bl	CyIMO_EnableDoubler
 592              	.L30:
 388:.\Generated_Source\PSoC5/cyPm.c ****     }
 389:.\Generated_Source\PSoC5/cyPm.c **** 
 390:.\Generated_Source\PSoC5/cyPm.c ****     /* IMO - restore clk_imo source, if needed */
 391:.\Generated_Source\PSoC5/cyPm.c ****     if(cyPmClockBackup.clkImoSrc != (CY_PM_CLKDIST_CR_REG & CY_PM_CLKDIST_IMO_OUT_MASK))
 593              		.loc 1 391 0
 594 01b4 40F20003 		movw	r3, #:lower16:cyPmClockBackup
 595 01b8 C0F20003 		movt	r3, #:upper16:cyPmClockBackup
 596 01bc 1B7A     		ldrb	r3, [r3, #8]	@ zero_extendqisi2
 597 01be 1A46     		mov	r2, r3
 598 01c0 44F20003 		movw	r3, #:lower16:1073758208
 599 01c4 C4F20003 		movt	r3, #:upper16:1073758208
 600 01c8 1B78     		ldrb	r3, [r3, #0]
 601 01ca DBB2     		uxtb	r3, r3
 602 01cc 03F03003 		and	r3, r3, #48
 603 01d0 9A42     		cmp	r2, r3
 604 01d2 14D0     		beq	.L31
 392:.\Generated_Source\PSoC5/cyPm.c ****     {
 393:.\Generated_Source\PSoC5/cyPm.c ****         CY_PM_CLKDIST_CR_REG = (CY_PM_CLKDIST_CR_REG & ~CY_PM_CLKDIST_IMO_OUT_MASK) |
 605              		.loc 1 393 0
 606 01d4 44F20003 		movw	r3, #:lower16:1073758208
 607 01d8 C4F20003 		movt	r3, #:upper16:1073758208
 608 01dc 44F20002 		movw	r2, #:lower16:1073758208
 609 01e0 C4F20002 		movt	r2, #:upper16:1073758208
 610 01e4 1278     		ldrb	r2, [r2, #0]
 611 01e6 D2B2     		uxtb	r2, r2
 612 01e8 02F0CF02 		and	r2, r2, #207
 613 01ec 40F20001 		movw	r1, #:lower16:cyPmClockBackup
 614 01f0 C0F20001 		movt	r1, #:upper16:cyPmClockBackup
 615 01f4 097A     		ldrb	r1, [r1, #8]	@ zero_extendqisi2
 616 01f6 42EA0102 		orr	r2, r2, r1
 617 01fa D2B2     		uxtb	r2, r2
 618 01fc 1A70     		strb	r2, [r3, #0]
 619              	.L31:
 394:.\Generated_Source\PSoC5/cyPm.c ****                                 cyPmClockBackup.clkImoSrc;
 395:.\Generated_Source\PSoC5/cyPm.c ****     }
 396:.\Generated_Source\PSoC5/cyPm.c **** 
ARM GAS  C:\Users\Geo\AppData\Local\Temp\ccKuRrRd.s 			page 19


 397:.\Generated_Source\PSoC5/cyPm.c ****     /* PLL restore state */
 398:.\Generated_Source\PSoC5/cyPm.c ****     if(CY_PM_ENABLED == cyPmClockBackup.pllEnableState)
 620              		.loc 1 398 0
 621 01fe 40F20003 		movw	r3, #:lower16:cyPmClockBackup
 622 0202 C0F20003 		movt	r3, #:upper16:cyPmClockBackup
 623 0206 9B7B     		ldrb	r3, [r3, #14]	@ zero_extendqisi2
 624 0208 012B     		cmp	r3, #1
 625 020a 17D1     		bne	.L32
 399:.\Generated_Source\PSoC5/cyPm.c ****     {
 400:.\Generated_Source\PSoC5/cyPm.c ****         /***********************************************************************
 401:.\Generated_Source\PSoC5/cyPm.c ****         * Enable PLL. The actual CyPLL_OUT_Start() without wait period uses FTW
 402:.\Generated_Source\PSoC5/cyPm.c ****         * for period measurement. This could cause a problem if CTW/FTW is used
 403:.\Generated_Source\PSoC5/cyPm.c ****         * as a wakeup time in the low power modes APIs. To omit this issue PLL
 404:.\Generated_Source\PSoC5/cyPm.c ****         * wait procedure is implemented with a software delay.
 405:.\Generated_Source\PSoC5/cyPm.c ****         ***********************************************************************/
 406:.\Generated_Source\PSoC5/cyPm.c **** 
 407:.\Generated_Source\PSoC5/cyPm.c ****         /* Enable PLL */
 408:.\Generated_Source\PSoC5/cyPm.c ****         CyPLL_OUT_Start(CY_PM_PLL_OUT_NO_WAIT);
 626              		.loc 1 408 0
 627 020c 4FF00000 		mov	r0, #0
 628 0210 FFF7FEFF 		bl	CyPLL_OUT_Start
 409:.\Generated_Source\PSoC5/cyPm.c **** 
 410:.\Generated_Source\PSoC5/cyPm.c ****         /* Make a 250 us delay */
 411:.\Generated_Source\PSoC5/cyPm.c ****         CyDelayCycles(CY_PM_WAIT_250_US * CY_PM_GET_CPU_FREQ_MHZ);
 629              		.loc 1 411 0
 630 0214 44F20023 		movw	r3, #:lower16:1073758720
 631 0218 C4F20003 		movt	r3, #:upper16:1073758720
 632 021c 1B78     		ldrb	r3, [r3, #0]
 633 021e DBB2     		uxtb	r3, r3
 634 0220 03F00702 		and	r2, r3, #7
 635 0224 40F20003 		movw	r3, #:lower16:cyPmImoFreqReg2Mhz
 636 0228 C0F20003 		movt	r3, #:upper16:cyPmImoFreqReg2Mhz
 637 022c 9B5C     		ldrb	r3, [r3, r2]	@ zero_extendqisi2
 638 022e 4FF0FA02 		mov	r2, #250
 639 0232 02FB03F3 		mul	r3, r2, r3
 640 0236 1846     		mov	r0, r3
 641 0238 FFF7FEFF 		bl	CyDelayCycles
 642              	.L32:
 412:.\Generated_Source\PSoC5/cyPm.c ****     }   /* (CY_PM_ENABLED == cyPmClockBackup.pllEnableState) */
 413:.\Generated_Source\PSoC5/cyPm.c **** 
 414:.\Generated_Source\PSoC5/cyPm.c **** 
 415:.\Generated_Source\PSoC5/cyPm.c ****     /* PLL and IMO is ready to be source for Master clock */
 416:.\Generated_Source\PSoC5/cyPm.c ****     if((CY_PM_MASTER_CLK_SRC_IMO == cyPmClockBackup.masterClkSrc) ||
 643              		.loc 1 416 0
 644 023c 40F20003 		movw	r3, #:lower16:cyPmClockBackup
 645 0240 C0F20003 		movt	r3, #:upper16:cyPmClockBackup
 646 0244 9B78     		ldrb	r3, [r3, #2]	@ zero_extendqisi2
 647 0246 002B     		cmp	r3, #0
 648 0248 06D0     		beq	.L33
 417:.\Generated_Source\PSoC5/cyPm.c ****        (CY_PM_MASTER_CLK_SRC_PLL == cyPmClockBackup.masterClkSrc))
 649              		.loc 1 417 0
 650 024a 40F20003 		movw	r3, #:lower16:cyPmClockBackup
 651 024e C0F20003 		movt	r3, #:upper16:cyPmClockBackup
 652 0252 9B78     		ldrb	r3, [r3, #2]	@ zero_extendqisi2
 653              		.loc 1 416 0
 654 0254 012B     		cmp	r3, #1
 655 0256 1CD1     		bne	.L34
ARM GAS  C:\Users\Geo\AppData\Local\Temp\ccKuRrRd.s 			page 20


 656              	.L33:
 418:.\Generated_Source\PSoC5/cyPm.c ****     {
 419:.\Generated_Source\PSoC5/cyPm.c ****         /* Restore Master clock divider */
 420:.\Generated_Source\PSoC5/cyPm.c ****         if(CY_PM_CLKDIST_MSTR0_REG != cyPmClockBackup.clkSyncDiv)
 657              		.loc 1 420 0
 658 0258 44F20403 		movw	r3, #:lower16:1073758212
 659 025c C4F20003 		movt	r3, #:upper16:1073758212
 660 0260 1B78     		ldrb	r3, [r3, #0]
 661 0262 DAB2     		uxtb	r2, r3
 662 0264 40F20003 		movw	r3, #:lower16:cyPmClockBackup
 663 0268 C0F20003 		movt	r3, #:upper16:cyPmClockBackup
 664 026c 9B7A     		ldrb	r3, [r3, #10]	@ zero_extendqisi2
 665 026e 9A42     		cmp	r2, r3
 666 0270 07D0     		beq	.L35
 421:.\Generated_Source\PSoC5/cyPm.c ****         {
 422:.\Generated_Source\PSoC5/cyPm.c ****             CyMasterClk_SetDivider(cyPmClockBackup.clkSyncDiv);
 667              		.loc 1 422 0
 668 0272 40F20003 		movw	r3, #:lower16:cyPmClockBackup
 669 0276 C0F20003 		movt	r3, #:upper16:cyPmClockBackup
 670 027a 9B7A     		ldrb	r3, [r3, #10]	@ zero_extendqisi2
 671 027c 1846     		mov	r0, r3
 672 027e FFF7FEFF 		bl	CyMasterClk_SetDivider
 673              	.L35:
 423:.\Generated_Source\PSoC5/cyPm.c ****         }
 424:.\Generated_Source\PSoC5/cyPm.c **** 
 425:.\Generated_Source\PSoC5/cyPm.c ****         /* Restore Master clock source */
 426:.\Generated_Source\PSoC5/cyPm.c ****         CyMasterClk_SetSource(cyPmClockBackup.masterClkSrc);
 674              		.loc 1 426 0
 675 0282 40F20003 		movw	r3, #:lower16:cyPmClockBackup
 676 0286 C0F20003 		movt	r3, #:upper16:cyPmClockBackup
 677 028a 9B78     		ldrb	r3, [r3, #2]	@ zero_extendqisi2
 678 028c 1846     		mov	r0, r3
 679 028e FFF7FEFF 		bl	CyMasterClk_SetSource
 680              	.L34:
 427:.\Generated_Source\PSoC5/cyPm.c ****     }
 428:.\Generated_Source\PSoC5/cyPm.c **** 
 429:.\Generated_Source\PSoC5/cyPm.c ****     /* Bus clock - restore divider, if needed */
 430:.\Generated_Source\PSoC5/cyPm.c ****     if(cyPmClockBackup.clkBusDiv != (((uint16) CY_PM_CLK_BUS_MSB_DIV_REG << 8u) | CY_PM_CLK_BUS_LSB
 681              		.loc 1 430 0
 682 0292 40F20003 		movw	r3, #:lower16:cyPmClockBackup
 683 0296 C0F20003 		movt	r3, #:upper16:cyPmClockBackup
 684 029a 9B89     		ldrh	r3, [r3, #12]
 685 029c 1A46     		mov	r2, r3
 686 029e 44F20703 		movw	r3, #:lower16:1073758215
 687 02a2 C4F20003 		movt	r3, #:upper16:1073758215
 688 02a6 1B78     		ldrb	r3, [r3, #0]
 689 02a8 DBB2     		uxtb	r3, r3
 690 02aa 4FEA0321 		lsl	r1, r3, #8
 691 02ae 44F20603 		movw	r3, #:lower16:1073758214
 692 02b2 C4F20003 		movt	r3, #:upper16:1073758214
 693 02b6 1B78     		ldrb	r3, [r3, #0]
 694 02b8 DBB2     		uxtb	r3, r3
 695 02ba 41EA0303 		orr	r3, r1, r3
 696 02be 9A42     		cmp	r2, r3
 697 02c0 07D0     		beq	.L36
 431:.\Generated_Source\PSoC5/cyPm.c ****     {
 432:.\Generated_Source\PSoC5/cyPm.c ****         CyBusClk_SetDivider(cyPmClockBackup.clkBusDiv);
ARM GAS  C:\Users\Geo\AppData\Local\Temp\ccKuRrRd.s 			page 21


 698              		.loc 1 432 0
 699 02c2 40F20003 		movw	r3, #:lower16:cyPmClockBackup
 700 02c6 C0F20003 		movt	r3, #:upper16:cyPmClockBackup
 701 02ca 9B89     		ldrh	r3, [r3, #12]
 702 02cc 1846     		mov	r0, r3
 703 02ce FFF7FEFF 		bl	CyBusClk_SetDivider
 704              	.L36:
 433:.\Generated_Source\PSoC5/cyPm.c ****     }
 434:.\Generated_Source\PSoC5/cyPm.c **** 
 435:.\Generated_Source\PSoC5/cyPm.c ****     /* Restore flash wait cycles */
 436:.\Generated_Source\PSoC5/cyPm.c ****     CY_PM_CACHE_CR_REG = ((CY_PM_CACHE_CR_REG & ~CY_PM_CACHE_CR_CYCLES_MASK) |
 705              		.loc 1 436 0
 706 02d2 44F60003 		movw	r3, #:lower16:1073760256
 707 02d6 C4F20003 		movt	r3, #:upper16:1073760256
 708 02da 44F60002 		movw	r2, #:lower16:1073760256
 709 02de C4F20002 		movt	r2, #:upper16:1073760256
 710 02e2 1278     		ldrb	r2, [r2, #0]
 711 02e4 D2B2     		uxtb	r2, r2
 712 02e6 02F03F02 		and	r2, r2, #63
 713 02ea 40F20001 		movw	r1, #:lower16:cyPmClockBackup
 714 02ee C0F20001 		movt	r1, #:upper16:cyPmClockBackup
 715 02f2 4979     		ldrb	r1, [r1, #5]	@ zero_extendqisi2
 716 02f4 42EA0102 		orr	r2, r2, r1
 717 02f8 D2B2     		uxtb	r2, r2
 718 02fa 1A70     		strb	r2, [r3, #0]
 437:.\Generated_Source\PSoC5/cyPm.c ****                            cyPmClockBackup.flashWaitCycles);
 438:.\Generated_Source\PSoC5/cyPm.c **** 
 439:.\Generated_Source\PSoC5/cyPm.c ****     /* Digital and analog clocks - restore state */
 440:.\Generated_Source\PSoC5/cyPm.c ****     CY_PM_ACT_CFG1_REG = cyPmClockBackup.enClkA;
 719              		.loc 1 440 0
 720 02fc 44F2A133 		movw	r3, #:lower16:1073759137
 721 0300 C4F20003 		movt	r3, #:upper16:1073759137
 722 0304 40F20002 		movw	r2, #:lower16:cyPmClockBackup
 723 0308 C0F20002 		movt	r2, #:upper16:cyPmClockBackup
 724 030c 1278     		ldrb	r2, [r2, #0]	@ zero_extendqisi2
 725 030e 1A70     		strb	r2, [r3, #0]
 441:.\Generated_Source\PSoC5/cyPm.c ****     CY_PM_ACT_CFG2_REG = cyPmClockBackup.enClkD;
 726              		.loc 1 441 0
 727 0310 44F2A233 		movw	r3, #:lower16:1073759138
 728 0314 C4F20003 		movt	r3, #:upper16:1073759138
 729 0318 40F20002 		movw	r2, #:lower16:cyPmClockBackup
 730 031c C0F20002 		movt	r2, #:upper16:cyPmClockBackup
 731 0320 5278     		ldrb	r2, [r2, #1]	@ zero_extendqisi2
 732 0322 1A70     		strb	r2, [r3, #0]
 442:.\Generated_Source\PSoC5/cyPm.c **** }
 733              		.loc 1 442 0
 734 0324 80BD     		pop	{r7, pc}
 735              		.cfi_endproc
 736              	.LFE1:
 737              		.size	CyPmRestoreClocks, .-CyPmRestoreClocks
 738 0326 00BF     		.section	.text.CyPmAltAct,"ax",%progbits
 739              		.align	2
 740              		.global	CyPmAltAct
 741              		.thumb
 742              		.thumb_func
 743              		.type	CyPmAltAct, %function
 744              	CyPmAltAct:
ARM GAS  C:\Users\Geo\AppData\Local\Temp\ccKuRrRd.s 			page 22


 745              	.LFB2:
 443:.\Generated_Source\PSoC5/cyPm.c **** 
 444:.\Generated_Source\PSoC5/cyPm.c **** 
 445:.\Generated_Source\PSoC5/cyPm.c **** /*******************************************************************************
 446:.\Generated_Source\PSoC5/cyPm.c **** * Function Name: CyPmAltAct
 447:.\Generated_Source\PSoC5/cyPm.c **** ********************************************************************************
 448:.\Generated_Source\PSoC5/cyPm.c **** *
 449:.\Generated_Source\PSoC5/cyPm.c **** * Summary:
 450:.\Generated_Source\PSoC5/cyPm.c **** *  Puts the part into the Alternate Active (Standby) state. The Alternate Active
 451:.\Generated_Source\PSoC5/cyPm.c **** *  state can allow for any of the capabilities of the device to be active, but
 452:.\Generated_Source\PSoC5/cyPm.c **** *  the operation of this function is dependent on the CPU being disabled during
 453:.\Generated_Source\PSoC5/cyPm.c **** *  the Alternate Active state. The configuration code and the component APIs
 454:.\Generated_Source\PSoC5/cyPm.c **** *  will configure the template for the Alternate Active state to be the same as
 455:.\Generated_Source\PSoC5/cyPm.c **** *  the Active state with the exception that the CPU will be disabled during
 456:.\Generated_Source\PSoC5/cyPm.c **** *  Alternate Active.
 457:.\Generated_Source\PSoC5/cyPm.c **** *
 458:.\Generated_Source\PSoC5/cyPm.c **** *  Note Before calling this function, you must manually configure the power mode
 459:.\Generated_Source\PSoC5/cyPm.c **** *  of the source clocks for the timer that is used as the wakeup timer.
 460:.\Generated_Source\PSoC5/cyPm.c **** *
 461:.\Generated_Source\PSoC5/cyPm.c **** *  PSoC3:
 462:.\Generated_Source\PSoC5/cyPm.c **** *  Before switching to Alternate Active, if a wakeupTime other than NONE is
 463:.\Generated_Source\PSoC5/cyPm.c **** *  specified, then the appropriate timer state is configured as specified with
 464:.\Generated_Source\PSoC5/cyPm.c **** *  the interrupt for that timer disabled.  The wakeup source will be the
 465:.\Generated_Source\PSoC5/cyPm.c **** *  combination of the values specified in the wakeupSource and any timer
 466:.\Generated_Source\PSoC5/cyPm.c **** *  specified in the wakeupTime argument.  Once the wakeup condition is
 467:.\Generated_Source\PSoC5/cyPm.c **** *  satisfied, then all saved state is restored and the function returns in the
 468:.\Generated_Source\PSoC5/cyPm.c **** *  Active state.
 469:.\Generated_Source\PSoC5/cyPm.c **** *
 470:.\Generated_Source\PSoC5/cyPm.c **** *  Note that if the wakeupTime is made with a different value, the period before
 471:.\Generated_Source\PSoC5/cyPm.c **** *  the wakeup occurs can be significantly shorter than the specified time.  If
 472:.\Generated_Source\PSoC5/cyPm.c **** *  the next call is made with the same wakeupTime value, then the wakeup will
 473:.\Generated_Source\PSoC5/cyPm.c **** *  occur the specified period after the previous wakeup occurred.
 474:.\Generated_Source\PSoC5/cyPm.c **** *
 475:.\Generated_Source\PSoC5/cyPm.c **** *  If a wakeupTime other than NONE is specified, then upon exit the state of the
 476:.\Generated_Source\PSoC5/cyPm.c **** *  specified timer will be left as specified by wakeupTime with the timer
 477:.\Generated_Source\PSoC5/cyPm.c **** *  enabled and the interrupt disabled.  If the CTW, FTW or One PPS is already
 478:.\Generated_Source\PSoC5/cyPm.c **** *  configured for wakeup, for example with the SleepTimer or RTC components,
 479:.\Generated_Source\PSoC5/cyPm.c **** *  then specify NONE for the wakeupTime and include the appropriate source for
 480:.\Generated_Source\PSoC5/cyPm.c **** *  wakeupSource.
 481:.\Generated_Source\PSoC5/cyPm.c **** *
 482:.\Generated_Source\PSoC5/cyPm.c **** *  PSoC 5:
 483:.\Generated_Source\PSoC5/cyPm.c **** *  Neither of the parameters to this function are used for PSoC 5. The device
 484:.\Generated_Source\PSoC5/cyPm.c **** *  will go into Alternate Active mode until an enabled interrupt occurs.
 485:.\Generated_Source\PSoC5/cyPm.c **** *
 486:.\Generated_Source\PSoC5/cyPm.c **** * Parameters:
 487:.\Generated_Source\PSoC5/cyPm.c **** *  wakeupTime: Specifies a timer wakeup source and the frequency of that
 488:.\Generated_Source\PSoC5/cyPm.c **** *              source. For PSoC 5 this parameter is ignored.
 489:.\Generated_Source\PSoC5/cyPm.c **** *
 490:.\Generated_Source\PSoC5/cyPm.c **** *           Define                      Time
 491:.\Generated_Source\PSoC5/cyPm.c **** *  PM_ALT_ACT_TIME_NONE             None
 492:.\Generated_Source\PSoC5/cyPm.c **** *  PM_ALT_ACT_TIME_ONE_PPS          One PPS: 1 second
 493:.\Generated_Source\PSoC5/cyPm.c **** *  PM_ALT_ACT_TIME_CTW_2MS          CTW: 2 ms
 494:.\Generated_Source\PSoC5/cyPm.c **** *  PM_ALT_ACT_TIME_CTW_4MS          CTW: 4 ms
 495:.\Generated_Source\PSoC5/cyPm.c **** *  PM_ALT_ACT_TIME_CTW_8MS          CTW: 8 ms
 496:.\Generated_Source\PSoC5/cyPm.c **** *  PM_ALT_ACT_TIME_CTW_16MS         CTW: 16 ms
 497:.\Generated_Source\PSoC5/cyPm.c **** *  PM_ALT_ACT_TIME_CTW_32MS         CTW: 32 ms
 498:.\Generated_Source\PSoC5/cyPm.c **** *  PM_ALT_ACT_TIME_CTW_64MS         CTW: 64 ms
ARM GAS  C:\Users\Geo\AppData\Local\Temp\ccKuRrRd.s 			page 23


 499:.\Generated_Source\PSoC5/cyPm.c **** *  PM_ALT_ACT_TIME_CTW_128MS        CTW: 128 ms
 500:.\Generated_Source\PSoC5/cyPm.c **** *  PM_ALT_ACT_TIME_CTW_256MS        CTW: 256 ms
 501:.\Generated_Source\PSoC5/cyPm.c **** *  PM_ALT_ACT_TIME_CTW_512MS        CTW: 512 ms
 502:.\Generated_Source\PSoC5/cyPm.c **** *  PM_ALT_ACT_TIME_CTW_1024MS       CTW: 1024 ms
 503:.\Generated_Source\PSoC5/cyPm.c **** *  PM_ALT_ACT_TIME_CTW_2048MS       CTW: 2048 ms
 504:.\Generated_Source\PSoC5/cyPm.c **** *  PM_ALT_ACT_TIME_CTW_4096MS       CTW: 4096 ms
 505:.\Generated_Source\PSoC5/cyPm.c **** *  PM_ALT_ACT_TIME_FTW(1-256)*       FTW: 10us to 2.56ms
 506:.\Generated_Source\PSoC5/cyPm.c **** *
 507:.\Generated_Source\PSoC5/cyPm.c **** *  *Note:   PM_ALT_ACT_TIME_FTW() is a macro that takes an argument that
 508:.\Generated_Source\PSoC5/cyPm.c **** *           specifies how many increments of 10us to delay. For PSoC 3 ES2
 509:.\Generated_Source\PSoC5/cyPm.c **** *           silicon and earlier the valid range of values is 1 to 32.
 510:.\Generated_Source\PSoC5/cyPm.c ****             For PSoC3 ES3 silicon the valid range of  values is 1 to 256.
 511:.\Generated_Source\PSoC5/cyPm.c **** *
 512:.\Generated_Source\PSoC5/cyPm.c **** *  wakeUpSource:    Specifies a bitwise mask of wakeup sources. In addition, if
 513:.\Generated_Source\PSoC5/cyPm.c **** *                   a wakeupTime has been specified the associated timer will be
 514:.\Generated_Source\PSoC5/cyPm.c **** *                   included as a wakeup source. For PSoC 5 this parameter is
 515:.\Generated_Source\PSoC5/cyPm.c **** *                   ignored.
 516:.\Generated_Source\PSoC5/cyPm.c **** *
 517:.\Generated_Source\PSoC5/cyPm.c **** *           Define                      Source
 518:.\Generated_Source\PSoC5/cyPm.c **** *  PM_ALT_ACT_SRC_NONE              None
 519:.\Generated_Source\PSoC5/cyPm.c **** *  PM_ALT_ACT_SRC_COMPARATOR0       Comparator 0
 520:.\Generated_Source\PSoC5/cyPm.c **** *  PM_ALT_ACT_SRC_COMPARATOR1       Comparator 1
 521:.\Generated_Source\PSoC5/cyPm.c **** *  PM_ALT_ACT_SRC_COMPARATOR2       Comparator 2
 522:.\Generated_Source\PSoC5/cyPm.c **** *  PM_ALT_ACT_SRC_COMPARATOR3       Comparator 3
 523:.\Generated_Source\PSoC5/cyPm.c **** *  PM_ALT_ACT_SRC_INTERRUPT         Interrupt
 524:.\Generated_Source\PSoC5/cyPm.c **** *  PM_ALT_ACT_SRC_PICU              PICU
 525:.\Generated_Source\PSoC5/cyPm.c **** *  PM_ALT_ACT_SRC_I2C               I2C
 526:.\Generated_Source\PSoC5/cyPm.c **** *  PM_ALT_ACT_SRC_BOOSTCONVERTER    Boost Converter
 527:.\Generated_Source\PSoC5/cyPm.c **** *  PM_ALT_ACT_SRC_FTW               Fast Timewheel
 528:.\Generated_Source\PSoC5/cyPm.c **** *  PM_ALT_ACT_SRC_CTW               Central Timewheel*
 529:.\Generated_Source\PSoC5/cyPm.c **** *  PM_ALT_ACT_SRC_ONE_PPS           One PPS*
 530:.\Generated_Source\PSoC5/cyPm.c **** *  PM_ALT_ACT_SRC_LCD               LCD
 531:.\Generated_Source\PSoC5/cyPm.c **** *
 532:.\Generated_Source\PSoC5/cyPm.c **** *  *Note: CTW and One PPS wakeup signals are in the same mask bit.
 533:.\Generated_Source\PSoC5/cyPm.c **** *
 534:.\Generated_Source\PSoC5/cyPm.c **** *  When specifying a Comparator as the wakeupSource an instance specific define
 535:.\Generated_Source\PSoC5/cyPm.c **** *  should be used that will track with the specific comparator that the instance
 536:.\Generated_Source\PSoC5/cyPm.c **** *  is placed into. As an example, for a Comparator instance named MyComp the
 537:.\Generated_Source\PSoC5/cyPm.c **** *  value to OR into the mask is: MyComp_ctComp__CMP_MASK.
 538:.\Generated_Source\PSoC5/cyPm.c **** *
 539:.\Generated_Source\PSoC5/cyPm.c **** *  When CTW, FTW or One PPS is used as a wakeup source, the CyPmReadStatus()
 540:.\Generated_Source\PSoC5/cyPm.c **** *  function must be called upon wakeup with corresponding parameter. Please
 541:.\Generated_Source\PSoC5/cyPm.c **** *  refer to the CyPmReadStatus() API in the System Reference Guide for more
 542:.\Generated_Source\PSoC5/cyPm.c **** *  information.
 543:.\Generated_Source\PSoC5/cyPm.c **** *
 544:.\Generated_Source\PSoC5/cyPm.c **** * Return:
 545:.\Generated_Source\PSoC5/cyPm.c **** *  None
 546:.\Generated_Source\PSoC5/cyPm.c **** *
 547:.\Generated_Source\PSoC5/cyPm.c **** * Reentrant:
 548:.\Generated_Source\PSoC5/cyPm.c **** *  No
 549:.\Generated_Source\PSoC5/cyPm.c **** *
 550:.\Generated_Source\PSoC5/cyPm.c **** * Side Effects:
 551:.\Generated_Source\PSoC5/cyPm.c **** *  For PSoC3 ES2 silicon or earlier and PSoC5 silicon, the wakeup source is not
 552:.\Generated_Source\PSoC5/cyPm.c **** *  selectable. In this case the wakeupSource argument is ignored and any of the
 553:.\Generated_Source\PSoC5/cyPm.c **** *  available wakeup sources will wake the device.
 554:.\Generated_Source\PSoC5/cyPm.c **** *
 555:.\Generated_Source\PSoC5/cyPm.c **** *  If a wakeupTime other than NONE is specified, then upon exit the state of the
ARM GAS  C:\Users\Geo\AppData\Local\Temp\ccKuRrRd.s 			page 24


 556:.\Generated_Source\PSoC5/cyPm.c **** *  specified timer will be left as specified by wakeupTime with the timer
 557:.\Generated_Source\PSoC5/cyPm.c **** *  enabled and the interrupt disabled.  Also, the ILO 1 KHz (if CTW timer is
 558:.\Generated_Source\PSoC5/cyPm.c **** *  used as wakeup time) or ILO 100 KHz (if FTW timer is used as wakeup time)
 559:.\Generated_Source\PSoC5/cyPm.c **** *  will be left started.
 560:.\Generated_Source\PSoC5/cyPm.c **** *
 561:.\Generated_Source\PSoC5/cyPm.c **** *******************************************************************************/
 562:.\Generated_Source\PSoC5/cyPm.c **** void CyPmAltAct(uint16 wakeupTime, uint16 wakeupSource)
 563:.\Generated_Source\PSoC5/cyPm.c **** {
 746              		.loc 1 563 0
 747              		.cfi_startproc
 748              		@ args = 0, pretend = 0, frame = 8
 749              		@ frame_needed = 1, uses_anonymous_args = 0
 750 0000 80B5     		push	{r7, lr}
 751              	.LCFI4:
 752              		.cfi_def_cfa_offset 8
 753 0002 82B0     		sub	sp, sp, #8
 754              	.LCFI5:
 755              		.cfi_def_cfa_offset 16
 756 0004 00AF     		add	r7, sp, #0
 757              		.cfi_offset 14, -4
 758              		.cfi_offset 7, -8
 759              	.LCFI6:
 760              		.cfi_def_cfa_register 7
 761 0006 0246     		mov	r2, r0
 762 0008 0B46     		mov	r3, r1
 763 000a FA80     		strh	r2, [r7, #6]	@ movhi
 764 000c BB80     		strh	r3, [r7, #4]	@ movhi
 564:.\Generated_Source\PSoC5/cyPm.c ****     /* Device is PSoC 5 and the revision is ES1 or earlier. */
 565:.\Generated_Source\PSoC5/cyPm.c ****     #if(CY_PSOC5_ES1)
 566:.\Generated_Source\PSoC5/cyPm.c **** 
 567:.\Generated_Source\PSoC5/cyPm.c ****         /* Arguments expected to be 0 */
 568:.\Generated_Source\PSoC5/cyPm.c ****         CYASSERT((PM_ALT_ACT_TIME_NONE == wakeupTime) &&
 765              		.loc 1 568 0
 766 000e FB88     		ldrh	r3, [r7, #6]
 767 0010 002B     		cmp	r3, #0
 768 0012 02D1     		bne	.L39
 769 0014 BB88     		ldrh	r3, [r7, #4]
 770 0016 002B     		cmp	r3, #0
 771 0018 0ED0     		beq	.L40
 772              	.L39:
 773 001a FB88     		ldrh	r3, [r7, #6]
 774 001c 002B     		cmp	r3, #0
 775 001e 05D1     		bne	.L41
 776 0020 BB88     		ldrh	r3, [r7, #4]
 777 0022 002B     		cmp	r3, #0
 778 0024 02D1     		bne	.L41
 779 0026 4FF00103 		mov	r3, #1
 780 002a 01E0     		b	.L42
 781              	.L41:
 782 002c 4FF00003 		mov	r3, #0
 783              	.L42:
 784 0030 DBB2     		uxtb	r3, r3
 785 0032 1846     		mov	r0, r3
 786 0034 FFF7FEFF 		bl	CyHalt
 787              	.L40:
 569:.\Generated_Source\PSoC5/cyPm.c ****                  (PM_ALT_ACT_SRC_NONE  == wakeupSource));
 570:.\Generated_Source\PSoC5/cyPm.c **** 
ARM GAS  C:\Users\Geo\AppData\Local\Temp\ccKuRrRd.s 			page 25


 571:.\Generated_Source\PSoC5/cyPm.c ****         /* To remove unreferenced local variable warning */
 572:.\Generated_Source\PSoC5/cyPm.c ****         wakeupTime = wakeupTime;
 573:.\Generated_Source\PSoC5/cyPm.c ****         wakeupSource = wakeupSource;
 574:.\Generated_Source\PSoC5/cyPm.c **** 
 575:.\Generated_Source\PSoC5/cyPm.c ****     #else
 576:.\Generated_Source\PSoC5/cyPm.c **** 
 577:.\Generated_Source\PSoC5/cyPm.c ****         /* FTW - save current and set new configuration */
 578:.\Generated_Source\PSoC5/cyPm.c ****         if((wakeupTime >= PM_ALT_ACT_TIME_FTW(1u)) && (wakeupTime <= PM_ALT_ACT_TIME_FTW(256u)))
 579:.\Generated_Source\PSoC5/cyPm.c ****         {
 580:.\Generated_Source\PSoC5/cyPm.c ****             CyPmFtwSaveSet(PM_ALT_ACT_FTW_INTERVAL(wakeupTime));
 581:.\Generated_Source\PSoC5/cyPm.c **** 
 582:.\Generated_Source\PSoC5/cyPm.c ****             /* Include associated timer to the wakeupSource */
 583:.\Generated_Source\PSoC5/cyPm.c ****             wakeupSource |= PM_ALT_ACT_SRC_FTW;
 584:.\Generated_Source\PSoC5/cyPm.c ****         }
 585:.\Generated_Source\PSoC5/cyPm.c **** 
 586:.\Generated_Source\PSoC5/cyPm.c ****         /* CTW - save current and set new configuration */
 587:.\Generated_Source\PSoC5/cyPm.c ****         if((wakeupTime >= PM_ALT_ACT_TIME_CTW_2MS) && (wakeupTime <= PM_ALT_ACT_TIME_CTW_4096MS))
 588:.\Generated_Source\PSoC5/cyPm.c ****         {
 589:.\Generated_Source\PSoC5/cyPm.c ****             /* Save current CTW configuration and set new one */
 590:.\Generated_Source\PSoC5/cyPm.c ****             CyPmCtwSaveSet((wakeupTime - 1u) & CY_PM_CTW_INTERVAL_MASK);
 591:.\Generated_Source\PSoC5/cyPm.c **** 
 592:.\Generated_Source\PSoC5/cyPm.c ****             /* Include associated timer to the wakeupSource */
 593:.\Generated_Source\PSoC5/cyPm.c ****             wakeupSource |= PM_ALT_ACT_SRC_CTW;
 594:.\Generated_Source\PSoC5/cyPm.c ****         }
 595:.\Generated_Source\PSoC5/cyPm.c **** 
 596:.\Generated_Source\PSoC5/cyPm.c ****         /* 1PPS - save current and set new configuration */
 597:.\Generated_Source\PSoC5/cyPm.c ****         if(PM_ALT_ACT_TIME_ONE_PPS == wakeupTime)
 598:.\Generated_Source\PSoC5/cyPm.c ****         {
 599:.\Generated_Source\PSoC5/cyPm.c ****             /* Save current 1PPS configuration and set new one */
 600:.\Generated_Source\PSoC5/cyPm.c ****             CyPmOppsSaveSet();
 601:.\Generated_Source\PSoC5/cyPm.c **** 
 602:.\Generated_Source\PSoC5/cyPm.c ****             /* Include associated timer to the wakeupSource */
 603:.\Generated_Source\PSoC5/cyPm.c ****             wakeupSource |= PM_ALT_ACT_SRC_ONE_PPS;
 604:.\Generated_Source\PSoC5/cyPm.c ****         }
 605:.\Generated_Source\PSoC5/cyPm.c **** 
 606:.\Generated_Source\PSoC5/cyPm.c ****     #endif /* (CY_PSOC5_ES1) */
 607:.\Generated_Source\PSoC5/cyPm.c **** 
 608:.\Generated_Source\PSoC5/cyPm.c ****     /* Device is PSoC 3 and the revision is ES3 or later. */
 609:.\Generated_Source\PSoC5/cyPm.c ****     #if(CY_PSOC3_ES3)
 610:.\Generated_Source\PSoC5/cyPm.c **** 
 611:.\Generated_Source\PSoC5/cyPm.c ****         /* Save and set new wake up configuration */
 612:.\Generated_Source\PSoC5/cyPm.c **** 
 613:.\Generated_Source\PSoC5/cyPm.c ****         /* Interrupt, PICU, I2C, Boost converter, CTW/1PPS */
 614:.\Generated_Source\PSoC5/cyPm.c ****         cyPmBackup.wakeupCfg0 = CY_PM_WAKEUP_CFG0_REG;
 615:.\Generated_Source\PSoC5/cyPm.c ****         CY_PM_WAKEUP_CFG0_REG = (uint8) (wakeupSource >> 4u);
 616:.\Generated_Source\PSoC5/cyPm.c **** 
 617:.\Generated_Source\PSoC5/cyPm.c ****         /* Comparators */
 618:.\Generated_Source\PSoC5/cyPm.c ****         cyPmBackup.wakeupCfg1 = CY_PM_WAKEUP_CFG1_REG;
 619:.\Generated_Source\PSoC5/cyPm.c ****         CY_PM_WAKEUP_CFG1_REG = (((uint8) wakeupSource) & CY_PM_WAKEUP_SRC_CMPS_MASK);
 620:.\Generated_Source\PSoC5/cyPm.c **** 
 621:.\Generated_Source\PSoC5/cyPm.c ****         /* LCD */
 622:.\Generated_Source\PSoC5/cyPm.c ****         cyPmBackup.wakeupCfg2 = CY_PM_WAKEUP_CFG2_REG;
 623:.\Generated_Source\PSoC5/cyPm.c ****         CY_PM_WAKEUP_CFG2_REG = ((uint8) ((wakeupSource >> 12u) & 0x01u));
 624:.\Generated_Source\PSoC5/cyPm.c **** 
 625:.\Generated_Source\PSoC5/cyPm.c ****     #endif  /* (CY_PSOC3_ES3) */
 626:.\Generated_Source\PSoC5/cyPm.c **** 
 627:.\Generated_Source\PSoC5/cyPm.c ****     /* Switch to the Alternate Active mode */
ARM GAS  C:\Users\Geo\AppData\Local\Temp\ccKuRrRd.s 			page 26


 628:.\Generated_Source\PSoC5/cyPm.c ****     CY_PM_MODE_CSR_REG = ((CY_PM_MODE_CSR_REG & ~CY_PM_MODE_CSR_MASK) | CY_PM_MODE_CSR_ALT_ACT);
 788              		.loc 1 628 0
 789 0038 44F29333 		movw	r3, #:lower16:1073759123
 790 003c C4F20003 		movt	r3, #:upper16:1073759123
 791 0040 44F29332 		movw	r2, #:lower16:1073759123
 792 0044 C4F20002 		movt	r2, #:upper16:1073759123
 793 0048 1278     		ldrb	r2, [r2, #0]
 794 004a D2B2     		uxtb	r2, r2
 795 004c 02F0F802 		and	r2, r2, #248
 796 0050 42F00102 		orr	r2, r2, #1
 797 0054 D2B2     		uxtb	r2, r2
 798 0056 1A70     		strb	r2, [r3, #0]
 629:.\Generated_Source\PSoC5/cyPm.c **** 
 630:.\Generated_Source\PSoC5/cyPm.c ****     /* Recommended readback. */
 631:.\Generated_Source\PSoC5/cyPm.c ****     (void) CY_PM_MODE_CSR_REG;
 799              		.loc 1 631 0
 800 0058 44F29333 		movw	r3, #:lower16:1073759123
 801 005c C4F20003 		movt	r3, #:upper16:1073759123
 802 0060 1B78     		ldrb	r3, [r3, #0]
 632:.\Generated_Source\PSoC5/cyPm.c **** 
 633:.\Generated_Source\PSoC5/cyPm.c ****     /* Two recommended NOPs to get into the mode. */
 634:.\Generated_Source\PSoC5/cyPm.c ****     CY_NOP;
 803              		.loc 1 634 0
 804              	@ 634 ".\Generated_Source\PSoC5\cyPm.c" 1
 805 0062 00BF     		NOP
 806              	
 807              	@ 0 "" 2
 635:.\Generated_Source\PSoC5/cyPm.c ****     CY_NOP;
 808              		.loc 1 635 0
 809              	@ 635 ".\Generated_Source\PSoC5\cyPm.c" 1
 810 0064 00BF     		NOP
 811              	
 812              	@ 0 "" 2
 636:.\Generated_Source\PSoC5/cyPm.c **** 
 637:.\Generated_Source\PSoC5/cyPm.c ****     /* Execute WFI instruction (for PSoC5 devices only) */
 638:.\Generated_Source\PSoC5/cyPm.c ****     CY_PM_WFI;
 813              		.loc 1 638 0
 814              	@ 638 ".\Generated_Source\PSoC5\cyPm.c" 1
 815 0066 30BF     		WFI 
 816              	
 817              	@ 0 "" 2
 639:.\Generated_Source\PSoC5/cyPm.c **** 
 640:.\Generated_Source\PSoC5/cyPm.c ****     /* Point of return from Alternate Active Mode */
 641:.\Generated_Source\PSoC5/cyPm.c **** 
 642:.\Generated_Source\PSoC5/cyPm.c ****     /* Device is PSoC 3 and the revision is ES3 or later. */
 643:.\Generated_Source\PSoC5/cyPm.c ****     #if(CY_PSOC3_ES3)
 644:.\Generated_Source\PSoC5/cyPm.c **** 
 645:.\Generated_Source\PSoC5/cyPm.c ****         /* Restore wake up configuration */
 646:.\Generated_Source\PSoC5/cyPm.c ****         CY_PM_WAKEUP_CFG0_REG = cyPmBackup.wakeupCfg0;
 647:.\Generated_Source\PSoC5/cyPm.c ****         CY_PM_WAKEUP_CFG1_REG = cyPmBackup.wakeupCfg1;
 648:.\Generated_Source\PSoC5/cyPm.c ****         CY_PM_WAKEUP_CFG2_REG = cyPmBackup.wakeupCfg2;
 649:.\Generated_Source\PSoC5/cyPm.c **** 
 650:.\Generated_Source\PSoC5/cyPm.c ****     #endif  /* (CY_PSOC3_ES3) */
 651:.\Generated_Source\PSoC5/cyPm.c **** }
 818              		.loc 1 651 0
 819              		.thumb
 820 0068 07F10807 		add	r7, r7, #8
ARM GAS  C:\Users\Geo\AppData\Local\Temp\ccKuRrRd.s 			page 27


 821 006c BD46     		mov	sp, r7
 822 006e 80BD     		pop	{r7, pc}
 823              		.cfi_endproc
 824              	.LFE2:
 825              		.size	CyPmAltAct, .-CyPmAltAct
 826              		.section	.text.CyPmSleep,"ax",%progbits
 827              		.align	2
 828              		.global	CyPmSleep
 829              		.thumb
 830              		.thumb_func
 831              		.type	CyPmSleep, %function
 832              	CyPmSleep:
 833              	.LFB3:
 652:.\Generated_Source\PSoC5/cyPm.c **** 
 653:.\Generated_Source\PSoC5/cyPm.c **** 
 654:.\Generated_Source\PSoC5/cyPm.c **** /*******************************************************************************
 655:.\Generated_Source\PSoC5/cyPm.c **** * Function Name: CyPmSleep
 656:.\Generated_Source\PSoC5/cyPm.c **** ********************************************************************************
 657:.\Generated_Source\PSoC5/cyPm.c **** *
 658:.\Generated_Source\PSoC5/cyPm.c **** * Summary:
 659:.\Generated_Source\PSoC5/cyPm.c **** *  Puts the part into the Sleep state.
 660:.\Generated_Source\PSoC5/cyPm.c **** *
 661:.\Generated_Source\PSoC5/cyPm.c **** *  Note Before calling this function, you must manually configure the power
 662:.\Generated_Source\PSoC5/cyPm.c **** *  mode of the source clocks for the timer that is used as wakeup timer.
 663:.\Generated_Source\PSoC5/cyPm.c **** *
 664:.\Generated_Source\PSoC5/cyPm.c **** *  PSoC3:
 665:.\Generated_Source\PSoC5/cyPm.c **** *  Before switching to Sleep, if a wakeupTime other than NONE is specified,
 666:.\Generated_Source\PSoC5/cyPm.c **** *  then the appropriate timer state is configured as specified with the
 667:.\Generated_Source\PSoC5/cyPm.c **** *  interrupt for that timer disabled.  The wakeup source will be the combination
 668:.\Generated_Source\PSoC5/cyPm.c **** *  of the values specified in the wakeupSource and any timer specified in the
 669:.\Generated_Source\PSoC5/cyPm.c **** *  wakeupTime argument.  Once the wakeup condition is satisfied, then all saved
 670:.\Generated_Source\PSoC5/cyPm.c **** *  state is restored and the function returns in the Active state.
 671:.\Generated_Source\PSoC5/cyPm.c **** *
 672:.\Generated_Source\PSoC5/cyPm.c **** *  Note that if the wakeupTime is made with a different value, the period before
 673:.\Generated_Source\PSoC5/cyPm.c **** *  the wakeup occurs can be significantly shorter than the specified time.  If
 674:.\Generated_Source\PSoC5/cyPm.c **** *  the next call is made with the same wakeupTime value, then the wakeup will
 675:.\Generated_Source\PSoC5/cyPm.c **** *  occur the specified period after the previous wakeup occurred.
 676:.\Generated_Source\PSoC5/cyPm.c **** *
 677:.\Generated_Source\PSoC5/cyPm.c **** *  If a wakeupTime other than NONE is specified, then upon exit the state of the
 678:.\Generated_Source\PSoC5/cyPm.c **** *  specified timer will be left as specified by wakeupTime with the timer
 679:.\Generated_Source\PSoC5/cyPm.c **** *  enabled and the interrupt disabled.  If the CTW or One PPS is already
 680:.\Generated_Source\PSoC5/cyPm.c **** *  configured for wakeup, for example with the SleepTimer or RTC components,
 681:.\Generated_Source\PSoC5/cyPm.c **** *  then specify NONE for the wakeupTime and include the appropriate source for
 682:.\Generated_Source\PSoC5/cyPm.c **** *  wakeupSource.
 683:.\Generated_Source\PSoC5/cyPm.c **** *
 684:.\Generated_Source\PSoC5/cyPm.c **** *  PSoC 5:
 685:.\Generated_Source\PSoC5/cyPm.c **** *  Neither parameter to this function is used for PSoC 5. The device will go
 686:.\Generated_Source\PSoC5/cyPm.c **** *  into Sleep mode until it is woken by an interrupt from the Central Time Wheel
 687:.\Generated_Source\PSoC5/cyPm.c **** *  (CTW). The CTW must already be configured to generate an interrupt. It is
 688:.\Generated_Source\PSoC5/cyPm.c **** *  configured using the SleepTimer component.  Only the CTW can be used to wake
 689:.\Generated_Source\PSoC5/cyPm.c **** *  the device from sleep mode.  The other wakeup sources, Once per second or
 690:.\Generated_Source\PSoC5/cyPm.c **** *  Port Interrupt Controller (PICU), cannot be used reliably with PSoC 5. This
 691:.\Generated_Source\PSoC5/cyPm.c **** *  function automatically disables these interrupt sources and then restores
 692:.\Generated_Source\PSoC5/cyPm.c **** *  them after the devices is woken by the CTW.
 693:.\Generated_Source\PSoC5/cyPm.c **** *
 694:.\Generated_Source\PSoC5/cyPm.c **** *  The duration of sleep needs to be controlled so that the device doesnt wake
 695:.\Generated_Source\PSoC5/cyPm.c **** *  up too soon after going to sleep or remain asleep for too long.  Reliable
ARM GAS  C:\Users\Geo\AppData\Local\Temp\ccKuRrRd.s 			page 28


 696:.\Generated_Source\PSoC5/cyPm.c **** *  sleep times of between 1ms and 8ms can be supported.  This requirement is
 697:.\Generated_Source\PSoC5/cyPm.c **** *  satisfied with CTW settings of 4, 8 or 16 ms.  To control the sleep time the
 698:.\Generated_Source\PSoC5/cyPm.c **** *  CTW is reset automatically just before putting the device to sleep.  The
 699:.\Generated_Source\PSoC5/cyPm.c **** *  resulting wakeup time is half the duration programmed into the CTW with an
 700:.\Generated_Source\PSoC5/cyPm.c **** *  uncertainty of 1 ms due to the arrival time of the first ILO clock edge.
 701:.\Generated_Source\PSoC5/cyPm.c **** *  For example, the setting of 4 ms will result in a sleep time between 1 ms and
 702:.\Generated_Source\PSoC5/cyPm.c **** *  2 ms.
 703:.\Generated_Source\PSoC5/cyPm.c **** *
 704:.\Generated_Source\PSoC5/cyPm.c **** * Parameters:
 705:.\Generated_Source\PSoC5/cyPm.c **** *  wakeupTime:      Specifies a timer wakeup source and the frequency of that
 706:.\Generated_Source\PSoC5/cyPm.c **** *                   source. For PSoC 5, this parameter is ignored.
 707:.\Generated_Source\PSoC5/cyPm.c **** *
 708:.\Generated_Source\PSoC5/cyPm.c **** *           Define                      Time
 709:.\Generated_Source\PSoC5/cyPm.c **** *  PM_SLEEP_TIME_NONE               None
 710:.\Generated_Source\PSoC5/cyPm.c **** *  PM_SLEEP_TIME_ONE_PPS            One PPS: 1 second
 711:.\Generated_Source\PSoC5/cyPm.c **** *  PM_SLEEP_TIME_CTW_2MS            CTW: 2 ms
 712:.\Generated_Source\PSoC5/cyPm.c **** *  PM_SLEEP_TIME_CTW_4MS            CTW: 4 ms
 713:.\Generated_Source\PSoC5/cyPm.c **** *  PM_SLEEP_TIME_CTW_8MS            CTW: 8 ms
 714:.\Generated_Source\PSoC5/cyPm.c **** *  PM_SLEEP_TIME_CTW_16MS           CTW: 16 ms
 715:.\Generated_Source\PSoC5/cyPm.c **** *  PM_SLEEP_TIME_CTW_32MS           CTW: 32 ms
 716:.\Generated_Source\PSoC5/cyPm.c **** *  PM_SLEEP_TIME_CTW_64MS           CTW: 64 ms
 717:.\Generated_Source\PSoC5/cyPm.c **** *  PM_SLEEP_TIME_CTW_128MS          CTW: 128 ms
 718:.\Generated_Source\PSoC5/cyPm.c **** *  PM_SLEEP_TIME_CTW_256MS          CTW: 256 ms
 719:.\Generated_Source\PSoC5/cyPm.c **** *  PM_SLEEP_TIME_CTW_512MS          CTW: 512 ms
 720:.\Generated_Source\PSoC5/cyPm.c **** *  PM_SLEEP_TIME_CTW_1024MS         CTW: 1024 ms
 721:.\Generated_Source\PSoC5/cyPm.c **** *  PM_SLEEP_TIME_CTW_2048MS         CTW: 2048 ms
 722:.\Generated_Source\PSoC5/cyPm.c **** *  PM_SLEEP_TIME_CTW_4096MS         CTW: 4096 ms
 723:.\Generated_Source\PSoC5/cyPm.c **** *
 724:.\Generated_Source\PSoC5/cyPm.c **** *  wakeUpSource:    Specifies a bitwise mask of wakeup sources. In addition, if
 725:.\Generated_Source\PSoC5/cyPm.c **** *                   a wakeupTime has been specified the associated timer will be
 726:.\Generated_Source\PSoC5/cyPm.c **** *                   included as a wakeup source. For PSoC 5 this parameter is
 727:.\Generated_Source\PSoC5/cyPm.c **** *                   ignored.
 728:.\Generated_Source\PSoC5/cyPm.c **** *
 729:.\Generated_Source\PSoC5/cyPm.c **** *           Define                      Source
 730:.\Generated_Source\PSoC5/cyPm.c **** *  PM_SLEEP_SRC_NONE                None
 731:.\Generated_Source\PSoC5/cyPm.c **** *  PM_SLEEP_SRC_COMPARATOR0         Comparator 0
 732:.\Generated_Source\PSoC5/cyPm.c **** *  PM_SLEEP_SRC_COMPARATOR1         Comparator 1
 733:.\Generated_Source\PSoC5/cyPm.c **** *  PM_SLEEP_SRC_COMPARATOR2         Comparator 2
 734:.\Generated_Source\PSoC5/cyPm.c **** *  PM_SLEEP_SRC_COMPARATOR3         Comparator 3
 735:.\Generated_Source\PSoC5/cyPm.c **** *  PM_SLEEP_SRC_PICU                PICU
 736:.\Generated_Source\PSoC5/cyPm.c **** *  PM_SLEEP_SRC_I2C                 I2C
 737:.\Generated_Source\PSoC5/cyPm.c **** *  PM_SLEEP_SRC_BOOSTCONVERTER      Boost Converter
 738:.\Generated_Source\PSoC5/cyPm.c **** *  PM_SLEEP_SRC_CTW                 Central Timewheel*
 739:.\Generated_Source\PSoC5/cyPm.c **** *  PM_SLEEP_SRC_ONE_PPS             One PPS*
 740:.\Generated_Source\PSoC5/cyPm.c **** *  PM_SLEEP_SRC_LCD                 LCD
 741:.\Generated_Source\PSoC5/cyPm.c **** *
 742:.\Generated_Source\PSoC5/cyPm.c **** *  *Note:   CTW and One PPS wakeup signals are in the same mask bit.
 743:.\Generated_Source\PSoC5/cyPm.c **** *           For PSoC 5, these are in a different bit (value 1024).
 744:.\Generated_Source\PSoC5/cyPm.c **** *
 745:.\Generated_Source\PSoC5/cyPm.c **** *  When specifying a Comparator as the wakeupSource an instance specific define
 746:.\Generated_Source\PSoC5/cyPm.c **** *  should be used that will track with the specific comparator that the instance
 747:.\Generated_Source\PSoC5/cyPm.c **** *  is placed into. As an example for a Comparator instance named MyComp the
 748:.\Generated_Source\PSoC5/cyPm.c **** *  value to OR into the mask is: MyComp_ctComp__CMP_MASK.
 749:.\Generated_Source\PSoC5/cyPm.c **** *
 750:.\Generated_Source\PSoC5/cyPm.c **** *  When CTW or One PPS is used as a wakeup source, the CyPmReadStatus()
 751:.\Generated_Source\PSoC5/cyPm.c **** *  function must be called upon wakeup with corresponding parameter. Please
 752:.\Generated_Source\PSoC5/cyPm.c **** *  refer to the CyPmReadStatus() API in the System Reference Guide for more
ARM GAS  C:\Users\Geo\AppData\Local\Temp\ccKuRrRd.s 			page 29


 753:.\Generated_Source\PSoC5/cyPm.c **** *  information.
 754:.\Generated_Source\PSoC5/cyPm.c **** *
 755:.\Generated_Source\PSoC5/cyPm.c **** * Return:
 756:.\Generated_Source\PSoC5/cyPm.c **** *  None
 757:.\Generated_Source\PSoC5/cyPm.c **** *
 758:.\Generated_Source\PSoC5/cyPm.c **** * Reentrant:
 759:.\Generated_Source\PSoC5/cyPm.c **** *  No
 760:.\Generated_Source\PSoC5/cyPm.c **** *
 761:.\Generated_Source\PSoC5/cyPm.c **** * Side Effects:
 762:.\Generated_Source\PSoC5/cyPm.c **** *  For PSoC 3 ES2 silicon or earlier and PSoC5 silicon the wakeup source is not
 763:.\Generated_Source\PSoC5/cyPm.c **** *  selectable. In this case the wakeupSource argument is ignored and any of the
 764:.\Generated_Source\PSoC5/cyPm.c **** *  available wakeup sources will wake the device.
 765:.\Generated_Source\PSoC5/cyPm.c **** *
 766:.\Generated_Source\PSoC5/cyPm.c **** *  If a wakeupTime other than NONE is specified, then upon exit the state of the
 767:.\Generated_Source\PSoC5/cyPm.c **** *  specified timer will be left as specified by wakeupTime with the timer
 768:.\Generated_Source\PSoC5/cyPm.c **** *  enabled and the interrupt disabled. Also, the ILO 1 KHz (if CTW timer is
 769:.\Generated_Source\PSoC5/cyPm.c **** *  used as wake up time) will be left started.
 770:.\Generated_Source\PSoC5/cyPm.c **** *
 771:.\Generated_Source\PSoC5/cyPm.c **** *  PSoC 3 ES2 silicon has a defect that causes connections to several analog
 772:.\Generated_Source\PSoC5/cyPm.c **** *  resources to be unreliable when the device is placed in a low power mode.
 773:.\Generated_Source\PSoC5/cyPm.c **** *  See the silicon errata for details.
 774:.\Generated_Source\PSoC5/cyPm.c **** *
 775:.\Generated_Source\PSoC5/cyPm.c **** *  The 1 kHz ILO clock is expected to be enabled for PSoC3 ES3 silicon to
 776:.\Generated_Source\PSoC5/cyPm.c **** *  measure Hibernate/Sleep regulator settling time after a reset. The holdoff
 777:.\Generated_Source\PSoC5/cyPm.c **** *  delay is measured using rising edges of the 1 kHz ILO.
 778:.\Generated_Source\PSoC5/cyPm.c **** *
 779:.\Generated_Source\PSoC5/cyPm.c **** *******************************************************************************/
 780:.\Generated_Source\PSoC5/cyPm.c **** void CyPmSleep(uint8 wakeupTime, uint16 wakeupSource)
 781:.\Generated_Source\PSoC5/cyPm.c **** {
 834              		.loc 1 781 0
 835              		.cfi_startproc
 836              		@ args = 0, pretend = 0, frame = 16
 837              		@ frame_needed = 1, uses_anonymous_args = 0
 838 0000 80B5     		push	{r7, lr}
 839              	.LCFI7:
 840              		.cfi_def_cfa_offset 8
 841 0002 84B0     		sub	sp, sp, #16
 842              	.LCFI8:
 843              		.cfi_def_cfa_offset 24
 844 0004 00AF     		add	r7, sp, #0
 845              		.cfi_offset 14, -4
 846              		.cfi_offset 7, -8
 847              	.LCFI9:
 848              		.cfi_def_cfa_register 7
 849 0006 0246     		mov	r2, r0
 850 0008 0B46     		mov	r3, r1
 851 000a FA71     		strb	r2, [r7, #7]
 852 000c BB80     		strh	r3, [r7, #4]	@ movhi
 782:.\Generated_Source\PSoC5/cyPm.c ****     uint8 interruptState;
 783:.\Generated_Source\PSoC5/cyPm.c **** 
 784:.\Generated_Source\PSoC5/cyPm.c ****     /* Save current global interrupt enable and disable it */
 785:.\Generated_Source\PSoC5/cyPm.c ****     interruptState = CyEnterCriticalSection();
 853              		.loc 1 785 0
 854 000e FFF7FEFF 		bl	CyEnterCriticalSection
 855 0012 0346     		mov	r3, r0
 856 0014 FB73     		strb	r3, [r7, #15]
 786:.\Generated_Source\PSoC5/cyPm.c **** 
ARM GAS  C:\Users\Geo\AppData\Local\Temp\ccKuRrRd.s 			page 30


 787:.\Generated_Source\PSoC5/cyPm.c ****     /* Device is PSoC 3 and the revision is ES3 or later */
 788:.\Generated_Source\PSoC5/cyPm.c ****     #if(CY_PSOC3_ES3)
 789:.\Generated_Source\PSoC5/cyPm.c **** 
 790:.\Generated_Source\PSoC5/cyPm.c ****         /* Hardware buzz expected to be disabled */
 791:.\Generated_Source\PSoC5/cyPm.c ****         CYASSERT(0u == (CY_PM_PWRSYS_WAKE_TR2_REG & CY_PM_PWRSYS_WAKE_TR2_EN_BUZZ));
 792:.\Generated_Source\PSoC5/cyPm.c **** 
 793:.\Generated_Source\PSoC5/cyPm.c ****         /***********************************************************************
 794:.\Generated_Source\PSoC5/cyPm.c ****         * The Hibernate/Sleep regulator has a settling time after a reset.
 795:.\Generated_Source\PSoC5/cyPm.c ****         * During this time, the system ignores requests to enter Sleep and
 796:.\Generated_Source\PSoC5/cyPm.c ****         * Hibernate modes. The holdoff delay is measured using rising edges of
 797:.\Generated_Source\PSoC5/cyPm.c ****         * the 1 kHz ILO.
 798:.\Generated_Source\PSoC5/cyPm.c ****         ***********************************************************************/
 799:.\Generated_Source\PSoC5/cyPm.c ****         if(0u == (CY_PM_MODE_CSR_REG & CY_PM_MODE_CSR_PWRUP_PULSE_Q))
 800:.\Generated_Source\PSoC5/cyPm.c ****         {
 801:.\Generated_Source\PSoC5/cyPm.c ****             /* Disable hold off - no action on restore */
 802:.\Generated_Source\PSoC5/cyPm.c ****             CY_PM_PWRSYS_SLP_TR_REG &= CY_PM_PWRSYS_SLP_TR_HIBSLP_HOLDOFF_MASK;
 803:.\Generated_Source\PSoC5/cyPm.c ****         }
 804:.\Generated_Source\PSoC5/cyPm.c ****         else
 805:.\Generated_Source\PSoC5/cyPm.c ****         {
 806:.\Generated_Source\PSoC5/cyPm.c ****             /* Abort, device is not ready for low power mode entry */
 807:.\Generated_Source\PSoC5/cyPm.c ****             return;
 808:.\Generated_Source\PSoC5/cyPm.c ****         }
 809:.\Generated_Source\PSoC5/cyPm.c **** 
 810:.\Generated_Source\PSoC5/cyPm.c ****     #endif /* (CY_PSOC3_ES3) */
 811:.\Generated_Source\PSoC5/cyPm.c **** 
 812:.\Generated_Source\PSoC5/cyPm.c ****     /* Device is PSoC 5 and the revision is ES1 or earlier. */
 813:.\Generated_Source\PSoC5/cyPm.c ****     #if(CY_PSOC5_ES1)
 814:.\Generated_Source\PSoC5/cyPm.c **** 
 815:.\Generated_Source\PSoC5/cyPm.c ****         /* Arguments expected to be 0 */
 816:.\Generated_Source\PSoC5/cyPm.c ****         CYASSERT((PM_SLEEP_TIME_NONE == wakeupTime) &&
 857              		.loc 1 816 0
 858 0016 FB79     		ldrb	r3, [r7, #7]	@ zero_extendqisi2
 859 0018 002B     		cmp	r3, #0
 860 001a 02D1     		bne	.L45
 861 001c BB88     		ldrh	r3, [r7, #4]
 862 001e 002B     		cmp	r3, #0
 863 0020 0ED0     		beq	.L46
 864              	.L45:
 865 0022 FB79     		ldrb	r3, [r7, #7]	@ zero_extendqisi2
 866 0024 002B     		cmp	r3, #0
 867 0026 05D1     		bne	.L47
 868 0028 BB88     		ldrh	r3, [r7, #4]
 869 002a 002B     		cmp	r3, #0
 870 002c 02D1     		bne	.L47
 871 002e 4FF00103 		mov	r3, #1
 872 0032 01E0     		b	.L48
 873              	.L47:
 874 0034 4FF00003 		mov	r3, #0
 875              	.L48:
 876 0038 DBB2     		uxtb	r3, r3
 877 003a 1846     		mov	r0, r3
 878 003c FFF7FEFF 		bl	CyHalt
 879              	.L46:
 817:.\Generated_Source\PSoC5/cyPm.c ****                  (PM_SLEEP_SRC_NONE  == wakeupSource));
 818:.\Generated_Source\PSoC5/cyPm.c **** 
 819:.\Generated_Source\PSoC5/cyPm.c ****         /* To remove unreferenced local variable warning */
 820:.\Generated_Source\PSoC5/cyPm.c ****         wakeupTime = wakeupTime;
ARM GAS  C:\Users\Geo\AppData\Local\Temp\ccKuRrRd.s 			page 31


 821:.\Generated_Source\PSoC5/cyPm.c ****         wakeupSource = wakeupSource;
 822:.\Generated_Source\PSoC5/cyPm.c **** 
 823:.\Generated_Source\PSoC5/cyPm.c **** 
 824:.\Generated_Source\PSoC5/cyPm.c ****         /* Preserve the Timewheel Configuration Register 2 */
 825:.\Generated_Source\PSoC5/cyPm.c ****         cyPmBackup.pmTwCfg2 = CY_PM_TW_CFG2_REG;
 880              		.loc 1 825 0
 881 0040 44F28233 		movw	r3, #:lower16:1073759106
 882 0044 C4F20003 		movt	r3, #:upper16:1073759106
 883 0048 1B78     		ldrb	r3, [r3, #0]
 884 004a DAB2     		uxtb	r2, r3
 885 004c 40F20003 		movw	r3, #:lower16:cyPmBackup
 886 0050 C0F20003 		movt	r3, #:upper16:cyPmBackup
 887 0054 83F85420 		strb	r2, [r3, #84]
 826:.\Generated_Source\PSoC5/cyPm.c **** 
 827:.\Generated_Source\PSoC5/cyPm.c ****         /*  Clear the enable and interrupt enables for the FTW and ONEPPS */
 828:.\Generated_Source\PSoC5/cyPm.c ****         CY_PM_TW_CFG2_REG &= ~(CY_PM_FTW_IE | CY_PM_FTW_EN | CY_PM_1PPS_EN | CY_PM_1PPS_IE);
 888              		.loc 1 828 0
 889 0058 44F28233 		movw	r3, #:lower16:1073759106
 890 005c C4F20003 		movt	r3, #:upper16:1073759106
 891 0060 44F28232 		movw	r2, #:lower16:1073759106
 892 0064 C4F20002 		movt	r2, #:upper16:1073759106
 893 0068 1278     		ldrb	r2, [r2, #0]
 894 006a D2B2     		uxtb	r2, r2
 895 006c 02F0CC02 		and	r2, r2, #204
 896 0070 1A70     		strb	r2, [r3, #0]
 829:.\Generated_Source\PSoC5/cyPm.c **** 
 830:.\Generated_Source\PSoC5/cyPm.c ****         /* Reset free-running CTW counter to 0 and held it there */
 831:.\Generated_Source\PSoC5/cyPm.c ****         CY_PM_WDT_CFG_REG |= CY_PM_WDT_CFG_CTW_RESET;
 897              		.loc 1 831 0
 898 0072 44F28333 		movw	r3, #:lower16:1073759107
 899 0076 C4F20003 		movt	r3, #:upper16:1073759107
 900 007a 44F28332 		movw	r2, #:lower16:1073759107
 901 007e C4F20002 		movt	r2, #:upper16:1073759107
 902 0082 1278     		ldrb	r2, [r2, #0]
 903 0084 D2B2     		uxtb	r2, r2
 904 0086 6FEA4262 		mvn	r2, r2, lsl #25
 905 008a 6FEA5262 		mvn	r2, r2, lsr #25
 906 008e D2B2     		uxtb	r2, r2
 907 0090 1A70     		strb	r2, [r3, #0]
 832:.\Generated_Source\PSoC5/cyPm.c **** 
 833:.\Generated_Source\PSoC5/cyPm.c ****         /* Exit CTW counter reset state */
 834:.\Generated_Source\PSoC5/cyPm.c ****         CY_PM_WDT_CFG_REG &= ~CY_PM_WDT_CFG_CTW_RESET;
 908              		.loc 1 834 0
 909 0092 44F28333 		movw	r3, #:lower16:1073759107
 910 0096 C4F20003 		movt	r3, #:upper16:1073759107
 911 009a 44F28332 		movw	r2, #:lower16:1073759107
 912 009e C4F20002 		movt	r2, #:upper16:1073759107
 913 00a2 1278     		ldrb	r2, [r2, #0]
 914 00a4 D2B2     		uxtb	r2, r2
 915 00a6 02F07F02 		and	r2, r2, #127
 916 00aa 1A70     		strb	r2, [r3, #0]
 835:.\Generated_Source\PSoC5/cyPm.c **** 
 836:.\Generated_Source\PSoC5/cyPm.c ****         /* Save and disable PICU interrupts  */
 837:.\Generated_Source\PSoC5/cyPm.c ****         CyPmSavePicuInterrupts();
 917              		.loc 1 837 0
 918 00ac FFF7FEFF 		bl	CyPmSavePicuInterrupts
 838:.\Generated_Source\PSoC5/cyPm.c ****         CyPmDisablePicuInterrupts();
ARM GAS  C:\Users\Geo\AppData\Local\Temp\ccKuRrRd.s 			page 32


 919              		.loc 1 838 0
 920 00b0 FFF7FEFF 		bl	CyPmDisablePicuInterrupts
 839:.\Generated_Source\PSoC5/cyPm.c **** 
 840:.\Generated_Source\PSoC5/cyPm.c ****     #else
 841:.\Generated_Source\PSoC5/cyPm.c **** 
 842:.\Generated_Source\PSoC5/cyPm.c ****         /* CTW - save current and set new configuration */
 843:.\Generated_Source\PSoC5/cyPm.c ****         if((wakeupTime >= PM_SLEEP_TIME_CTW_2MS) && (wakeupTime <= PM_SLEEP_TIME_CTW_4096MS))
 844:.\Generated_Source\PSoC5/cyPm.c ****         {
 845:.\Generated_Source\PSoC5/cyPm.c ****             /* Save current and set new configuration of the CTW */
 846:.\Generated_Source\PSoC5/cyPm.c ****             CyPmCtwSaveSet((wakeupTime - 1u) & CY_PM_CTW_INTERVAL_MASK);
 847:.\Generated_Source\PSoC5/cyPm.c **** 
 848:.\Generated_Source\PSoC5/cyPm.c ****             /* Include associated timer to the wakeupSource */
 849:.\Generated_Source\PSoC5/cyPm.c ****             wakeupSource |= PM_SLEEP_SRC_CTW;
 850:.\Generated_Source\PSoC5/cyPm.c ****         }
 851:.\Generated_Source\PSoC5/cyPm.c **** 
 852:.\Generated_Source\PSoC5/cyPm.c ****         /* 1PPS - save current and set new configuration */
 853:.\Generated_Source\PSoC5/cyPm.c ****         if(PM_SLEEP_TIME_ONE_PPS == wakeupTime)
 854:.\Generated_Source\PSoC5/cyPm.c ****         {
 855:.\Generated_Source\PSoC5/cyPm.c ****             /* Save current and set new configuration of the 1PPS */
 856:.\Generated_Source\PSoC5/cyPm.c ****             CyPmOppsSaveSet();
 857:.\Generated_Source\PSoC5/cyPm.c **** 
 858:.\Generated_Source\PSoC5/cyPm.c ****             /* Include associated timer to the wakeupSource */
 859:.\Generated_Source\PSoC5/cyPm.c ****             wakeupSource |= PM_SLEEP_SRC_ONE_PPS;
 860:.\Generated_Source\PSoC5/cyPm.c ****         }
 861:.\Generated_Source\PSoC5/cyPm.c **** 
 862:.\Generated_Source\PSoC5/cyPm.c ****     #endif /* (CY_PSOC5_ES1) */
 863:.\Generated_Source\PSoC5/cyPm.c **** 
 864:.\Generated_Source\PSoC5/cyPm.c ****     /* Device is PSoC 3 and the revision is ES3 or later. */
 865:.\Generated_Source\PSoC5/cyPm.c ****     #if(CY_PSOC3_ES3)
 866:.\Generated_Source\PSoC5/cyPm.c **** 
 867:.\Generated_Source\PSoC5/cyPm.c ****         /* Save and set new wake up configuration */
 868:.\Generated_Source\PSoC5/cyPm.c **** 
 869:.\Generated_Source\PSoC5/cyPm.c ****         /* Interrupt, PICU, I2C, Boost converter, CTW/1PPS */
 870:.\Generated_Source\PSoC5/cyPm.c ****         cyPmBackup.wakeupCfg0 = CY_PM_WAKEUP_CFG0_REG;
 871:.\Generated_Source\PSoC5/cyPm.c ****         CY_PM_WAKEUP_CFG0_REG = (uint8) (wakeupSource >> 4u);
 872:.\Generated_Source\PSoC5/cyPm.c **** 
 873:.\Generated_Source\PSoC5/cyPm.c ****         /* Comparators */
 874:.\Generated_Source\PSoC5/cyPm.c ****         cyPmBackup.wakeupCfg1 = CY_PM_WAKEUP_CFG1_REG;
 875:.\Generated_Source\PSoC5/cyPm.c ****         CY_PM_WAKEUP_CFG1_REG = (((uint8) wakeupSource) & CY_PM_WAKEUP_SRC_CMPS_MASK);
 876:.\Generated_Source\PSoC5/cyPm.c **** 
 877:.\Generated_Source\PSoC5/cyPm.c ****         /* LCD */
 878:.\Generated_Source\PSoC5/cyPm.c ****         cyPmBackup.wakeupCfg2 = CY_PM_WAKEUP_CFG2_REG;
 879:.\Generated_Source\PSoC5/cyPm.c ****         CY_PM_WAKEUP_CFG2_REG = ((uint8) ((wakeupSource >> 12u) & 0x01u));
 880:.\Generated_Source\PSoC5/cyPm.c **** 
 881:.\Generated_Source\PSoC5/cyPm.c ****     #endif /* (CY_PSOC3_ES3) */
 882:.\Generated_Source\PSoC5/cyPm.c **** 
 883:.\Generated_Source\PSoC5/cyPm.c ****     /* Prepare HW for Sleep/Hibernate mode */
 884:.\Generated_Source\PSoC5/cyPm.c ****     CyPmHibSlpSaveSet();
 921              		.loc 1 884 0
 922 00b4 FFF7FEFF 		bl	CyPmHibSlpSaveSet
 885:.\Generated_Source\PSoC5/cyPm.c **** 
 886:.\Generated_Source\PSoC5/cyPm.c ****     /* Last moment IMO frequency change */
 887:.\Generated_Source\PSoC5/cyPm.c ****     if(0u == (CY_PM_FASTCLK_IMO_CR_REG & CY_PM_FASTCLK_IMO_CR_FREQ_MASK))
 923              		.loc 1 887 0
 924 00b8 44F20023 		movw	r3, #:lower16:1073758720
 925 00bc C4F20003 		movt	r3, #:upper16:1073758720
 926 00c0 1B78     		ldrb	r3, [r3, #0]
ARM GAS  C:\Users\Geo\AppData\Local\Temp\ccKuRrRd.s 			page 33


 927 00c2 DBB2     		uxtb	r3, r3
 928 00c4 03F00703 		and	r3, r3, #7
 929 00c8 002B     		cmp	r3, #0
 930 00ca 08D1     		bne	.L49
 888:.\Generated_Source\PSoC5/cyPm.c ****     {
 889:.\Generated_Source\PSoC5/cyPm.c ****         /* IMO frequency is 12 MHz */
 890:.\Generated_Source\PSoC5/cyPm.c ****         cyPmBackup.imoActFreq12Mhz = CY_PM_ENABLED;
 931              		.loc 1 890 0
 932 00cc 40F20003 		movw	r3, #:lower16:cyPmBackup
 933 00d0 C0F20003 		movt	r3, #:upper16:cyPmBackup
 934 00d4 4FF00102 		mov	r2, #1
 935 00d8 83F89F20 		strb	r2, [r3, #159]
 936 00dc 23E0     		b	.L50
 937              	.L49:
 891:.\Generated_Source\PSoC5/cyPm.c ****     }
 892:.\Generated_Source\PSoC5/cyPm.c ****     else
 893:.\Generated_Source\PSoC5/cyPm.c ****     {
 894:.\Generated_Source\PSoC5/cyPm.c ****         /* IMO frequency is not 12 MHz */
 895:.\Generated_Source\PSoC5/cyPm.c ****         cyPmBackup.imoActFreq12Mhz = CY_PM_DISABLED;
 938              		.loc 1 895 0
 939 00de 40F20003 		movw	r3, #:lower16:cyPmBackup
 940 00e2 C0F20003 		movt	r3, #:upper16:cyPmBackup
 941 00e6 4FF00002 		mov	r2, #0
 942 00ea 83F89F20 		strb	r2, [r3, #159]
 896:.\Generated_Source\PSoC5/cyPm.c **** 
 897:.\Generated_Source\PSoC5/cyPm.c ****         /* Save IMO frequency */
 898:.\Generated_Source\PSoC5/cyPm.c ****         cyPmBackup.imoActFreq = CY_PM_FASTCLK_IMO_CR_REG & CY_PM_FASTCLK_IMO_CR_FREQ_MASK;
 943              		.loc 1 898 0
 944 00ee 44F20023 		movw	r3, #:lower16:1073758720
 945 00f2 C4F20003 		movt	r3, #:upper16:1073758720
 946 00f6 1B78     		ldrb	r3, [r3, #0]
 947 00f8 DBB2     		uxtb	r3, r3
 948 00fa 1A46     		mov	r2, r3
 949 00fc 02F00702 		and	r2, r2, #7
 950 0100 40F20003 		movw	r3, #:lower16:cyPmBackup
 951 0104 C0F20003 		movt	r3, #:upper16:cyPmBackup
 952 0108 83F89E20 		strb	r2, [r3, #158]
 899:.\Generated_Source\PSoC5/cyPm.c **** 
 900:.\Generated_Source\PSoC5/cyPm.c ****         /* Set IMO frequency to 12 MHz */
 901:.\Generated_Source\PSoC5/cyPm.c ****         CY_PM_FASTCLK_IMO_CR_REG &= ~CY_PM_FASTCLK_IMO_CR_FREQ_MASK;
 953              		.loc 1 901 0
 954 010c 44F20023 		movw	r3, #:lower16:1073758720
 955 0110 C4F20003 		movt	r3, #:upper16:1073758720
 956 0114 44F20022 		movw	r2, #:lower16:1073758720
 957 0118 C4F20002 		movt	r2, #:upper16:1073758720
 958 011c 1278     		ldrb	r2, [r2, #0]
 959 011e D2B2     		uxtb	r2, r2
 960 0120 02F0F802 		and	r2, r2, #248
 961 0124 1A70     		strb	r2, [r3, #0]
 962              	.L50:
 902:.\Generated_Source\PSoC5/cyPm.c ****     }
 903:.\Generated_Source\PSoC5/cyPm.c **** 
 904:.\Generated_Source\PSoC5/cyPm.c ****     /* Switch to the Sleep mode */
 905:.\Generated_Source\PSoC5/cyPm.c ****     CY_PM_MODE_CSR_REG = ((CY_PM_MODE_CSR_REG & ~CY_PM_MODE_CSR_MASK) | CY_PM_MODE_CSR_SLEEP);
 963              		.loc 1 905 0
 964 0126 44F29333 		movw	r3, #:lower16:1073759123
 965 012a C4F20003 		movt	r3, #:upper16:1073759123
ARM GAS  C:\Users\Geo\AppData\Local\Temp\ccKuRrRd.s 			page 34


 966 012e 44F29332 		movw	r2, #:lower16:1073759123
 967 0132 C4F20002 		movt	r2, #:upper16:1073759123
 968 0136 1278     		ldrb	r2, [r2, #0]
 969 0138 D2B2     		uxtb	r2, r2
 970 013a 02F0F802 		and	r2, r2, #248
 971 013e 42F00302 		orr	r2, r2, #3
 972 0142 D2B2     		uxtb	r2, r2
 973 0144 1A70     		strb	r2, [r3, #0]
 906:.\Generated_Source\PSoC5/cyPm.c **** 
 907:.\Generated_Source\PSoC5/cyPm.c ****     /* Recommended readback. */
 908:.\Generated_Source\PSoC5/cyPm.c ****     (void) CY_PM_MODE_CSR_REG;
 974              		.loc 1 908 0
 975 0146 44F29333 		movw	r3, #:lower16:1073759123
 976 014a C4F20003 		movt	r3, #:upper16:1073759123
 977 014e 1B78     		ldrb	r3, [r3, #0]
 909:.\Generated_Source\PSoC5/cyPm.c **** 
 910:.\Generated_Source\PSoC5/cyPm.c ****     /* Two recommended NOPs to get into the mode. */
 911:.\Generated_Source\PSoC5/cyPm.c ****     CY_NOP;
 978              		.loc 1 911 0
 979              	@ 911 ".\Generated_Source\PSoC5\cyPm.c" 1
 980 0150 00BF     		NOP
 981              	
 982              	@ 0 "" 2
 912:.\Generated_Source\PSoC5/cyPm.c ****     CY_NOP;
 983              		.loc 1 912 0
 984              	@ 912 ".\Generated_Source\PSoC5\cyPm.c" 1
 985 0152 00BF     		NOP
 986              	
 987              	@ 0 "" 2
 913:.\Generated_Source\PSoC5/cyPm.c **** 
 914:.\Generated_Source\PSoC5/cyPm.c ****     /* Execute WFI instruction (for PSoC5 devices only) */
 915:.\Generated_Source\PSoC5/cyPm.c ****     CY_PM_WFI;
 988              		.loc 1 915 0
 989              	@ 915 ".\Generated_Source\PSoC5\cyPm.c" 1
 990 0154 30BF     		WFI 
 991              	
 992              	@ 0 "" 2
 916:.\Generated_Source\PSoC5/cyPm.c **** 
 917:.\Generated_Source\PSoC5/cyPm.c ****     /* Point of return from Sleep Mode */
 918:.\Generated_Source\PSoC5/cyPm.c **** 
 919:.\Generated_Source\PSoC5/cyPm.c ****     /* Restore last moment IMO frequency change */
 920:.\Generated_Source\PSoC5/cyPm.c ****     if(CY_PM_ENABLED != cyPmBackup.imoActFreq12Mhz)
 993              		.loc 1 920 0
 994              		.thumb
 995 0156 40F20003 		movw	r3, #:lower16:cyPmBackup
 996 015a C0F20003 		movt	r3, #:upper16:cyPmBackup
 997 015e 93F89F30 		ldrb	r3, [r3, #159]	@ zero_extendqisi2
 998 0162 012B     		cmp	r3, #1
 999 0164 15D0     		beq	.L51
 921:.\Generated_Source\PSoC5/cyPm.c ****     {
 922:.\Generated_Source\PSoC5/cyPm.c ****         CY_PM_FASTCLK_IMO_CR_REG  = (CY_PM_FASTCLK_IMO_CR_REG & ~CY_PM_FASTCLK_IMO_CR_FREQ_MASK) |
 1000              		.loc 1 922 0
 1001 0166 44F20023 		movw	r3, #:lower16:1073758720
 1002 016a C4F20003 		movt	r3, #:upper16:1073758720
 1003 016e 44F20022 		movw	r2, #:lower16:1073758720
 1004 0172 C4F20002 		movt	r2, #:upper16:1073758720
 1005 0176 1278     		ldrb	r2, [r2, #0]
ARM GAS  C:\Users\Geo\AppData\Local\Temp\ccKuRrRd.s 			page 35


 1006 0178 D2B2     		uxtb	r2, r2
 1007 017a 02F0F802 		and	r2, r2, #248
 1008 017e 40F20001 		movw	r1, #:lower16:cyPmBackup
 1009 0182 C0F20001 		movt	r1, #:upper16:cyPmBackup
 1010 0186 91F89E10 		ldrb	r1, [r1, #158]	@ zero_extendqisi2
 1011 018a 42EA0102 		orr	r2, r2, r1
 1012 018e D2B2     		uxtb	r2, r2
 1013 0190 1A70     		strb	r2, [r3, #0]
 1014              	.L51:
 923:.\Generated_Source\PSoC5/cyPm.c ****                                     cyPmBackup.imoActFreq;
 924:.\Generated_Source\PSoC5/cyPm.c ****     }
 925:.\Generated_Source\PSoC5/cyPm.c **** 
 926:.\Generated_Source\PSoC5/cyPm.c ****     /* Device is PSoC 5 and the revision is ES1 or earlier. */
 927:.\Generated_Source\PSoC5/cyPm.c ****     #if(CY_PSOC5_ES1)
 928:.\Generated_Source\PSoC5/cyPm.c **** 
 929:.\Generated_Source\PSoC5/cyPm.c ****         /* Reset free-running CTW counter to 0 and held it there */
 930:.\Generated_Source\PSoC5/cyPm.c ****         CY_PM_WDT_CFG_REG |= CY_PM_WDT_CFG_CTW_RESET;
 1015              		.loc 1 930 0
 1016 0192 44F28333 		movw	r3, #:lower16:1073759107
 1017 0196 C4F20003 		movt	r3, #:upper16:1073759107
 1018 019a 44F28332 		movw	r2, #:lower16:1073759107
 1019 019e C4F20002 		movt	r2, #:upper16:1073759107
 1020 01a2 1278     		ldrb	r2, [r2, #0]
 1021 01a4 D2B2     		uxtb	r2, r2
 1022 01a6 6FEA4262 		mvn	r2, r2, lsl #25
 1023 01aa 6FEA5262 		mvn	r2, r2, lsr #25
 1024 01ae D2B2     		uxtb	r2, r2
 1025 01b0 1A70     		strb	r2, [r3, #0]
 931:.\Generated_Source\PSoC5/cyPm.c **** 
 932:.\Generated_Source\PSoC5/cyPm.c ****         /* Restore the Timewheel Configuration Register 2 */
 933:.\Generated_Source\PSoC5/cyPm.c ****         CY_PM_TW_CFG2_REG = cyPmBackup.pmTwCfg2;
 1026              		.loc 1 933 0
 1027 01b2 44F28233 		movw	r3, #:lower16:1073759106
 1028 01b6 C4F20003 		movt	r3, #:upper16:1073759106
 1029 01ba 40F20002 		movw	r2, #:lower16:cyPmBackup
 1030 01be C0F20002 		movt	r2, #:upper16:cyPmBackup
 1031 01c2 92F85420 		ldrb	r2, [r2, #84]	@ zero_extendqisi2
 1032 01c6 1A70     		strb	r2, [r3, #0]
 934:.\Generated_Source\PSoC5/cyPm.c **** 
 935:.\Generated_Source\PSoC5/cyPm.c ****         /* Restore PICU interrupts */
 936:.\Generated_Source\PSoC5/cyPm.c ****         CyPmRestorePicuInterrupts();
 1033              		.loc 1 936 0
 1034 01c8 FFF7FEFF 		bl	CyPmRestorePicuInterrupts
 937:.\Generated_Source\PSoC5/cyPm.c **** 
 938:.\Generated_Source\PSoC5/cyPm.c ****     #endif /* (CY_PSOC5_ES1) */
 939:.\Generated_Source\PSoC5/cyPm.c **** 
 940:.\Generated_Source\PSoC5/cyPm.c ****     /* Restore configuration */
 941:.\Generated_Source\PSoC5/cyPm.c ****     CyPmHibSlpRestore();
 1035              		.loc 1 941 0
 1036 01cc FFF7FEFF 		bl	CyPmHibSlpRestore
 942:.\Generated_Source\PSoC5/cyPm.c **** 
 943:.\Generated_Source\PSoC5/cyPm.c ****     /* Device is PSoC 3 and the revision is ES3 or later. */
 944:.\Generated_Source\PSoC5/cyPm.c ****     #if(CY_PSOC3_ES3)
 945:.\Generated_Source\PSoC5/cyPm.c **** 
 946:.\Generated_Source\PSoC5/cyPm.c ****         /* Restore current wake up configuration */
 947:.\Generated_Source\PSoC5/cyPm.c ****         CY_PM_WAKEUP_CFG0_REG = cyPmBackup.wakeupCfg0;
 948:.\Generated_Source\PSoC5/cyPm.c ****         CY_PM_WAKEUP_CFG1_REG = cyPmBackup.wakeupCfg1;
ARM GAS  C:\Users\Geo\AppData\Local\Temp\ccKuRrRd.s 			page 36


 949:.\Generated_Source\PSoC5/cyPm.c ****         CY_PM_WAKEUP_CFG2_REG = cyPmBackup.wakeupCfg2;
 950:.\Generated_Source\PSoC5/cyPm.c **** 
 951:.\Generated_Source\PSoC5/cyPm.c ****     #endif /* (CY_PSOC3_ES3) */
 952:.\Generated_Source\PSoC5/cyPm.c **** 
 953:.\Generated_Source\PSoC5/cyPm.c ****     /* Restore global interrupt enable state */
 954:.\Generated_Source\PSoC5/cyPm.c ****     CyExitCriticalSection(interruptState);
 1037              		.loc 1 954 0
 1038 01d0 FB7B     		ldrb	r3, [r7, #15]	@ zero_extendqisi2
 1039 01d2 1846     		mov	r0, r3
 1040 01d4 FFF7FEFF 		bl	CyExitCriticalSection
 955:.\Generated_Source\PSoC5/cyPm.c **** }
 1041              		.loc 1 955 0
 1042 01d8 07F11007 		add	r7, r7, #16
 1043 01dc BD46     		mov	sp, r7
 1044 01de 80BD     		pop	{r7, pc}
 1045              		.cfi_endproc
 1046              	.LFE3:
 1047              		.size	CyPmSleep, .-CyPmSleep
 1048              		.section	.text.CyPmHibernate,"ax",%progbits
 1049              		.align	2
 1050              		.global	CyPmHibernate
 1051              		.thumb
 1052              		.thumb_func
 1053              		.type	CyPmHibernate, %function
 1054              	CyPmHibernate:
 1055              	.LFB4:
 956:.\Generated_Source\PSoC5/cyPm.c **** 
 957:.\Generated_Source\PSoC5/cyPm.c **** 
 958:.\Generated_Source\PSoC5/cyPm.c **** /*******************************************************************************
 959:.\Generated_Source\PSoC5/cyPm.c **** * Function Name: CyPmHibernate
 960:.\Generated_Source\PSoC5/cyPm.c **** ********************************************************************************
 961:.\Generated_Source\PSoC5/cyPm.c **** *
 962:.\Generated_Source\PSoC5/cyPm.c **** * Summary:
 963:.\Generated_Source\PSoC5/cyPm.c **** *  Puts the part into the Hibernate state.
 964:.\Generated_Source\PSoC5/cyPm.c **** *
 965:.\Generated_Source\PSoC5/cyPm.c **** *  PSoC3:
 966:.\Generated_Source\PSoC5/cyPm.c **** *  Before switching to Hibernate, the current status of the PICU wakeup source
 967:.\Generated_Source\PSoC5/cyPm.c **** *  bit is saved and then set. This configures the device to wake up from the
 968:.\Generated_Source\PSoC5/cyPm.c **** *  PICU. Make sure you have at least one pin configured to generate a PICU
 969:.\Generated_Source\PSoC5/cyPm.c **** *  interrupt. For pin Px.y, the register "PICU_INTTYPE_PICUx_INTTYPEy" controls
 970:.\Generated_Source\PSoC5/cyPm.c **** *  the PICU behavior. In the TRM, this register is "PICU[0..15]_INTTYPE[0..7]."
 971:.\Generated_Source\PSoC5/cyPm.c **** *  In the Pins component datasheet, this register is referred to as the IRQ
 972:.\Generated_Source\PSoC5/cyPm.c **** *  option. Once the wakeup occurs, the PICU wakeup source bit is restored and
 973:.\Generated_Source\PSoC5/cyPm.c **** *  the PSoC returns to the Active state.
 974:.\Generated_Source\PSoC5/cyPm.c **** *
 975:.\Generated_Source\PSoC5/cyPm.c **** *  PSoC 5:
 976:.\Generated_Source\PSoC5/cyPm.c **** *  The only method supported for waking up from the Hibernate state is a
 977:.\Generated_Source\PSoC5/cyPm.c **** *  hardware reset of the device.  The PICU wakeup source cannot be used
 978:.\Generated_Source\PSoC5/cyPm.c **** *  reliably, so the PICU interrupt sources are automatically disabled by this
 979:.\Generated_Source\PSoC5/cyPm.c **** *  function before putting the device into the Hibernate state.
 980:.\Generated_Source\PSoC5/cyPm.c **** *
 981:.\Generated_Source\PSoC5/cyPm.c **** * Parameters:
 982:.\Generated_Source\PSoC5/cyPm.c **** *  None
 983:.\Generated_Source\PSoC5/cyPm.c **** *
 984:.\Generated_Source\PSoC5/cyPm.c **** * Return:
 985:.\Generated_Source\PSoC5/cyPm.c **** *  None
 986:.\Generated_Source\PSoC5/cyPm.c **** *
ARM GAS  C:\Users\Geo\AppData\Local\Temp\ccKuRrRd.s 			page 37


 987:.\Generated_Source\PSoC5/cyPm.c **** * Reentrant:
 988:.\Generated_Source\PSoC5/cyPm.c **** *  No
 989:.\Generated_Source\PSoC5/cyPm.c **** *
 990:.\Generated_Source\PSoC5/cyPm.c **** * Side Effects:
 991:.\Generated_Source\PSoC5/cyPm.c **** *  Applications must wait 20 us before re-entering hibernate or sleep after
 992:.\Generated_Source\PSoC5/cyPm.c **** *  waking up from hibernate. The 20 us allows the sleep regulator time to
 993:.\Generated_Source\PSoC5/cyPm.c **** *  stabilize before the next hibernate / sleep event occurs. The 20 us
 994:.\Generated_Source\PSoC5/cyPm.c **** *  requirement begins when the device wakes up. There is no hardware check that
 995:.\Generated_Source\PSoC5/cyPm.c **** *  this requirement is met. The specified delay should be done on ISR entry.
 996:.\Generated_Source\PSoC5/cyPm.c **** *
 997:.\Generated_Source\PSoC5/cyPm.c **** *  After wakeup PICU interrupt occurs, the Pin_ClearInterrupt() (where Pin is
 998:.\Generated_Source\PSoC5/cyPm.c **** *  instance name of the Pins component) function must be called to clear the
 999:.\Generated_Source\PSoC5/cyPm.c **** *  latched pin events to allow proper Hibernate mode entry andd to enable
1000:.\Generated_Source\PSoC5/cyPm.c **** *  detection of future events.
1001:.\Generated_Source\PSoC5/cyPm.c **** *
1002:.\Generated_Source\PSoC5/cyPm.c **** *  PSoC 3 ES2 silicon has a defect that causes connections to several analog
1003:.\Generated_Source\PSoC5/cyPm.c **** *  resources to be unreliable when the device is placed in a low power mode.
1004:.\Generated_Source\PSoC5/cyPm.c **** *  See the silicon errata for details.
1005:.\Generated_Source\PSoC5/cyPm.c **** *
1006:.\Generated_Source\PSoC5/cyPm.c **** *  The 1 kHz ILO clock is expected to be enabled for PSoC3 ES3 silicon to
1007:.\Generated_Source\PSoC5/cyPm.c **** *  measure Hibernate/Sleep regulator settling time after a reset. The holdoff
1008:.\Generated_Source\PSoC5/cyPm.c **** *  delay is measured using rising edges of the 1 kHz ILO.
1009:.\Generated_Source\PSoC5/cyPm.c **** *
1010:.\Generated_Source\PSoC5/cyPm.c **** *******************************************************************************/
1011:.\Generated_Source\PSoC5/cyPm.c **** void CyPmHibernate(void)
1012:.\Generated_Source\PSoC5/cyPm.c **** {
 1056              		.loc 1 1012 0
 1057              		.cfi_startproc
 1058              		@ args = 0, pretend = 0, frame = 8
 1059              		@ frame_needed = 1, uses_anonymous_args = 0
 1060 0000 80B5     		push	{r7, lr}
 1061              	.LCFI10:
 1062              		.cfi_def_cfa_offset 8
 1063 0002 82B0     		sub	sp, sp, #8
 1064              	.LCFI11:
 1065              		.cfi_def_cfa_offset 16
 1066 0004 00AF     		add	r7, sp, #0
 1067              		.cfi_offset 14, -4
 1068              		.cfi_offset 7, -8
 1069              	.LCFI12:
 1070              		.cfi_def_cfa_register 7
1013:.\Generated_Source\PSoC5/cyPm.c ****     uint8 interruptState;
1014:.\Generated_Source\PSoC5/cyPm.c **** 
1015:.\Generated_Source\PSoC5/cyPm.c ****     /* Save current global interrupt enable and disable it */
1016:.\Generated_Source\PSoC5/cyPm.c ****     interruptState = CyEnterCriticalSection();
 1071              		.loc 1 1016 0
 1072 0006 FFF7FEFF 		bl	CyEnterCriticalSection
 1073 000a 0346     		mov	r3, r0
 1074 000c FB71     		strb	r3, [r7, #7]
1017:.\Generated_Source\PSoC5/cyPm.c **** 
1018:.\Generated_Source\PSoC5/cyPm.c ****     /* Device is PSoC 3 and the revision is ES3 or later */
1019:.\Generated_Source\PSoC5/cyPm.c ****     #if(CY_PSOC3_ES3)
1020:.\Generated_Source\PSoC5/cyPm.c **** 
1021:.\Generated_Source\PSoC5/cyPm.c ****         /***********************************************************************
1022:.\Generated_Source\PSoC5/cyPm.c ****         * The Hibernate/Sleep regulator has a settling time after a reset.
1023:.\Generated_Source\PSoC5/cyPm.c ****         * During this time, the system ignores requests to enter Sleep and
1024:.\Generated_Source\PSoC5/cyPm.c ****         * Hibernate modes. The holdoff delay is measured using rising edges of
ARM GAS  C:\Users\Geo\AppData\Local\Temp\ccKuRrRd.s 			page 38


1025:.\Generated_Source\PSoC5/cyPm.c ****         * the 1 kHz ILO.
1026:.\Generated_Source\PSoC5/cyPm.c ****         ***********************************************************************/
1027:.\Generated_Source\PSoC5/cyPm.c ****         if(0u == (CY_PM_MODE_CSR_REG & CY_PM_MODE_CSR_PWRUP_PULSE_Q))
1028:.\Generated_Source\PSoC5/cyPm.c ****         {
1029:.\Generated_Source\PSoC5/cyPm.c ****             /* Disable hold off - no action on restore */
1030:.\Generated_Source\PSoC5/cyPm.c ****             CY_PM_PWRSYS_SLP_TR_REG &= CY_PM_PWRSYS_SLP_TR_HIBSLP_HOLDOFF_MASK;
1031:.\Generated_Source\PSoC5/cyPm.c ****         }
1032:.\Generated_Source\PSoC5/cyPm.c ****         else
1033:.\Generated_Source\PSoC5/cyPm.c ****         {
1034:.\Generated_Source\PSoC5/cyPm.c ****             /* Abort, device is not ready for low power mode entry */
1035:.\Generated_Source\PSoC5/cyPm.c ****             return;
1036:.\Generated_Source\PSoC5/cyPm.c ****         }
1037:.\Generated_Source\PSoC5/cyPm.c **** 
1038:.\Generated_Source\PSoC5/cyPm.c ****     #endif /* (CY_PSOC3_ES3) */
1039:.\Generated_Source\PSoC5/cyPm.c **** 
1040:.\Generated_Source\PSoC5/cyPm.c ****     /* Prepare device for proper Hibernate mode entry */
1041:.\Generated_Source\PSoC5/cyPm.c ****     CyPmHibSaveSet();
 1075              		.loc 1 1041 0
 1076 000e FFF7FEFF 		bl	CyPmHibSaveSet
1042:.\Generated_Source\PSoC5/cyPm.c **** 
1043:.\Generated_Source\PSoC5/cyPm.c ****     /* Device is PSoC 3 and the revision is ES3 or later. */
1044:.\Generated_Source\PSoC5/cyPm.c ****     #if(CY_PSOC3_ES3)
1045:.\Generated_Source\PSoC5/cyPm.c **** 
1046:.\Generated_Source\PSoC5/cyPm.c ****         /* Save and enable only wakeup on PICU */
1047:.\Generated_Source\PSoC5/cyPm.c ****         cyPmBackup.wakeupCfg0 = CY_PM_WAKEUP_CFG0_REG;
1048:.\Generated_Source\PSoC5/cyPm.c ****         CY_PM_WAKEUP_CFG0_REG = CY_PM_WAKEUP_PICU;
1049:.\Generated_Source\PSoC5/cyPm.c **** 
1050:.\Generated_Source\PSoC5/cyPm.c ****         cyPmBackup.wakeupCfg1 = CY_PM_WAKEUP_CFG1_REG;
1051:.\Generated_Source\PSoC5/cyPm.c ****         CY_PM_WAKEUP_CFG1_REG = 0x00u;
1052:.\Generated_Source\PSoC5/cyPm.c **** 
1053:.\Generated_Source\PSoC5/cyPm.c ****         cyPmBackup.wakeupCfg2 = CY_PM_WAKEUP_CFG2_REG;
1054:.\Generated_Source\PSoC5/cyPm.c ****         CY_PM_WAKEUP_CFG2_REG = 0x00u;
1055:.\Generated_Source\PSoC5/cyPm.c **** 
1056:.\Generated_Source\PSoC5/cyPm.c ****     #endif  /* (CY_PSOC3_ES3) */
1057:.\Generated_Source\PSoC5/cyPm.c **** 
1058:.\Generated_Source\PSoC5/cyPm.c **** 
1059:.\Generated_Source\PSoC5/cyPm.c ****     /* Last moment IMO frequency change */
1060:.\Generated_Source\PSoC5/cyPm.c ****     if(0u == (CY_PM_FASTCLK_IMO_CR_REG & CY_PM_FASTCLK_IMO_CR_FREQ_MASK))
 1077              		.loc 1 1060 0
 1078 0012 44F20023 		movw	r3, #:lower16:1073758720
 1079 0016 C4F20003 		movt	r3, #:upper16:1073758720
 1080 001a 1B78     		ldrb	r3, [r3, #0]
 1081 001c DBB2     		uxtb	r3, r3
 1082 001e 03F00703 		and	r3, r3, #7
 1083 0022 002B     		cmp	r3, #0
 1084 0024 08D1     		bne	.L54
1061:.\Generated_Source\PSoC5/cyPm.c ****     {
1062:.\Generated_Source\PSoC5/cyPm.c ****         /* IMO frequency is 12 MHz */
1063:.\Generated_Source\PSoC5/cyPm.c ****         cyPmBackup.imoActFreq12Mhz = CY_PM_ENABLED;
 1085              		.loc 1 1063 0
 1086 0026 40F20003 		movw	r3, #:lower16:cyPmBackup
 1087 002a C0F20003 		movt	r3, #:upper16:cyPmBackup
 1088 002e 4FF00102 		mov	r2, #1
 1089 0032 83F89F20 		strb	r2, [r3, #159]
 1090 0036 23E0     		b	.L55
 1091              	.L54:
1064:.\Generated_Source\PSoC5/cyPm.c ****     }
ARM GAS  C:\Users\Geo\AppData\Local\Temp\ccKuRrRd.s 			page 39


1065:.\Generated_Source\PSoC5/cyPm.c ****     else
1066:.\Generated_Source\PSoC5/cyPm.c ****     {
1067:.\Generated_Source\PSoC5/cyPm.c ****         /* IMO frequency is not 12 MHz */
1068:.\Generated_Source\PSoC5/cyPm.c ****         cyPmBackup.imoActFreq12Mhz = CY_PM_DISABLED;
 1092              		.loc 1 1068 0
 1093 0038 40F20003 		movw	r3, #:lower16:cyPmBackup
 1094 003c C0F20003 		movt	r3, #:upper16:cyPmBackup
 1095 0040 4FF00002 		mov	r2, #0
 1096 0044 83F89F20 		strb	r2, [r3, #159]
1069:.\Generated_Source\PSoC5/cyPm.c **** 
1070:.\Generated_Source\PSoC5/cyPm.c ****         /* Save IMO frequency */
1071:.\Generated_Source\PSoC5/cyPm.c ****         cyPmBackup.imoActFreq = CY_PM_FASTCLK_IMO_CR_REG & CY_PM_FASTCLK_IMO_CR_FREQ_MASK;
 1097              		.loc 1 1071 0
 1098 0048 44F20023 		movw	r3, #:lower16:1073758720
 1099 004c C4F20003 		movt	r3, #:upper16:1073758720
 1100 0050 1B78     		ldrb	r3, [r3, #0]
 1101 0052 DBB2     		uxtb	r3, r3
 1102 0054 1A46     		mov	r2, r3
 1103 0056 02F00702 		and	r2, r2, #7
 1104 005a 40F20003 		movw	r3, #:lower16:cyPmBackup
 1105 005e C0F20003 		movt	r3, #:upper16:cyPmBackup
 1106 0062 83F89E20 		strb	r2, [r3, #158]
1072:.\Generated_Source\PSoC5/cyPm.c **** 
1073:.\Generated_Source\PSoC5/cyPm.c ****         /* Set IMO frequency to 12 MHz */
1074:.\Generated_Source\PSoC5/cyPm.c ****         CY_PM_FASTCLK_IMO_CR_REG &= ~CY_PM_FASTCLK_IMO_CR_FREQ_MASK;
 1107              		.loc 1 1074 0
 1108 0066 44F20023 		movw	r3, #:lower16:1073758720
 1109 006a C4F20003 		movt	r3, #:upper16:1073758720
 1110 006e 44F20022 		movw	r2, #:lower16:1073758720
 1111 0072 C4F20002 		movt	r2, #:upper16:1073758720
 1112 0076 1278     		ldrb	r2, [r2, #0]
 1113 0078 D2B2     		uxtb	r2, r2
 1114 007a 02F0F802 		and	r2, r2, #248
 1115 007e 1A70     		strb	r2, [r3, #0]
 1116              	.L55:
1075:.\Generated_Source\PSoC5/cyPm.c ****     }
1076:.\Generated_Source\PSoC5/cyPm.c **** 
1077:.\Generated_Source\PSoC5/cyPm.c **** 
1078:.\Generated_Source\PSoC5/cyPm.c ****     /* Switch to Hibernate Mode */
1079:.\Generated_Source\PSoC5/cyPm.c ****     CY_PM_MODE_CSR_REG = ((CY_PM_MODE_CSR_REG & ~CY_PM_MODE_CSR_MASK) | CY_PM_MODE_CSR_HIBERNATE);
 1117              		.loc 1 1079 0
 1118 0080 44F29333 		movw	r3, #:lower16:1073759123
 1119 0084 C4F20003 		movt	r3, #:upper16:1073759123
 1120 0088 44F29332 		movw	r2, #:lower16:1073759123
 1121 008c C4F20002 		movt	r2, #:upper16:1073759123
 1122 0090 1278     		ldrb	r2, [r2, #0]
 1123 0092 D2B2     		uxtb	r2, r2
 1124 0094 02F0F802 		and	r2, r2, #248
 1125 0098 42F00402 		orr	r2, r2, #4
 1126 009c D2B2     		uxtb	r2, r2
 1127 009e 1A70     		strb	r2, [r3, #0]
1080:.\Generated_Source\PSoC5/cyPm.c **** 
1081:.\Generated_Source\PSoC5/cyPm.c ****     /* Recommended readback. */
1082:.\Generated_Source\PSoC5/cyPm.c ****     (void) CY_PM_MODE_CSR_REG;
 1128              		.loc 1 1082 0
 1129 00a0 44F29333 		movw	r3, #:lower16:1073759123
 1130 00a4 C4F20003 		movt	r3, #:upper16:1073759123
ARM GAS  C:\Users\Geo\AppData\Local\Temp\ccKuRrRd.s 			page 40


 1131 00a8 1B78     		ldrb	r3, [r3, #0]
1083:.\Generated_Source\PSoC5/cyPm.c **** 
1084:.\Generated_Source\PSoC5/cyPm.c ****     /* Two recommended NOPs to get into the mode. */
1085:.\Generated_Source\PSoC5/cyPm.c ****     CY_NOP;
 1132              		.loc 1 1085 0
 1133              	@ 1085 ".\Generated_Source\PSoC5\cyPm.c" 1
 1134 00aa 00BF     		NOP
 1135              	
 1136              	@ 0 "" 2
1086:.\Generated_Source\PSoC5/cyPm.c ****     CY_NOP;
 1137              		.loc 1 1086 0
 1138              	@ 1086 ".\Generated_Source\PSoC5\cyPm.c" 1
 1139 00ac 00BF     		NOP
 1140              	
 1141              	@ 0 "" 2
1087:.\Generated_Source\PSoC5/cyPm.c **** 
1088:.\Generated_Source\PSoC5/cyPm.c ****     /* Execute WFI instruction (for PSoC5 devices only) */
1089:.\Generated_Source\PSoC5/cyPm.c ****     CY_PM_WFI;
 1142              		.loc 1 1089 0
 1143              	@ 1089 ".\Generated_Source\PSoC5\cyPm.c" 1
 1144 00ae 30BF     		WFI 
 1145              	
 1146              	@ 0 "" 2
1090:.\Generated_Source\PSoC5/cyPm.c **** 
1091:.\Generated_Source\PSoC5/cyPm.c ****     /* Point of return from Hibernate mode */
1092:.\Generated_Source\PSoC5/cyPm.c **** 
1093:.\Generated_Source\PSoC5/cyPm.c **** 
1094:.\Generated_Source\PSoC5/cyPm.c ****     /* Restore last moment IMO frequency change */
1095:.\Generated_Source\PSoC5/cyPm.c ****     if(CY_PM_ENABLED != cyPmBackup.imoActFreq12Mhz)
 1147              		.loc 1 1095 0
 1148              		.thumb
 1149 00b0 40F20003 		movw	r3, #:lower16:cyPmBackup
 1150 00b4 C0F20003 		movt	r3, #:upper16:cyPmBackup
 1151 00b8 93F89F30 		ldrb	r3, [r3, #159]	@ zero_extendqisi2
 1152 00bc 012B     		cmp	r3, #1
 1153 00be 15D0     		beq	.L56
1096:.\Generated_Source\PSoC5/cyPm.c ****     {
1097:.\Generated_Source\PSoC5/cyPm.c ****         CY_PM_FASTCLK_IMO_CR_REG  = (CY_PM_FASTCLK_IMO_CR_REG & ~CY_PM_FASTCLK_IMO_CR_FREQ_MASK) |
 1154              		.loc 1 1097 0
 1155 00c0 44F20023 		movw	r3, #:lower16:1073758720
 1156 00c4 C4F20003 		movt	r3, #:upper16:1073758720
 1157 00c8 44F20022 		movw	r2, #:lower16:1073758720
 1158 00cc C4F20002 		movt	r2, #:upper16:1073758720
 1159 00d0 1278     		ldrb	r2, [r2, #0]
 1160 00d2 D2B2     		uxtb	r2, r2
 1161 00d4 02F0F802 		and	r2, r2, #248
 1162 00d8 40F20001 		movw	r1, #:lower16:cyPmBackup
 1163 00dc C0F20001 		movt	r1, #:upper16:cyPmBackup
 1164 00e0 91F89E10 		ldrb	r1, [r1, #158]	@ zero_extendqisi2
 1165 00e4 42EA0102 		orr	r2, r2, r1
 1166 00e8 D2B2     		uxtb	r2, r2
 1167 00ea 1A70     		strb	r2, [r3, #0]
 1168              	.L56:
1098:.\Generated_Source\PSoC5/cyPm.c ****                                     cyPmBackup.imoActFreq;
1099:.\Generated_Source\PSoC5/cyPm.c ****     }
1100:.\Generated_Source\PSoC5/cyPm.c **** 
1101:.\Generated_Source\PSoC5/cyPm.c **** 
ARM GAS  C:\Users\Geo\AppData\Local\Temp\ccKuRrRd.s 			page 41


1102:.\Generated_Source\PSoC5/cyPm.c ****     /* Restore device for proper Hibernate mode exit*/
1103:.\Generated_Source\PSoC5/cyPm.c ****     CyPmHibRestore();
 1169              		.loc 1 1103 0
 1170 00ec FFF7FEFF 		bl	CyPmHibRestore
1104:.\Generated_Source\PSoC5/cyPm.c **** 
1105:.\Generated_Source\PSoC5/cyPm.c ****     /* Device is PSoC 3 and the revision is ES3 or later. */
1106:.\Generated_Source\PSoC5/cyPm.c ****     #if(CY_PSOC3_ES3)
1107:.\Generated_Source\PSoC5/cyPm.c **** 
1108:.\Generated_Source\PSoC5/cyPm.c ****         /* Restore current wake up configuration */
1109:.\Generated_Source\PSoC5/cyPm.c ****         CY_PM_WAKEUP_CFG0_REG = cyPmBackup.wakeupCfg0;
1110:.\Generated_Source\PSoC5/cyPm.c ****         CY_PM_WAKEUP_CFG1_REG = cyPmBackup.wakeupCfg1;
1111:.\Generated_Source\PSoC5/cyPm.c ****         CY_PM_WAKEUP_CFG2_REG = cyPmBackup.wakeupCfg2;
1112:.\Generated_Source\PSoC5/cyPm.c **** 
1113:.\Generated_Source\PSoC5/cyPm.c ****     #endif /* (CY_PSOC3_ES3) */
1114:.\Generated_Source\PSoC5/cyPm.c **** 
1115:.\Generated_Source\PSoC5/cyPm.c ****     /* Restore global interrupt enable state */
1116:.\Generated_Source\PSoC5/cyPm.c ****     CyExitCriticalSection(interruptState);
 1171              		.loc 1 1116 0
 1172 00f0 FB79     		ldrb	r3, [r7, #7]	@ zero_extendqisi2
 1173 00f2 1846     		mov	r0, r3
 1174 00f4 FFF7FEFF 		bl	CyExitCriticalSection
1117:.\Generated_Source\PSoC5/cyPm.c **** }
 1175              		.loc 1 1117 0
 1176 00f8 07F10807 		add	r7, r7, #8
 1177 00fc BD46     		mov	sp, r7
 1178 00fe 80BD     		pop	{r7, pc}
 1179              		.cfi_endproc
 1180              	.LFE4:
 1181              		.size	CyPmHibernate, .-CyPmHibernate
 1182              		.section	.text.CyPmReadStatus,"ax",%progbits
 1183              		.align	2
 1184              		.global	CyPmReadStatus
 1185              		.thumb
 1186              		.thumb_func
 1187              		.type	CyPmReadStatus, %function
 1188              	CyPmReadStatus:
 1189              	.LFB5:
1118:.\Generated_Source\PSoC5/cyPm.c **** 
1119:.\Generated_Source\PSoC5/cyPm.c **** 
1120:.\Generated_Source\PSoC5/cyPm.c **** /*******************************************************************************
1121:.\Generated_Source\PSoC5/cyPm.c **** * Function Name: CyPmReadStatus
1122:.\Generated_Source\PSoC5/cyPm.c **** ********************************************************************************
1123:.\Generated_Source\PSoC5/cyPm.c **** *
1124:.\Generated_Source\PSoC5/cyPm.c **** * Summary:
1125:.\Generated_Source\PSoC5/cyPm.c **** *  Manages the Power Manager Interrupt Status Register.  This register has the
1126:.\Generated_Source\PSoC5/cyPm.c **** *  interrupt status for the one pulse per second, central timewheel and fast
1127:.\Generated_Source\PSoC5/cyPm.c **** *  timewheel timers.  This hardware register clears on read.  To allow for only
1128:.\Generated_Source\PSoC5/cyPm.c **** *  clearing the bits of interest and preserving the other bits, this function
1129:.\Generated_Source\PSoC5/cyPm.c **** *  uses a shadow register that retains the state.  This function reads the
1130:.\Generated_Source\PSoC5/cyPm.c **** *  status register and ORs that value with the shadow register.  That is the
1131:.\Generated_Source\PSoC5/cyPm.c **** *  value that is returned.  Then the bits in the mask that are set are cleared
1132:.\Generated_Source\PSoC5/cyPm.c **** *  from this value and written back to the shadow register.
1133:.\Generated_Source\PSoC5/cyPm.c **** *
1134:.\Generated_Source\PSoC5/cyPm.c **** *  Note You must call this function within 1 ms (1 clock cycle of the ILO)
1135:.\Generated_Source\PSoC5/cyPm.c **** *  after a CTW event has occurred.
1136:.\Generated_Source\PSoC5/cyPm.c **** *
1137:.\Generated_Source\PSoC5/cyPm.c **** * Parameters:
ARM GAS  C:\Users\Geo\AppData\Local\Temp\ccKuRrRd.s 			page 42


1138:.\Generated_Source\PSoC5/cyPm.c **** *  mask: Bits in the shadow register to clear.
1139:.\Generated_Source\PSoC5/cyPm.c **** *
1140:.\Generated_Source\PSoC5/cyPm.c **** *       Define                      Source
1141:.\Generated_Source\PSoC5/cyPm.c **** *  CY_PM_FTW_INT                Fast Timewheel
1142:.\Generated_Source\PSoC5/cyPm.c **** *  CY_PM_CTW_INT                Central Timewheel
1143:.\Generated_Source\PSoC5/cyPm.c **** *  CY_PM_ONEPPS_INT             One Pulse Per Second
1144:.\Generated_Source\PSoC5/cyPm.c **** *
1145:.\Generated_Source\PSoC5/cyPm.c **** * Return:
1146:.\Generated_Source\PSoC5/cyPm.c **** *  Status.  Same bits values as the mask parameter.
1147:.\Generated_Source\PSoC5/cyPm.c **** *
1148:.\Generated_Source\PSoC5/cyPm.c **** *******************************************************************************/
1149:.\Generated_Source\PSoC5/cyPm.c **** uint8 CyPmReadStatus(uint8 mask) 
1150:.\Generated_Source\PSoC5/cyPm.c **** {
 1190              		.loc 1 1150 0
 1191              		.cfi_startproc
 1192              		@ args = 0, pretend = 0, frame = 16
 1193              		@ frame_needed = 1, uses_anonymous_args = 0
 1194 0000 80B5     		push	{r7, lr}
 1195              	.LCFI13:
 1196              		.cfi_def_cfa_offset 8
 1197 0002 84B0     		sub	sp, sp, #16
 1198              	.LCFI14:
 1199              		.cfi_def_cfa_offset 24
 1200 0004 00AF     		add	r7, sp, #0
 1201              		.cfi_offset 14, -4
 1202              		.cfi_offset 7, -8
 1203              	.LCFI15:
 1204              		.cfi_def_cfa_register 7
 1205 0006 0346     		mov	r3, r0
 1206 0008 FB71     		strb	r3, [r7, #7]
1151:.\Generated_Source\PSoC5/cyPm.c ****     static uint8 interruptStatus;
1152:.\Generated_Source\PSoC5/cyPm.c ****     uint8 interruptState;
1153:.\Generated_Source\PSoC5/cyPm.c ****     uint8 tmpStatus;
1154:.\Generated_Source\PSoC5/cyPm.c **** 
1155:.\Generated_Source\PSoC5/cyPm.c ****     /* Enter critical section */
1156:.\Generated_Source\PSoC5/cyPm.c ****     interruptState = CyEnterCriticalSection();
 1207              		.loc 1 1156 0
 1208 000a FFF7FEFF 		bl	CyEnterCriticalSection
 1209 000e 0346     		mov	r3, r0
 1210 0010 BB73     		strb	r3, [r7, #14]
1157:.\Generated_Source\PSoC5/cyPm.c **** 
1158:.\Generated_Source\PSoC5/cyPm.c ****     /* Save value of the register, copy it and clear desired bit */
1159:.\Generated_Source\PSoC5/cyPm.c ****     interruptStatus |= CY_PM_INT_SR_REG;
 1211              		.loc 1 1159 0
 1212 0012 44F29033 		movw	r3, #:lower16:1073759120
 1213 0016 C4F20003 		movt	r3, #:upper16:1073759120
 1214 001a 1B78     		ldrb	r3, [r3, #0]
 1215 001c DAB2     		uxtb	r2, r3
 1216 001e 40F20003 		movw	r3, #:lower16:interruptStatus.2308
 1217 0022 C0F20003 		movt	r3, #:upper16:interruptStatus.2308
 1218 0026 1B78     		ldrb	r3, [r3, #0]	@ zero_extendqisi2
 1219 0028 42EA0303 		orr	r3, r2, r3
 1220 002c DAB2     		uxtb	r2, r3
 1221 002e 40F20003 		movw	r3, #:lower16:interruptStatus.2308
 1222 0032 C0F20003 		movt	r3, #:upper16:interruptStatus.2308
 1223 0036 1A70     		strb	r2, [r3, #0]
1160:.\Generated_Source\PSoC5/cyPm.c ****     tmpStatus = interruptStatus;
ARM GAS  C:\Users\Geo\AppData\Local\Temp\ccKuRrRd.s 			page 43


 1224              		.loc 1 1160 0
 1225 0038 40F20003 		movw	r3, #:lower16:interruptStatus.2308
 1226 003c C0F20003 		movt	r3, #:upper16:interruptStatus.2308
 1227 0040 1B78     		ldrb	r3, [r3, #0]
 1228 0042 FB73     		strb	r3, [r7, #15]
1161:.\Generated_Source\PSoC5/cyPm.c ****     interruptStatus &= ~mask;
 1229              		.loc 1 1161 0
 1230 0044 FB79     		ldrb	r3, [r7, #7]	@ zero_extendqisi2
 1231 0046 6FEA0303 		mvn	r3, r3
 1232 004a DAB2     		uxtb	r2, r3
 1233 004c 40F20003 		movw	r3, #:lower16:interruptStatus.2308
 1234 0050 C0F20003 		movt	r3, #:upper16:interruptStatus.2308
 1235 0054 1B78     		ldrb	r3, [r3, #0]	@ zero_extendqisi2
 1236 0056 02EA0303 		and	r3, r2, r3
 1237 005a DBB2     		uxtb	r3, r3
 1238 005c DAB2     		uxtb	r2, r3
 1239 005e 40F20003 		movw	r3, #:lower16:interruptStatus.2308
 1240 0062 C0F20003 		movt	r3, #:upper16:interruptStatus.2308
 1241 0066 1A70     		strb	r2, [r3, #0]
1162:.\Generated_Source\PSoC5/cyPm.c **** 
1163:.\Generated_Source\PSoC5/cyPm.c ****     /* Exit critical section */
1164:.\Generated_Source\PSoC5/cyPm.c ****     CyExitCriticalSection(interruptState);
 1242              		.loc 1 1164 0
 1243 0068 BB7B     		ldrb	r3, [r7, #14]	@ zero_extendqisi2
 1244 006a 1846     		mov	r0, r3
 1245 006c FFF7FEFF 		bl	CyExitCriticalSection
1165:.\Generated_Source\PSoC5/cyPm.c **** 
1166:.\Generated_Source\PSoC5/cyPm.c ****     return(tmpStatus);
 1246              		.loc 1 1166 0
 1247 0070 FB7B     		ldrb	r3, [r7, #15]	@ zero_extendqisi2
1167:.\Generated_Source\PSoC5/cyPm.c **** }
 1248              		.loc 1 1167 0
 1249 0072 1846     		mov	r0, r3
 1250 0074 07F11007 		add	r7, r7, #16
 1251 0078 BD46     		mov	sp, r7
 1252 007a 80BD     		pop	{r7, pc}
 1253              		.cfi_endproc
 1254              	.LFE5:
 1255              		.size	CyPmReadStatus, .-CyPmReadStatus
 1256              		.section	.text.CyPmHibSaveSet,"ax",%progbits
 1257              		.align	2
 1258              		.thumb
 1259              		.thumb_func
 1260              		.type	CyPmHibSaveSet, %function
 1261              	CyPmHibSaveSet:
 1262              	.LFB6:
1168:.\Generated_Source\PSoC5/cyPm.c **** 
1169:.\Generated_Source\PSoC5/cyPm.c **** 
1170:.\Generated_Source\PSoC5/cyPm.c **** /*******************************************************************************
1171:.\Generated_Source\PSoC5/cyPm.c **** * Function Name: CyPmHibSaveSet
1172:.\Generated_Source\PSoC5/cyPm.c **** ********************************************************************************
1173:.\Generated_Source\PSoC5/cyPm.c **** *
1174:.\Generated_Source\PSoC5/cyPm.c **** * Summary:
1175:.\Generated_Source\PSoC5/cyPm.c **** *  Prepare device for proper Hibernate low power mode entry:
1176:.\Generated_Source\PSoC5/cyPm.c **** *  - Disables I2C backup regulator
1177:.\Generated_Source\PSoC5/cyPm.c **** *  - Saves ILO power down mode state and enable it (PSoC3 ES3)
1178:.\Generated_Source\PSoC5/cyPm.c **** *  - Saves enable state of 1 kHz and 100 kHz ILO and disable them (PSoC3 ES3)
ARM GAS  C:\Users\Geo\AppData\Local\Temp\ccKuRrRd.s 			page 44


1179:.\Generated_Source\PSoC5/cyPm.c **** *  - Disables sleep regulator and shorts vccd to vpwrsleep (PSoC3 ES3)
1180:.\Generated_Source\PSoC5/cyPm.c **** *  - CyPmHibSlpSaveSet() function is called
1181:.\Generated_Source\PSoC5/cyPm.c **** *
1182:.\Generated_Source\PSoC5/cyPm.c **** * Parameters:
1183:.\Generated_Source\PSoC5/cyPm.c **** *  None
1184:.\Generated_Source\PSoC5/cyPm.c **** *
1185:.\Generated_Source\PSoC5/cyPm.c **** * Return:
1186:.\Generated_Source\PSoC5/cyPm.c **** *  None
1187:.\Generated_Source\PSoC5/cyPm.c **** *
1188:.\Generated_Source\PSoC5/cyPm.c **** * Reentrant:
1189:.\Generated_Source\PSoC5/cyPm.c **** *  No
1190:.\Generated_Source\PSoC5/cyPm.c **** *
1191:.\Generated_Source\PSoC5/cyPm.c **** *******************************************************************************/
1192:.\Generated_Source\PSoC5/cyPm.c **** static void CyPmHibSaveSet(void)
1193:.\Generated_Source\PSoC5/cyPm.c **** {
 1263              		.loc 1 1193 0
 1264              		.cfi_startproc
 1265              		@ args = 0, pretend = 0, frame = 0
 1266              		@ frame_needed = 1, uses_anonymous_args = 0
 1267 0000 80B5     		push	{r7, lr}
 1268              	.LCFI16:
 1269              		.cfi_def_cfa_offset 8
 1270 0002 00AF     		add	r7, sp, #0
 1271              		.cfi_offset 14, -4
 1272              		.cfi_offset 7, -8
 1273              	.LCFI17:
 1274              		.cfi_def_cfa_register 7
1194:.\Generated_Source\PSoC5/cyPm.c ****     /* I2C backup reg must be off when the sleep regulator is unavailable */
1195:.\Generated_Source\PSoC5/cyPm.c ****     if(0u != (CY_PM_PWRSYS_CR1_REG & CY_PM_PWRSYS_CR1_I2CREG_BACKUP))
 1275              		.loc 1 1195 0
 1276 0004 44F23133 		movw	r3, #:lower16:1073759025
 1277 0008 C4F20003 		movt	r3, #:upper16:1073759025
 1278 000c 1B78     		ldrb	r3, [r3, #0]
 1279 000e DBB2     		uxtb	r3, r3
 1280 0010 03F00403 		and	r3, r3, #4
 1281 0014 002B     		cmp	r3, #0
 1282 0016 14D0     		beq	.L61
1196:.\Generated_Source\PSoC5/cyPm.c ****     {
1197:.\Generated_Source\PSoC5/cyPm.c ****         /***********************************************************************
1198:.\Generated_Source\PSoC5/cyPm.c ****         * If I2C backup regulator is enabled, all the fixed-function registers
1199:.\Generated_Source\PSoC5/cyPm.c ****         * store their values while device is in low power mode, otherwise their
1200:.\Generated_Source\PSoC5/cyPm.c ****         * configuration is lost. The I2C API makes a decision to restore or not
1201:.\Generated_Source\PSoC5/cyPm.c ****         * to restore I2C registers based on this. If this regulator will be
1202:.\Generated_Source\PSoC5/cyPm.c ****         * disabled and then enabled, I2C API will suppose that I2C block
1203:.\Generated_Source\PSoC5/cyPm.c ****         * registers preserved their values, while this is not true. So, the
1204:.\Generated_Source\PSoC5/cyPm.c ****         * backup regulator is disabled. And its value is restored only for
1205:.\Generated_Source\PSoC5/cyPm.c ****         * PSoC3 ES2 and PSoC5 devices. The I2C sleep APIs is responsible for
1206:.\Generated_Source\PSoC5/cyPm.c ****         * restoration.
1207:.\Generated_Source\PSoC5/cyPm.c ****         ***********************************************************************/
1208:.\Generated_Source\PSoC5/cyPm.c **** 
1209:.\Generated_Source\PSoC5/cyPm.c ****         #if(CY_PSOC3_ES2 || CY_PSOC5_ES1)
1210:.\Generated_Source\PSoC5/cyPm.c **** 
1211:.\Generated_Source\PSoC5/cyPm.c ****             cyPmBackup.i2cRegBackup = CY_PM_ENABLED;
 1283              		.loc 1 1211 0
 1284 0018 40F20003 		movw	r3, #:lower16:cyPmBackup
 1285 001c C0F20003 		movt	r3, #:upper16:cyPmBackup
 1286 0020 4FF00102 		mov	r2, #1
ARM GAS  C:\Users\Geo\AppData\Local\Temp\ccKuRrRd.s 			page 45


 1287 0024 DA70     		strb	r2, [r3, #3]
1212:.\Generated_Source\PSoC5/cyPm.c **** 
1213:.\Generated_Source\PSoC5/cyPm.c ****         #endif /* (CY_PSOC3_ES2 || CY_PSOC5_ES1) */
1214:.\Generated_Source\PSoC5/cyPm.c **** 
1215:.\Generated_Source\PSoC5/cyPm.c ****         /* Disable I2C backup register */
1216:.\Generated_Source\PSoC5/cyPm.c ****         CY_PM_PWRSYS_CR1_REG &= ~CY_PM_PWRSYS_CR1_I2CREG_BACKUP;
 1288              		.loc 1 1216 0
 1289 0026 44F23133 		movw	r3, #:lower16:1073759025
 1290 002a C4F20003 		movt	r3, #:upper16:1073759025
 1291 002e 44F23132 		movw	r2, #:lower16:1073759025
 1292 0032 C4F20002 		movt	r2, #:upper16:1073759025
 1293 0036 1278     		ldrb	r2, [r2, #0]
 1294 0038 D2B2     		uxtb	r2, r2
 1295 003a 02F0FB02 		and	r2, r2, #251
 1296 003e 1A70     		strb	r2, [r3, #0]
 1297 0040 06E0     		b	.L62
 1298              	.L61:
1217:.\Generated_Source\PSoC5/cyPm.c ****     }
1218:.\Generated_Source\PSoC5/cyPm.c ****     else
1219:.\Generated_Source\PSoC5/cyPm.c ****     {
1220:.\Generated_Source\PSoC5/cyPm.c ****         #if(CY_PSOC3_ES2 || CY_PSOC5_ES1)
1221:.\Generated_Source\PSoC5/cyPm.c **** 
1222:.\Generated_Source\PSoC5/cyPm.c ****             /* Save disabled state of the I2C backup regulator */
1223:.\Generated_Source\PSoC5/cyPm.c ****             cyPmBackup.i2cRegBackup = CY_PM_DISABLED;
 1299              		.loc 1 1223 0
 1300 0042 40F20003 		movw	r3, #:lower16:cyPmBackup
 1301 0046 C0F20003 		movt	r3, #:upper16:cyPmBackup
 1302 004a 4FF00002 		mov	r2, #0
 1303 004e DA70     		strb	r2, [r3, #3]
 1304              	.L62:
1224:.\Generated_Source\PSoC5/cyPm.c **** 
1225:.\Generated_Source\PSoC5/cyPm.c ****         #endif /* (CY_PSOC3_ES2 || CY_PSOC5_ES1) */
1226:.\Generated_Source\PSoC5/cyPm.c ****     }
1227:.\Generated_Source\PSoC5/cyPm.c **** 
1228:.\Generated_Source\PSoC5/cyPm.c ****     /* Device is PSoC 3 and the revision is ES3 or later */
1229:.\Generated_Source\PSoC5/cyPm.c ****     #if(CY_PSOC3_ES3)
1230:.\Generated_Source\PSoC5/cyPm.c **** 
1231:.\Generated_Source\PSoC5/cyPm.c ****         /* Save current ILO power mode and ensure low power mode */
1232:.\Generated_Source\PSoC5/cyPm.c ****         cyPmBackup.iloPowerMode = CyILO_SetPowerMode(CY_PM_POWERDOWN_MODE);
1233:.\Generated_Source\PSoC5/cyPm.c **** 
1234:.\Generated_Source\PSoC5/cyPm.c ****         /* Save current 1kHz ILO enable state. Disabled automatically. */
1235:.\Generated_Source\PSoC5/cyPm.c ****         cyPmBackup.ilo1kEnable = (0u == (CY_PM_SLOWCLK_ILO_CR0_REG & CY_PM_ILO_CR0_EN_1K)) ?
1236:.\Generated_Source\PSoC5/cyPm.c ****                                     CY_PM_DISABLED : CY_PM_ENABLED;
1237:.\Generated_Source\PSoC5/cyPm.c **** 
1238:.\Generated_Source\PSoC5/cyPm.c ****         /* Save current 100kHz ILO enable state. Disabled automatically. */
1239:.\Generated_Source\PSoC5/cyPm.c ****         cyPmBackup.ilo100kEnable = (0u == (CY_PM_SLOWCLK_ILO_CR0_REG & CY_PM_ILO_CR0_EN_100K)) ?
1240:.\Generated_Source\PSoC5/cyPm.c ****                                     CY_PM_DISABLED : CY_PM_ENABLED;
1241:.\Generated_Source\PSoC5/cyPm.c **** 
1242:.\Generated_Source\PSoC5/cyPm.c **** 
1243:.\Generated_Source\PSoC5/cyPm.c ****         if(0u == (CY_PM_PWRSYS_SLP_TR_REG & CY_PM_PWRSYS_SLP_TR_BYPASS))
1244:.\Generated_Source\PSoC5/cyPm.c ****         {
1245:.\Generated_Source\PSoC5/cyPm.c ****             /* Save current bypass state */
1246:.\Generated_Source\PSoC5/cyPm.c ****             cyPmBackup.slpTrBypass = CY_PM_DISABLED;
1247:.\Generated_Source\PSoC5/cyPm.c **** 
1248:.\Generated_Source\PSoC5/cyPm.c ****             /* Disables the sleep regulator and shorts vccd to vpwrsleep */
1249:.\Generated_Source\PSoC5/cyPm.c ****             CY_PM_PWRSYS_SLP_TR_REG |= CY_PM_PWRSYS_SLP_TR_BYPASS;
1250:.\Generated_Source\PSoC5/cyPm.c ****         }
ARM GAS  C:\Users\Geo\AppData\Local\Temp\ccKuRrRd.s 			page 46


1251:.\Generated_Source\PSoC5/cyPm.c ****         else
1252:.\Generated_Source\PSoC5/cyPm.c ****         {
1253:.\Generated_Source\PSoC5/cyPm.c ****             /* Save current bypass state */
1254:.\Generated_Source\PSoC5/cyPm.c ****             cyPmBackup.slpTrBypass = CY_PM_ENABLED;
1255:.\Generated_Source\PSoC5/cyPm.c ****         }
1256:.\Generated_Source\PSoC5/cyPm.c **** 
1257:.\Generated_Source\PSoC5/cyPm.c ****         /* LPCOMPs are always enabled (even when BOTH ext_vccd=1 and ext_vcca=1)*/
1258:.\Generated_Source\PSoC5/cyPm.c **** 
1259:.\Generated_Source\PSoC5/cyPm.c ****     #endif /* (CY_PSOC3_ES3) */
1260:.\Generated_Source\PSoC5/cyPm.c **** 
1261:.\Generated_Source\PSoC5/cyPm.c **** 
1262:.\Generated_Source\PSoC5/cyPm.c ****     /* Device is PSoC 5 and the revision is ES1 or earlier. */
1263:.\Generated_Source\PSoC5/cyPm.c ****     #if(CY_PSOC5_ES1)
1264:.\Generated_Source\PSoC5/cyPm.c **** 
1265:.\Generated_Source\PSoC5/cyPm.c ****         /* Disable all the PICU interrupts */
1266:.\Generated_Source\PSoC5/cyPm.c ****         CyPmDisablePicuInterrupts();
 1305              		.loc 1 1266 0
 1306 0050 FFF7FEFF 		bl	CyPmDisablePicuInterrupts
1267:.\Generated_Source\PSoC5/cyPm.c **** 
1268:.\Generated_Source\PSoC5/cyPm.c ****     #endif  /* (CY_PSOC5_ES1) */
1269:.\Generated_Source\PSoC5/cyPm.c **** 
1270:.\Generated_Source\PSoC5/cyPm.c **** 
1271:.\Generated_Source\PSoC5/cyPm.c ****     /* Make the same preparations for Hibernate and Sleep modes */
1272:.\Generated_Source\PSoC5/cyPm.c ****     CyPmHibSlpSaveSet();
 1307              		.loc 1 1272 0
 1308 0054 FFF7FEFF 		bl	CyPmHibSlpSaveSet
1273:.\Generated_Source\PSoC5/cyPm.c **** }
 1309              		.loc 1 1273 0
 1310 0058 80BD     		pop	{r7, pc}
 1311              		.cfi_endproc
 1312              	.LFE6:
 1313              		.size	CyPmHibSaveSet, .-CyPmHibSaveSet
 1314 005a 00BF     		.section	.text.CyPmHibRestore,"ax",%progbits
 1315              		.align	2
 1316              		.thumb
 1317              		.thumb_func
 1318              		.type	CyPmHibRestore, %function
 1319              	CyPmHibRestore:
 1320              	.LFB7:
1274:.\Generated_Source\PSoC5/cyPm.c **** 
1275:.\Generated_Source\PSoC5/cyPm.c **** 
1276:.\Generated_Source\PSoC5/cyPm.c **** /*******************************************************************************
1277:.\Generated_Source\PSoC5/cyPm.c **** * Function Name: CyPmHibRestore
1278:.\Generated_Source\PSoC5/cyPm.c **** ********************************************************************************
1279:.\Generated_Source\PSoC5/cyPm.c **** *
1280:.\Generated_Source\PSoC5/cyPm.c **** * Summary:
1281:.\Generated_Source\PSoC5/cyPm.c **** *  Restore device for proper Hibernate mode exit:
1282:.\Generated_Source\PSoC5/cyPm.c **** *  - CyPmHibSlpSaveRestore() function is called.
1283:.\Generated_Source\PSoC5/cyPm.c **** *  - Restores state of I2C backup regulator (PSoC3 ES2 and PSoC5 ES1)
1284:.\Generated_Source\PSoC5/cyPm.c **** *  - Restores ILO power down mode state and enable it (PSoC3 ES3)
1285:.\Generated_Source\PSoC5/cyPm.c **** *  - Restores enable state of 1 kHz and 100 kHz ILO and disable them (PSoC3 ES3)
1286:.\Generated_Source\PSoC5/cyPm.c **** *  - Restores sleep regulator settings (PSoC3 ES3)
1287:.\Generated_Source\PSoC5/cyPm.c **** *
1288:.\Generated_Source\PSoC5/cyPm.c **** * Parameters:
1289:.\Generated_Source\PSoC5/cyPm.c **** *  None
1290:.\Generated_Source\PSoC5/cyPm.c **** *
1291:.\Generated_Source\PSoC5/cyPm.c **** * Return:
ARM GAS  C:\Users\Geo\AppData\Local\Temp\ccKuRrRd.s 			page 47


1292:.\Generated_Source\PSoC5/cyPm.c **** *  None
1293:.\Generated_Source\PSoC5/cyPm.c **** *
1294:.\Generated_Source\PSoC5/cyPm.c **** *******************************************************************************/
1295:.\Generated_Source\PSoC5/cyPm.c **** static void CyPmHibRestore(void) 
1296:.\Generated_Source\PSoC5/cyPm.c **** {
 1321              		.loc 1 1296 0
 1322              		.cfi_startproc
 1323              		@ args = 0, pretend = 0, frame = 0
 1324              		@ frame_needed = 1, uses_anonymous_args = 0
 1325 0000 80B5     		push	{r7, lr}
 1326              	.LCFI18:
 1327              		.cfi_def_cfa_offset 8
 1328 0002 00AF     		add	r7, sp, #0
 1329              		.cfi_offset 14, -4
 1330              		.cfi_offset 7, -8
 1331              	.LCFI19:
 1332              		.cfi_def_cfa_register 7
1297:.\Generated_Source\PSoC5/cyPm.c ****     /* Restore the same configuration for Hibernate and Sleep modes */
1298:.\Generated_Source\PSoC5/cyPm.c ****     CyPmHibSlpRestore();
 1333              		.loc 1 1298 0
 1334 0004 FFF7FEFF 		bl	CyPmHibSlpRestore
1299:.\Generated_Source\PSoC5/cyPm.c **** 
1300:.\Generated_Source\PSoC5/cyPm.c ****     #if(CY_PSOC3_ES2 || CY_PSOC5_ES1)
1301:.\Generated_Source\PSoC5/cyPm.c **** 
1302:.\Generated_Source\PSoC5/cyPm.c ****         /* Restore I2C backup regulator configuration */
1303:.\Generated_Source\PSoC5/cyPm.c ****         if(CY_PM_ENABLED == cyPmBackup.i2cRegBackup)
 1335              		.loc 1 1303 0
 1336 0008 40F20003 		movw	r3, #:lower16:cyPmBackup
 1337 000c C0F20003 		movt	r3, #:upper16:cyPmBackup
 1338 0010 DB78     		ldrb	r3, [r3, #3]	@ zero_extendqisi2
 1339 0012 012B     		cmp	r3, #1
 1340 0014 0DD1     		bne	.L66
1304:.\Generated_Source\PSoC5/cyPm.c ****         {
1305:.\Generated_Source\PSoC5/cyPm.c ****             /* Enable I2C backup regulator state */
1306:.\Generated_Source\PSoC5/cyPm.c ****             CY_PM_PWRSYS_CR1_REG |= CY_PM_PWRSYS_CR1_I2CREG_BACKUP;
 1341              		.loc 1 1306 0
 1342 0016 44F23133 		movw	r3, #:lower16:1073759025
 1343 001a C4F20003 		movt	r3, #:upper16:1073759025
 1344 001e 44F23132 		movw	r2, #:lower16:1073759025
 1345 0022 C4F20002 		movt	r2, #:upper16:1073759025
 1346 0026 1278     		ldrb	r2, [r2, #0]
 1347 0028 D2B2     		uxtb	r2, r2
 1348 002a 42F00402 		orr	r2, r2, #4
 1349 002e D2B2     		uxtb	r2, r2
 1350 0030 1A70     		strb	r2, [r3, #0]
 1351              	.L66:
1307:.\Generated_Source\PSoC5/cyPm.c ****         }
1308:.\Generated_Source\PSoC5/cyPm.c **** 
1309:.\Generated_Source\PSoC5/cyPm.c ****     #endif /* (CY_PSOC3_ES2 || CY_PSOC5_ES1) */
1310:.\Generated_Source\PSoC5/cyPm.c **** 
1311:.\Generated_Source\PSoC5/cyPm.c ****     /* Device is PSoC 3 and the revision is ES3 or later */
1312:.\Generated_Source\PSoC5/cyPm.c ****     #if(CY_PSOC3_ES3)
1313:.\Generated_Source\PSoC5/cyPm.c **** 
1314:.\Generated_Source\PSoC5/cyPm.c ****         /* Restore 1kHz ILO enable state */
1315:.\Generated_Source\PSoC5/cyPm.c ****         if(CY_PM_ENABLED == cyPmBackup.ilo1kEnable)
1316:.\Generated_Source\PSoC5/cyPm.c ****         {
1317:.\Generated_Source\PSoC5/cyPm.c ****             /* Enable 1kHz ILO */
ARM GAS  C:\Users\Geo\AppData\Local\Temp\ccKuRrRd.s 			page 48


1318:.\Generated_Source\PSoC5/cyPm.c ****             CyILO_Start1K();
1319:.\Generated_Source\PSoC5/cyPm.c ****         }
1320:.\Generated_Source\PSoC5/cyPm.c **** 
1321:.\Generated_Source\PSoC5/cyPm.c ****         /* Restore 100kHz ILO enable state */
1322:.\Generated_Source\PSoC5/cyPm.c ****         if(CY_PM_ENABLED == cyPmBackup.ilo100kEnable)
1323:.\Generated_Source\PSoC5/cyPm.c ****         {
1324:.\Generated_Source\PSoC5/cyPm.c ****             /* Enable 100kHz ILO */
1325:.\Generated_Source\PSoC5/cyPm.c ****             CyILO_Start100K();
1326:.\Generated_Source\PSoC5/cyPm.c ****         }
1327:.\Generated_Source\PSoC5/cyPm.c **** 
1328:.\Generated_Source\PSoC5/cyPm.c ****         /* Restore ILO power mode */
1329:.\Generated_Source\PSoC5/cyPm.c ****         CyILO_SetPowerMode(cyPmBackup.iloPowerMode);
1330:.\Generated_Source\PSoC5/cyPm.c **** 
1331:.\Generated_Source\PSoC5/cyPm.c **** 
1332:.\Generated_Source\PSoC5/cyPm.c ****         if(CY_PM_DISABLED == cyPmBackup.slpTrBypass)
1333:.\Generated_Source\PSoC5/cyPm.c ****         {
1334:.\Generated_Source\PSoC5/cyPm.c ****             /* Enable the sleep regulator */
1335:.\Generated_Source\PSoC5/cyPm.c ****             CY_PM_PWRSYS_SLP_TR_REG &= ~CY_PM_PWRSYS_SLP_TR_BYPASS;
1336:.\Generated_Source\PSoC5/cyPm.c ****         }
1337:.\Generated_Source\PSoC5/cyPm.c **** 
1338:.\Generated_Source\PSoC5/cyPm.c ****     #endif /* (CY_PSOC3_ES3) */
1339:.\Generated_Source\PSoC5/cyPm.c **** }
 1352              		.loc 1 1339 0
 1353 0032 80BD     		pop	{r7, pc}
 1354              		.cfi_endproc
 1355              	.LFE7:
 1356              		.size	CyPmHibRestore, .-CyPmHibRestore
 1357              		.section	.text.CyPmSavePicuInterrupts,"ax",%progbits
 1358              		.align	2
 1359              		.thumb
 1360              		.thumb_func
 1361              		.type	CyPmSavePicuInterrupts, %function
 1362              	CyPmSavePicuInterrupts:
 1363              	.LFB8:
1340:.\Generated_Source\PSoC5/cyPm.c **** 
1341:.\Generated_Source\PSoC5/cyPm.c **** 
1342:.\Generated_Source\PSoC5/cyPm.c **** /* Device is PSoC 3 */
1343:.\Generated_Source\PSoC5/cyPm.c **** #if(CY_PSOC3)
1344:.\Generated_Source\PSoC5/cyPm.c **** 
1345:.\Generated_Source\PSoC5/cyPm.c ****     /*******************************************************************************
1346:.\Generated_Source\PSoC5/cyPm.c ****     * Function Name: CyPmCtwSaveSet
1347:.\Generated_Source\PSoC5/cyPm.c ****     ********************************************************************************
1348:.\Generated_Source\PSoC5/cyPm.c ****     *
1349:.\Generated_Source\PSoC5/cyPm.c ****     * Summary:
1350:.\Generated_Source\PSoC5/cyPm.c ****     *  Performs CTW configuration:
1351:.\Generated_Source\PSoC5/cyPm.c ****     *  - Disables CTW interrupt
1352:.\Generated_Source\PSoC5/cyPm.c ****     *  - Enables 1 kHz ILO
1353:.\Generated_Source\PSoC5/cyPm.c ****     *  - Saves current CTW interval and set new one. The CTW interval could be set
1354:.\Generated_Source\PSoC5/cyPm.c ****     *    only while CTW is disabled
1355:.\Generated_Source\PSoC5/cyPm.c ****     *
1356:.\Generated_Source\PSoC5/cyPm.c ****     * Parameters:
1357:.\Generated_Source\PSoC5/cyPm.c ****     *  ctwInterval: the CTW interval to be set.
1358:.\Generated_Source\PSoC5/cyPm.c ****     *
1359:.\Generated_Source\PSoC5/cyPm.c ****     * Return:
1360:.\Generated_Source\PSoC5/cyPm.c ****     *  None
1361:.\Generated_Source\PSoC5/cyPm.c ****     *
1362:.\Generated_Source\PSoC5/cyPm.c ****     * Reentrant:
ARM GAS  C:\Users\Geo\AppData\Local\Temp\ccKuRrRd.s 			page 49


1363:.\Generated_Source\PSoC5/cyPm.c ****     *  No
1364:.\Generated_Source\PSoC5/cyPm.c ****     *
1365:.\Generated_Source\PSoC5/cyPm.c ****     *******************************************************************************/
1366:.\Generated_Source\PSoC5/cyPm.c ****     static void CyPmCtwSaveSet(uint8 ctwInterval)
1367:.\Generated_Source\PSoC5/cyPm.c ****     {
1368:.\Generated_Source\PSoC5/cyPm.c ****         /* Disable CTW interrupt enable if not yet */
1369:.\Generated_Source\PSoC5/cyPm.c ****         if(0u != (CY_PM_TW_CFG2_REG & CY_PM_CTW_IE))
1370:.\Generated_Source\PSoC5/cyPm.c ****         {
1371:.\Generated_Source\PSoC5/cyPm.c ****             /* Disable CTW interrupt */
1372:.\Generated_Source\PSoC5/cyPm.c ****             CY_PM_TW_CFG2_REG &= ~CY_PM_CTW_IE;
1373:.\Generated_Source\PSoC5/cyPm.c ****         }   /* Do nothing if CTW interrupt is disabled */
1374:.\Generated_Source\PSoC5/cyPm.c **** 
1375:.\Generated_Source\PSoC5/cyPm.c ****         /* Enable 1kHz ILO if needed */
1376:.\Generated_Source\PSoC5/cyPm.c ****         if(0u == (CY_PM_SLOWCLK_ILO_CR0_REG & CY_PM_ILO_CR0_EN_1K))
1377:.\Generated_Source\PSoC5/cyPm.c ****         {
1378:.\Generated_Source\PSoC5/cyPm.c ****             /* Enable the 1kHz ILO */
1379:.\Generated_Source\PSoC5/cyPm.c ****             CyILO_Start1K();
1380:.\Generated_Source\PSoC5/cyPm.c ****         }
1381:.\Generated_Source\PSoC5/cyPm.c **** 
1382:.\Generated_Source\PSoC5/cyPm.c ****         /* Enable CTW and update interval if needed */
1383:.\Generated_Source\PSoC5/cyPm.c ****         if(0u != (CY_PM_TW_CFG2_REG & CY_PM_CTW_EN))
1384:.\Generated_Source\PSoC5/cyPm.c ****         {
1385:.\Generated_Source\PSoC5/cyPm.c ****             /* Set CTW interval if needed */
1386:.\Generated_Source\PSoC5/cyPm.c ****             if(CY_PM_TW_CFG1_REG != ctwInterval)
1387:.\Generated_Source\PSoC5/cyPm.c ****             {
1388:.\Generated_Source\PSoC5/cyPm.c ****                 /* Disable the CTW, set new CTW interval and enable it again */
1389:.\Generated_Source\PSoC5/cyPm.c ****                 CY_PM_TW_CFG2_REG &= ~CY_PM_CTW_EN;
1390:.\Generated_Source\PSoC5/cyPm.c ****                 CY_PM_TW_CFG1_REG = ctwInterval;
1391:.\Generated_Source\PSoC5/cyPm.c ****                 CY_PM_TW_CFG2_REG |= CY_PM_CTW_EN;
1392:.\Generated_Source\PSoC5/cyPm.c ****             }   /* Required interval is already set */
1393:.\Generated_Source\PSoC5/cyPm.c ****         }
1394:.\Generated_Source\PSoC5/cyPm.c ****         else
1395:.\Generated_Source\PSoC5/cyPm.c ****         {
1396:.\Generated_Source\PSoC5/cyPm.c ****             /* Set CTW interval if needed */
1397:.\Generated_Source\PSoC5/cyPm.c ****             if(CY_PM_TW_CFG1_REG != ctwInterval)
1398:.\Generated_Source\PSoC5/cyPm.c ****             {
1399:.\Generated_Source\PSoC5/cyPm.c ****                 /* Set the new CTW interval. Could be changed if CTW is disabled */
1400:.\Generated_Source\PSoC5/cyPm.c ****                 CY_PM_TW_CFG1_REG = ctwInterval;
1401:.\Generated_Source\PSoC5/cyPm.c ****             }   /* Required interval is already set */
1402:.\Generated_Source\PSoC5/cyPm.c **** 
1403:.\Generated_Source\PSoC5/cyPm.c ****             /* Enable the CTW */
1404:.\Generated_Source\PSoC5/cyPm.c ****             CY_PM_TW_CFG2_REG |= CY_PM_CTW_EN;
1405:.\Generated_Source\PSoC5/cyPm.c ****         }
1406:.\Generated_Source\PSoC5/cyPm.c ****     }
1407:.\Generated_Source\PSoC5/cyPm.c **** 
1408:.\Generated_Source\PSoC5/cyPm.c **** 
1409:.\Generated_Source\PSoC5/cyPm.c ****     /*******************************************************************************
1410:.\Generated_Source\PSoC5/cyPm.c ****     * Function Name: CyPmOppsSaveSet
1411:.\Generated_Source\PSoC5/cyPm.c ****     ********************************************************************************
1412:.\Generated_Source\PSoC5/cyPm.c ****     *
1413:.\Generated_Source\PSoC5/cyPm.c ****     * Summary:
1414:.\Generated_Source\PSoC5/cyPm.c ****     *  Performs One PPS configuration:
1415:.\Generated_Source\PSoC5/cyPm.c ****     *  - Starts 32 KHz XTAL
1416:.\Generated_Source\PSoC5/cyPm.c ****     *  - Disables OnePPS interupts
1417:.\Generated_Source\PSoC5/cyPm.c ****     *  - Enables OnePPS
1418:.\Generated_Source\PSoC5/cyPm.c ****     *
1419:.\Generated_Source\PSoC5/cyPm.c ****     * Parameters:
ARM GAS  C:\Users\Geo\AppData\Local\Temp\ccKuRrRd.s 			page 50


1420:.\Generated_Source\PSoC5/cyPm.c ****     *  None
1421:.\Generated_Source\PSoC5/cyPm.c ****     *
1422:.\Generated_Source\PSoC5/cyPm.c ****     * Return:
1423:.\Generated_Source\PSoC5/cyPm.c ****     *  None
1424:.\Generated_Source\PSoC5/cyPm.c ****     *
1425:.\Generated_Source\PSoC5/cyPm.c ****     * Reentrant:
1426:.\Generated_Source\PSoC5/cyPm.c ****     *  No
1427:.\Generated_Source\PSoC5/cyPm.c ****     *
1428:.\Generated_Source\PSoC5/cyPm.c ****     *******************************************************************************/
1429:.\Generated_Source\PSoC5/cyPm.c ****     static void CyPmOppsSaveSet(void)
1430:.\Generated_Source\PSoC5/cyPm.c ****     {
1431:.\Generated_Source\PSoC5/cyPm.c ****         /* Enable 32kHz XTAL if needed */
1432:.\Generated_Source\PSoC5/cyPm.c ****         if(0u == (CY_PM_SLOWCLK_X32_CR_REG & CY_PM_X32_CR_X32EN))
1433:.\Generated_Source\PSoC5/cyPm.c ****         {
1434:.\Generated_Source\PSoC5/cyPm.c ****             /* Enable 32kHz XTAL */
1435:.\Generated_Source\PSoC5/cyPm.c ****             CyXTAL_32KHZ_Start();
1436:.\Generated_Source\PSoC5/cyPm.c ****         }
1437:.\Generated_Source\PSoC5/cyPm.c **** 
1438:.\Generated_Source\PSoC5/cyPm.c ****         /* Disable 1PPS interrupt enable if needed */
1439:.\Generated_Source\PSoC5/cyPm.c ****         if(0u != (CY_PM_TW_CFG2_REG & CY_PM_1PPS_IE))
1440:.\Generated_Source\PSoC5/cyPm.c ****         {
1441:.\Generated_Source\PSoC5/cyPm.c ****             /* Disable 1PPS interrupt */
1442:.\Generated_Source\PSoC5/cyPm.c ****             CY_PM_TW_CFG2_REG &= ~CY_PM_1PPS_IE;
1443:.\Generated_Source\PSoC5/cyPm.c ****         }
1444:.\Generated_Source\PSoC5/cyPm.c **** 
1445:.\Generated_Source\PSoC5/cyPm.c ****         /* Enable 1PPS if needed */
1446:.\Generated_Source\PSoC5/cyPm.c ****         if(0u == (CY_PM_TW_CFG2_REG & CY_PM_1PPS_EN))
1447:.\Generated_Source\PSoC5/cyPm.c ****         {
1448:.\Generated_Source\PSoC5/cyPm.c ****             /* Enable 1PPS operation */
1449:.\Generated_Source\PSoC5/cyPm.c ****             CY_PM_TW_CFG2_REG |= CY_PM_1PPS_EN;
1450:.\Generated_Source\PSoC5/cyPm.c ****         }
1451:.\Generated_Source\PSoC5/cyPm.c ****     }
1452:.\Generated_Source\PSoC5/cyPm.c **** 
1453:.\Generated_Source\PSoC5/cyPm.c **** 
1454:.\Generated_Source\PSoC5/cyPm.c ****     /*******************************************************************************
1455:.\Generated_Source\PSoC5/cyPm.c ****     * Function Name: CyPmFtwSaveSet
1456:.\Generated_Source\PSoC5/cyPm.c ****     ********************************************************************************
1457:.\Generated_Source\PSoC5/cyPm.c ****     *
1458:.\Generated_Source\PSoC5/cyPm.c ****     * Summary:
1459:.\Generated_Source\PSoC5/cyPm.c ****     *  Performs CTW configuration:
1460:.\Generated_Source\PSoC5/cyPm.c ****     *  - Disables FTW interrupt
1461:.\Generated_Source\PSoC5/cyPm.c ****     *  - Enables 100 kHz ILO
1462:.\Generated_Source\PSoC5/cyPm.c ****     *  - Sets new FTW interval. The CTW interval could be set only while FTW is
1463:.\Generated_Source\PSoC5/cyPm.c ****     *    disabled
1464:.\Generated_Source\PSoC5/cyPm.c ****     *
1465:.\Generated_Source\PSoC5/cyPm.c ****     * Parameters:
1466:.\Generated_Source\PSoC5/cyPm.c ****     *  ftwInterval - FTW counter interval.
1467:.\Generated_Source\PSoC5/cyPm.c ****     *
1468:.\Generated_Source\PSoC5/cyPm.c ****     * Return:
1469:.\Generated_Source\PSoC5/cyPm.c ****     *  None
1470:.\Generated_Source\PSoC5/cyPm.c ****     *
1471:.\Generated_Source\PSoC5/cyPm.c ****     * Reentrant:
1472:.\Generated_Source\PSoC5/cyPm.c ****     *  No
1473:.\Generated_Source\PSoC5/cyPm.c ****     *
1474:.\Generated_Source\PSoC5/cyPm.c ****     *******************************************************************************/
1475:.\Generated_Source\PSoC5/cyPm.c ****     static void CyPmFtwSaveSet(uint8 ftwInterval)
1476:.\Generated_Source\PSoC5/cyPm.c ****     {
ARM GAS  C:\Users\Geo\AppData\Local\Temp\ccKuRrRd.s 			page 51


1477:.\Generated_Source\PSoC5/cyPm.c ****         /* Disable FTW interrupt enable if needed */
1478:.\Generated_Source\PSoC5/cyPm.c ****         if(0u != (CY_PM_TW_CFG2_REG & CY_PM_FTW_IE))
1479:.\Generated_Source\PSoC5/cyPm.c ****         {
1480:.\Generated_Source\PSoC5/cyPm.c ****             /* Disable FTW interrupt */
1481:.\Generated_Source\PSoC5/cyPm.c ****             CY_PM_TW_CFG2_REG &= ~CY_PM_FTW_IE;
1482:.\Generated_Source\PSoC5/cyPm.c ****         }
1483:.\Generated_Source\PSoC5/cyPm.c **** 
1484:.\Generated_Source\PSoC5/cyPm.c ****         /* Enable 100kHz ILO if needed */
1485:.\Generated_Source\PSoC5/cyPm.c ****         if(0u == (CY_PM_SLOWCLK_ILO_CR0_REG & CY_PM_ILO_CR0_EN_100K))
1486:.\Generated_Source\PSoC5/cyPm.c ****         {
1487:.\Generated_Source\PSoC5/cyPm.c ****             /* Enable the 100kHz ILO */
1488:.\Generated_Source\PSoC5/cyPm.c ****             CyILO_Start100K();
1489:.\Generated_Source\PSoC5/cyPm.c ****         }
1490:.\Generated_Source\PSoC5/cyPm.c **** 
1491:.\Generated_Source\PSoC5/cyPm.c ****         /* Enable FTW and set new FTW interval if needed */
1492:.\Generated_Source\PSoC5/cyPm.c ****         if(0u != (CY_PM_TW_CFG2_REG & CY_PM_FTW_EN))
1493:.\Generated_Source\PSoC5/cyPm.c ****         {
1494:.\Generated_Source\PSoC5/cyPm.c ****             /* Disable FTW, set new FTW interval if needed and enable it again */
1495:.\Generated_Source\PSoC5/cyPm.c ****             if(CY_PM_TW_CFG0_REG != ftwInterval)
1496:.\Generated_Source\PSoC5/cyPm.c ****             {
1497:.\Generated_Source\PSoC5/cyPm.c ****                 /* Disable the CTW, set new CTW interval and enable it again */
1498:.\Generated_Source\PSoC5/cyPm.c ****                 CY_PM_TW_CFG2_REG &= ~CY_PM_FTW_EN;
1499:.\Generated_Source\PSoC5/cyPm.c ****                 CY_PM_TW_CFG0_REG = ftwInterval;
1500:.\Generated_Source\PSoC5/cyPm.c ****                 CY_PM_TW_CFG2_REG |= CY_PM_FTW_EN;
1501:.\Generated_Source\PSoC5/cyPm.c ****             }   /* Required interval is already set */
1502:.\Generated_Source\PSoC5/cyPm.c ****         }
1503:.\Generated_Source\PSoC5/cyPm.c ****         else
1504:.\Generated_Source\PSoC5/cyPm.c ****         {
1505:.\Generated_Source\PSoC5/cyPm.c ****             /* Set new FTW counter interval if needed. FTW is disabled. */
1506:.\Generated_Source\PSoC5/cyPm.c ****             if(CY_PM_TW_CFG0_REG != ftwInterval)
1507:.\Generated_Source\PSoC5/cyPm.c ****             {
1508:.\Generated_Source\PSoC5/cyPm.c ****                 /* Set the new CTW interval. Could be changed if CTW is disabled */
1509:.\Generated_Source\PSoC5/cyPm.c ****                 CY_PM_TW_CFG0_REG = ftwInterval;
1510:.\Generated_Source\PSoC5/cyPm.c ****             }   /* Required interval is already set */
1511:.\Generated_Source\PSoC5/cyPm.c **** 
1512:.\Generated_Source\PSoC5/cyPm.c ****             /* Enable the FTW */
1513:.\Generated_Source\PSoC5/cyPm.c ****             CY_PM_TW_CFG2_REG |= CY_PM_FTW_EN;
1514:.\Generated_Source\PSoC5/cyPm.c ****         }
1515:.\Generated_Source\PSoC5/cyPm.c ****     }
1516:.\Generated_Source\PSoC5/cyPm.c **** 
1517:.\Generated_Source\PSoC5/cyPm.c **** #endif  /* (CY_PSOC3) */
1518:.\Generated_Source\PSoC5/cyPm.c **** 
1519:.\Generated_Source\PSoC5/cyPm.c **** 
1520:.\Generated_Source\PSoC5/cyPm.c **** /* Device is PSoC 5 */
1521:.\Generated_Source\PSoC5/cyPm.c **** #if(CY_PSOC5)
1522:.\Generated_Source\PSoC5/cyPm.c **** 
1523:.\Generated_Source\PSoC5/cyPm.c ****     /*******************************************************************************
1524:.\Generated_Source\PSoC5/cyPm.c ****     * Function Name: CyPmSavePicuInterrupts
1525:.\Generated_Source\PSoC5/cyPm.c ****     ********************************************************************************
1526:.\Generated_Source\PSoC5/cyPm.c ****     *
1527:.\Generated_Source\PSoC5/cyPm.c ****     * Summary:
1528:.\Generated_Source\PSoC5/cyPm.c ****     *  Saves PICU interrupt type registers to the backup structure.
1529:.\Generated_Source\PSoC5/cyPm.c ****     *
1530:.\Generated_Source\PSoC5/cyPm.c ****     * Parameters:
1531:.\Generated_Source\PSoC5/cyPm.c ****     *  None
1532:.\Generated_Source\PSoC5/cyPm.c ****     *
1533:.\Generated_Source\PSoC5/cyPm.c ****     * Return:
ARM GAS  C:\Users\Geo\AppData\Local\Temp\ccKuRrRd.s 			page 52


1534:.\Generated_Source\PSoC5/cyPm.c ****     *  None
1535:.\Generated_Source\PSoC5/cyPm.c ****     *
1536:.\Generated_Source\PSoC5/cyPm.c ****     * Reentrant:
1537:.\Generated_Source\PSoC5/cyPm.c ****     *  No
1538:.\Generated_Source\PSoC5/cyPm.c ****     *
1539:.\Generated_Source\PSoC5/cyPm.c ****     *******************************************************************************/
1540:.\Generated_Source\PSoC5/cyPm.c ****     static void CyPmSavePicuInterrupts(void)
1541:.\Generated_Source\PSoC5/cyPm.c ****     {
 1364              		.loc 1 1541 0
 1365              		.cfi_startproc
 1366              		@ args = 0, pretend = 0, frame = 0
 1367              		@ frame_needed = 1, uses_anonymous_args = 0
 1368 0000 80B5     		push	{r7, lr}
 1369              	.LCFI20:
 1370              		.cfi_def_cfa_offset 8
 1371 0002 00AF     		add	r7, sp, #0
 1372              		.cfi_offset 14, -4
 1373              		.cfi_offset 7, -8
 1374              	.LCFI21:
 1375              		.cfi_def_cfa_register 7
1542:.\Generated_Source\PSoC5/cyPm.c ****         /* Save all the PICU interrupt type */
1543:.\Generated_Source\PSoC5/cyPm.c ****         memcpy((void *) &cyPmBackup.picuIntType[0u],
 1376              		.loc 1 1543 0
 1377 0004 0E48     		ldr	r0, .L69
 1378 0006 44F20051 		movw	r1, #:lower16:1073759488
 1379 000a C4F20001 		movt	r1, #:upper16:1073759488
 1380 000e 4FF03802 		mov	r2, #56
 1381 0012 FFF7FEFF 		bl	memcpy
1544:.\Generated_Source\PSoC5/cyPm.c ****                (void *) CY_PM_PICU_0_6_INT_BASE,
1545:.\Generated_Source\PSoC5/cyPm.c ****                CY_PM_PICU_0_6_INT_SIZE);
1546:.\Generated_Source\PSoC5/cyPm.c **** 
1547:.\Generated_Source\PSoC5/cyPm.c ****         memcpy((void *) &cyPmBackup.picuIntType[CY_PM_PICU_0_6_INT_SIZE],
 1382              		.loc 1 1547 0
 1383 0016 0B4B     		ldr	r3, .L69+4
 1384 0018 1846     		mov	r0, r3
 1385 001a 44F26051 		movw	r1, #:lower16:1073759584
 1386 001e C4F20001 		movt	r1, #:upper16:1073759584
 1387 0022 4FF00802 		mov	r2, #8
 1388 0026 FFF7FEFF 		bl	memcpy
1548:.\Generated_Source\PSoC5/cyPm.c ****                (void *) CY_PM_PICU_12_INT_BASE,
1549:.\Generated_Source\PSoC5/cyPm.c ****                CY_PM_PICU_12_INT_SIZE);
1550:.\Generated_Source\PSoC5/cyPm.c **** 
1551:.\Generated_Source\PSoC5/cyPm.c ****         memcpy((void *) &cyPmBackup.picuIntType[CY_PM_PICU_0_6_INT_SIZE + CY_PM_PICU_12_INT_SIZE],
 1389              		.loc 1 1551 0
 1390 002a 074B     		ldr	r3, .L69+8
 1391 002c 1846     		mov	r0, r3
 1392 002e 44F27851 		movw	r1, #:lower16:1073759608
 1393 0032 C4F20001 		movt	r1, #:upper16:1073759608
 1394 0036 4FF00802 		mov	r2, #8
 1395 003a FFF7FEFF 		bl	memcpy
1552:.\Generated_Source\PSoC5/cyPm.c ****                (void *) CY_PM_PICU_15_INT_BASE,
1553:.\Generated_Source\PSoC5/cyPm.c ****                CY_PM_PICU_15_INT_SIZE);
1554:.\Generated_Source\PSoC5/cyPm.c **** 
1555:.\Generated_Source\PSoC5/cyPm.c ****     }
 1396              		.loc 1 1555 0
 1397 003e 80BD     		pop	{r7, pc}
 1398              	.L70:
ARM GAS  C:\Users\Geo\AppData\Local\Temp\ccKuRrRd.s 			page 53


 1399              		.align	2
 1400              	.L69:
 1401 0040 55000000 		.word	cyPmBackup+85
 1402 0044 8D000000 		.word	cyPmBackup+141
 1403 0048 95000000 		.word	cyPmBackup+149
 1404              		.cfi_endproc
 1405              	.LFE8:
 1406              		.size	CyPmSavePicuInterrupts, .-CyPmSavePicuInterrupts
 1407              		.section	.text.CyPmDisablePicuInterrupts,"ax",%progbits
 1408              		.align	2
 1409              		.thumb
 1410              		.thumb_func
 1411              		.type	CyPmDisablePicuInterrupts, %function
 1412              	CyPmDisablePicuInterrupts:
 1413              	.LFB9:
1556:.\Generated_Source\PSoC5/cyPm.c **** 
1557:.\Generated_Source\PSoC5/cyPm.c **** 
1558:.\Generated_Source\PSoC5/cyPm.c ****     /*******************************************************************************
1559:.\Generated_Source\PSoC5/cyPm.c ****     * Function Name: CyPmDisablePicuInterrupts
1560:.\Generated_Source\PSoC5/cyPm.c ****     ********************************************************************************
1561:.\Generated_Source\PSoC5/cyPm.c ****     *
1562:.\Generated_Source\PSoC5/cyPm.c ****     * Summary:
1563:.\Generated_Source\PSoC5/cyPm.c ****     *  Disableds PICU interrupts.
1564:.\Generated_Source\PSoC5/cyPm.c ****     *
1565:.\Generated_Source\PSoC5/cyPm.c ****     * Parameters:
1566:.\Generated_Source\PSoC5/cyPm.c ****     *  None
1567:.\Generated_Source\PSoC5/cyPm.c ****     *
1568:.\Generated_Source\PSoC5/cyPm.c ****     * Return:
1569:.\Generated_Source\PSoC5/cyPm.c ****     *  None
1570:.\Generated_Source\PSoC5/cyPm.c ****     *
1571:.\Generated_Source\PSoC5/cyPm.c ****     *******************************************************************************/
1572:.\Generated_Source\PSoC5/cyPm.c ****     static void CyPmDisablePicuInterrupts(void) 
1573:.\Generated_Source\PSoC5/cyPm.c ****     {
 1414              		.loc 1 1573 0
 1415              		.cfi_startproc
 1416              		@ args = 0, pretend = 0, frame = 0
 1417              		@ frame_needed = 1, uses_anonymous_args = 0
 1418 0000 80B5     		push	{r7, lr}
 1419              	.LCFI22:
 1420              		.cfi_def_cfa_offset 8
 1421 0002 00AF     		add	r7, sp, #0
 1422              		.cfi_offset 14, -4
 1423              		.cfi_offset 7, -8
 1424              	.LCFI23:
 1425              		.cfi_def_cfa_register 7
1574:.\Generated_Source\PSoC5/cyPm.c ****         /* Disable all the PICU interrupts */
1575:.\Generated_Source\PSoC5/cyPm.c ****         memset((void *) CY_PM_PICU_0_6_INT_BASE, 0, CY_PM_PICU_0_6_INT_SIZE);
 1426              		.loc 1 1575 0
 1427 0004 44F20050 		movw	r0, #:lower16:1073759488
 1428 0008 C4F20000 		movt	r0, #:upper16:1073759488
 1429 000c 4FF00001 		mov	r1, #0
 1430 0010 4FF03802 		mov	r2, #56
 1431 0014 FFF7FEFF 		bl	memset
1576:.\Generated_Source\PSoC5/cyPm.c ****         memset((void *) CY_PM_PICU_12_INT_BASE,  0, CY_PM_PICU_12_INT_SIZE );
 1432              		.loc 1 1576 0
 1433 0018 44F26050 		movw	r0, #:lower16:1073759584
 1434 001c C4F20000 		movt	r0, #:upper16:1073759584
ARM GAS  C:\Users\Geo\AppData\Local\Temp\ccKuRrRd.s 			page 54


 1435 0020 4FF00001 		mov	r1, #0
 1436 0024 4FF00802 		mov	r2, #8
 1437 0028 FFF7FEFF 		bl	memset
1577:.\Generated_Source\PSoC5/cyPm.c ****         memset((void *) CY_PM_PICU_15_INT_BASE,  0, CY_PM_PICU_15_INT_SIZE );
 1438              		.loc 1 1577 0
 1439 002c 44F27850 		movw	r0, #:lower16:1073759608
 1440 0030 C4F20000 		movt	r0, #:upper16:1073759608
 1441 0034 4FF00001 		mov	r1, #0
 1442 0038 4FF00802 		mov	r2, #8
 1443 003c FFF7FEFF 		bl	memset
1578:.\Generated_Source\PSoC5/cyPm.c ****     }
 1444              		.loc 1 1578 0
 1445 0040 80BD     		pop	{r7, pc}
 1446              		.cfi_endproc
 1447              	.LFE9:
 1448              		.size	CyPmDisablePicuInterrupts, .-CyPmDisablePicuInterrupts
 1449 0042 00BF     		.section	.text.CyPmRestorePicuInterrupts,"ax",%progbits
 1450              		.align	2
 1451              		.thumb
 1452              		.thumb_func
 1453              		.type	CyPmRestorePicuInterrupts, %function
 1454              	CyPmRestorePicuInterrupts:
 1455              	.LFB10:
1579:.\Generated_Source\PSoC5/cyPm.c **** 
1580:.\Generated_Source\PSoC5/cyPm.c **** 
1581:.\Generated_Source\PSoC5/cyPm.c ****     /*******************************************************************************
1582:.\Generated_Source\PSoC5/cyPm.c ****     * Function Name: CyPmRestorePicuInterrupts
1583:.\Generated_Source\PSoC5/cyPm.c ****     ********************************************************************************
1584:.\Generated_Source\PSoC5/cyPm.c ****     *
1585:.\Generated_Source\PSoC5/cyPm.c ****     * Summary:
1586:.\Generated_Source\PSoC5/cyPm.c ****     *  Restores PICU interrupt type registers from the backup structure.
1587:.\Generated_Source\PSoC5/cyPm.c ****     *
1588:.\Generated_Source\PSoC5/cyPm.c ****     * Parameters:
1589:.\Generated_Source\PSoC5/cyPm.c ****     *  None
1590:.\Generated_Source\PSoC5/cyPm.c ****     *
1591:.\Generated_Source\PSoC5/cyPm.c ****     * Return:
1592:.\Generated_Source\PSoC5/cyPm.c ****     *  None
1593:.\Generated_Source\PSoC5/cyPm.c ****     *
1594:.\Generated_Source\PSoC5/cyPm.c ****     *******************************************************************************/
1595:.\Generated_Source\PSoC5/cyPm.c ****     static void CyPmRestorePicuInterrupts(void) 
1596:.\Generated_Source\PSoC5/cyPm.c ****     {
 1456              		.loc 1 1596 0
 1457              		.cfi_startproc
 1458              		@ args = 0, pretend = 0, frame = 0
 1459              		@ frame_needed = 1, uses_anonymous_args = 0
 1460 0000 80B5     		push	{r7, lr}
 1461              	.LCFI24:
 1462              		.cfi_def_cfa_offset 8
 1463 0002 00AF     		add	r7, sp, #0
 1464              		.cfi_offset 14, -4
 1465              		.cfi_offset 7, -8
 1466              	.LCFI25:
 1467              		.cfi_def_cfa_register 7
1597:.\Generated_Source\PSoC5/cyPm.c ****         /* Save all the PICU interrupt type */
1598:.\Generated_Source\PSoC5/cyPm.c ****         memcpy((void *) CY_PM_PICU_0_6_INT_BASE,
 1468              		.loc 1 1598 0
 1469 0004 44F20050 		movw	r0, #:lower16:1073759488
ARM GAS  C:\Users\Geo\AppData\Local\Temp\ccKuRrRd.s 			page 55


 1470 0008 C4F20000 		movt	r0, #:upper16:1073759488
 1471 000c 0C49     		ldr	r1, .L75
 1472 000e 4FF03802 		mov	r2, #56
 1473 0012 FFF7FEFF 		bl	memcpy
1599:.\Generated_Source\PSoC5/cyPm.c ****                (void *) &cyPmBackup.picuIntType[0u],
1600:.\Generated_Source\PSoC5/cyPm.c ****                CY_PM_PICU_0_6_INT_SIZE);
1601:.\Generated_Source\PSoC5/cyPm.c **** 
1602:.\Generated_Source\PSoC5/cyPm.c ****         memcpy((void *) CY_PM_PICU_12_INT_BASE,
 1474              		.loc 1 1602 0
 1475 0016 0B4B     		ldr	r3, .L75+4
 1476 0018 44F26050 		movw	r0, #:lower16:1073759584
 1477 001c C4F20000 		movt	r0, #:upper16:1073759584
 1478 0020 1946     		mov	r1, r3
 1479 0022 4FF00802 		mov	r2, #8
 1480 0026 FFF7FEFF 		bl	memcpy
1603:.\Generated_Source\PSoC5/cyPm.c ****                (void *) &cyPmBackup.picuIntType[CY_PM_PICU_0_6_INT_SIZE],
1604:.\Generated_Source\PSoC5/cyPm.c ****                CY_PM_PICU_12_INT_SIZE);
1605:.\Generated_Source\PSoC5/cyPm.c **** 
1606:.\Generated_Source\PSoC5/cyPm.c ****         memcpy((void *) CY_PM_PICU_15_INT_BASE,
 1481              		.loc 1 1606 0
 1482 002a 074B     		ldr	r3, .L75+8
 1483 002c 44F27850 		movw	r0, #:lower16:1073759608
 1484 0030 C4F20000 		movt	r0, #:upper16:1073759608
 1485 0034 1946     		mov	r1, r3
 1486 0036 4FF00802 		mov	r2, #8
 1487 003a FFF7FEFF 		bl	memcpy
1607:.\Generated_Source\PSoC5/cyPm.c ****                (void *) &cyPmBackup.picuIntType[CY_PM_PICU_0_6_INT_SIZE + CY_PM_PICU_12_INT_SIZE],
1608:.\Generated_Source\PSoC5/cyPm.c ****                CY_PM_PICU_15_INT_SIZE);
1609:.\Generated_Source\PSoC5/cyPm.c **** 
1610:.\Generated_Source\PSoC5/cyPm.c ****     }
 1488              		.loc 1 1610 0
 1489 003e 80BD     		pop	{r7, pc}
 1490              	.L76:
 1491              		.align	2
 1492              	.L75:
 1493 0040 55000000 		.word	cyPmBackup+85
 1494 0044 8D000000 		.word	cyPmBackup+141
 1495 0048 95000000 		.word	cyPmBackup+149
 1496              		.cfi_endproc
 1497              	.LFE10:
 1498              		.size	CyPmRestorePicuInterrupts, .-CyPmRestorePicuInterrupts
 1499              		.section	.text.CyPmHibSlpSaveSet,"ax",%progbits
 1500              		.align	2
 1501              		.thumb
 1502              		.thumb_func
 1503              		.type	CyPmHibSlpSaveSet, %function
 1504              	CyPmHibSlpSaveSet:
 1505              	.LFB11:
1611:.\Generated_Source\PSoC5/cyPm.c **** 
1612:.\Generated_Source\PSoC5/cyPm.c **** #endif  /* (CY_PSOC5) */
1613:.\Generated_Source\PSoC5/cyPm.c **** 
1614:.\Generated_Source\PSoC5/cyPm.c **** 
1615:.\Generated_Source\PSoC5/cyPm.c **** /*******************************************************************************
1616:.\Generated_Source\PSoC5/cyPm.c **** * Function Name: CyPmHibSlpSaveSet
1617:.\Generated_Source\PSoC5/cyPm.c **** ********************************************************************************
1618:.\Generated_Source\PSoC5/cyPm.c **** *
1619:.\Generated_Source\PSoC5/cyPm.c **** * Summary:
ARM GAS  C:\Users\Geo\AppData\Local\Temp\ccKuRrRd.s 			page 56


1620:.\Generated_Source\PSoC5/cyPm.c **** *  This API is used for preparing device for Sleep and Hibernate low power
1621:.\Generated_Source\PSoC5/cyPm.c **** *  modes entry:
1622:.\Generated_Source\PSoC5/cyPm.c **** *  - Performs proper LVI/HVI configuration
1623:.\Generated_Source\PSoC5/cyPm.c **** *  - Saves COMP, VIDAC, DSM and SAR routing connections of PSoC5
1624:.\Generated_Source\PSoC5/cyPm.c **** *  - Saves SC/CT routing connections of PSoC and PSoC3 ES3
1625:.\Generated_Source\PSoC5/cyPm.c **** *  - Disables Serial Wire Viewer (SWV) (PSoC3 ES3)
1626:.\Generated_Source\PSoC5/cyPm.c **** *  - Increases buzz rate of PSoC3 ES2 (it cannot be disabled)
1627:.\Generated_Source\PSoC5/cyPm.c **** *  - Saves enable state of delay between the system bus and analog clocks
1628:.\Generated_Source\PSoC5/cyPm.c **** *
1629:.\Generated_Source\PSoC5/cyPm.c **** * Parameters:
1630:.\Generated_Source\PSoC5/cyPm.c **** *  None
1631:.\Generated_Source\PSoC5/cyPm.c **** *
1632:.\Generated_Source\PSoC5/cyPm.c **** * Return:
1633:.\Generated_Source\PSoC5/cyPm.c **** *  None
1634:.\Generated_Source\PSoC5/cyPm.c **** *
1635:.\Generated_Source\PSoC5/cyPm.c **** * Reentrant:
1636:.\Generated_Source\PSoC5/cyPm.c **** *  No
1637:.\Generated_Source\PSoC5/cyPm.c **** *
1638:.\Generated_Source\PSoC5/cyPm.c **** *******************************************************************************/
1639:.\Generated_Source\PSoC5/cyPm.c **** static void CyPmHibSlpSaveSet(void)
1640:.\Generated_Source\PSoC5/cyPm.c **** {
 1506              		.loc 1 1640 0
 1507              		.cfi_startproc
 1508              		@ args = 0, pretend = 0, frame = 0
 1509              		@ frame_needed = 1, uses_anonymous_args = 0
 1510              		@ link register save eliminated.
 1511 0000 80B4     		push	{r7}
 1512              	.LCFI26:
 1513              		.cfi_def_cfa_offset 4
 1514 0002 00AF     		add	r7, sp, #0
 1515              		.cfi_offset 7, -4
 1516              	.LCFI27:
 1517              		.cfi_def_cfa_register 7
1641:.\Generated_Source\PSoC5/cyPm.c ****     /***************************************************************************
1642:.\Generated_Source\PSoC5/cyPm.c ****     * PSoC5 ES3:
1643:.\Generated_Source\PSoC5/cyPm.c ****     * LVI/HVI must be disabled in Hibernate
1644:.\Generated_Source\PSoC5/cyPm.c ****     * LVI/HVI must be disabled in Sleep due to:
1645:.\Generated_Source\PSoC5/cyPm.c ****     *  - Hardware buzz is disabled while it is required for LVI/HVI
1646:.\Generated_Source\PSoC5/cyPm.c ****     *  - There is no support for LVI/HVI in Global Signal Reference component
1647:.\Generated_Source\PSoC5/cyPm.c ****     *
1648:.\Generated_Source\PSoC5/cyPm.c ****     * PSoC3 ES2 and PSoC5 ES1:
1649:.\Generated_Source\PSoC5/cyPm.c ****     * LVI/HVI must be disabled as it doesn't work during buzzing
1650:.\Generated_Source\PSoC5/cyPm.c ****     *
1651:.\Generated_Source\PSoC5/cyPm.c ****     ***************************************************************************/
1652:.\Generated_Source\PSoC5/cyPm.c ****     /* Save LVI/HVI configuration */
1653:.\Generated_Source\PSoC5/cyPm.c ****     cyPmBackup.lviaLvidHvi = (CY_PM_RESET_CR1_REG & CY_PM_RESET_CR1_HVI_LVI_EN_MASK);
 1518              		.loc 1 1653 0
 1519 0004 44F2F563 		movw	r3, #:lower16:1073759989
 1520 0008 C4F20003 		movt	r3, #:upper16:1073759989
 1521 000c 1B78     		ldrb	r3, [r3, #0]
 1522 000e DBB2     		uxtb	r3, r3
 1523 0010 1A46     		mov	r2, r3
 1524 0012 02F00702 		and	r2, r2, #7
 1525 0016 40F20003 		movw	r3, #:lower16:cyPmBackup
 1526 001a C0F20003 		movt	r3, #:upper16:cyPmBackup
 1527 001e 1A71     		strb	r2, [r3, #4]
1654:.\Generated_Source\PSoC5/cyPm.c **** 
ARM GAS  C:\Users\Geo\AppData\Local\Temp\ccKuRrRd.s 			page 57


1655:.\Generated_Source\PSoC5/cyPm.c ****     /* Disable LVI/HVI */
1656:.\Generated_Source\PSoC5/cyPm.c ****     CY_PM_RESET_CR1_REG &= ~CY_PM_RESET_CR1_HVI_LVI_EN_MASK;
 1528              		.loc 1 1656 0
 1529 0020 44F2F563 		movw	r3, #:lower16:1073759989
 1530 0024 C4F20003 		movt	r3, #:upper16:1073759989
 1531 0028 44F2F562 		movw	r2, #:lower16:1073759989
 1532 002c C4F20002 		movt	r2, #:upper16:1073759989
 1533 0030 1278     		ldrb	r2, [r2, #0]
 1534 0032 D2B2     		uxtb	r2, r2
 1535 0034 02F0F802 		and	r2, r2, #248
 1536 0038 1A70     		strb	r2, [r3, #0]
1657:.\Generated_Source\PSoC5/cyPm.c **** 
1658:.\Generated_Source\PSoC5/cyPm.c ****     /* Device is PSoC 5 and the revision is ES1 */
1659:.\Generated_Source\PSoC5/cyPm.c ****     #if(CY_PSOC5_ES1)
1660:.\Generated_Source\PSoC5/cyPm.c **** 
1661:.\Generated_Source\PSoC5/cyPm.c ****         /* Save CMP routing registers */
1662:.\Generated_Source\PSoC5/cyPm.c ****         cyPmBackup.cmpData[0u]  = CY_GET_REG8(CYREG_CMP0_SW0);
 1537              		.loc 1 1662 0
 1538 003a 45F6C023 		movw	r3, #:lower16:1073765056
 1539 003e C4F20003 		movt	r3, #:upper16:1073765056
 1540 0042 1B78     		ldrb	r3, [r3, #0]
 1541 0044 DAB2     		uxtb	r2, r3
 1542 0046 40F20003 		movw	r3, #:lower16:cyPmBackup
 1543 004a C0F20003 		movt	r3, #:upper16:cyPmBackup
 1544 004e 83F82120 		strb	r2, [r3, #33]
1663:.\Generated_Source\PSoC5/cyPm.c ****         cyPmBackup.cmpData[1u]  = CY_GET_REG8(CYREG_CMP0_SW2);
 1545              		.loc 1 1663 0
 1546 0052 45F6C223 		movw	r3, #:lower16:1073765058
 1547 0056 C4F20003 		movt	r3, #:upper16:1073765058
 1548 005a 1B78     		ldrb	r3, [r3, #0]
 1549 005c DAB2     		uxtb	r2, r3
 1550 005e 40F20003 		movw	r3, #:lower16:cyPmBackup
 1551 0062 C0F20003 		movt	r3, #:upper16:cyPmBackup
 1552 0066 83F82220 		strb	r2, [r3, #34]
1664:.\Generated_Source\PSoC5/cyPm.c ****         cyPmBackup.cmpData[2u]  = CY_GET_REG8(CYREG_CMP0_SW3);
 1553              		.loc 1 1664 0
 1554 006a 45F6C323 		movw	r3, #:lower16:1073765059
 1555 006e C4F20003 		movt	r3, #:upper16:1073765059
 1556 0072 1B78     		ldrb	r3, [r3, #0]
 1557 0074 DAB2     		uxtb	r2, r3
 1558 0076 40F20003 		movw	r3, #:lower16:cyPmBackup
 1559 007a C0F20003 		movt	r3, #:upper16:cyPmBackup
 1560 007e 83F82320 		strb	r2, [r3, #35]
1665:.\Generated_Source\PSoC5/cyPm.c ****         cyPmBackup.cmpData[3u]  = CY_GET_REG8(CYREG_CMP0_SW4);
 1561              		.loc 1 1665 0
 1562 0082 45F6C423 		movw	r3, #:lower16:1073765060
 1563 0086 C4F20003 		movt	r3, #:upper16:1073765060
 1564 008a 1B78     		ldrb	r3, [r3, #0]
 1565 008c DAB2     		uxtb	r2, r3
 1566 008e 40F20003 		movw	r3, #:lower16:cyPmBackup
 1567 0092 C0F20003 		movt	r3, #:upper16:cyPmBackup
 1568 0096 83F82420 		strb	r2, [r3, #36]
1666:.\Generated_Source\PSoC5/cyPm.c ****         cyPmBackup.cmpData[4u]  = CY_GET_REG8(CYREG_CMP0_SW6);
 1569              		.loc 1 1666 0
 1570 009a 45F6C623 		movw	r3, #:lower16:1073765062
 1571 009e C4F20003 		movt	r3, #:upper16:1073765062
 1572 00a2 1B78     		ldrb	r3, [r3, #0]
ARM GAS  C:\Users\Geo\AppData\Local\Temp\ccKuRrRd.s 			page 58


 1573 00a4 DAB2     		uxtb	r2, r3
 1574 00a6 40F20003 		movw	r3, #:lower16:cyPmBackup
 1575 00aa C0F20003 		movt	r3, #:upper16:cyPmBackup
 1576 00ae 83F82520 		strb	r2, [r3, #37]
1667:.\Generated_Source\PSoC5/cyPm.c **** 
1668:.\Generated_Source\PSoC5/cyPm.c ****         cyPmBackup.cmpData[5u]  = CY_GET_REG8(CYREG_CMP1_SW0);
 1577              		.loc 1 1668 0
 1578 00b2 45F6C823 		movw	r3, #:lower16:1073765064
 1579 00b6 C4F20003 		movt	r3, #:upper16:1073765064
 1580 00ba 1B78     		ldrb	r3, [r3, #0]
 1581 00bc DAB2     		uxtb	r2, r3
 1582 00be 40F20003 		movw	r3, #:lower16:cyPmBackup
 1583 00c2 C0F20003 		movt	r3, #:upper16:cyPmBackup
 1584 00c6 83F82620 		strb	r2, [r3, #38]
1669:.\Generated_Source\PSoC5/cyPm.c ****         cyPmBackup.cmpData[6u]  = CY_GET_REG8(CYREG_CMP1_SW2);
 1585              		.loc 1 1669 0
 1586 00ca 45F6CA23 		movw	r3, #:lower16:1073765066
 1587 00ce C4F20003 		movt	r3, #:upper16:1073765066
 1588 00d2 1B78     		ldrb	r3, [r3, #0]
 1589 00d4 DAB2     		uxtb	r2, r3
 1590 00d6 40F20003 		movw	r3, #:lower16:cyPmBackup
 1591 00da C0F20003 		movt	r3, #:upper16:cyPmBackup
 1592 00de 83F82720 		strb	r2, [r3, #39]
1670:.\Generated_Source\PSoC5/cyPm.c ****         cyPmBackup.cmpData[7u]  = CY_GET_REG8(CYREG_CMP1_SW3);
 1593              		.loc 1 1670 0
 1594 00e2 45F6CB23 		movw	r3, #:lower16:1073765067
 1595 00e6 C4F20003 		movt	r3, #:upper16:1073765067
 1596 00ea 1B78     		ldrb	r3, [r3, #0]
 1597 00ec DAB2     		uxtb	r2, r3
 1598 00ee 40F20003 		movw	r3, #:lower16:cyPmBackup
 1599 00f2 C0F20003 		movt	r3, #:upper16:cyPmBackup
 1600 00f6 83F82820 		strb	r2, [r3, #40]
1671:.\Generated_Source\PSoC5/cyPm.c ****         cyPmBackup.cmpData[8u]  = CY_GET_REG8(CYREG_CMP1_SW4);
 1601              		.loc 1 1671 0
 1602 00fa 45F6CC23 		movw	r3, #:lower16:1073765068
 1603 00fe C4F20003 		movt	r3, #:upper16:1073765068
 1604 0102 1B78     		ldrb	r3, [r3, #0]
 1605 0104 DAB2     		uxtb	r2, r3
 1606 0106 40F20003 		movw	r3, #:lower16:cyPmBackup
 1607 010a C0F20003 		movt	r3, #:upper16:cyPmBackup
 1608 010e 83F82920 		strb	r2, [r3, #41]
1672:.\Generated_Source\PSoC5/cyPm.c ****         cyPmBackup.cmpData[9u]  = CY_GET_REG8(CYREG_CMP1_SW6);
 1609              		.loc 1 1672 0
 1610 0112 45F6CE23 		movw	r3, #:lower16:1073765070
 1611 0116 C4F20003 		movt	r3, #:upper16:1073765070
 1612 011a 1B78     		ldrb	r3, [r3, #0]
 1613 011c DAB2     		uxtb	r2, r3
 1614 011e 40F20003 		movw	r3, #:lower16:cyPmBackup
 1615 0122 C0F20003 		movt	r3, #:upper16:cyPmBackup
 1616 0126 83F82A20 		strb	r2, [r3, #42]
1673:.\Generated_Source\PSoC5/cyPm.c **** 
1674:.\Generated_Source\PSoC5/cyPm.c ****         cyPmBackup.cmpData[10u] = CY_GET_REG8(CYREG_CMP2_SW0);
 1617              		.loc 1 1674 0
 1618 012a 45F6D023 		movw	r3, #:lower16:1073765072
 1619 012e C4F20003 		movt	r3, #:upper16:1073765072
 1620 0132 1B78     		ldrb	r3, [r3, #0]
 1621 0134 DAB2     		uxtb	r2, r3
ARM GAS  C:\Users\Geo\AppData\Local\Temp\ccKuRrRd.s 			page 59


 1622 0136 40F20003 		movw	r3, #:lower16:cyPmBackup
 1623 013a C0F20003 		movt	r3, #:upper16:cyPmBackup
 1624 013e 83F82B20 		strb	r2, [r3, #43]
1675:.\Generated_Source\PSoC5/cyPm.c ****         cyPmBackup.cmpData[11u] = CY_GET_REG8(CYREG_CMP2_SW2);
 1625              		.loc 1 1675 0
 1626 0142 45F6D223 		movw	r3, #:lower16:1073765074
 1627 0146 C4F20003 		movt	r3, #:upper16:1073765074
 1628 014a 1B78     		ldrb	r3, [r3, #0]
 1629 014c DAB2     		uxtb	r2, r3
 1630 014e 40F20003 		movw	r3, #:lower16:cyPmBackup
 1631 0152 C0F20003 		movt	r3, #:upper16:cyPmBackup
 1632 0156 83F82C20 		strb	r2, [r3, #44]
1676:.\Generated_Source\PSoC5/cyPm.c ****         cyPmBackup.cmpData[12u] = CY_GET_REG8(CYREG_CMP2_SW3);
 1633              		.loc 1 1676 0
 1634 015a 45F6D323 		movw	r3, #:lower16:1073765075
 1635 015e C4F20003 		movt	r3, #:upper16:1073765075
 1636 0162 1B78     		ldrb	r3, [r3, #0]
 1637 0164 DAB2     		uxtb	r2, r3
 1638 0166 40F20003 		movw	r3, #:lower16:cyPmBackup
 1639 016a C0F20003 		movt	r3, #:upper16:cyPmBackup
 1640 016e 83F82D20 		strb	r2, [r3, #45]
1677:.\Generated_Source\PSoC5/cyPm.c ****         cyPmBackup.cmpData[13u] = CY_GET_REG8(CYREG_CMP2_SW4);
 1641              		.loc 1 1677 0
 1642 0172 45F6D423 		movw	r3, #:lower16:1073765076
 1643 0176 C4F20003 		movt	r3, #:upper16:1073765076
 1644 017a 1B78     		ldrb	r3, [r3, #0]
 1645 017c DAB2     		uxtb	r2, r3
 1646 017e 40F20003 		movw	r3, #:lower16:cyPmBackup
 1647 0182 C0F20003 		movt	r3, #:upper16:cyPmBackup
 1648 0186 83F82E20 		strb	r2, [r3, #46]
1678:.\Generated_Source\PSoC5/cyPm.c ****         cyPmBackup.cmpData[14u] = CY_GET_REG8(CYREG_CMP2_SW6);
 1649              		.loc 1 1678 0
 1650 018a 45F6D623 		movw	r3, #:lower16:1073765078
 1651 018e C4F20003 		movt	r3, #:upper16:1073765078
 1652 0192 1B78     		ldrb	r3, [r3, #0]
 1653 0194 DAB2     		uxtb	r2, r3
 1654 0196 40F20003 		movw	r3, #:lower16:cyPmBackup
 1655 019a C0F20003 		movt	r3, #:upper16:cyPmBackup
 1656 019e 83F82F20 		strb	r2, [r3, #47]
1679:.\Generated_Source\PSoC5/cyPm.c **** 
1680:.\Generated_Source\PSoC5/cyPm.c ****         cyPmBackup.cmpData[15u] = CY_GET_REG8(CYREG_CMP3_SW0);
 1657              		.loc 1 1680 0
 1658 01a2 45F6D823 		movw	r3, #:lower16:1073765080
 1659 01a6 C4F20003 		movt	r3, #:upper16:1073765080
 1660 01aa 1B78     		ldrb	r3, [r3, #0]
 1661 01ac DAB2     		uxtb	r2, r3
 1662 01ae 40F20003 		movw	r3, #:lower16:cyPmBackup
 1663 01b2 C0F20003 		movt	r3, #:upper16:cyPmBackup
 1664 01b6 83F83020 		strb	r2, [r3, #48]
1681:.\Generated_Source\PSoC5/cyPm.c ****         cyPmBackup.cmpData[16u] = CY_GET_REG8(CYREG_CMP3_SW2);
 1665              		.loc 1 1681 0
 1666 01ba 45F6DA23 		movw	r3, #:lower16:1073765082
 1667 01be C4F20003 		movt	r3, #:upper16:1073765082
 1668 01c2 1B78     		ldrb	r3, [r3, #0]
 1669 01c4 DAB2     		uxtb	r2, r3
 1670 01c6 40F20003 		movw	r3, #:lower16:cyPmBackup
 1671 01ca C0F20003 		movt	r3, #:upper16:cyPmBackup
ARM GAS  C:\Users\Geo\AppData\Local\Temp\ccKuRrRd.s 			page 60


 1672 01ce 83F83120 		strb	r2, [r3, #49]
1682:.\Generated_Source\PSoC5/cyPm.c ****         cyPmBackup.cmpData[17u] = CY_GET_REG8(CYREG_CMP3_SW3);
 1673              		.loc 1 1682 0
 1674 01d2 45F6DB23 		movw	r3, #:lower16:1073765083
 1675 01d6 C4F20003 		movt	r3, #:upper16:1073765083
 1676 01da 1B78     		ldrb	r3, [r3, #0]
 1677 01dc DAB2     		uxtb	r2, r3
 1678 01de 40F20003 		movw	r3, #:lower16:cyPmBackup
 1679 01e2 C0F20003 		movt	r3, #:upper16:cyPmBackup
 1680 01e6 83F83220 		strb	r2, [r3, #50]
1683:.\Generated_Source\PSoC5/cyPm.c ****         cyPmBackup.cmpData[18u] = CY_GET_REG8(CYREG_CMP3_SW4);
 1681              		.loc 1 1683 0
 1682 01ea 45F6DC23 		movw	r3, #:lower16:1073765084
 1683 01ee C4F20003 		movt	r3, #:upper16:1073765084
 1684 01f2 1B78     		ldrb	r3, [r3, #0]
 1685 01f4 DAB2     		uxtb	r2, r3
 1686 01f6 40F20003 		movw	r3, #:lower16:cyPmBackup
 1687 01fa C0F20003 		movt	r3, #:upper16:cyPmBackup
 1688 01fe 83F83320 		strb	r2, [r3, #51]
1684:.\Generated_Source\PSoC5/cyPm.c ****         cyPmBackup.cmpData[19u] = CY_GET_REG8(CYREG_CMP3_SW6);
 1689              		.loc 1 1684 0
 1690 0202 45F6DE23 		movw	r3, #:lower16:1073765086
 1691 0206 C4F20003 		movt	r3, #:upper16:1073765086
 1692 020a 1B78     		ldrb	r3, [r3, #0]
 1693 020c DAB2     		uxtb	r2, r3
 1694 020e 40F20003 		movw	r3, #:lower16:cyPmBackup
 1695 0212 C0F20003 		movt	r3, #:upper16:cyPmBackup
 1696 0216 83F83420 		strb	r2, [r3, #52]
1685:.\Generated_Source\PSoC5/cyPm.c **** 
1686:.\Generated_Source\PSoC5/cyPm.c **** 
1687:.\Generated_Source\PSoC5/cyPm.c ****         /* Clear CMP routing registers */
1688:.\Generated_Source\PSoC5/cyPm.c ****         CY_SET_REG8(CYREG_CMP0_SW0 , 0u);
 1697              		.loc 1 1688 0
 1698 021a 45F6C023 		movw	r3, #:lower16:1073765056
 1699 021e C4F20003 		movt	r3, #:upper16:1073765056
 1700 0222 4FF00002 		mov	r2, #0
 1701 0226 1A70     		strb	r2, [r3, #0]
1689:.\Generated_Source\PSoC5/cyPm.c ****         CY_SET_REG8(CYREG_CMP0_SW2 , 0u);
 1702              		.loc 1 1689 0
 1703 0228 45F6C223 		movw	r3, #:lower16:1073765058
 1704 022c C4F20003 		movt	r3, #:upper16:1073765058
 1705 0230 4FF00002 		mov	r2, #0
 1706 0234 1A70     		strb	r2, [r3, #0]
1690:.\Generated_Source\PSoC5/cyPm.c ****         CY_SET_REG8(CYREG_CMP0_SW3 , 0u);
 1707              		.loc 1 1690 0
 1708 0236 45F6C323 		movw	r3, #:lower16:1073765059
 1709 023a C4F20003 		movt	r3, #:upper16:1073765059
 1710 023e 4FF00002 		mov	r2, #0
 1711 0242 1A70     		strb	r2, [r3, #0]
1691:.\Generated_Source\PSoC5/cyPm.c ****         CY_SET_REG8(CYREG_CMP0_SW4 , 0u);
 1712              		.loc 1 1691 0
 1713 0244 45F6C423 		movw	r3, #:lower16:1073765060
 1714 0248 C4F20003 		movt	r3, #:upper16:1073765060
 1715 024c 4FF00002 		mov	r2, #0
 1716 0250 1A70     		strb	r2, [r3, #0]
1692:.\Generated_Source\PSoC5/cyPm.c ****         CY_SET_REG8(CYREG_CMP0_SW6 , 0u);
 1717              		.loc 1 1692 0
ARM GAS  C:\Users\Geo\AppData\Local\Temp\ccKuRrRd.s 			page 61


 1718 0252 45F6C623 		movw	r3, #:lower16:1073765062
 1719 0256 C4F20003 		movt	r3, #:upper16:1073765062
 1720 025a 4FF00002 		mov	r2, #0
 1721 025e 1A70     		strb	r2, [r3, #0]
1693:.\Generated_Source\PSoC5/cyPm.c **** 
1694:.\Generated_Source\PSoC5/cyPm.c ****         CY_SET_REG8(CYREG_CMP1_SW0 , 0u);
 1722              		.loc 1 1694 0
 1723 0260 45F6C823 		movw	r3, #:lower16:1073765064
 1724 0264 C4F20003 		movt	r3, #:upper16:1073765064
 1725 0268 4FF00002 		mov	r2, #0
 1726 026c 1A70     		strb	r2, [r3, #0]
1695:.\Generated_Source\PSoC5/cyPm.c ****         CY_SET_REG8(CYREG_CMP1_SW2 , 0u);
 1727              		.loc 1 1695 0
 1728 026e 45F6CA23 		movw	r3, #:lower16:1073765066
 1729 0272 C4F20003 		movt	r3, #:upper16:1073765066
 1730 0276 4FF00002 		mov	r2, #0
 1731 027a 1A70     		strb	r2, [r3, #0]
1696:.\Generated_Source\PSoC5/cyPm.c ****         CY_SET_REG8(CYREG_CMP1_SW3 , 0u);
 1732              		.loc 1 1696 0
 1733 027c 45F6CB23 		movw	r3, #:lower16:1073765067
 1734 0280 C4F20003 		movt	r3, #:upper16:1073765067
 1735 0284 4FF00002 		mov	r2, #0
 1736 0288 1A70     		strb	r2, [r3, #0]
1697:.\Generated_Source\PSoC5/cyPm.c ****         CY_SET_REG8(CYREG_CMP1_SW4 , 0u);
 1737              		.loc 1 1697 0
 1738 028a 45F6CC23 		movw	r3, #:lower16:1073765068
 1739 028e C4F20003 		movt	r3, #:upper16:1073765068
 1740 0292 4FF00002 		mov	r2, #0
 1741 0296 1A70     		strb	r2, [r3, #0]
1698:.\Generated_Source\PSoC5/cyPm.c ****         CY_SET_REG8(CYREG_CMP1_SW6 , 0u);
 1742              		.loc 1 1698 0
 1743 0298 45F6CE23 		movw	r3, #:lower16:1073765070
 1744 029c C4F20003 		movt	r3, #:upper16:1073765070
 1745 02a0 4FF00002 		mov	r2, #0
 1746 02a4 1A70     		strb	r2, [r3, #0]
1699:.\Generated_Source\PSoC5/cyPm.c **** 
1700:.\Generated_Source\PSoC5/cyPm.c ****         CY_SET_REG8(CYREG_CMP2_SW0 , 0u);
 1747              		.loc 1 1700 0
 1748 02a6 45F6D023 		movw	r3, #:lower16:1073765072
 1749 02aa C4F20003 		movt	r3, #:upper16:1073765072
 1750 02ae 4FF00002 		mov	r2, #0
 1751 02b2 1A70     		strb	r2, [r3, #0]
1701:.\Generated_Source\PSoC5/cyPm.c ****         CY_SET_REG8(CYREG_CMP2_SW2 , 0u);
 1752              		.loc 1 1701 0
 1753 02b4 45F6D223 		movw	r3, #:lower16:1073765074
 1754 02b8 C4F20003 		movt	r3, #:upper16:1073765074
 1755 02bc 4FF00002 		mov	r2, #0
 1756 02c0 1A70     		strb	r2, [r3, #0]
1702:.\Generated_Source\PSoC5/cyPm.c ****         CY_SET_REG8(CYREG_CMP2_SW3 , 0u);
 1757              		.loc 1 1702 0
 1758 02c2 45F6D323 		movw	r3, #:lower16:1073765075
 1759 02c6 C4F20003 		movt	r3, #:upper16:1073765075
 1760 02ca 4FF00002 		mov	r2, #0
 1761 02ce 1A70     		strb	r2, [r3, #0]
1703:.\Generated_Source\PSoC5/cyPm.c ****         CY_SET_REG8(CYREG_CMP2_SW4 , 0u);
 1762              		.loc 1 1703 0
 1763 02d0 45F6D423 		movw	r3, #:lower16:1073765076
ARM GAS  C:\Users\Geo\AppData\Local\Temp\ccKuRrRd.s 			page 62


 1764 02d4 C4F20003 		movt	r3, #:upper16:1073765076
 1765 02d8 4FF00002 		mov	r2, #0
 1766 02dc 1A70     		strb	r2, [r3, #0]
1704:.\Generated_Source\PSoC5/cyPm.c ****         CY_SET_REG8(CYREG_CMP2_SW6 , 0u);
 1767              		.loc 1 1704 0
 1768 02de 45F6D623 		movw	r3, #:lower16:1073765078
 1769 02e2 C4F20003 		movt	r3, #:upper16:1073765078
 1770 02e6 4FF00002 		mov	r2, #0
 1771 02ea 1A70     		strb	r2, [r3, #0]
1705:.\Generated_Source\PSoC5/cyPm.c **** 
1706:.\Generated_Source\PSoC5/cyPm.c ****         CY_SET_REG8(CYREG_CMP3_SW0 , 0u);
 1772              		.loc 1 1706 0
 1773 02ec 45F6D823 		movw	r3, #:lower16:1073765080
 1774 02f0 C4F20003 		movt	r3, #:upper16:1073765080
 1775 02f4 4FF00002 		mov	r2, #0
 1776 02f8 1A70     		strb	r2, [r3, #0]
1707:.\Generated_Source\PSoC5/cyPm.c ****         CY_SET_REG8(CYREG_CMP3_SW2 , 0u);
 1777              		.loc 1 1707 0
 1778 02fa 45F6DA23 		movw	r3, #:lower16:1073765082
 1779 02fe C4F20003 		movt	r3, #:upper16:1073765082
 1780 0302 4FF00002 		mov	r2, #0
 1781 0306 1A70     		strb	r2, [r3, #0]
1708:.\Generated_Source\PSoC5/cyPm.c ****         CY_SET_REG8(CYREG_CMP3_SW3 , 0u);
 1782              		.loc 1 1708 0
 1783 0308 45F6DB23 		movw	r3, #:lower16:1073765083
 1784 030c C4F20003 		movt	r3, #:upper16:1073765083
 1785 0310 4FF00002 		mov	r2, #0
 1786 0314 1A70     		strb	r2, [r3, #0]
1709:.\Generated_Source\PSoC5/cyPm.c ****         CY_SET_REG8(CYREG_CMP3_SW4 , 0u);
 1787              		.loc 1 1709 0
 1788 0316 45F6DC23 		movw	r3, #:lower16:1073765084
 1789 031a C4F20003 		movt	r3, #:upper16:1073765084
 1790 031e 4FF00002 		mov	r2, #0
 1791 0322 1A70     		strb	r2, [r3, #0]
1710:.\Generated_Source\PSoC5/cyPm.c ****         CY_SET_REG8(CYREG_CMP3_SW6 , 0u);
 1792              		.loc 1 1710 0
 1793 0324 45F6DE23 		movw	r3, #:lower16:1073765086
 1794 0328 C4F20003 		movt	r3, #:upper16:1073765086
 1795 032c 4FF00002 		mov	r2, #0
 1796 0330 1A70     		strb	r2, [r3, #0]
1711:.\Generated_Source\PSoC5/cyPm.c **** 
1712:.\Generated_Source\PSoC5/cyPm.c **** 
1713:.\Generated_Source\PSoC5/cyPm.c ****         /* Save DAC routing registers */
1714:.\Generated_Source\PSoC5/cyPm.c ****         cyPmBackup.dacData[0u]  = CY_GET_REG8(CYREG_DAC0_SW0);
 1797              		.loc 1 1714 0
 1798 0332 45F68023 		movw	r3, #:lower16:1073764992
 1799 0336 C4F20003 		movt	r3, #:upper16:1073764992
 1800 033a 1B78     		ldrb	r3, [r3, #0]
 1801 033c DAB2     		uxtb	r2, r3
 1802 033e 40F20003 		movw	r3, #:lower16:cyPmBackup
 1803 0342 C0F20003 		movt	r3, #:upper16:cyPmBackup
 1804 0346 83F83520 		strb	r2, [r3, #53]
1715:.\Generated_Source\PSoC5/cyPm.c ****         cyPmBackup.dacData[1u]  = CY_GET_REG8(CYREG_DAC0_SW2);
 1805              		.loc 1 1715 0
 1806 034a 45F68223 		movw	r3, #:lower16:1073764994
 1807 034e C4F20003 		movt	r3, #:upper16:1073764994
 1808 0352 1B78     		ldrb	r3, [r3, #0]
ARM GAS  C:\Users\Geo\AppData\Local\Temp\ccKuRrRd.s 			page 63


 1809 0354 DAB2     		uxtb	r2, r3
 1810 0356 40F20003 		movw	r3, #:lower16:cyPmBackup
 1811 035a C0F20003 		movt	r3, #:upper16:cyPmBackup
 1812 035e 83F83620 		strb	r2, [r3, #54]
1716:.\Generated_Source\PSoC5/cyPm.c ****         cyPmBackup.dacData[2u]  = CY_GET_REG8(CYREG_DAC0_SW3);
 1813              		.loc 1 1716 0
 1814 0362 45F68323 		movw	r3, #:lower16:1073764995
 1815 0366 C4F20003 		movt	r3, #:upper16:1073764995
 1816 036a 1B78     		ldrb	r3, [r3, #0]
 1817 036c DAB2     		uxtb	r2, r3
 1818 036e 40F20003 		movw	r3, #:lower16:cyPmBackup
 1819 0372 C0F20003 		movt	r3, #:upper16:cyPmBackup
 1820 0376 83F83720 		strb	r2, [r3, #55]
1717:.\Generated_Source\PSoC5/cyPm.c ****         cyPmBackup.dacData[3u]  = CY_GET_REG8(CYREG_DAC0_SW4);
 1821              		.loc 1 1717 0
 1822 037a 45F68423 		movw	r3, #:lower16:1073764996
 1823 037e C4F20003 		movt	r3, #:upper16:1073764996
 1824 0382 1B78     		ldrb	r3, [r3, #0]
 1825 0384 DAB2     		uxtb	r2, r3
 1826 0386 40F20003 		movw	r3, #:lower16:cyPmBackup
 1827 038a C0F20003 		movt	r3, #:upper16:cyPmBackup
 1828 038e 83F83820 		strb	r2, [r3, #56]
1718:.\Generated_Source\PSoC5/cyPm.c **** 
1719:.\Generated_Source\PSoC5/cyPm.c ****         cyPmBackup.dacData[4u]  = CY_GET_REG8(CYREG_DAC1_SW0);
 1829              		.loc 1 1719 0
 1830 0392 45F68823 		movw	r3, #:lower16:1073765000
 1831 0396 C4F20003 		movt	r3, #:upper16:1073765000
 1832 039a 1B78     		ldrb	r3, [r3, #0]
 1833 039c DAB2     		uxtb	r2, r3
 1834 039e 40F20003 		movw	r3, #:lower16:cyPmBackup
 1835 03a2 C0F20003 		movt	r3, #:upper16:cyPmBackup
 1836 03a6 83F83920 		strb	r2, [r3, #57]
1720:.\Generated_Source\PSoC5/cyPm.c ****         cyPmBackup.dacData[5u]  = CY_GET_REG8(CYREG_DAC1_SW2);
 1837              		.loc 1 1720 0
 1838 03aa 45F68A23 		movw	r3, #:lower16:1073765002
 1839 03ae C4F20003 		movt	r3, #:upper16:1073765002
 1840 03b2 1B78     		ldrb	r3, [r3, #0]
 1841 03b4 DAB2     		uxtb	r2, r3
 1842 03b6 40F20003 		movw	r3, #:lower16:cyPmBackup
 1843 03ba C0F20003 		movt	r3, #:upper16:cyPmBackup
 1844 03be 83F83A20 		strb	r2, [r3, #58]
1721:.\Generated_Source\PSoC5/cyPm.c ****         cyPmBackup.dacData[6u]  = CY_GET_REG8(CYREG_DAC1_SW3);
 1845              		.loc 1 1721 0
 1846 03c2 45F68B23 		movw	r3, #:lower16:1073765003
 1847 03c6 C4F20003 		movt	r3, #:upper16:1073765003
 1848 03ca 1B78     		ldrb	r3, [r3, #0]
 1849 03cc DAB2     		uxtb	r2, r3
 1850 03ce 40F20003 		movw	r3, #:lower16:cyPmBackup
 1851 03d2 C0F20003 		movt	r3, #:upper16:cyPmBackup
 1852 03d6 83F83B20 		strb	r2, [r3, #59]
1722:.\Generated_Source\PSoC5/cyPm.c ****         cyPmBackup.dacData[7u]  = CY_GET_REG8(CYREG_DAC1_SW4);
 1853              		.loc 1 1722 0
 1854 03da 45F68C23 		movw	r3, #:lower16:1073765004
 1855 03de C4F20003 		movt	r3, #:upper16:1073765004
 1856 03e2 1B78     		ldrb	r3, [r3, #0]
 1857 03e4 DAB2     		uxtb	r2, r3
 1858 03e6 40F20003 		movw	r3, #:lower16:cyPmBackup
ARM GAS  C:\Users\Geo\AppData\Local\Temp\ccKuRrRd.s 			page 64


 1859 03ea C0F20003 		movt	r3, #:upper16:cyPmBackup
 1860 03ee 83F83C20 		strb	r2, [r3, #60]
1723:.\Generated_Source\PSoC5/cyPm.c **** 
1724:.\Generated_Source\PSoC5/cyPm.c ****         cyPmBackup.dacData[8u]  = CY_GET_REG8(CYREG_DAC2_SW0);
 1861              		.loc 1 1724 0
 1862 03f2 45F69023 		movw	r3, #:lower16:1073765008
 1863 03f6 C4F20003 		movt	r3, #:upper16:1073765008
 1864 03fa 1B78     		ldrb	r3, [r3, #0]
 1865 03fc DAB2     		uxtb	r2, r3
 1866 03fe 40F20003 		movw	r3, #:lower16:cyPmBackup
 1867 0402 C0F20003 		movt	r3, #:upper16:cyPmBackup
 1868 0406 83F83D20 		strb	r2, [r3, #61]
1725:.\Generated_Source\PSoC5/cyPm.c ****         cyPmBackup.dacData[9u]  = CY_GET_REG8(CYREG_DAC2_SW2);
 1869              		.loc 1 1725 0
 1870 040a 45F69223 		movw	r3, #:lower16:1073765010
 1871 040e C4F20003 		movt	r3, #:upper16:1073765010
 1872 0412 1B78     		ldrb	r3, [r3, #0]
 1873 0414 DAB2     		uxtb	r2, r3
 1874 0416 40F20003 		movw	r3, #:lower16:cyPmBackup
 1875 041a C0F20003 		movt	r3, #:upper16:cyPmBackup
 1876 041e 83F83E20 		strb	r2, [r3, #62]
1726:.\Generated_Source\PSoC5/cyPm.c ****         cyPmBackup.dacData[10u] = CY_GET_REG8(CYREG_DAC2_SW3);
 1877              		.loc 1 1726 0
 1878 0422 45F69323 		movw	r3, #:lower16:1073765011
 1879 0426 C4F20003 		movt	r3, #:upper16:1073765011
 1880 042a 1B78     		ldrb	r3, [r3, #0]
 1881 042c DAB2     		uxtb	r2, r3
 1882 042e 40F20003 		movw	r3, #:lower16:cyPmBackup
 1883 0432 C0F20003 		movt	r3, #:upper16:cyPmBackup
 1884 0436 83F83F20 		strb	r2, [r3, #63]
1727:.\Generated_Source\PSoC5/cyPm.c ****         cyPmBackup.dacData[11u] = CY_GET_REG8(CYREG_DAC2_SW4);
 1885              		.loc 1 1727 0
 1886 043a 45F69423 		movw	r3, #:lower16:1073765012
 1887 043e C4F20003 		movt	r3, #:upper16:1073765012
 1888 0442 1B78     		ldrb	r3, [r3, #0]
 1889 0444 DAB2     		uxtb	r2, r3
 1890 0446 40F20003 		movw	r3, #:lower16:cyPmBackup
 1891 044a C0F20003 		movt	r3, #:upper16:cyPmBackup
 1892 044e 83F84020 		strb	r2, [r3, #64]
1728:.\Generated_Source\PSoC5/cyPm.c **** 
1729:.\Generated_Source\PSoC5/cyPm.c ****         cyPmBackup.dacData[12u] = CY_GET_REG8(CYREG_DAC3_SW0);
 1893              		.loc 1 1729 0
 1894 0452 45F69823 		movw	r3, #:lower16:1073765016
 1895 0456 C4F20003 		movt	r3, #:upper16:1073765016
 1896 045a 1B78     		ldrb	r3, [r3, #0]
 1897 045c DAB2     		uxtb	r2, r3
 1898 045e 40F20003 		movw	r3, #:lower16:cyPmBackup
 1899 0462 C0F20003 		movt	r3, #:upper16:cyPmBackup
 1900 0466 83F84120 		strb	r2, [r3, #65]
1730:.\Generated_Source\PSoC5/cyPm.c ****         cyPmBackup.dacData[13u] = CY_GET_REG8(CYREG_DAC3_SW2);
 1901              		.loc 1 1730 0
 1902 046a 45F69A23 		movw	r3, #:lower16:1073765018
 1903 046e C4F20003 		movt	r3, #:upper16:1073765018
 1904 0472 1B78     		ldrb	r3, [r3, #0]
 1905 0474 DAB2     		uxtb	r2, r3
 1906 0476 40F20003 		movw	r3, #:lower16:cyPmBackup
 1907 047a C0F20003 		movt	r3, #:upper16:cyPmBackup
ARM GAS  C:\Users\Geo\AppData\Local\Temp\ccKuRrRd.s 			page 65


 1908 047e 83F84220 		strb	r2, [r3, #66]
1731:.\Generated_Source\PSoC5/cyPm.c ****         cyPmBackup.dacData[14u] = CY_GET_REG8(CYREG_DAC3_SW3);
 1909              		.loc 1 1731 0
 1910 0482 45F69B23 		movw	r3, #:lower16:1073765019
 1911 0486 C4F20003 		movt	r3, #:upper16:1073765019
 1912 048a 1B78     		ldrb	r3, [r3, #0]
 1913 048c DAB2     		uxtb	r2, r3
 1914 048e 40F20003 		movw	r3, #:lower16:cyPmBackup
 1915 0492 C0F20003 		movt	r3, #:upper16:cyPmBackup
 1916 0496 83F84320 		strb	r2, [r3, #67]
1732:.\Generated_Source\PSoC5/cyPm.c ****         cyPmBackup.dacData[15u] = CY_GET_REG8(CYREG_DAC3_SW4);
 1917              		.loc 1 1732 0
 1918 049a 45F69C23 		movw	r3, #:lower16:1073765020
 1919 049e C4F20003 		movt	r3, #:upper16:1073765020
 1920 04a2 1B78     		ldrb	r3, [r3, #0]
 1921 04a4 DAB2     		uxtb	r2, r3
 1922 04a6 40F20003 		movw	r3, #:lower16:cyPmBackup
 1923 04aa C0F20003 		movt	r3, #:upper16:cyPmBackup
 1924 04ae 83F84420 		strb	r2, [r3, #68]
1733:.\Generated_Source\PSoC5/cyPm.c **** 
1734:.\Generated_Source\PSoC5/cyPm.c ****         /* Clear DAC routing registers */
1735:.\Generated_Source\PSoC5/cyPm.c ****         CY_SET_REG8(CYREG_DAC0_SW0 , 0u);
 1925              		.loc 1 1735 0
 1926 04b2 45F68023 		movw	r3, #:lower16:1073764992
 1927 04b6 C4F20003 		movt	r3, #:upper16:1073764992
 1928 04ba 4FF00002 		mov	r2, #0
 1929 04be 1A70     		strb	r2, [r3, #0]
1736:.\Generated_Source\PSoC5/cyPm.c ****         CY_SET_REG8(CYREG_DAC0_SW2 , 0u);
 1930              		.loc 1 1736 0
 1931 04c0 45F68223 		movw	r3, #:lower16:1073764994
 1932 04c4 C4F20003 		movt	r3, #:upper16:1073764994
 1933 04c8 4FF00002 		mov	r2, #0
 1934 04cc 1A70     		strb	r2, [r3, #0]
1737:.\Generated_Source\PSoC5/cyPm.c ****         CY_SET_REG8(CYREG_DAC0_SW3 , 0u);
 1935              		.loc 1 1737 0
 1936 04ce 45F68323 		movw	r3, #:lower16:1073764995
 1937 04d2 C4F20003 		movt	r3, #:upper16:1073764995
 1938 04d6 4FF00002 		mov	r2, #0
 1939 04da 1A70     		strb	r2, [r3, #0]
1738:.\Generated_Source\PSoC5/cyPm.c ****         CY_SET_REG8(CYREG_DAC0_SW4 , 0u);
 1940              		.loc 1 1738 0
 1941 04dc 45F68423 		movw	r3, #:lower16:1073764996
 1942 04e0 C4F20003 		movt	r3, #:upper16:1073764996
 1943 04e4 4FF00002 		mov	r2, #0
 1944 04e8 1A70     		strb	r2, [r3, #0]
1739:.\Generated_Source\PSoC5/cyPm.c **** 
1740:.\Generated_Source\PSoC5/cyPm.c ****         CY_SET_REG8(CYREG_DAC1_SW0 , 0u);
 1945              		.loc 1 1740 0
 1946 04ea 45F68823 		movw	r3, #:lower16:1073765000
 1947 04ee C4F20003 		movt	r3, #:upper16:1073765000
 1948 04f2 4FF00002 		mov	r2, #0
 1949 04f6 1A70     		strb	r2, [r3, #0]
1741:.\Generated_Source\PSoC5/cyPm.c ****         CY_SET_REG8(CYREG_DAC1_SW2 , 0u);
 1950              		.loc 1 1741 0
 1951 04f8 45F68A23 		movw	r3, #:lower16:1073765002
 1952 04fc C4F20003 		movt	r3, #:upper16:1073765002
 1953 0500 4FF00002 		mov	r2, #0
ARM GAS  C:\Users\Geo\AppData\Local\Temp\ccKuRrRd.s 			page 66


 1954 0504 1A70     		strb	r2, [r3, #0]
1742:.\Generated_Source\PSoC5/cyPm.c ****         CY_SET_REG8(CYREG_DAC1_SW3 , 0u);
 1955              		.loc 1 1742 0
 1956 0506 45F68B23 		movw	r3, #:lower16:1073765003
 1957 050a C4F20003 		movt	r3, #:upper16:1073765003
 1958 050e 4FF00002 		mov	r2, #0
 1959 0512 1A70     		strb	r2, [r3, #0]
1743:.\Generated_Source\PSoC5/cyPm.c ****         CY_SET_REG8(CYREG_DAC1_SW4 , 0u);
 1960              		.loc 1 1743 0
 1961 0514 45F68C23 		movw	r3, #:lower16:1073765004
 1962 0518 C4F20003 		movt	r3, #:upper16:1073765004
 1963 051c 4FF00002 		mov	r2, #0
 1964 0520 1A70     		strb	r2, [r3, #0]
1744:.\Generated_Source\PSoC5/cyPm.c **** 
1745:.\Generated_Source\PSoC5/cyPm.c ****         CY_SET_REG8(CYREG_DAC2_SW0 , 0u);
 1965              		.loc 1 1745 0
 1966 0522 45F69023 		movw	r3, #:lower16:1073765008
 1967 0526 C4F20003 		movt	r3, #:upper16:1073765008
 1968 052a 4FF00002 		mov	r2, #0
 1969 052e 1A70     		strb	r2, [r3, #0]
1746:.\Generated_Source\PSoC5/cyPm.c ****         CY_SET_REG8(CYREG_DAC2_SW2 , 0u);
 1970              		.loc 1 1746 0
 1971 0530 45F69223 		movw	r3, #:lower16:1073765010
 1972 0534 C4F20003 		movt	r3, #:upper16:1073765010
 1973 0538 4FF00002 		mov	r2, #0
 1974 053c 1A70     		strb	r2, [r3, #0]
1747:.\Generated_Source\PSoC5/cyPm.c ****         CY_SET_REG8(CYREG_DAC2_SW3 , 0u);
 1975              		.loc 1 1747 0
 1976 053e 45F69323 		movw	r3, #:lower16:1073765011
 1977 0542 C4F20003 		movt	r3, #:upper16:1073765011
 1978 0546 4FF00002 		mov	r2, #0
 1979 054a 1A70     		strb	r2, [r3, #0]
1748:.\Generated_Source\PSoC5/cyPm.c ****         CY_SET_REG8(CYREG_DAC2_SW4 , 0u);
 1980              		.loc 1 1748 0
 1981 054c 45F69423 		movw	r3, #:lower16:1073765012
 1982 0550 C4F20003 		movt	r3, #:upper16:1073765012
 1983 0554 4FF00002 		mov	r2, #0
 1984 0558 1A70     		strb	r2, [r3, #0]
1749:.\Generated_Source\PSoC5/cyPm.c **** 
1750:.\Generated_Source\PSoC5/cyPm.c ****         CY_SET_REG8(CYREG_DAC3_SW0 , 0u);
 1985              		.loc 1 1750 0
 1986 055a 45F69823 		movw	r3, #:lower16:1073765016
 1987 055e C4F20003 		movt	r3, #:upper16:1073765016
 1988 0562 4FF00002 		mov	r2, #0
 1989 0566 1A70     		strb	r2, [r3, #0]
1751:.\Generated_Source\PSoC5/cyPm.c ****         CY_SET_REG8(CYREG_DAC3_SW2 , 0u);
 1990              		.loc 1 1751 0
 1991 0568 45F69A23 		movw	r3, #:lower16:1073765018
 1992 056c C4F20003 		movt	r3, #:upper16:1073765018
 1993 0570 4FF00002 		mov	r2, #0
 1994 0574 1A70     		strb	r2, [r3, #0]
1752:.\Generated_Source\PSoC5/cyPm.c ****         CY_SET_REG8(CYREG_DAC3_SW3 , 0u);
 1995              		.loc 1 1752 0
 1996 0576 45F69B23 		movw	r3, #:lower16:1073765019
 1997 057a C4F20003 		movt	r3, #:upper16:1073765019
 1998 057e 4FF00002 		mov	r2, #0
 1999 0582 1A70     		strb	r2, [r3, #0]
ARM GAS  C:\Users\Geo\AppData\Local\Temp\ccKuRrRd.s 			page 67


1753:.\Generated_Source\PSoC5/cyPm.c ****         CY_SET_REG8(CYREG_DAC3_SW4 , 0u);
 2000              		.loc 1 1753 0
 2001 0584 45F69C23 		movw	r3, #:lower16:1073765020
 2002 0588 C4F20003 		movt	r3, #:upper16:1073765020
 2003 058c 4FF00002 		mov	r2, #0
 2004 0590 1A70     		strb	r2, [r3, #0]
1754:.\Generated_Source\PSoC5/cyPm.c **** 
1755:.\Generated_Source\PSoC5/cyPm.c **** 
1756:.\Generated_Source\PSoC5/cyPm.c ****         /* Save DSM routing registers */
1757:.\Generated_Source\PSoC5/cyPm.c ****         cyPmBackup.dsmData[0u]  = CY_GET_REG8(CYREG_DSM0_SW0);
 2005              		.loc 1 1757 0
 2006 0592 45F60033 		movw	r3, #:lower16:1073765120
 2007 0596 C4F20003 		movt	r3, #:upper16:1073765120
 2008 059a 1B78     		ldrb	r3, [r3, #0]
 2009 059c DAB2     		uxtb	r2, r3
 2010 059e 40F20003 		movw	r3, #:lower16:cyPmBackup
 2011 05a2 C0F20003 		movt	r3, #:upper16:cyPmBackup
 2012 05a6 83F84520 		strb	r2, [r3, #69]
1758:.\Generated_Source\PSoC5/cyPm.c ****         cyPmBackup.dsmData[1u]  = CY_GET_REG8(CYREG_DSM0_SW2);
 2013              		.loc 1 1758 0
 2014 05aa 45F60233 		movw	r3, #:lower16:1073765122
 2015 05ae C4F20003 		movt	r3, #:upper16:1073765122
 2016 05b2 1B78     		ldrb	r3, [r3, #0]
 2017 05b4 DAB2     		uxtb	r2, r3
 2018 05b6 40F20003 		movw	r3, #:lower16:cyPmBackup
 2019 05ba C0F20003 		movt	r3, #:upper16:cyPmBackup
 2020 05be 83F84620 		strb	r2, [r3, #70]
1759:.\Generated_Source\PSoC5/cyPm.c ****         cyPmBackup.dsmData[2u]  = CY_GET_REG8(CYREG_DSM0_SW3);
 2021              		.loc 1 1759 0
 2022 05c2 45F60333 		movw	r3, #:lower16:1073765123
 2023 05c6 C4F20003 		movt	r3, #:upper16:1073765123
 2024 05ca 1B78     		ldrb	r3, [r3, #0]
 2025 05cc DAB2     		uxtb	r2, r3
 2026 05ce 40F20003 		movw	r3, #:lower16:cyPmBackup
 2027 05d2 C0F20003 		movt	r3, #:upper16:cyPmBackup
 2028 05d6 83F84720 		strb	r2, [r3, #71]
1760:.\Generated_Source\PSoC5/cyPm.c ****         cyPmBackup.dsmData[3u]  = CY_GET_REG8(CYREG_DSM0_SW4);
 2029              		.loc 1 1760 0
 2030 05da 45F60433 		movw	r3, #:lower16:1073765124
 2031 05de C4F20003 		movt	r3, #:upper16:1073765124
 2032 05e2 1B78     		ldrb	r3, [r3, #0]
 2033 05e4 DAB2     		uxtb	r2, r3
 2034 05e6 40F20003 		movw	r3, #:lower16:cyPmBackup
 2035 05ea C0F20003 		movt	r3, #:upper16:cyPmBackup
 2036 05ee 83F84820 		strb	r2, [r3, #72]
1761:.\Generated_Source\PSoC5/cyPm.c ****         cyPmBackup.dsmData[4u]  = CY_GET_REG8(CYREG_DSM0_SW6);
 2037              		.loc 1 1761 0
 2038 05f2 45F60633 		movw	r3, #:lower16:1073765126
 2039 05f6 C4F20003 		movt	r3, #:upper16:1073765126
 2040 05fa 1B78     		ldrb	r3, [r3, #0]
 2041 05fc DAB2     		uxtb	r2, r3
 2042 05fe 40F20003 		movw	r3, #:lower16:cyPmBackup
 2043 0602 C0F20003 		movt	r3, #:upper16:cyPmBackup
 2044 0606 83F84920 		strb	r2, [r3, #73]
1762:.\Generated_Source\PSoC5/cyPm.c **** 
1763:.\Generated_Source\PSoC5/cyPm.c ****         /* Clear DSM routing registers */
1764:.\Generated_Source\PSoC5/cyPm.c ****         CY_SET_REG8(CYREG_DSM0_SW0 , 0u);
ARM GAS  C:\Users\Geo\AppData\Local\Temp\ccKuRrRd.s 			page 68


 2045              		.loc 1 1764 0
 2046 060a 45F60033 		movw	r3, #:lower16:1073765120
 2047 060e C4F20003 		movt	r3, #:upper16:1073765120
 2048 0612 4FF00002 		mov	r2, #0
 2049 0616 1A70     		strb	r2, [r3, #0]
1765:.\Generated_Source\PSoC5/cyPm.c ****         CY_SET_REG8(CYREG_DSM0_SW2 , 0u);
 2050              		.loc 1 1765 0
 2051 0618 45F60233 		movw	r3, #:lower16:1073765122
 2052 061c C4F20003 		movt	r3, #:upper16:1073765122
 2053 0620 4FF00002 		mov	r2, #0
 2054 0624 1A70     		strb	r2, [r3, #0]
1766:.\Generated_Source\PSoC5/cyPm.c ****         CY_SET_REG8(CYREG_DSM0_SW3 , 0u);
 2055              		.loc 1 1766 0
 2056 0626 45F60333 		movw	r3, #:lower16:1073765123
 2057 062a C4F20003 		movt	r3, #:upper16:1073765123
 2058 062e 4FF00002 		mov	r2, #0
 2059 0632 1A70     		strb	r2, [r3, #0]
1767:.\Generated_Source\PSoC5/cyPm.c ****         CY_SET_REG8(CYREG_DSM0_SW4 , 0u);
 2060              		.loc 1 1767 0
 2061 0634 45F60433 		movw	r3, #:lower16:1073765124
 2062 0638 C4F20003 		movt	r3, #:upper16:1073765124
 2063 063c 4FF00002 		mov	r2, #0
 2064 0640 1A70     		strb	r2, [r3, #0]
1768:.\Generated_Source\PSoC5/cyPm.c ****         CY_SET_REG8(CYREG_DSM0_SW6 , 0u);
 2065              		.loc 1 1768 0
 2066 0642 45F60633 		movw	r3, #:lower16:1073765126
 2067 0646 C4F20003 		movt	r3, #:upper16:1073765126
 2068 064a 4FF00002 		mov	r2, #0
 2069 064e 1A70     		strb	r2, [r3, #0]
1769:.\Generated_Source\PSoC5/cyPm.c **** 
1770:.\Generated_Source\PSoC5/cyPm.c **** 
1771:.\Generated_Source\PSoC5/cyPm.c ****         /* Save SAR routing registers */
1772:.\Generated_Source\PSoC5/cyPm.c ****         cyPmBackup.sarData[0u]  = CY_GET_REG8(CYREG_SAR0_SW0);
 2070              		.loc 1 1772 0
 2071 0650 45F62033 		movw	r3, #:lower16:1073765152
 2072 0654 C4F20003 		movt	r3, #:upper16:1073765152
 2073 0658 1B78     		ldrb	r3, [r3, #0]
 2074 065a DAB2     		uxtb	r2, r3
 2075 065c 40F20003 		movw	r3, #:lower16:cyPmBackup
 2076 0660 C0F20003 		movt	r3, #:upper16:cyPmBackup
 2077 0664 83F84A20 		strb	r2, [r3, #74]
1773:.\Generated_Source\PSoC5/cyPm.c ****         cyPmBackup.sarData[1u]  = CY_GET_REG8(CYREG_SAR0_SW2);
 2078              		.loc 1 1773 0
 2079 0668 45F62233 		movw	r3, #:lower16:1073765154
 2080 066c C4F20003 		movt	r3, #:upper16:1073765154
 2081 0670 1B78     		ldrb	r3, [r3, #0]
 2082 0672 DAB2     		uxtb	r2, r3
 2083 0674 40F20003 		movw	r3, #:lower16:cyPmBackup
 2084 0678 C0F20003 		movt	r3, #:upper16:cyPmBackup
 2085 067c 83F84B20 		strb	r2, [r3, #75]
1774:.\Generated_Source\PSoC5/cyPm.c ****         cyPmBackup.sarData[2u]  = CY_GET_REG8(CYREG_SAR0_SW3);
 2086              		.loc 1 1774 0
 2087 0680 45F62333 		movw	r3, #:lower16:1073765155
 2088 0684 C4F20003 		movt	r3, #:upper16:1073765155
 2089 0688 1B78     		ldrb	r3, [r3, #0]
 2090 068a DAB2     		uxtb	r2, r3
 2091 068c 40F20003 		movw	r3, #:lower16:cyPmBackup
ARM GAS  C:\Users\Geo\AppData\Local\Temp\ccKuRrRd.s 			page 69


 2092 0690 C0F20003 		movt	r3, #:upper16:cyPmBackup
 2093 0694 83F84C20 		strb	r2, [r3, #76]
1775:.\Generated_Source\PSoC5/cyPm.c ****         cyPmBackup.sarData[3u]  = CY_GET_REG8(CYREG_SAR0_SW4);
 2094              		.loc 1 1775 0
 2095 0698 45F62433 		movw	r3, #:lower16:1073765156
 2096 069c C4F20003 		movt	r3, #:upper16:1073765156
 2097 06a0 1B78     		ldrb	r3, [r3, #0]
 2098 06a2 DAB2     		uxtb	r2, r3
 2099 06a4 40F20003 		movw	r3, #:lower16:cyPmBackup
 2100 06a8 C0F20003 		movt	r3, #:upper16:cyPmBackup
 2101 06ac 83F84D20 		strb	r2, [r3, #77]
1776:.\Generated_Source\PSoC5/cyPm.c ****         cyPmBackup.sarData[4u]  = CY_GET_REG8(CYREG_SAR0_SW6);
 2102              		.loc 1 1776 0
 2103 06b0 45F62633 		movw	r3, #:lower16:1073765158
 2104 06b4 C4F20003 		movt	r3, #:upper16:1073765158
 2105 06b8 1B78     		ldrb	r3, [r3, #0]
 2106 06ba DAB2     		uxtb	r2, r3
 2107 06bc 40F20003 		movw	r3, #:lower16:cyPmBackup
 2108 06c0 C0F20003 		movt	r3, #:upper16:cyPmBackup
 2109 06c4 83F84E20 		strb	r2, [r3, #78]
1777:.\Generated_Source\PSoC5/cyPm.c **** 
1778:.\Generated_Source\PSoC5/cyPm.c ****         cyPmBackup.sarData[5u]  = CY_GET_REG8(CYREG_SAR1_SW0);
 2110              		.loc 1 1778 0
 2111 06c8 45F62833 		movw	r3, #:lower16:1073765160
 2112 06cc C4F20003 		movt	r3, #:upper16:1073765160
 2113 06d0 1B78     		ldrb	r3, [r3, #0]
 2114 06d2 DAB2     		uxtb	r2, r3
 2115 06d4 40F20003 		movw	r3, #:lower16:cyPmBackup
 2116 06d8 C0F20003 		movt	r3, #:upper16:cyPmBackup
 2117 06dc 83F84F20 		strb	r2, [r3, #79]
1779:.\Generated_Source\PSoC5/cyPm.c ****         cyPmBackup.sarData[6u]  = CY_GET_REG8(CYREG_SAR1_SW2);
 2118              		.loc 1 1779 0
 2119 06e0 45F62A33 		movw	r3, #:lower16:1073765162
 2120 06e4 C4F20003 		movt	r3, #:upper16:1073765162
 2121 06e8 1B78     		ldrb	r3, [r3, #0]
 2122 06ea DAB2     		uxtb	r2, r3
 2123 06ec 40F20003 		movw	r3, #:lower16:cyPmBackup
 2124 06f0 C0F20003 		movt	r3, #:upper16:cyPmBackup
 2125 06f4 83F85020 		strb	r2, [r3, #80]
1780:.\Generated_Source\PSoC5/cyPm.c ****         cyPmBackup.sarData[7u]  = CY_GET_REG8(CYREG_SAR1_SW3);
 2126              		.loc 1 1780 0
 2127 06f8 45F62B33 		movw	r3, #:lower16:1073765163
 2128 06fc C4F20003 		movt	r3, #:upper16:1073765163
 2129 0700 1B78     		ldrb	r3, [r3, #0]
 2130 0702 DAB2     		uxtb	r2, r3
 2131 0704 40F20003 		movw	r3, #:lower16:cyPmBackup
 2132 0708 C0F20003 		movt	r3, #:upper16:cyPmBackup
 2133 070c 83F85120 		strb	r2, [r3, #81]
1781:.\Generated_Source\PSoC5/cyPm.c ****         cyPmBackup.sarData[8u]  = CY_GET_REG8(CYREG_SAR1_SW4);
 2134              		.loc 1 1781 0
 2135 0710 45F62C33 		movw	r3, #:lower16:1073765164
 2136 0714 C4F20003 		movt	r3, #:upper16:1073765164
 2137 0718 1B78     		ldrb	r3, [r3, #0]
 2138 071a DAB2     		uxtb	r2, r3
 2139 071c 40F20003 		movw	r3, #:lower16:cyPmBackup
 2140 0720 C0F20003 		movt	r3, #:upper16:cyPmBackup
 2141 0724 83F85220 		strb	r2, [r3, #82]
ARM GAS  C:\Users\Geo\AppData\Local\Temp\ccKuRrRd.s 			page 70


1782:.\Generated_Source\PSoC5/cyPm.c ****         cyPmBackup.sarData[9u]  = CY_GET_REG8(CYREG_SAR1_SW6);
 2142              		.loc 1 1782 0
 2143 0728 45F62E33 		movw	r3, #:lower16:1073765166
 2144 072c C4F20003 		movt	r3, #:upper16:1073765166
 2145 0730 1B78     		ldrb	r3, [r3, #0]
 2146 0732 DAB2     		uxtb	r2, r3
 2147 0734 40F20003 		movw	r3, #:lower16:cyPmBackup
 2148 0738 C0F20003 		movt	r3, #:upper16:cyPmBackup
 2149 073c 83F85320 		strb	r2, [r3, #83]
1783:.\Generated_Source\PSoC5/cyPm.c **** 
1784:.\Generated_Source\PSoC5/cyPm.c **** 
1785:.\Generated_Source\PSoC5/cyPm.c ****         /* Clear SAR routing registers */
1786:.\Generated_Source\PSoC5/cyPm.c ****         CY_SET_REG8(CYREG_SAR0_SW0 , 0u);
 2150              		.loc 1 1786 0
 2151 0740 45F62033 		movw	r3, #:lower16:1073765152
 2152 0744 C4F20003 		movt	r3, #:upper16:1073765152
 2153 0748 4FF00002 		mov	r2, #0
 2154 074c 1A70     		strb	r2, [r3, #0]
1787:.\Generated_Source\PSoC5/cyPm.c ****         CY_SET_REG8(CYREG_SAR0_SW2 , 0u);
 2155              		.loc 1 1787 0
 2156 074e 45F62233 		movw	r3, #:lower16:1073765154
 2157 0752 C4F20003 		movt	r3, #:upper16:1073765154
 2158 0756 4FF00002 		mov	r2, #0
 2159 075a 1A70     		strb	r2, [r3, #0]
1788:.\Generated_Source\PSoC5/cyPm.c ****         CY_SET_REG8(CYREG_SAR0_SW3 , 0u);
 2160              		.loc 1 1788 0
 2161 075c 45F62333 		movw	r3, #:lower16:1073765155
 2162 0760 C4F20003 		movt	r3, #:upper16:1073765155
 2163 0764 4FF00002 		mov	r2, #0
 2164 0768 1A70     		strb	r2, [r3, #0]
1789:.\Generated_Source\PSoC5/cyPm.c ****         CY_SET_REG8(CYREG_SAR0_SW4 , 0u);
 2165              		.loc 1 1789 0
 2166 076a 45F62433 		movw	r3, #:lower16:1073765156
 2167 076e C4F20003 		movt	r3, #:upper16:1073765156
 2168 0772 4FF00002 		mov	r2, #0
 2169 0776 1A70     		strb	r2, [r3, #0]
1790:.\Generated_Source\PSoC5/cyPm.c ****         CY_SET_REG8(CYREG_SAR0_SW6 , 0u);
 2170              		.loc 1 1790 0
 2171 0778 45F62633 		movw	r3, #:lower16:1073765158
 2172 077c C4F20003 		movt	r3, #:upper16:1073765158
 2173 0780 4FF00002 		mov	r2, #0
 2174 0784 1A70     		strb	r2, [r3, #0]
1791:.\Generated_Source\PSoC5/cyPm.c **** 
1792:.\Generated_Source\PSoC5/cyPm.c ****         CY_SET_REG8(CYREG_SAR1_SW0 , 0u);
 2175              		.loc 1 1792 0
 2176 0786 45F62833 		movw	r3, #:lower16:1073765160
 2177 078a C4F20003 		movt	r3, #:upper16:1073765160
 2178 078e 4FF00002 		mov	r2, #0
 2179 0792 1A70     		strb	r2, [r3, #0]
1793:.\Generated_Source\PSoC5/cyPm.c ****         CY_SET_REG8(CYREG_SAR1_SW2 , 0u);
 2180              		.loc 1 1793 0
 2181 0794 45F62A33 		movw	r3, #:lower16:1073765162
 2182 0798 C4F20003 		movt	r3, #:upper16:1073765162
 2183 079c 4FF00002 		mov	r2, #0
 2184 07a0 1A70     		strb	r2, [r3, #0]
1794:.\Generated_Source\PSoC5/cyPm.c ****         CY_SET_REG8(CYREG_SAR1_SW3 , 0u);
 2185              		.loc 1 1794 0
ARM GAS  C:\Users\Geo\AppData\Local\Temp\ccKuRrRd.s 			page 71


 2186 07a2 45F62B33 		movw	r3, #:lower16:1073765163
 2187 07a6 C4F20003 		movt	r3, #:upper16:1073765163
 2188 07aa 4FF00002 		mov	r2, #0
 2189 07ae 1A70     		strb	r2, [r3, #0]
1795:.\Generated_Source\PSoC5/cyPm.c ****         CY_SET_REG8(CYREG_SAR1_SW4 , 0u);
 2190              		.loc 1 1795 0
 2191 07b0 45F62C33 		movw	r3, #:lower16:1073765164
 2192 07b4 C4F20003 		movt	r3, #:upper16:1073765164
 2193 07b8 4FF00002 		mov	r2, #0
 2194 07bc 1A70     		strb	r2, [r3, #0]
1796:.\Generated_Source\PSoC5/cyPm.c ****         CY_SET_REG8(CYREG_SAR1_SW6 , 0u);
 2195              		.loc 1 1796 0
 2196 07be 45F62E33 		movw	r3, #:lower16:1073765166
 2197 07c2 C4F20003 		movt	r3, #:upper16:1073765166
 2198 07c6 4FF00002 		mov	r2, #0
 2199 07ca 1A70     		strb	r2, [r3, #0]
1797:.\Generated_Source\PSoC5/cyPm.c **** 
1798:.\Generated_Source\PSoC5/cyPm.c ****     #endif  /* (CY_PSOC5_ES1) */
1799:.\Generated_Source\PSoC5/cyPm.c **** 
1800:.\Generated_Source\PSoC5/cyPm.c ****     /* Device is PSoC 3 and the revision is ES3 or later, or
1801:.\Generated_Source\PSoC5/cyPm.c ****     *  device is PSoC 5 and the revision is ES1 or earlier.
1802:.\Generated_Source\PSoC5/cyPm.c ****     */
1803:.\Generated_Source\PSoC5/cyPm.c ****     #if(CY_PSOC3_ES3 || CY_PSOC5_ES1)
1804:.\Generated_Source\PSoC5/cyPm.c **** 
1805:.\Generated_Source\PSoC5/cyPm.c ****         /* Save SC/CT routing registers */
1806:.\Generated_Source\PSoC5/cyPm.c ****         cyPmBackup.scctData[0u]   = CY_GET_REG8(CYREG_SC0_SW0 );
 2200              		.loc 1 1806 0
 2201 07cc 45F60023 		movw	r3, #:lower16:1073764864
 2202 07d0 C4F20003 		movt	r3, #:upper16:1073764864
 2203 07d4 1B78     		ldrb	r3, [r3, #0]
 2204 07d6 DAB2     		uxtb	r2, r3
 2205 07d8 40F20003 		movw	r3, #:lower16:cyPmBackup
 2206 07dc C0F20003 		movt	r3, #:upper16:cyPmBackup
 2207 07e0 5A71     		strb	r2, [r3, #5]
1807:.\Generated_Source\PSoC5/cyPm.c ****         cyPmBackup.scctData[1u]   = CY_GET_REG8(CYREG_SC0_SW2 );
 2208              		.loc 1 1807 0
 2209 07e2 45F60223 		movw	r3, #:lower16:1073764866
 2210 07e6 C4F20003 		movt	r3, #:upper16:1073764866
 2211 07ea 1B78     		ldrb	r3, [r3, #0]
 2212 07ec DAB2     		uxtb	r2, r3
 2213 07ee 40F20003 		movw	r3, #:lower16:cyPmBackup
 2214 07f2 C0F20003 		movt	r3, #:upper16:cyPmBackup
 2215 07f6 9A71     		strb	r2, [r3, #6]
1808:.\Generated_Source\PSoC5/cyPm.c ****         cyPmBackup.scctData[2u]   = CY_GET_REG8(CYREG_SC0_SW3 );
 2216              		.loc 1 1808 0
 2217 07f8 45F60323 		movw	r3, #:lower16:1073764867
 2218 07fc C4F20003 		movt	r3, #:upper16:1073764867
 2219 0800 1B78     		ldrb	r3, [r3, #0]
 2220 0802 DAB2     		uxtb	r2, r3
 2221 0804 40F20003 		movw	r3, #:lower16:cyPmBackup
 2222 0808 C0F20003 		movt	r3, #:upper16:cyPmBackup
 2223 080c DA71     		strb	r2, [r3, #7]
1809:.\Generated_Source\PSoC5/cyPm.c ****         cyPmBackup.scctData[3u]   = CY_GET_REG8(CYREG_SC0_SW4 );
 2224              		.loc 1 1809 0
 2225 080e 45F60423 		movw	r3, #:lower16:1073764868
 2226 0812 C4F20003 		movt	r3, #:upper16:1073764868
 2227 0816 1B78     		ldrb	r3, [r3, #0]
ARM GAS  C:\Users\Geo\AppData\Local\Temp\ccKuRrRd.s 			page 72


 2228 0818 DAB2     		uxtb	r2, r3
 2229 081a 40F20003 		movw	r3, #:lower16:cyPmBackup
 2230 081e C0F20003 		movt	r3, #:upper16:cyPmBackup
 2231 0822 1A72     		strb	r2, [r3, #8]
1810:.\Generated_Source\PSoC5/cyPm.c ****         cyPmBackup.scctData[4u]   = CY_GET_REG8(CYREG_SC0_SW6 );
 2232              		.loc 1 1810 0
 2233 0824 45F60623 		movw	r3, #:lower16:1073764870
 2234 0828 C4F20003 		movt	r3, #:upper16:1073764870
 2235 082c 1B78     		ldrb	r3, [r3, #0]
 2236 082e DAB2     		uxtb	r2, r3
 2237 0830 40F20003 		movw	r3, #:lower16:cyPmBackup
 2238 0834 C0F20003 		movt	r3, #:upper16:cyPmBackup
 2239 0838 5A72     		strb	r2, [r3, #9]
1811:.\Generated_Source\PSoC5/cyPm.c ****         cyPmBackup.scctData[5u]   = CY_GET_REG8(CYREG_SC0_SW8 );
 2240              		.loc 1 1811 0
 2241 083a 45F60823 		movw	r3, #:lower16:1073764872
 2242 083e C4F20003 		movt	r3, #:upper16:1073764872
 2243 0842 1B78     		ldrb	r3, [r3, #0]
 2244 0844 DAB2     		uxtb	r2, r3
 2245 0846 40F20003 		movw	r3, #:lower16:cyPmBackup
 2246 084a C0F20003 		movt	r3, #:upper16:cyPmBackup
 2247 084e 9A72     		strb	r2, [r3, #10]
1812:.\Generated_Source\PSoC5/cyPm.c ****         cyPmBackup.scctData[6u]   = CY_GET_REG8(CYREG_SC0_SW10);
 2248              		.loc 1 1812 0
 2249 0850 45F60A23 		movw	r3, #:lower16:1073764874
 2250 0854 C4F20003 		movt	r3, #:upper16:1073764874
 2251 0858 1B78     		ldrb	r3, [r3, #0]
 2252 085a DAB2     		uxtb	r2, r3
 2253 085c 40F20003 		movw	r3, #:lower16:cyPmBackup
 2254 0860 C0F20003 		movt	r3, #:upper16:cyPmBackup
 2255 0864 DA72     		strb	r2, [r3, #11]
1813:.\Generated_Source\PSoC5/cyPm.c **** 
1814:.\Generated_Source\PSoC5/cyPm.c ****         cyPmBackup.scctData[7u]   = CY_GET_REG8(CYREG_SC1_SW0 );
 2256              		.loc 1 1814 0
 2257 0866 45F61023 		movw	r3, #:lower16:1073764880
 2258 086a C4F20003 		movt	r3, #:upper16:1073764880
 2259 086e 1B78     		ldrb	r3, [r3, #0]
 2260 0870 DAB2     		uxtb	r2, r3
 2261 0872 40F20003 		movw	r3, #:lower16:cyPmBackup
 2262 0876 C0F20003 		movt	r3, #:upper16:cyPmBackup
 2263 087a 1A73     		strb	r2, [r3, #12]
1815:.\Generated_Source\PSoC5/cyPm.c ****         cyPmBackup.scctData[8u]   = CY_GET_REG8(CYREG_SC1_SW2 );
 2264              		.loc 1 1815 0
 2265 087c 45F61223 		movw	r3, #:lower16:1073764882
 2266 0880 C4F20003 		movt	r3, #:upper16:1073764882
 2267 0884 1B78     		ldrb	r3, [r3, #0]
 2268 0886 DAB2     		uxtb	r2, r3
 2269 0888 40F20003 		movw	r3, #:lower16:cyPmBackup
 2270 088c C0F20003 		movt	r3, #:upper16:cyPmBackup
 2271 0890 5A73     		strb	r2, [r3, #13]
1816:.\Generated_Source\PSoC5/cyPm.c ****         cyPmBackup.scctData[9u]   = CY_GET_REG8(CYREG_SC1_SW3 );
 2272              		.loc 1 1816 0
 2273 0892 45F61323 		movw	r3, #:lower16:1073764883
 2274 0896 C4F20003 		movt	r3, #:upper16:1073764883
 2275 089a 1B78     		ldrb	r3, [r3, #0]
 2276 089c DAB2     		uxtb	r2, r3
 2277 089e 40F20003 		movw	r3, #:lower16:cyPmBackup
ARM GAS  C:\Users\Geo\AppData\Local\Temp\ccKuRrRd.s 			page 73


 2278 08a2 C0F20003 		movt	r3, #:upper16:cyPmBackup
 2279 08a6 9A73     		strb	r2, [r3, #14]
1817:.\Generated_Source\PSoC5/cyPm.c ****         cyPmBackup.scctData[10u]  = CY_GET_REG8(CYREG_SC1_SW4 );
 2280              		.loc 1 1817 0
 2281 08a8 45F61423 		movw	r3, #:lower16:1073764884
 2282 08ac C4F20003 		movt	r3, #:upper16:1073764884
 2283 08b0 1B78     		ldrb	r3, [r3, #0]
 2284 08b2 DAB2     		uxtb	r2, r3
 2285 08b4 40F20003 		movw	r3, #:lower16:cyPmBackup
 2286 08b8 C0F20003 		movt	r3, #:upper16:cyPmBackup
 2287 08bc DA73     		strb	r2, [r3, #15]
1818:.\Generated_Source\PSoC5/cyPm.c ****         cyPmBackup.scctData[11u]  = CY_GET_REG8(CYREG_SC1_SW6 );
 2288              		.loc 1 1818 0
 2289 08be 45F61623 		movw	r3, #:lower16:1073764886
 2290 08c2 C4F20003 		movt	r3, #:upper16:1073764886
 2291 08c6 1B78     		ldrb	r3, [r3, #0]
 2292 08c8 DAB2     		uxtb	r2, r3
 2293 08ca 40F20003 		movw	r3, #:lower16:cyPmBackup
 2294 08ce C0F20003 		movt	r3, #:upper16:cyPmBackup
 2295 08d2 1A74     		strb	r2, [r3, #16]
1819:.\Generated_Source\PSoC5/cyPm.c ****         cyPmBackup.scctData[12u]  = CY_GET_REG8(CYREG_SC1_SW8 );
 2296              		.loc 1 1819 0
 2297 08d4 45F61823 		movw	r3, #:lower16:1073764888
 2298 08d8 C4F20003 		movt	r3, #:upper16:1073764888
 2299 08dc 1B78     		ldrb	r3, [r3, #0]
 2300 08de DAB2     		uxtb	r2, r3
 2301 08e0 40F20003 		movw	r3, #:lower16:cyPmBackup
 2302 08e4 C0F20003 		movt	r3, #:upper16:cyPmBackup
 2303 08e8 5A74     		strb	r2, [r3, #17]
1820:.\Generated_Source\PSoC5/cyPm.c ****         cyPmBackup.scctData[13u]  = CY_GET_REG8(CYREG_SC1_SW10);
 2304              		.loc 1 1820 0
 2305 08ea 45F61A23 		movw	r3, #:lower16:1073764890
 2306 08ee C4F20003 		movt	r3, #:upper16:1073764890
 2307 08f2 1B78     		ldrb	r3, [r3, #0]
 2308 08f4 DAB2     		uxtb	r2, r3
 2309 08f6 40F20003 		movw	r3, #:lower16:cyPmBackup
 2310 08fa C0F20003 		movt	r3, #:upper16:cyPmBackup
 2311 08fe 9A74     		strb	r2, [r3, #18]
1821:.\Generated_Source\PSoC5/cyPm.c **** 
1822:.\Generated_Source\PSoC5/cyPm.c ****         cyPmBackup.scctData[14u]  = CY_GET_REG8(CYREG_SC2_SW0 );
 2312              		.loc 1 1822 0
 2313 0900 45F62023 		movw	r3, #:lower16:1073764896
 2314 0904 C4F20003 		movt	r3, #:upper16:1073764896
 2315 0908 1B78     		ldrb	r3, [r3, #0]
 2316 090a DAB2     		uxtb	r2, r3
 2317 090c 40F20003 		movw	r3, #:lower16:cyPmBackup
 2318 0910 C0F20003 		movt	r3, #:upper16:cyPmBackup
 2319 0914 DA74     		strb	r2, [r3, #19]
1823:.\Generated_Source\PSoC5/cyPm.c ****         cyPmBackup.scctData[15u]  = CY_GET_REG8(CYREG_SC2_SW2 );
 2320              		.loc 1 1823 0
 2321 0916 45F62223 		movw	r3, #:lower16:1073764898
 2322 091a C4F20003 		movt	r3, #:upper16:1073764898
 2323 091e 1B78     		ldrb	r3, [r3, #0]
 2324 0920 DAB2     		uxtb	r2, r3
