ARM GAS  C:\Users\Geo\AppData\Local\Temp\ccuUflew.s 			page 1


   1              		.syntax unified
   2              		.cpu cortex-m3
   3              		.fpu softvfp
   4              		.eabi_attribute 20, 1
   5              		.eabi_attribute 21, 1
   6              		.eabi_attribute 23, 3
   7              		.eabi_attribute 24, 1
   8              		.eabi_attribute 25, 1
   9              		.eabi_attribute 26, 1
  10              		.eabi_attribute 30, 6
  11              		.eabi_attribute 18, 4
  12              		.thumb
  13              		.file	"CySpc.c"
  20 0000 E5010000 		.text
  20      02005D00 
  20      00000201 
  20      FB0E0D00 
  20      01010101 
  21              	.Ltext0:
  22              		.cfi_sections	.debug_frame
  23              		.global	SpcLockState
  24              		.bss
  25              		.type	SpcLockState, %object
  26              		.size	SpcLockState, 1
  27              	SpcLockState:
  28 0000 00       		.space	1
  29              		.comm	cyCommand,16,4
  30              		.comm	cyCommandSize,1,1
  31              		.section	.text.CySpcLock,"ax",%progbits
  32              		.align	2
  33              		.global	CySpcLock
  34              		.thumb
  35              		.thumb_func
  36              		.type	CySpcLock, %function
  37              	CySpcLock:
  38              	.LFB0:
  39              		.file 1 ".\\Generated_Source\\PSoC5\\CySpc.c"
   1:.\Generated_Source\PSoC5/CySpc.c **** /*******************************************************************************
   2:.\Generated_Source\PSoC5/CySpc.c **** * File Name: CySpc.c  
   3:.\Generated_Source\PSoC5/CySpc.c **** * Version 2.40
   4:.\Generated_Source\PSoC5/CySpc.c **** *
   5:.\Generated_Source\PSoC5/CySpc.c **** *  Description:
   6:.\Generated_Source\PSoC5/CySpc.c **** *   Provides an API for the System Performance Component. 
   7:.\Generated_Source\PSoC5/CySpc.c **** *   The SPC functions are not meant to be called directly by the user application.
   8:.\Generated_Source\PSoC5/CySpc.c **** *
   9:.\Generated_Source\PSoC5/CySpc.c **** *  Note:
  10:.\Generated_Source\PSoC5/CySpc.c **** *
  11:.\Generated_Source\PSoC5/CySpc.c **** *   
  12:.\Generated_Source\PSoC5/CySpc.c **** *
  13:.\Generated_Source\PSoC5/CySpc.c **** *******************************************************************************
  14:.\Generated_Source\PSoC5/CySpc.c **** * Copyright 2008-2011, Cypress Semiconductor Corporation.  All rights reserved.
ARM GAS  C:\Users\Geo\AppData\Local\Temp\ccuUflew.s 			page 2


  15:.\Generated_Source\PSoC5/CySpc.c **** * You may use this file only in accordance with the license, terms, conditions, 
  16:.\Generated_Source\PSoC5/CySpc.c **** * disclaimers, and limitations in the end user license agreement accompanying 
  17:.\Generated_Source\PSoC5/CySpc.c **** * the software package with which this file was provided.
  18:.\Generated_Source\PSoC5/CySpc.c **** ********************************************************************************/
  19:.\Generated_Source\PSoC5/CySpc.c **** 
  20:.\Generated_Source\PSoC5/CySpc.c **** 
  21:.\Generated_Source\PSoC5/CySpc.c **** #include <CySpc.h>
  22:.\Generated_Source\PSoC5/CySpc.c **** 
  23:.\Generated_Source\PSoC5/CySpc.c **** 
  24:.\Generated_Source\PSoC5/CySpc.c **** /* Gate calls to the SPC. */
  25:.\Generated_Source\PSoC5/CySpc.c **** uint8 SpcLockState = 0;
  26:.\Generated_Source\PSoC5/CySpc.c **** 
  27:.\Generated_Source\PSoC5/CySpc.c **** /* We only need storage for one comand since we can only do one command at a time. */
  28:.\Generated_Source\PSoC5/CySpc.c **** uint8 cyCommand[16];
  29:.\Generated_Source\PSoC5/CySpc.c **** uint8 cyCommandSize;
  30:.\Generated_Source\PSoC5/CySpc.c **** 
  31:.\Generated_Source\PSoC5/CySpc.c **** 
  32:.\Generated_Source\PSoC5/CySpc.c **** 
  33:.\Generated_Source\PSoC5/CySpc.c **** /*******************************************************************************
  34:.\Generated_Source\PSoC5/CySpc.c **** * Function Name: CySpcLock
  35:.\Generated_Source\PSoC5/CySpc.c **** ********************************************************************************
  36:.\Generated_Source\PSoC5/CySpc.c **** * Summary:
  37:.\Generated_Source\PSoC5/CySpc.c **** *   Locks the SPC so it can not be used by someone else.
  38:.\Generated_Source\PSoC5/CySpc.c **** *   NOTE: SPC functions are not meant to be called directly by the user application.
  39:.\Generated_Source\PSoC5/CySpc.c **** *
  40:.\Generated_Source\PSoC5/CySpc.c **** * Parameters:
  41:.\Generated_Source\PSoC5/CySpc.c **** *   void.
  42:.\Generated_Source\PSoC5/CySpc.c **** *
  43:.\Generated_Source\PSoC5/CySpc.c **** *   
  44:.\Generated_Source\PSoC5/CySpc.c **** * Return:
  45:.\Generated_Source\PSoC5/CySpc.c **** *   .
  46:.\Generated_Source\PSoC5/CySpc.c **** *   CYRET_SUCCESS if the resource was free.
  47:.\Generated_Source\PSoC5/CySpc.c **** *   CYRET_LOCKED if the SPC is in use.
  48:.\Generated_Source\PSoC5/CySpc.c **** *
  49:.\Generated_Source\PSoC5/CySpc.c **** *
  50:.\Generated_Source\PSoC5/CySpc.c **** *******************************************************************************/
  51:.\Generated_Source\PSoC5/CySpc.c **** cystatus CySpcLock(void)
  52:.\Generated_Source\PSoC5/CySpc.c **** {
  40              		.loc 1 52 0
  41              		.cfi_startproc
  42              		@ args = 0, pretend = 0, frame = 8
  43              		@ frame_needed = 1, uses_anonymous_args = 0
  44 0000 80B5     		push	{r7, lr}
  45              	.LCFI0:
  46              		.cfi_def_cfa_offset 8
  47 0002 82B0     		sub	sp, sp, #8
  48              	.LCFI1:
  49              		.cfi_def_cfa_offset 16
  50 0004 00AF     		add	r7, sp, #0
  51              		.cfi_offset 14, -4
  52              		.cfi_offset 7, -8
  53              	.LCFI2:
  54              		.cfi_def_cfa_register 7
  53:.\Generated_Source\PSoC5/CySpc.c ****     cystatus status;
  54:.\Generated_Source\PSoC5/CySpc.c ****     uint8 interruptState;
  55:.\Generated_Source\PSoC5/CySpc.c **** 
  56:.\Generated_Source\PSoC5/CySpc.c **** 
ARM GAS  C:\Users\Geo\AppData\Local\Temp\ccuUflew.s 			page 3


  57:.\Generated_Source\PSoC5/CySpc.c ****     /* Enter critical section! */
  58:.\Generated_Source\PSoC5/CySpc.c ****     interruptState = CyEnterCriticalSection();
  55              		.loc 1 58 0
  56 0006 FFF7FEFF 		bl	CyEnterCriticalSection
  57 000a 0346     		mov	r3, r0
  58 000c FB71     		strb	r3, [r7, #7]
  59:.\Generated_Source\PSoC5/CySpc.c **** 
  60:.\Generated_Source\PSoC5/CySpc.c ****     if(SpcLockState == 0)
  59              		.loc 1 60 0
  60 000e 40F20003 		movw	r3, #:lower16:SpcLockState
  61 0012 C0F20003 		movt	r3, #:upper16:SpcLockState
  62 0016 1B78     		ldrb	r3, [r3, #0]	@ zero_extendqisi2
  63 0018 002B     		cmp	r3, #0
  64 001a 0AD1     		bne	.L2
  61:.\Generated_Source\PSoC5/CySpc.c ****     {
  62:.\Generated_Source\PSoC5/CySpc.c ****         SpcLockState = 1;
  65              		.loc 1 62 0
  66 001c 40F20003 		movw	r3, #:lower16:SpcLockState
  67 0020 C0F20003 		movt	r3, #:upper16:SpcLockState
  68 0024 4FF00102 		mov	r2, #1
  69 0028 1A70     		strb	r2, [r3, #0]
  63:.\Generated_Source\PSoC5/CySpc.c ****         status = CYRET_SUCCESS;
  70              		.loc 1 63 0
  71 002a 4FF00003 		mov	r3, #0
  72 002e 3B60     		str	r3, [r7, #0]
  73 0030 02E0     		b	.L3
  74              	.L2:
  64:.\Generated_Source\PSoC5/CySpc.c ****     }
  65:.\Generated_Source\PSoC5/CySpc.c ****     else
  66:.\Generated_Source\PSoC5/CySpc.c ****     {
  67:.\Generated_Source\PSoC5/CySpc.c ****         status = CYRET_LOCKED;
  75              		.loc 1 67 0
  76 0032 4FF00403 		mov	r3, #4
  77 0036 3B60     		str	r3, [r7, #0]
  78              	.L3:
  68:.\Generated_Source\PSoC5/CySpc.c ****     }
  69:.\Generated_Source\PSoC5/CySpc.c **** 
  70:.\Generated_Source\PSoC5/CySpc.c ****     /* Exit critical section! */
  71:.\Generated_Source\PSoC5/CySpc.c ****     CyExitCriticalSection(interruptState);
  79              		.loc 1 71 0
  80 0038 FB79     		ldrb	r3, [r7, #7]	@ zero_extendqisi2
  81 003a 1846     		mov	r0, r3
  82 003c FFF7FEFF 		bl	CyExitCriticalSection
  72:.\Generated_Source\PSoC5/CySpc.c **** 
  73:.\Generated_Source\PSoC5/CySpc.c ****     return status;
  83              		.loc 1 73 0
  84 0040 3B68     		ldr	r3, [r7, #0]
  74:.\Generated_Source\PSoC5/CySpc.c **** }
  85              		.loc 1 74 0
  86 0042 1846     		mov	r0, r3
  87 0044 07F10807 		add	r7, r7, #8
  88 0048 BD46     		mov	sp, r7
  89 004a 80BD     		pop	{r7, pc}
  90              		.cfi_endproc
  91              	.LFE0:
  92              		.size	CySpcLock, .-CySpcLock
  93              		.section	.text.CySpcWriteCommand,"ax",%progbits
ARM GAS  C:\Users\Geo\AppData\Local\Temp\ccuUflew.s 			page 4


  94              		.align	2
  95              		.global	CySpcWriteCommand
  96              		.thumb
  97              		.thumb_func
  98              		.type	CySpcWriteCommand, %function
  99              	CySpcWriteCommand:
 100              	.LFB1:
  75:.\Generated_Source\PSoC5/CySpc.c **** 
  76:.\Generated_Source\PSoC5/CySpc.c **** 
  77:.\Generated_Source\PSoC5/CySpc.c **** /*******************************************************************************
  78:.\Generated_Source\PSoC5/CySpc.c **** * Function Name: CySpcWriteCommand
  79:.\Generated_Source\PSoC5/CySpc.c **** ********************************************************************************
  80:.\Generated_Source\PSoC5/CySpc.c **** * Summary:
  81:.\Generated_Source\PSoC5/CySpc.c **** *   Writes the command created by one of the "CySpcCreateCmd..." functions, then
  82:.\Generated_Source\PSoC5/CySpc.c **** *   writes the data parameters passed into this function. 
  83:.\Generated_Source\PSoC5/CySpc.c **** *   NOTE: SPC functions are not meant to be called directly by the user application.
  84:.\Generated_Source\PSoC5/CySpc.c **** *
  85:.\Generated_Source\PSoC5/CySpc.c **** * Parameters:
  86:.\Generated_Source\PSoC5/CySpc.c **** * parameters:
  87:.\Generated_Source\PSoC5/CySpc.c **** *   Address of the parameters associated with the SPC function being executed.
  88:.\Generated_Source\PSoC5/CySpc.c **** *   NOTE: SPC functions are not meant to be called directly by the user application.
  89:.\Generated_Source\PSoC5/CySpc.c **** *
  90:.\Generated_Source\PSoC5/CySpc.c **** * size:
  91:.\Generated_Source\PSoC5/CySpc.c **** *   size of data in bytes.
  92:.\Generated_Source\PSoC5/CySpc.c **** *
  93:.\Generated_Source\PSoC5/CySpc.c **** *   
  94:.\Generated_Source\PSoC5/CySpc.c **** * Return:
  95:.\Generated_Source\PSoC5/CySpc.c **** *   CYRET_LOCKED if the SPC is in use.
  96:.\Generated_Source\PSoC5/CySpc.c **** *   CYRET_CANCELED if the SPC didn't accept the commnad.
  97:.\Generated_Source\PSoC5/CySpc.c **** *   CYRET_STARTED if the command and data was correctly started.
  98:.\Generated_Source\PSoC5/CySpc.c **** *
  99:.\Generated_Source\PSoC5/CySpc.c **** * Theory:
 100:.\Generated_Source\PSoC5/CySpc.c **** *   This function must be called after one of the "CySpcCreateCmd..." functions.
 101:.\Generated_Source\PSoC5/CySpc.c **** *   This function writes the command and data parameters to the
 102:.\Generated_Source\PSoC5/CySpc.c **** *   SPC.
 103:.\Generated_Source\PSoC5/CySpc.c **** *
 104:.\Generated_Source\PSoC5/CySpc.c **** *
 105:.\Generated_Source\PSoC5/CySpc.c **** *******************************************************************************/
 106:.\Generated_Source\PSoC5/CySpc.c **** cystatus CySpcWriteCommand(uint8 * parameters, uint16 size)
 107:.\Generated_Source\PSoC5/CySpc.c **** {
 101              		.loc 1 107 0
 102              		.cfi_startproc
 103              		@ args = 0, pretend = 0, frame = 16
 104              		@ frame_needed = 1, uses_anonymous_args = 0
 105              		@ link register save eliminated.
 106 0000 80B4     		push	{r7}
 107              	.LCFI3:
 108              		.cfi_def_cfa_offset 4
 109 0002 85B0     		sub	sp, sp, #20
 110              	.LCFI4:
 111              		.cfi_def_cfa_offset 24
 112 0004 00AF     		add	r7, sp, #0
 113              		.cfi_offset 7, -4
 114              	.LCFI5:
 115              		.cfi_def_cfa_register 7
 116 0006 7860     		str	r0, [r7, #4]
 117 0008 0B46     		mov	r3, r1
ARM GAS  C:\Users\Geo\AppData\Local\Temp\ccuUflew.s 			page 5


 118 000a 7B80     		strh	r3, [r7, #2]	@ movhi
 108:.\Generated_Source\PSoC5/CySpc.c ****     uint16 index;
 109:.\Generated_Source\PSoC5/CySpc.c ****     cystatus status;
 110:.\Generated_Source\PSoC5/CySpc.c **** 
 111:.\Generated_Source\PSoC5/CySpc.c **** 
 112:.\Generated_Source\PSoC5/CySpc.c ****     /* Has the SPC controller started something? */
 113:.\Generated_Source\PSoC5/CySpc.c ****     if(*SPC_STATUS & SPC_SPC_IDLE)
 119              		.loc 1 113 0
 120 000c 44F22273 		movw	r3, #:lower16:1073760034
 121 0010 C4F20003 		movt	r3, #:upper16:1073760034
 122 0014 1B78     		ldrb	r3, [r3, #0]
 123 0016 DBB2     		uxtb	r3, r3
 124 0018 03F00203 		and	r3, r3, #2
 125 001c 002B     		cmp	r3, #0
 126 001e 61D0     		beq	.L6
 114:.\Generated_Source\PSoC5/CySpc.c ****     {
 115:.\Generated_Source\PSoC5/CySpc.c ****         /* Create packet. */
 116:.\Generated_Source\PSoC5/CySpc.c ****         *SPC_CPU_DATA = cyCommand[0];
 127              		.loc 1 116 0
 128 0020 44F22073 		movw	r3, #:lower16:1073760032
 129 0024 C4F20003 		movt	r3, #:upper16:1073760032
 130 0028 40F20002 		movw	r2, #:lower16:cyCommand
 131 002c C0F20002 		movt	r2, #:upper16:cyCommand
 132 0030 1278     		ldrb	r2, [r2, #0]	@ zero_extendqisi2
 133 0032 1A70     		strb	r2, [r3, #0]
 117:.\Generated_Source\PSoC5/CySpc.c ****         *SPC_CPU_DATA = cyCommand[1];
 134              		.loc 1 117 0
 135 0034 44F22073 		movw	r3, #:lower16:1073760032
 136 0038 C4F20003 		movt	r3, #:upper16:1073760032
 137 003c 40F20002 		movw	r2, #:lower16:cyCommand
 138 0040 C0F20002 		movt	r2, #:upper16:cyCommand
 139 0044 5278     		ldrb	r2, [r2, #1]	@ zero_extendqisi2
 140 0046 1A70     		strb	r2, [r3, #0]
 118:.\Generated_Source\PSoC5/CySpc.c ****         *SPC_CPU_DATA = cyCommand[2];
 141              		.loc 1 118 0
 142 0048 44F22073 		movw	r3, #:lower16:1073760032
 143 004c C4F20003 		movt	r3, #:upper16:1073760032
 144 0050 40F20002 		movw	r2, #:lower16:cyCommand
 145 0054 C0F20002 		movt	r2, #:upper16:cyCommand
 146 0058 9278     		ldrb	r2, [r2, #2]	@ zero_extendqisi2
 147 005a 1A70     		strb	r2, [r3, #0]
 119:.\Generated_Source\PSoC5/CySpc.c **** 
 120:.\Generated_Source\PSoC5/CySpc.c ****         /* Make sure the command was accepted. */
 121:.\Generated_Source\PSoC5/CySpc.c ****         if(!(*SPC_STATUS & SPC_SPC_IDLE))
 148              		.loc 1 121 0
 149 005c 44F22273 		movw	r3, #:lower16:1073760034
 150 0060 C4F20003 		movt	r3, #:upper16:1073760034
 151 0064 1B78     		ldrb	r3, [r3, #0]
 152 0066 DBB2     		uxtb	r3, r3
 153 0068 03F00203 		and	r3, r3, #2
 154 006c 002B     		cmp	r3, #0
 155 006e 35D1     		bne	.L7
 122:.\Generated_Source\PSoC5/CySpc.c ****         {
 123:.\Generated_Source\PSoC5/CySpc.c ****             /* Write the parameters. */
 124:.\Generated_Source\PSoC5/CySpc.c ****             for(index = 3; index < cyCommandSize + 3; index++)
 156              		.loc 1 124 0
 157 0070 4FF00303 		mov	r3, #3
ARM GAS  C:\Users\Geo\AppData\Local\Temp\ccuUflew.s 			page 6


 158 0074 7B81     		strh	r3, [r7, #10]	@ movhi
 159 0076 0EE0     		b	.L8
 160              	.L9:
 125:.\Generated_Source\PSoC5/CySpc.c ****                 *SPC_CPU_DATA = cyCommand[index];
 161              		.loc 1 125 0
 162 0078 44F22073 		movw	r3, #:lower16:1073760032
 163 007c C4F20003 		movt	r3, #:upper16:1073760032
 164 0080 7989     		ldrh	r1, [r7, #10]
 165 0082 40F20002 		movw	r2, #:lower16:cyCommand
 166 0086 C0F20002 		movt	r2, #:upper16:cyCommand
 167 008a 525C     		ldrb	r2, [r2, r1]	@ zero_extendqisi2
 168 008c 1A70     		strb	r2, [r3, #0]
 169              		.loc 1 124 0
 170 008e 7B89     		ldrh	r3, [r7, #10]	@ movhi
 171 0090 03F10103 		add	r3, r3, #1
 172 0094 7B81     		strh	r3, [r7, #10]	@ movhi
 173              	.L8:
 174 0096 7A89     		ldrh	r2, [r7, #10]
 175 0098 40F20003 		movw	r3, #:lower16:cyCommandSize
 176 009c C0F20003 		movt	r3, #:upper16:cyCommandSize
 177 00a0 1B78     		ldrb	r3, [r3, #0]	@ zero_extendqisi2
 178 00a2 03F10303 		add	r3, r3, #3
 179 00a6 9A42     		cmp	r2, r3
 180 00a8 E6DB     		blt	.L9
 126:.\Generated_Source\PSoC5/CySpc.c **** 
 127:.\Generated_Source\PSoC5/CySpc.c ****             /* Write parameters. */
 128:.\Generated_Source\PSoC5/CySpc.c ****             for(index = 0; index < size; index++)
 181              		.loc 1 128 0
 182 00aa 4FF00003 		mov	r3, #0
 183 00ae 7B81     		strh	r3, [r7, #10]	@ movhi
 184 00b0 0CE0     		b	.L10
 185              	.L11:
 129:.\Generated_Source\PSoC5/CySpc.c ****                 *SPC_CPU_DATA = parameters[index];
 186              		.loc 1 129 0
 187 00b2 44F22073 		movw	r3, #:lower16:1073760032
 188 00b6 C4F20003 		movt	r3, #:upper16:1073760032
 189 00ba 7989     		ldrh	r1, [r7, #10]
 190 00bc 7A68     		ldr	r2, [r7, #4]
 191 00be 0A44     		add	r2, r1, r2
 192 00c0 1278     		ldrb	r2, [r2, #0]	@ zero_extendqisi2
 193 00c2 1A70     		strb	r2, [r3, #0]
 194              		.loc 1 128 0
 195 00c4 7B89     		ldrh	r3, [r7, #10]	@ movhi
 196 00c6 03F10103 		add	r3, r3, #1
 197 00ca 7B81     		strh	r3, [r7, #10]	@ movhi
 198              	.L10:
 199 00cc 7A89     		ldrh	r2, [r7, #10]
 200 00ce 7B88     		ldrh	r3, [r7, #2]
 201 00d0 9A42     		cmp	r2, r3
 202 00d2 EED3     		bcc	.L11
 130:.\Generated_Source\PSoC5/CySpc.c **** 
 131:.\Generated_Source\PSoC5/CySpc.c ****             /* We successfuly wrote the command, the caller can check for errors. */
 132:.\Generated_Source\PSoC5/CySpc.c ****             status = CYRET_STARTED;
 203              		.loc 1 132 0
 204 00d4 4FF00703 		mov	r3, #7
 205 00d8 FB60     		str	r3, [r7, #12]
 133:.\Generated_Source\PSoC5/CySpc.c ****         }
ARM GAS  C:\Users\Geo\AppData\Local\Temp\ccuUflew.s 			page 7


 134:.\Generated_Source\PSoC5/CySpc.c ****         else
 135:.\Generated_Source\PSoC5/CySpc.c ****         {
 136:.\Generated_Source\PSoC5/CySpc.c ****             /* Get the status. */
 137:.\Generated_Source\PSoC5/CySpc.c ****             status = CYRET_CANCELED;
 206              		.loc 1 137 0
 207 00da 06E0     		b	.L13
 208              	.L7:
 209 00dc 4FF00903 		mov	r3, #9
 210 00e0 FB60     		str	r3, [r7, #12]
 211 00e2 02E0     		b	.L13
 212              	.L6:
 138:.\Generated_Source\PSoC5/CySpc.c ****         }
 139:.\Generated_Source\PSoC5/CySpc.c ****     }
 140:.\Generated_Source\PSoC5/CySpc.c ****     else
 141:.\Generated_Source\PSoC5/CySpc.c ****     {
 142:.\Generated_Source\PSoC5/CySpc.c ****         status = CYRET_LOCKED;
 213              		.loc 1 142 0
 214 00e4 4FF00403 		mov	r3, #4
 215 00e8 FB60     		str	r3, [r7, #12]
 216              	.L13:
 143:.\Generated_Source\PSoC5/CySpc.c ****     }
 144:.\Generated_Source\PSoC5/CySpc.c **** 
 145:.\Generated_Source\PSoC5/CySpc.c ****     return status;
 217              		.loc 1 145 0
 218 00ea FB68     		ldr	r3, [r7, #12]
 146:.\Generated_Source\PSoC5/CySpc.c **** }
 219              		.loc 1 146 0
 220 00ec 1846     		mov	r0, r3
 221 00ee 07F11407 		add	r7, r7, #20
 222 00f2 BD46     		mov	sp, r7
 223 00f4 80BC     		pop	{r7}
 224 00f6 7047     		bx	lr
 225              		.cfi_endproc
 226              	.LFE1:
 227              		.size	CySpcWriteCommand, .-CySpcWriteCommand
 228              		.section	.text.CySpcReadData,"ax",%progbits
 229              		.align	2
 230              		.global	CySpcReadData
 231              		.thumb
 232              		.thumb_func
 233              		.type	CySpcReadData, %function
 234              	CySpcReadData:
 235              	.LFB2:
 147:.\Generated_Source\PSoC5/CySpc.c **** 
 148:.\Generated_Source\PSoC5/CySpc.c **** 
 149:.\Generated_Source\PSoC5/CySpc.c **** /*******************************************************************************
 150:.\Generated_Source\PSoC5/CySpc.c **** * Function Name: CySPCReadData
 151:.\Generated_Source\PSoC5/CySpc.c **** ********************************************************************************
 152:.\Generated_Source\PSoC5/CySpc.c **** * Summary:
 153:.\Generated_Source\PSoC5/CySpc.c **** *   Reads data back from the SPC.  
 154:.\Generated_Source\PSoC5/CySpc.c **** *   NOTE: SPC functions are not meant to be called directly by the user application.
 155:.\Generated_Source\PSoC5/CySpc.c **** *
 156:.\Generated_Source\PSoC5/CySpc.c **** * Parameters:
 157:.\Generated_Source\PSoC5/CySpc.c **** * buffer:
 158:.\Generated_Source\PSoC5/CySpc.c **** *   Address to store data read.
 159:.\Generated_Source\PSoC5/CySpc.c **** *
 160:.\Generated_Source\PSoC5/CySpc.c **** * size:
ARM GAS  C:\Users\Geo\AppData\Local\Temp\ccuUflew.s 			page 8


 161:.\Generated_Source\PSoC5/CySpc.c **** *   number of bytes to read from the SPC.
 162:.\Generated_Source\PSoC5/CySpc.c **** *
 163:.\Generated_Source\PSoC5/CySpc.c **** * Return:
 164:.\Generated_Source\PSoC5/CySpc.c **** *   The number of bytes read from the SPC.
 165:.\Generated_Source\PSoC5/CySpc.c **** *
 166:.\Generated_Source\PSoC5/CySpc.c **** *
 167:.\Generated_Source\PSoC5/CySpc.c **** *******************************************************************************/
 168:.\Generated_Source\PSoC5/CySpc.c **** uint8 CySpcReadData(uint8 * buffer, uint8 size) 
 169:.\Generated_Source\PSoC5/CySpc.c **** {
 236              		.loc 1 169 0
 237              		.cfi_startproc
 238              		@ args = 0, pretend = 0, frame = 16
 239              		@ frame_needed = 1, uses_anonymous_args = 0
 240 0000 80B5     		push	{r7, lr}
 241              	.LCFI6:
 242              		.cfi_def_cfa_offset 8
 243 0002 84B0     		sub	sp, sp, #16
 244              	.LCFI7:
 245              		.cfi_def_cfa_offset 24
 246 0004 00AF     		add	r7, sp, #0
 247              		.cfi_offset 14, -4
 248              		.cfi_offset 7, -8
 249              	.LCFI8:
 250              		.cfi_def_cfa_register 7
 251 0006 7860     		str	r0, [r7, #4]
 252 0008 0B46     		mov	r3, r1
 253 000a FB70     		strb	r3, [r7, #3]
 170:.\Generated_Source\PSoC5/CySpc.c ****     uint8 index;
 171:.\Generated_Source\PSoC5/CySpc.c ****     
 172:.\Generated_Source\PSoC5/CySpc.c ****     for(index = 0; index < size; index++)
 254              		.loc 1 172 0
 255 000c 4FF00003 		mov	r3, #0
 256 0010 FB73     		strb	r3, [r7, #15]
 257 0012 1DE0     		b	.L16
 258              	.L18:
 173:.\Generated_Source\PSoC5/CySpc.c ****     {    
 174:.\Generated_Source\PSoC5/CySpc.c ****         while(!(*SPC_STATUS & SPC_DATA_READY))
 175:.\Generated_Source\PSoC5/CySpc.c **** 		{
 176:.\Generated_Source\PSoC5/CySpc.c **** 			CyDelayUs(1);
 259              		.loc 1 176 0
 260 0014 4FF00100 		mov	r0, #1
 261 0018 FFF7FEFF 		bl	CyDelayUs
 262 001c 00E0     		b	.L17
 263              	.L21:
 264              		.loc 1 174 0
 265 001e 00BF     		nop
 266              	.L17:
 267 0020 44F22273 		movw	r3, #:lower16:1073760034
 268 0024 C4F20003 		movt	r3, #:upper16:1073760034
 269 0028 1B78     		ldrb	r3, [r3, #0]
 270 002a DBB2     		uxtb	r3, r3
 271 002c 03F00103 		and	r3, r3, #1
 272 0030 002B     		cmp	r3, #0
 273 0032 EFD0     		beq	.L18
 177:.\Generated_Source\PSoC5/CySpc.c **** 		}
 178:.\Generated_Source\PSoC5/CySpc.c ****         buffer[index] = *SPC_CPU_DATA;
 274              		.loc 1 178 0
ARM GAS  C:\Users\Geo\AppData\Local\Temp\ccuUflew.s 			page 9


 275 0034 FA7B     		ldrb	r2, [r7, #15]	@ zero_extendqisi2
 276 0036 7B68     		ldr	r3, [r7, #4]
 277 0038 1A44     		add	r2, r2, r3
 278 003a 44F22073 		movw	r3, #:lower16:1073760032
 279 003e C4F20003 		movt	r3, #:upper16:1073760032
 280 0042 1B78     		ldrb	r3, [r3, #0]
 281 0044 DBB2     		uxtb	r3, r3
 282 0046 1370     		strb	r3, [r2, #0]
 283              		.loc 1 172 0
 284 0048 FB7B     		ldrb	r3, [r7, #15]
 285 004a 03F10103 		add	r3, r3, #1
 286 004e FB73     		strb	r3, [r7, #15]
 287              	.L16:
 288 0050 FA7B     		ldrb	r2, [r7, #15]	@ zero_extendqisi2
 289 0052 FB78     		ldrb	r3, [r7, #3]	@ zero_extendqisi2
 290 0054 9A42     		cmp	r2, r3
 291 0056 E2D3     		bcc	.L21
 179:.\Generated_Source\PSoC5/CySpc.c ****     }
 180:.\Generated_Source\PSoC5/CySpc.c **** 
 181:.\Generated_Source\PSoC5/CySpc.c ****     return index;
 292              		.loc 1 181 0
 293 0058 FB7B     		ldrb	r3, [r7, #15]	@ zero_extendqisi2
 182:.\Generated_Source\PSoC5/CySpc.c **** }
 294              		.loc 1 182 0
 295 005a 1846     		mov	r0, r3
 296 005c 07F11007 		add	r7, r7, #16
 297 0060 BD46     		mov	sp, r7
 298 0062 80BD     		pop	{r7, pc}
 299              		.cfi_endproc
 300              	.LFE2:
 301              		.size	CySpcReadData, .-CySpcReadData
 302              		.section	.text.CySpcUnlock,"ax",%progbits
 303              		.align	2
 304              		.global	CySpcUnlock
 305              		.thumb
 306              		.thumb_func
 307              		.type	CySpcUnlock, %function
 308              	CySpcUnlock:
 309              	.LFB3:
 183:.\Generated_Source\PSoC5/CySpc.c **** 
 184:.\Generated_Source\PSoC5/CySpc.c **** 
 185:.\Generated_Source\PSoC5/CySpc.c **** /*******************************************************************************
 186:.\Generated_Source\PSoC5/CySpc.c **** * Function Name: CySpcUnlock
 187:.\Generated_Source\PSoC5/CySpc.c **** ********************************************************************************
 188:.\Generated_Source\PSoC5/CySpc.c **** * Summary:
 189:.\Generated_Source\PSoC5/CySpc.c **** *   Unlocks the SPC so it can be used by someone else.
 190:.\Generated_Source\PSoC5/CySpc.c **** *   NOTE: SPC functions are not meant to be called directly by the user application.
 191:.\Generated_Source\PSoC5/CySpc.c **** *
 192:.\Generated_Source\PSoC5/CySpc.c **** * Parameters:
 193:.\Generated_Source\PSoC5/CySpc.c **** *   void.
 194:.\Generated_Source\PSoC5/CySpc.c **** *
 195:.\Generated_Source\PSoC5/CySpc.c **** *   
 196:.\Generated_Source\PSoC5/CySpc.c **** * Return:
 197:.\Generated_Source\PSoC5/CySpc.c **** *   void.
 198:.\Generated_Source\PSoC5/CySpc.c **** *
 199:.\Generated_Source\PSoC5/CySpc.c **** *
 200:.\Generated_Source\PSoC5/CySpc.c **** *******************************************************************************/
ARM GAS  C:\Users\Geo\AppData\Local\Temp\ccuUflew.s 			page 10


 201:.\Generated_Source\PSoC5/CySpc.c **** void CySpcUnlock(void)
 202:.\Generated_Source\PSoC5/CySpc.c **** {
 310              		.loc 1 202 0
 311              		.cfi_startproc
 312              		@ args = 0, pretend = 0, frame = 0
 313              		@ frame_needed = 1, uses_anonymous_args = 0
 314              		@ link register save eliminated.
 315 0000 80B4     		push	{r7}
 316              	.LCFI9:
 317              		.cfi_def_cfa_offset 4
 318 0002 00AF     		add	r7, sp, #0
 319              		.cfi_offset 7, -4
 320              	.LCFI10:
 321              		.cfi_def_cfa_register 7
 203:.\Generated_Source\PSoC5/CySpc.c ****     /* Release the SPC object. */
 204:.\Generated_Source\PSoC5/CySpc.c ****     SpcLockState = 0;
 322              		.loc 1 204 0
 323 0004 40F20003 		movw	r3, #:lower16:SpcLockState
 324 0008 C0F20003 		movt	r3, #:upper16:SpcLockState
 325 000c 4FF00002 		mov	r2, #0
 326 0010 1A70     		strb	r2, [r3, #0]
 205:.\Generated_Source\PSoC5/CySpc.c **** }
 327              		.loc 1 205 0
 328 0012 BD46     		mov	sp, r7
 329 0014 80BC     		pop	{r7}
 330 0016 7047     		bx	lr
 331              		.cfi_endproc
 332              	.LFE3:
 333              		.size	CySpcUnlock, .-CySpcUnlock
 334              		.section	.text.CySpcCreateCmdLoadMultiByte,"ax",%progbits
 335              		.align	2
 336              		.global	CySpcCreateCmdLoadMultiByte
 337              		.thumb
 338              		.thumb_func
 339              		.type	CySpcCreateCmdLoadMultiByte, %function
 340              	CySpcCreateCmdLoadMultiByte:
 341              	.LFB4:
 206:.\Generated_Source\PSoC5/CySpc.c **** 
 207:.\Generated_Source\PSoC5/CySpc.c **** 
 208:.\Generated_Source\PSoC5/CySpc.c **** /*******************************************************************************
 209:.\Generated_Source\PSoC5/CySpc.c **** * Function Name: CySpcCreateCmdLoadMultiByte
 210:.\Generated_Source\PSoC5/CySpc.c **** ********************************************************************************
 211:.\Generated_Source\PSoC5/CySpc.c **** * Summary:
 212:.\Generated_Source\PSoC5/CySpc.c **** *   Sets up the command to LoadMultiByte.
 213:.\Generated_Source\PSoC5/CySpc.c **** *
 214:.\Generated_Source\PSoC5/CySpc.c **** * Parameters:
 215:.\Generated_Source\PSoC5/CySpc.c **** * array:
 216:.\Generated_Source\PSoC5/CySpc.c **** *   Id of the array.
 217:.\Generated_Source\PSoC5/CySpc.c **** *
 218:.\Generated_Source\PSoC5/CySpc.c **** * address:
 219:.\Generated_Source\PSoC5/CySpc.c **** *   flash/eeprom addrress
 220:.\Generated_Source\PSoC5/CySpc.c **** *
 221:.\Generated_Source\PSoC5/CySpc.c **** * number:
 222:.\Generated_Source\PSoC5/CySpc.c **** *   number bytes to load.
 223:.\Generated_Source\PSoC5/CySpc.c **** *   
 224:.\Generated_Source\PSoC5/CySpc.c **** *   
 225:.\Generated_Source\PSoC5/CySpc.c **** * Return:
ARM GAS  C:\Users\Geo\AppData\Local\Temp\ccuUflew.s 			page 11


 226:.\Generated_Source\PSoC5/CySpc.c **** *   CYRET_SUCCESS if the command was created sucessfuly.
 227:.\Generated_Source\PSoC5/CySpc.c **** *   CYRET_BAD_PARAM if an invalid parameter was passed.
 228:.\Generated_Source\PSoC5/CySpc.c **** *
 229:.\Generated_Source\PSoC5/CySpc.c **** * Theory:
 230:.\Generated_Source\PSoC5/CySpc.c **** *
 231:.\Generated_Source\PSoC5/CySpc.c **** *
 232:.\Generated_Source\PSoC5/CySpc.c **** *******************************************************************************/
 233:.\Generated_Source\PSoC5/CySpc.c **** cystatus CySpcCreateCmdLoadMultiByte(uint8 array, uint16 address, uint16 number)
 234:.\Generated_Source\PSoC5/CySpc.c **** {
 342              		.loc 1 234 0
 343              		.cfi_startproc
 344              		@ args = 0, pretend = 0, frame = 16
 345              		@ frame_needed = 1, uses_anonymous_args = 0
 346              		@ link register save eliminated.
 347 0000 80B4     		push	{r7}
 348              	.LCFI11:
 349              		.cfi_def_cfa_offset 4
 350 0002 85B0     		sub	sp, sp, #20
 351              	.LCFI12:
 352              		.cfi_def_cfa_offset 24
 353 0004 00AF     		add	r7, sp, #0
 354              		.cfi_offset 7, -4
 355              	.LCFI13:
 356              		.cfi_def_cfa_register 7
 357 0006 1346     		mov	r3, r2
 358 0008 0246     		mov	r2, r0
 359 000a FA71     		strb	r2, [r7, #7]
 360 000c 0A46     		mov	r2, r1	@ movhi
 361 000e BA80     		strh	r2, [r7, #4]	@ movhi
 362 0010 7B80     		strh	r3, [r7, #2]	@ movhi
 235:.\Generated_Source\PSoC5/CySpc.c ****     cystatus status;
 236:.\Generated_Source\PSoC5/CySpc.c **** 
 237:.\Generated_Source\PSoC5/CySpc.c **** 
 238:.\Generated_Source\PSoC5/CySpc.c ****     /* Check if number is correct for array. 
 239:.\Generated_Source\PSoC5/CySpc.c ****        number must be less than 32 for Flash or less than 16 for EEPROM 
 240:.\Generated_Source\PSoC5/CySpc.c **** 	*/
 241:.\Generated_Source\PSoC5/CySpc.c ****     if((array < LAST_FLASH_ARRAYID && number == 32) ||
 363              		.loc 1 241 0
 364 0012 FB79     		ldrb	r3, [r7, #7]	@ zero_extendqisi2
 365 0014 3E2B     		cmp	r3, #62
 366 0016 02D8     		bhi	.L25
 367 0018 7B88     		ldrh	r3, [r7, #2]
 368 001a 202B     		cmp	r3, #32
 369 001c 05D0     		beq	.L26
 370              	.L25:
 371 001e FB79     		ldrb	r3, [r7, #7]	@ zero_extendqisi2
 372 0020 3F2B     		cmp	r3, #63
 373 0022 46D9     		bls	.L27
 374 0024 7B88     		ldrh	r3, [r7, #2]
 375 0026 102B     		cmp	r3, #16
 376 0028 43D1     		bne	.L27
 377              	.L26:
 242:.\Generated_Source\PSoC5/CySpc.c ****        (array > LAST_FLASH_ARRAYID && number == 16))
 243:.\Generated_Source\PSoC5/CySpc.c ****     {
 244:.\Generated_Source\PSoC5/CySpc.c ****         /* Create packet command. */
 245:.\Generated_Source\PSoC5/CySpc.c ****         cyCommand[0] = SPC_KEY_ONE;
 378              		.loc 1 245 0
ARM GAS  C:\Users\Geo\AppData\Local\Temp\ccuUflew.s 			page 12


 379 002a 40F20003 		movw	r3, #:lower16:cyCommand
 380 002e C0F20003 		movt	r3, #:upper16:cyCommand
 381 0032 6FF04902 		mvn	r2, #73
 382 0036 1A70     		strb	r2, [r3, #0]
 246:.\Generated_Source\PSoC5/CySpc.c ****         cyCommand[1] = SPC_KEY_TWO(SPC_CMD_LD_MULTI_BYTE);
 383              		.loc 1 246 0
 384 0038 40F20003 		movw	r3, #:lower16:cyCommand
 385 003c C0F20003 		movt	r3, #:upper16:cyCommand
 386 0040 6FF02B02 		mvn	r2, #43
 387 0044 5A70     		strb	r2, [r3, #1]
 247:.\Generated_Source\PSoC5/CySpc.c ****         cyCommand[2] = SPC_CMD_LD_MULTI_BYTE;
 388              		.loc 1 247 0
 389 0046 40F20003 		movw	r3, #:lower16:cyCommand
 390 004a C0F20003 		movt	r3, #:upper16:cyCommand
 391 004e 4FF00102 		mov	r2, #1
 392 0052 9A70     		strb	r2, [r3, #2]
 248:.\Generated_Source\PSoC5/CySpc.c ****         
 249:.\Generated_Source\PSoC5/CySpc.c ****         /* Create packet parameters. */
 250:.\Generated_Source\PSoC5/CySpc.c ****         cyCommand[3] = array;
 393              		.loc 1 250 0
 394 0054 40F20003 		movw	r3, #:lower16:cyCommand
 395 0058 C0F20003 		movt	r3, #:upper16:cyCommand
 396 005c FA79     		ldrb	r2, [r7, #7]
 397 005e DA70     		strb	r2, [r3, #3]
 251:.\Generated_Source\PSoC5/CySpc.c ****         cyCommand[4] = 1 & HI8(address);
 398              		.loc 1 251 0
 399 0060 BB88     		ldrh	r3, [r7, #4]
 400 0062 4FEA1323 		lsr	r3, r3, #8
 401 0066 9BB2     		uxth	r3, r3
 402 0068 DBB2     		uxtb	r3, r3
 403 006a 1A46     		mov	r2, r3
 404 006c 02F00102 		and	r2, r2, #1
 405 0070 40F20003 		movw	r3, #:lower16:cyCommand
 406 0074 C0F20003 		movt	r3, #:upper16:cyCommand
 407 0078 1A71     		strb	r2, [r3, #4]
 252:.\Generated_Source\PSoC5/CySpc.c ****         cyCommand[5] = LO8(address);
 408              		.loc 1 252 0
 409 007a BB88     		ldrh	r3, [r7, #4]	@ movhi
 410 007c DAB2     		uxtb	r2, r3
 411 007e 40F20003 		movw	r3, #:lower16:cyCommand
 412 0082 C0F20003 		movt	r3, #:upper16:cyCommand
 413 0086 5A71     		strb	r2, [r3, #5]
 253:.\Generated_Source\PSoC5/CySpc.c ****         cyCommand[6] = number - 1;
 414              		.loc 1 253 0
 415 0088 7B88     		ldrh	r3, [r7, #2]	@ movhi
 416 008a DBB2     		uxtb	r3, r3
 417 008c 03F1FF33 		add	r3, r3, #-1
 418 0090 DAB2     		uxtb	r2, r3
 419 0092 40F20003 		movw	r3, #:lower16:cyCommand
 420 0096 C0F20003 		movt	r3, #:upper16:cyCommand
 421 009a 9A71     		strb	r2, [r3, #6]
 254:.\Generated_Source\PSoC5/CySpc.c **** 
 255:.\Generated_Source\PSoC5/CySpc.c ****         cyCommandSize = SIZEOF_CMD_LOAD_MBYTE;
 422              		.loc 1 255 0
 423 009c 40F20003 		movw	r3, #:lower16:cyCommandSize
 424 00a0 C0F20003 		movt	r3, #:upper16:cyCommandSize
 425 00a4 4FF00402 		mov	r2, #4
ARM GAS  C:\Users\Geo\AppData\Local\Temp\ccuUflew.s 			page 13


 426 00a8 1A70     		strb	r2, [r3, #0]
 256:.\Generated_Source\PSoC5/CySpc.c **** 
 257:.\Generated_Source\PSoC5/CySpc.c ****         status = CYRET_SUCCESS;
 427              		.loc 1 257 0
 428 00aa 4FF00003 		mov	r3, #0
 429 00ae FB60     		str	r3, [r7, #12]
 430              		.loc 1 241 0
 431 00b0 02E0     		b	.L28
 432              	.L27:
 258:.\Generated_Source\PSoC5/CySpc.c ****     }
 259:.\Generated_Source\PSoC5/CySpc.c ****     else
 260:.\Generated_Source\PSoC5/CySpc.c ****     {
 261:.\Generated_Source\PSoC5/CySpc.c ****         status = CYRET_BAD_PARAM;
 433              		.loc 1 261 0
 434 00b2 4FF00103 		mov	r3, #1
 435 00b6 FB60     		str	r3, [r7, #12]
 436              	.L28:
 262:.\Generated_Source\PSoC5/CySpc.c ****     }
 263:.\Generated_Source\PSoC5/CySpc.c **** 
 264:.\Generated_Source\PSoC5/CySpc.c ****     return status;
 437              		.loc 1 264 0
 438 00b8 FB68     		ldr	r3, [r7, #12]
 265:.\Generated_Source\PSoC5/CySpc.c **** }
 439              		.loc 1 265 0
 440 00ba 1846     		mov	r0, r3
 441 00bc 07F11407 		add	r7, r7, #20
 442 00c0 BD46     		mov	sp, r7
 443 00c2 80BC     		pop	{r7}
 444 00c4 7047     		bx	lr
 445              		.cfi_endproc
 446              	.LFE4:
 447              		.size	CySpcCreateCmdLoadMultiByte, .-CySpcCreateCmdLoadMultiByte
 448 00c6 00BF     		.section	.text.CySpcCreateCmdLoadRow,"ax",%progbits
 449              		.align	2
 450              		.global	CySpcCreateCmdLoadRow
 451              		.thumb
 452              		.thumb_func
 453              		.type	CySpcCreateCmdLoadRow, %function
 454              	CySpcCreateCmdLoadRow:
 455              	.LFB5:
 266:.\Generated_Source\PSoC5/CySpc.c **** 
 267:.\Generated_Source\PSoC5/CySpc.c **** 
 268:.\Generated_Source\PSoC5/CySpc.c **** /*******************************************************************************
 269:.\Generated_Source\PSoC5/CySpc.c **** * Function Name: CySpcCreateCmdLoadRow
 270:.\Generated_Source\PSoC5/CySpc.c **** ********************************************************************************
 271:.\Generated_Source\PSoC5/CySpc.c **** * Summary:
 272:.\Generated_Source\PSoC5/CySpc.c **** *   Sets up the command to LoadRow.
 273:.\Generated_Source\PSoC5/CySpc.c **** *   NOTE: SPC functions are not meant to be called directly by the user application.
 274:.\Generated_Source\PSoC5/CySpc.c **** *   
 275:.\Generated_Source\PSoC5/CySpc.c **** *
 276:.\Generated_Source\PSoC5/CySpc.c **** * Parameters:
 277:.\Generated_Source\PSoC5/CySpc.c **** * array:
 278:.\Generated_Source\PSoC5/CySpc.c **** *   Id of the array.
 279:.\Generated_Source\PSoC5/CySpc.c **** *
 280:.\Generated_Source\PSoC5/CySpc.c **** *
 281:.\Generated_Source\PSoC5/CySpc.c **** * Return:
 282:.\Generated_Source\PSoC5/CySpc.c **** *   CYRET_SUCCESS if the command was created sucessfuly.
ARM GAS  C:\Users\Geo\AppData\Local\Temp\ccuUflew.s 			page 14


 283:.\Generated_Source\PSoC5/CySpc.c **** *
 284:.\Generated_Source\PSoC5/CySpc.c **** *
 285:.\Generated_Source\PSoC5/CySpc.c **** * Theory:
 286:.\Generated_Source\PSoC5/CySpc.c **** *
 287:.\Generated_Source\PSoC5/CySpc.c **** *
 288:.\Generated_Source\PSoC5/CySpc.c **** *******************************************************************************/
 289:.\Generated_Source\PSoC5/CySpc.c **** cystatus CySpcCreateCmdLoadRow(uint8 array)
 290:.\Generated_Source\PSoC5/CySpc.c **** {
 456              		.loc 1 290 0
 457              		.cfi_startproc
 458              		@ args = 0, pretend = 0, frame = 16
 459              		@ frame_needed = 1, uses_anonymous_args = 0
 460              		@ link register save eliminated.
 461 0000 80B4     		push	{r7}
 462              	.LCFI14:
 463              		.cfi_def_cfa_offset 4
 464 0002 85B0     		sub	sp, sp, #20
 465              	.LCFI15:
 466              		.cfi_def_cfa_offset 24
 467 0004 00AF     		add	r7, sp, #0
 468              		.cfi_offset 7, -4
 469              	.LCFI16:
 470              		.cfi_def_cfa_register 7
 471 0006 0346     		mov	r3, r0
 472 0008 FB71     		strb	r3, [r7, #7]
 291:.\Generated_Source\PSoC5/CySpc.c ****     cystatus status;
 292:.\Generated_Source\PSoC5/CySpc.c **** 
 293:.\Generated_Source\PSoC5/CySpc.c **** 
 294:.\Generated_Source\PSoC5/CySpc.c ****     /* Create packet command. */
 295:.\Generated_Source\PSoC5/CySpc.c ****     cyCommand[0] = SPC_KEY_ONE;
 473              		.loc 1 295 0
 474 000a 40F20003 		movw	r3, #:lower16:cyCommand
 475 000e C0F20003 		movt	r3, #:upper16:cyCommand
 476 0012 6FF04902 		mvn	r2, #73
 477 0016 1A70     		strb	r2, [r3, #0]
 296:.\Generated_Source\PSoC5/CySpc.c ****     cyCommand[1] = SPC_KEY_TWO(SPC_CMD_LD_ROW);
 478              		.loc 1 296 0
 479 0018 40F20003 		movw	r3, #:lower16:cyCommand
 480 001c C0F20003 		movt	r3, #:upper16:cyCommand
 481 0020 6FF02A02 		mvn	r2, #42
 482 0024 5A70     		strb	r2, [r3, #1]
 297:.\Generated_Source\PSoC5/CySpc.c ****     cyCommand[2] = SPC_CMD_LD_ROW;
 483              		.loc 1 297 0
 484 0026 40F20003 		movw	r3, #:lower16:cyCommand
 485 002a C0F20003 		movt	r3, #:upper16:cyCommand
 486 002e 4FF00202 		mov	r2, #2
 487 0032 9A70     		strb	r2, [r3, #2]
 298:.\Generated_Source\PSoC5/CySpc.c ****     
 299:.\Generated_Source\PSoC5/CySpc.c ****     /* Create packet parameters. */
 300:.\Generated_Source\PSoC5/CySpc.c ****     cyCommand[3] = array;
 488              		.loc 1 300 0
 489 0034 40F20003 		movw	r3, #:lower16:cyCommand
 490 0038 C0F20003 		movt	r3, #:upper16:cyCommand
 491 003c FA79     		ldrb	r2, [r7, #7]
 492 003e DA70     		strb	r2, [r3, #3]
 301:.\Generated_Source\PSoC5/CySpc.c **** 
 302:.\Generated_Source\PSoC5/CySpc.c ****     cyCommandSize = SIZEOF_CMD_LOAD_ROW;
ARM GAS  C:\Users\Geo\AppData\Local\Temp\ccuUflew.s 			page 15


 493              		.loc 1 302 0
 494 0040 40F20003 		movw	r3, #:lower16:cyCommandSize
 495 0044 C0F20003 		movt	r3, #:upper16:cyCommandSize
 496 0048 4FF00102 		mov	r2, #1
 497 004c 1A70     		strb	r2, [r3, #0]
 303:.\Generated_Source\PSoC5/CySpc.c **** 
 304:.\Generated_Source\PSoC5/CySpc.c ****     status = CYRET_SUCCESS;
 498              		.loc 1 304 0
 499 004e 4FF00003 		mov	r3, #0
 500 0052 FB60     		str	r3, [r7, #12]
 305:.\Generated_Source\PSoC5/CySpc.c ****     
 306:.\Generated_Source\PSoC5/CySpc.c ****     
 307:.\Generated_Source\PSoC5/CySpc.c ****     return status;
 501              		.loc 1 307 0
 502 0054 FB68     		ldr	r3, [r7, #12]
 308:.\Generated_Source\PSoC5/CySpc.c **** }
 503              		.loc 1 308 0
 504 0056 1846     		mov	r0, r3
 505 0058 07F11407 		add	r7, r7, #20
 506 005c BD46     		mov	sp, r7
 507 005e 80BC     		pop	{r7}
 508 0060 7047     		bx	lr
 509              		.cfi_endproc
 510              	.LFE5:
 511              		.size	CySpcCreateCmdLoadRow, .-CySpcCreateCmdLoadRow
 512 0062 00BF     		.section	.text.CySpcCreateCmdReadMultiByte,"ax",%progbits
 513              		.align	2
 514              		.global	CySpcCreateCmdReadMultiByte
 515              		.thumb
 516              		.thumb_func
 517              		.type	CySpcCreateCmdReadMultiByte, %function
 518              	CySpcCreateCmdReadMultiByte:
 519              	.LFB6:
 309:.\Generated_Source\PSoC5/CySpc.c **** 
 310:.\Generated_Source\PSoC5/CySpc.c **** 
 311:.\Generated_Source\PSoC5/CySpc.c **** /*******************************************************************************
 312:.\Generated_Source\PSoC5/CySpc.c **** * Function Name: CySpcCreateCmdReadMultiByte
 313:.\Generated_Source\PSoC5/CySpc.c **** ********************************************************************************
 314:.\Generated_Source\PSoC5/CySpc.c **** * Summary:
 315:.\Generated_Source\PSoC5/CySpc.c **** *   Sets up the command to ReadMultiByte.
 316:.\Generated_Source\PSoC5/CySpc.c **** *   NOTE: SPC functions are not meant to be called directly by the user application.
 317:.\Generated_Source\PSoC5/CySpc.c **** *
 318:.\Generated_Source\PSoC5/CySpc.c **** * Parameters:
 319:.\Generated_Source\PSoC5/CySpc.c **** * array:
 320:.\Generated_Source\PSoC5/CySpc.c **** *   Id of the array.
 321:.\Generated_Source\PSoC5/CySpc.c **** *
 322:.\Generated_Source\PSoC5/CySpc.c **** * ecc:
 323:.\Generated_Source\PSoC5/CySpc.c **** *   0x80 if reading ecc data.
 324:.\Generated_Source\PSoC5/CySpc.c **** *   0x00 if user data.
 325:.\Generated_Source\PSoC5/CySpc.c **** *
 326:.\Generated_Source\PSoC5/CySpc.c **** * address:
 327:.\Generated_Source\PSoC5/CySpc.c **** *   flash addrress.
 328:.\Generated_Source\PSoC5/CySpc.c **** *
 329:.\Generated_Source\PSoC5/CySpc.c **** * size:
 330:.\Generated_Source\PSoC5/CySpc.c **** *   number bytes to load.
 331:.\Generated_Source\PSoC5/CySpc.c **** *   
 332:.\Generated_Source\PSoC5/CySpc.c **** * Return:
ARM GAS  C:\Users\Geo\AppData\Local\Temp\ccuUflew.s 			page 16


 333:.\Generated_Source\PSoC5/CySpc.c **** *   CYRET_SUCCESS if the command was created sucessfuly.
 334:.\Generated_Source\PSoC5/CySpc.c **** *
 335:.\Generated_Source\PSoC5/CySpc.c **** * Theory:
 336:.\Generated_Source\PSoC5/CySpc.c **** *
 337:.\Generated_Source\PSoC5/CySpc.c **** *
 338:.\Generated_Source\PSoC5/CySpc.c **** *******************************************************************************/
 339:.\Generated_Source\PSoC5/CySpc.c **** cystatus CySpcCreateCmdReadMultiByte(uint8 array, uint8 ecc, uint16 address, uint8 number)
 340:.\Generated_Source\PSoC5/CySpc.c **** {
 520              		.loc 1 340 0
 521              		.cfi_startproc
 522              		@ args = 0, pretend = 0, frame = 16
 523              		@ frame_needed = 1, uses_anonymous_args = 0
 524              		@ link register save eliminated.
 525 0000 80B4     		push	{r7}
 526              	.LCFI17:
 527              		.cfi_def_cfa_offset 4
 528 0002 85B0     		sub	sp, sp, #20
 529              	.LCFI18:
 530              		.cfi_def_cfa_offset 24
 531 0004 00AF     		add	r7, sp, #0
 532              		.cfi_offset 7, -4
 533              	.LCFI19:
 534              		.cfi_def_cfa_register 7
 535 0006 F871     		strb	r0, [r7, #7]
 536 0008 B971     		strb	r1, [r7, #6]
 537 000a BA80     		strh	r2, [r7, #4]	@ movhi
 538 000c FB70     		strb	r3, [r7, #3]
 341:.\Generated_Source\PSoC5/CySpc.c ****     cystatus status;
 342:.\Generated_Source\PSoC5/CySpc.c **** 
 343:.\Generated_Source\PSoC5/CySpc.c **** 
 344:.\Generated_Source\PSoC5/CySpc.c ****     /* Create packet command. */
 345:.\Generated_Source\PSoC5/CySpc.c ****     cyCommand[0] = SPC_KEY_ONE;
 539              		.loc 1 345 0
 540 000e 40F20003 		movw	r3, #:lower16:cyCommand
 541 0012 C0F20003 		movt	r3, #:upper16:cyCommand
 542 0016 6FF04902 		mvn	r2, #73
 543 001a 1A70     		strb	r2, [r3, #0]
 346:.\Generated_Source\PSoC5/CySpc.c ****     cyCommand[1] = SPC_KEY_TWO(SPC_CMD_RD_MULTI_BYTE);
 544              		.loc 1 346 0
 545 001c 40F20003 		movw	r3, #:lower16:cyCommand
 546 0020 C0F20003 		movt	r3, #:upper16:cyCommand
 547 0024 6FF02802 		mvn	r2, #40
 548 0028 5A70     		strb	r2, [r3, #1]
 347:.\Generated_Source\PSoC5/CySpc.c ****     cyCommand[2] = SPC_CMD_RD_MULTI_BYTE;
 549              		.loc 1 347 0
 550 002a 40F20003 		movw	r3, #:lower16:cyCommand
 551 002e C0F20003 		movt	r3, #:upper16:cyCommand
 552 0032 4FF00402 		mov	r2, #4
 553 0036 9A70     		strb	r2, [r3, #2]
 348:.\Generated_Source\PSoC5/CySpc.c ****     
 349:.\Generated_Source\PSoC5/CySpc.c ****     /* Create packet parameters. */
 350:.\Generated_Source\PSoC5/CySpc.c ****     cyCommand[3] = array;
 554              		.loc 1 350 0
 555 0038 40F20003 		movw	r3, #:lower16:cyCommand
 556 003c C0F20003 		movt	r3, #:upper16:cyCommand
 557 0040 FA79     		ldrb	r2, [r7, #7]
 558 0042 DA70     		strb	r2, [r3, #3]
ARM GAS  C:\Users\Geo\AppData\Local\Temp\ccuUflew.s 			page 17


 351:.\Generated_Source\PSoC5/CySpc.c ****     cyCommand[4] = ecc;
 559              		.loc 1 351 0
 560 0044 40F20003 		movw	r3, #:lower16:cyCommand
 561 0048 C0F20003 		movt	r3, #:upper16:cyCommand
 562 004c BA79     		ldrb	r2, [r7, #6]
 563 004e 1A71     		strb	r2, [r3, #4]
 352:.\Generated_Source\PSoC5/CySpc.c ****     cyCommand[5] = HI8(address);
 564              		.loc 1 352 0
 565 0050 BB88     		ldrh	r3, [r7, #4]
 566 0052 4FEA1323 		lsr	r3, r3, #8
 567 0056 9BB2     		uxth	r3, r3
 568 0058 DAB2     		uxtb	r2, r3
 569 005a 40F20003 		movw	r3, #:lower16:cyCommand
 570 005e C0F20003 		movt	r3, #:upper16:cyCommand
 571 0062 5A71     		strb	r2, [r3, #5]
 353:.\Generated_Source\PSoC5/CySpc.c ****     cyCommand[6] = LO8(address);
 572              		.loc 1 353 0
 573 0064 BB88     		ldrh	r3, [r7, #4]	@ movhi
 574 0066 DAB2     		uxtb	r2, r3
 575 0068 40F20003 		movw	r3, #:lower16:cyCommand
 576 006c C0F20003 		movt	r3, #:upper16:cyCommand
 577 0070 9A71     		strb	r2, [r3, #6]
 354:.\Generated_Source\PSoC5/CySpc.c ****     cyCommand[7] = number - 1;
 578              		.loc 1 354 0
 579 0072 FB78     		ldrb	r3, [r7, #3]
 580 0074 03F1FF33 		add	r3, r3, #-1
 581 0078 DAB2     		uxtb	r2, r3
 582 007a 40F20003 		movw	r3, #:lower16:cyCommand
 583 007e C0F20003 		movt	r3, #:upper16:cyCommand
 584 0082 DA71     		strb	r2, [r3, #7]
 355:.\Generated_Source\PSoC5/CySpc.c **** 
 356:.\Generated_Source\PSoC5/CySpc.c ****     cyCommandSize = SIZEOF_CMD_READ_MBYTE;
 585              		.loc 1 356 0
 586 0084 40F20003 		movw	r3, #:lower16:cyCommandSize
 587 0088 C0F20003 		movt	r3, #:upper16:cyCommandSize
 588 008c 4FF00502 		mov	r2, #5
 589 0090 1A70     		strb	r2, [r3, #0]
 357:.\Generated_Source\PSoC5/CySpc.c **** 
 358:.\Generated_Source\PSoC5/CySpc.c ****     status = CYRET_SUCCESS;
 590              		.loc 1 358 0
 591 0092 4FF00003 		mov	r3, #0
 592 0096 FB60     		str	r3, [r7, #12]
 359:.\Generated_Source\PSoC5/CySpc.c ****     
 360:.\Generated_Source\PSoC5/CySpc.c ****     return status;
 593              		.loc 1 360 0
 594 0098 FB68     		ldr	r3, [r7, #12]
 361:.\Generated_Source\PSoC5/CySpc.c **** }
 595              		.loc 1 361 0
 596 009a 1846     		mov	r0, r3
 597 009c 07F11407 		add	r7, r7, #20
 598 00a0 BD46     		mov	sp, r7
 599 00a2 80BC     		pop	{r7}
 600 00a4 7047     		bx	lr
 601              		.cfi_endproc
 602              	.LFE6:
 603              		.size	CySpcCreateCmdReadMultiByte, .-CySpcCreateCmdReadMultiByte
 604 00a6 00BF     		.section	.text.CySpcCreateCmdWriteRow,"ax",%progbits
ARM GAS  C:\Users\Geo\AppData\Local\Temp\ccuUflew.s 			page 18


 605              		.align	2
 606              		.global	CySpcCreateCmdWriteRow
 607              		.thumb
 608              		.thumb_func
 609              		.type	CySpcCreateCmdWriteRow, %function
 610              	CySpcCreateCmdWriteRow:
 611              	.LFB7:
 362:.\Generated_Source\PSoC5/CySpc.c **** 
 363:.\Generated_Source\PSoC5/CySpc.c **** 
 364:.\Generated_Source\PSoC5/CySpc.c **** /*******************************************************************************
 365:.\Generated_Source\PSoC5/CySpc.c **** * Function Name: CySpcCreateCmdWriteRow
 366:.\Generated_Source\PSoC5/CySpc.c **** ********************************************************************************
 367:.\Generated_Source\PSoC5/CySpc.c **** * Summary:
 368:.\Generated_Source\PSoC5/CySpc.c **** *   Sets up the command to WriteRow.
 369:.\Generated_Source\PSoC5/CySpc.c **** *   NOTE: SPC functions are not meant to be called directly by the user application.
 370:.\Generated_Source\PSoC5/CySpc.c **** *   
 371:.\Generated_Source\PSoC5/CySpc.c **** *
 372:.\Generated_Source\PSoC5/CySpc.c **** * Parameters:
 373:.\Generated_Source\PSoC5/CySpc.c **** * array:
 374:.\Generated_Source\PSoC5/CySpc.c **** *   Id of the array.
 375:.\Generated_Source\PSoC5/CySpc.c **** *
 376:.\Generated_Source\PSoC5/CySpc.c **** *
 377:.\Generated_Source\PSoC5/CySpc.c **** * address:
 378:.\Generated_Source\PSoC5/CySpc.c **** *   flash/eeprom addrress
 379:.\Generated_Source\PSoC5/CySpc.c **** *
 380:.\Generated_Source\PSoC5/CySpc.c **** *
 381:.\Generated_Source\PSoC5/CySpc.c **** * tempPolarity:
 382:.\Generated_Source\PSoC5/CySpc.c **** *   temperature polarity.
 383:.\Generated_Source\PSoC5/CySpc.c **** *   1: the Temp Magnitude is interpreted as a positive value
 384:.\Generated_Source\PSoC5/CySpc.c **** *   0: the Temp Magnitude is interpreted as a negative value
 385:.\Generated_Source\PSoC5/CySpc.c **** *
 386:.\Generated_Source\PSoC5/CySpc.c **** * tempMagnitute:
 387:.\Generated_Source\PSoC5/CySpc.c **** *   temperature magnitude.
 388:.\Generated_Source\PSoC5/CySpc.c **** *
 389:.\Generated_Source\PSoC5/CySpc.c **** *
 390:.\Generated_Source\PSoC5/CySpc.c **** *   
 391:.\Generated_Source\PSoC5/CySpc.c **** * Return:
 392:.\Generated_Source\PSoC5/CySpc.c **** *   CYRET_SUCCESS if the command was created sucessfuly.
 393:.\Generated_Source\PSoC5/CySpc.c **** *
 394:.\Generated_Source\PSoC5/CySpc.c **** *
 395:.\Generated_Source\PSoC5/CySpc.c **** * Theory:
 396:.\Generated_Source\PSoC5/CySpc.c **** *
 397:.\Generated_Source\PSoC5/CySpc.c **** *
 398:.\Generated_Source\PSoC5/CySpc.c **** *******************************************************************************/
 399:.\Generated_Source\PSoC5/CySpc.c **** cystatus CySpcCreateCmdWriteRow(uint8 array, uint16 address, uint8 tempPolarity, uint8 tempMagnitut
 400:.\Generated_Source\PSoC5/CySpc.c **** {
 612              		.loc 1 400 0
 613              		.cfi_startproc
 614              		@ args = 0, pretend = 0, frame = 16
 615              		@ frame_needed = 1, uses_anonymous_args = 0
 616              		@ link register save eliminated.
 617 0000 80B4     		push	{r7}
 618              	.LCFI20:
 619              		.cfi_def_cfa_offset 4
 620 0002 85B0     		sub	sp, sp, #20
 621              	.LCFI21:
 622              		.cfi_def_cfa_offset 24
ARM GAS  C:\Users\Geo\AppData\Local\Temp\ccuUflew.s 			page 19


 623 0004 00AF     		add	r7, sp, #0
 624              		.cfi_offset 7, -4
 625              	.LCFI22:
 626              		.cfi_def_cfa_register 7
 627 0006 F871     		strb	r0, [r7, #7]
 628 0008 B980     		strh	r1, [r7, #4]	@ movhi
 629 000a FA70     		strb	r2, [r7, #3]
 630 000c BB70     		strb	r3, [r7, #2]
 401:.\Generated_Source\PSoC5/CySpc.c ****     cystatus status;
 402:.\Generated_Source\PSoC5/CySpc.c **** 
 403:.\Generated_Source\PSoC5/CySpc.c ****     
 404:.\Generated_Source\PSoC5/CySpc.c ****     /* Create packet command. */
 405:.\Generated_Source\PSoC5/CySpc.c ****     cyCommand[0] = SPC_KEY_ONE;
 631              		.loc 1 405 0
 632 000e 40F20003 		movw	r3, #:lower16:cyCommand
 633 0012 C0F20003 		movt	r3, #:upper16:cyCommand
 634 0016 6FF04902 		mvn	r2, #73
 635 001a 1A70     		strb	r2, [r3, #0]
 406:.\Generated_Source\PSoC5/CySpc.c ****     cyCommand[1] = SPC_KEY_TWO(SPC_CMD_WR_ROW);
 636              		.loc 1 406 0
 637 001c 40F20003 		movw	r3, #:lower16:cyCommand
 638 0020 C0F20003 		movt	r3, #:upper16:cyCommand
 639 0024 6FF02702 		mvn	r2, #39
 640 0028 5A70     		strb	r2, [r3, #1]
 407:.\Generated_Source\PSoC5/CySpc.c ****     cyCommand[2] = SPC_CMD_WR_ROW;
 641              		.loc 1 407 0
 642 002a 40F20003 		movw	r3, #:lower16:cyCommand
 643 002e C0F20003 		movt	r3, #:upper16:cyCommand
 644 0032 4FF00502 		mov	r2, #5
 645 0036 9A70     		strb	r2, [r3, #2]
 408:.\Generated_Source\PSoC5/CySpc.c ****     
 409:.\Generated_Source\PSoC5/CySpc.c ****     /* Create packet parameters. */
 410:.\Generated_Source\PSoC5/CySpc.c ****     cyCommand[3] = array;
 646              		.loc 1 410 0
 647 0038 40F20003 		movw	r3, #:lower16:cyCommand
 648 003c C0F20003 		movt	r3, #:upper16:cyCommand
 649 0040 FA79     		ldrb	r2, [r7, #7]
 650 0042 DA70     		strb	r2, [r3, #3]
 411:.\Generated_Source\PSoC5/CySpc.c ****     cyCommand[4] = HI8(address);
 651              		.loc 1 411 0
 652 0044 BB88     		ldrh	r3, [r7, #4]
 653 0046 4FEA1323 		lsr	r3, r3, #8
 654 004a 9BB2     		uxth	r3, r3
 655 004c DAB2     		uxtb	r2, r3
 656 004e 40F20003 		movw	r3, #:lower16:cyCommand
 657 0052 C0F20003 		movt	r3, #:upper16:cyCommand
 658 0056 1A71     		strb	r2, [r3, #4]
 412:.\Generated_Source\PSoC5/CySpc.c ****     cyCommand[5] = LO8(address);
 659              		.loc 1 412 0
 660 0058 BB88     		ldrh	r3, [r7, #4]	@ movhi
 661 005a DAB2     		uxtb	r2, r3
 662 005c 40F20003 		movw	r3, #:lower16:cyCommand
 663 0060 C0F20003 		movt	r3, #:upper16:cyCommand
 664 0064 5A71     		strb	r2, [r3, #5]
 413:.\Generated_Source\PSoC5/CySpc.c ****     cyCommand[6] = tempPolarity;
 665              		.loc 1 413 0
 666 0066 40F20003 		movw	r3, #:lower16:cyCommand
ARM GAS  C:\Users\Geo\AppData\Local\Temp\ccuUflew.s 			page 20


 667 006a C0F20003 		movt	r3, #:upper16:cyCommand
 668 006e FA78     		ldrb	r2, [r7, #3]
 669 0070 9A71     		strb	r2, [r3, #6]
 414:.\Generated_Source\PSoC5/CySpc.c ****     cyCommand[7] = tempMagnitute;
 670              		.loc 1 414 0
 671 0072 40F20003 		movw	r3, #:lower16:cyCommand
 672 0076 C0F20003 		movt	r3, #:upper16:cyCommand
 673 007a BA78     		ldrb	r2, [r7, #2]
 674 007c DA71     		strb	r2, [r3, #7]
 415:.\Generated_Source\PSoC5/CySpc.c **** 
 416:.\Generated_Source\PSoC5/CySpc.c ****     cyCommandSize = SIZEOF_CMD_WR_ROW;
 675              		.loc 1 416 0
 676 007e 40F20003 		movw	r3, #:lower16:cyCommandSize
 677 0082 C0F20003 		movt	r3, #:upper16:cyCommandSize
 678 0086 4FF00502 		mov	r2, #5
 679 008a 1A70     		strb	r2, [r3, #0]
 417:.\Generated_Source\PSoC5/CySpc.c **** 
 418:.\Generated_Source\PSoC5/CySpc.c ****     status = CYRET_SUCCESS;
 680              		.loc 1 418 0
 681 008c 4FF00003 		mov	r3, #0
 682 0090 FB60     		str	r3, [r7, #12]
 419:.\Generated_Source\PSoC5/CySpc.c ****     
 420:.\Generated_Source\PSoC5/CySpc.c ****     return status;
 683              		.loc 1 420 0
 684 0092 FB68     		ldr	r3, [r7, #12]
 421:.\Generated_Source\PSoC5/CySpc.c **** }
 685              		.loc 1 421 0
 686 0094 1846     		mov	r0, r3
 687 0096 07F11407 		add	r7, r7, #20
 688 009a BD46     		mov	sp, r7
 689 009c 80BC     		pop	{r7}
 690 009e 7047     		bx	lr
 691              		.cfi_endproc
 692              	.LFE7:
 693              		.size	CySpcCreateCmdWriteRow, .-CySpcCreateCmdWriteRow
 694              		.section	.text.CySpcCreateCmdProgramRow,"ax",%progbits
 695              		.align	2
 696              		.global	CySpcCreateCmdProgramRow
 697              		.thumb
 698              		.thumb_func
 699              		.type	CySpcCreateCmdProgramRow, %function
 700              	CySpcCreateCmdProgramRow:
 701              	.LFB8:
 422:.\Generated_Source\PSoC5/CySpc.c **** 
 423:.\Generated_Source\PSoC5/CySpc.c **** 
 424:.\Generated_Source\PSoC5/CySpc.c **** /*******************************************************************************
 425:.\Generated_Source\PSoC5/CySpc.c **** * Function Name: CySpcCreateCmdProgramRow
 426:.\Generated_Source\PSoC5/CySpc.c **** ********************************************************************************
 427:.\Generated_Source\PSoC5/CySpc.c **** * Summary:
 428:.\Generated_Source\PSoC5/CySpc.c **** *   Sets up the command to ProgramRow.
 429:.\Generated_Source\PSoC5/CySpc.c **** *   NOTE: SPC functions are not meant to be called directly by the user application.
 430:.\Generated_Source\PSoC5/CySpc.c **** *   
 431:.\Generated_Source\PSoC5/CySpc.c **** *
 432:.\Generated_Source\PSoC5/CySpc.c **** * Parameters:
 433:.\Generated_Source\PSoC5/CySpc.c **** * array:
 434:.\Generated_Source\PSoC5/CySpc.c **** *   Id of the array.
 435:.\Generated_Source\PSoC5/CySpc.c **** *
ARM GAS  C:\Users\Geo\AppData\Local\Temp\ccuUflew.s 			page 21


 436:.\Generated_Source\PSoC5/CySpc.c **** * address:
 437:.\Generated_Source\PSoC5/CySpc.c **** *   flash/eeprom addrress
 438:.\Generated_Source\PSoC5/CySpc.c **** *
 439:.\Generated_Source\PSoC5/CySpc.c **** * Return:
 440:.\Generated_Source\PSoC5/CySpc.c **** *   CYRET_SUCCESS if the command was created sucessfuly.
 441:.\Generated_Source\PSoC5/CySpc.c **** *
 442:.\Generated_Source\PSoC5/CySpc.c **** *
 443:.\Generated_Source\PSoC5/CySpc.c **** * Theory:
 444:.\Generated_Source\PSoC5/CySpc.c **** *
 445:.\Generated_Source\PSoC5/CySpc.c **** *
 446:.\Generated_Source\PSoC5/CySpc.c **** *******************************************************************************/
 447:.\Generated_Source\PSoC5/CySpc.c **** cystatus CySpcCreateCmdProgramRow(uint8 array, uint16 address)
 448:.\Generated_Source\PSoC5/CySpc.c **** {
 702              		.loc 1 448 0
 703              		.cfi_startproc
 704              		@ args = 0, pretend = 0, frame = 16
 705              		@ frame_needed = 1, uses_anonymous_args = 0
 706              		@ link register save eliminated.
 707 0000 80B4     		push	{r7}
 708              	.LCFI23:
 709              		.cfi_def_cfa_offset 4
 710 0002 85B0     		sub	sp, sp, #20
 711              	.LCFI24:
 712              		.cfi_def_cfa_offset 24
 713 0004 00AF     		add	r7, sp, #0
 714              		.cfi_offset 7, -4
 715              	.LCFI25:
 716              		.cfi_def_cfa_register 7
 717 0006 0246     		mov	r2, r0
 718 0008 0B46     		mov	r3, r1
 719 000a FA71     		strb	r2, [r7, #7]
 720 000c BB80     		strh	r3, [r7, #4]	@ movhi
 449:.\Generated_Source\PSoC5/CySpc.c ****     cystatus status;
 450:.\Generated_Source\PSoC5/CySpc.c **** 
 451:.\Generated_Source\PSoC5/CySpc.c **** 
 452:.\Generated_Source\PSoC5/CySpc.c ****     /* Create packet command. */
 453:.\Generated_Source\PSoC5/CySpc.c ****     cyCommand[0] = SPC_KEY_ONE;
 721              		.loc 1 453 0
 722 000e 40F20003 		movw	r3, #:lower16:cyCommand
 723 0012 C0F20003 		movt	r3, #:upper16:cyCommand
 724 0016 6FF04902 		mvn	r2, #73
 725 001a 1A70     		strb	r2, [r3, #0]
 454:.\Generated_Source\PSoC5/CySpc.c ****     cyCommand[1] = SPC_KEY_TWO(SPC_CMD_PRG_ROW);
 726              		.loc 1 454 0
 727 001c 40F20003 		movw	r3, #:lower16:cyCommand
 728 0020 C0F20003 		movt	r3, #:upper16:cyCommand
 729 0024 6FF02502 		mvn	r2, #37
 730 0028 5A70     		strb	r2, [r3, #1]
 455:.\Generated_Source\PSoC5/CySpc.c ****     cyCommand[2] = SPC_CMD_PRG_ROW;
 731              		.loc 1 455 0
 732 002a 40F20003 		movw	r3, #:lower16:cyCommand
 733 002e C0F20003 		movt	r3, #:upper16:cyCommand
 734 0032 4FF00702 		mov	r2, #7
 735 0036 9A70     		strb	r2, [r3, #2]
 456:.\Generated_Source\PSoC5/CySpc.c ****     
 457:.\Generated_Source\PSoC5/CySpc.c ****     /* Create packet parameters. */
 458:.\Generated_Source\PSoC5/CySpc.c ****     cyCommand[3] = array;
ARM GAS  C:\Users\Geo\AppData\Local\Temp\ccuUflew.s 			page 22


 736              		.loc 1 458 0
 737 0038 40F20003 		movw	r3, #:lower16:cyCommand
 738 003c C0F20003 		movt	r3, #:upper16:cyCommand
 739 0040 FA79     		ldrb	r2, [r7, #7]
 740 0042 DA70     		strb	r2, [r3, #3]
 459:.\Generated_Source\PSoC5/CySpc.c ****     cyCommand[4] = HI8(address);
 741              		.loc 1 459 0
 742 0044 BB88     		ldrh	r3, [r7, #4]
 743 0046 4FEA1323 		lsr	r3, r3, #8
 744 004a 9BB2     		uxth	r3, r3
 745 004c DAB2     		uxtb	r2, r3
 746 004e 40F20003 		movw	r3, #:lower16:cyCommand
 747 0052 C0F20003 		movt	r3, #:upper16:cyCommand
 748 0056 1A71     		strb	r2, [r3, #4]
 460:.\Generated_Source\PSoC5/CySpc.c ****     cyCommand[5] = LO8(address);
 749              		.loc 1 460 0
 750 0058 BB88     		ldrh	r3, [r7, #4]	@ movhi
 751 005a DAB2     		uxtb	r2, r3
 752 005c 40F20003 		movw	r3, #:lower16:cyCommand
 753 0060 C0F20003 		movt	r3, #:upper16:cyCommand
 754 0064 5A71     		strb	r2, [r3, #5]
 461:.\Generated_Source\PSoC5/CySpc.c **** 
 462:.\Generated_Source\PSoC5/CySpc.c ****     cyCommandSize = SIZEOF_CMD_PRGM_ROW;
 755              		.loc 1 462 0
 756 0066 40F20003 		movw	r3, #:lower16:cyCommandSize
 757 006a C0F20003 		movt	r3, #:upper16:cyCommandSize
 758 006e 4FF00302 		mov	r2, #3
 759 0072 1A70     		strb	r2, [r3, #0]
 463:.\Generated_Source\PSoC5/CySpc.c **** 
 464:.\Generated_Source\PSoC5/CySpc.c ****     status = CYRET_SUCCESS;
 760              		.loc 1 464 0
 761 0074 4FF00003 		mov	r3, #0
 762 0078 FB60     		str	r3, [r7, #12]
 465:.\Generated_Source\PSoC5/CySpc.c ****     
 466:.\Generated_Source\PSoC5/CySpc.c ****     return status;
 763              		.loc 1 466 0
 764 007a FB68     		ldr	r3, [r7, #12]
 467:.\Generated_Source\PSoC5/CySpc.c **** }
 765              		.loc 1 467 0
 766 007c 1846     		mov	r0, r3
 767 007e 07F11407 		add	r7, r7, #20
 768 0082 BD46     		mov	sp, r7
 769 0084 80BC     		pop	{r7}
 770 0086 7047     		bx	lr
 771              		.cfi_endproc
 772              	.LFE8:
 773              		.size	CySpcCreateCmdProgramRow, .-CySpcCreateCmdProgramRow
 774              		.section	.text.CySpcCreateCmdEraseSector,"ax",%progbits
 775              		.align	2
 776              		.global	CySpcCreateCmdEraseSector
 777              		.thumb
 778              		.thumb_func
 779              		.type	CySpcCreateCmdEraseSector, %function
 780              	CySpcCreateCmdEraseSector:
 781              	.LFB9:
 468:.\Generated_Source\PSoC5/CySpc.c **** 
 469:.\Generated_Source\PSoC5/CySpc.c **** 
ARM GAS  C:\Users\Geo\AppData\Local\Temp\ccuUflew.s 			page 23


 470:.\Generated_Source\PSoC5/CySpc.c **** /*******************************************************************************
 471:.\Generated_Source\PSoC5/CySpc.c **** * Function Name: CySpcCreateCmdEraseSector
 472:.\Generated_Source\PSoC5/CySpc.c **** ********************************************************************************
 473:.\Generated_Source\PSoC5/CySpc.c **** * Summary:
 474:.\Generated_Source\PSoC5/CySpc.c **** *   Sets up the command to EraseSector.
 475:.\Generated_Source\PSoC5/CySpc.c **** *   NOTE: SPC functions are not meant to be called directly by the user application.
 476:.\Generated_Source\PSoC5/CySpc.c **** *   
 477:.\Generated_Source\PSoC5/CySpc.c **** *
 478:.\Generated_Source\PSoC5/CySpc.c **** * Parameters:
 479:.\Generated_Source\PSoC5/CySpc.c **** * array:
 480:.\Generated_Source\PSoC5/CySpc.c **** *   Id of the array.
 481:.\Generated_Source\PSoC5/CySpc.c **** *
 482:.\Generated_Source\PSoC5/CySpc.c **** *
 483:.\Generated_Source\PSoC5/CySpc.c **** * address:
 484:.\Generated_Source\PSoC5/CySpc.c **** *   flash/eeprom addrress
 485:.\Generated_Source\PSoC5/CySpc.c **** *
 486:.\Generated_Source\PSoC5/CySpc.c **** *   
 487:.\Generated_Source\PSoC5/CySpc.c **** * Return:
 488:.\Generated_Source\PSoC5/CySpc.c **** *   CYRET_SUCCESS if the command was created sucessfuly.
 489:.\Generated_Source\PSoC5/CySpc.c **** *
 490:.\Generated_Source\PSoC5/CySpc.c **** *
 491:.\Generated_Source\PSoC5/CySpc.c **** * Theory:
 492:.\Generated_Source\PSoC5/CySpc.c **** *
 493:.\Generated_Source\PSoC5/CySpc.c **** *
 494:.\Generated_Source\PSoC5/CySpc.c **** *******************************************************************************/
 495:.\Generated_Source\PSoC5/CySpc.c **** cystatus CySpcCreateCmdEraseSector(uint8 array, uint16 address)
 496:.\Generated_Source\PSoC5/CySpc.c **** {
 782              		.loc 1 496 0
 783              		.cfi_startproc
 784              		@ args = 0, pretend = 0, frame = 16
 785              		@ frame_needed = 1, uses_anonymous_args = 0
 786              		@ link register save eliminated.
 787 0000 80B4     		push	{r7}
 788              	.LCFI26:
 789              		.cfi_def_cfa_offset 4
 790 0002 85B0     		sub	sp, sp, #20
 791              	.LCFI27:
 792              		.cfi_def_cfa_offset 24
 793 0004 00AF     		add	r7, sp, #0
 794              		.cfi_offset 7, -4
 795              	.LCFI28:
 796              		.cfi_def_cfa_register 7
 797 0006 0246     		mov	r2, r0
 798 0008 0B46     		mov	r3, r1
 799 000a FA71     		strb	r2, [r7, #7]
 800 000c BB80     		strh	r3, [r7, #4]	@ movhi
 497:.\Generated_Source\PSoC5/CySpc.c ****     cystatus status;
 498:.\Generated_Source\PSoC5/CySpc.c **** 
 499:.\Generated_Source\PSoC5/CySpc.c ****     
 500:.\Generated_Source\PSoC5/CySpc.c ****     /* Create packet command. */
 501:.\Generated_Source\PSoC5/CySpc.c ****     cyCommand[0] = SPC_KEY_ONE;
 801              		.loc 1 501 0
 802 000e 40F20003 		movw	r3, #:lower16:cyCommand
 803 0012 C0F20003 		movt	r3, #:upper16:cyCommand
 804 0016 6FF04902 		mvn	r2, #73
 805 001a 1A70     		strb	r2, [r3, #0]
 502:.\Generated_Source\PSoC5/CySpc.c ****     cyCommand[1] = SPC_KEY_TWO(SPC_CMD_ER_SECTOR);
ARM GAS  C:\Users\Geo\AppData\Local\Temp\ccuUflew.s 			page 24


 806              		.loc 1 502 0
 807 001c 40F20003 		movw	r3, #:lower16:cyCommand
 808 0020 C0F20003 		movt	r3, #:upper16:cyCommand
 809 0024 6FF02402 		mvn	r2, #36
 810 0028 5A70     		strb	r2, [r3, #1]
 503:.\Generated_Source\PSoC5/CySpc.c ****     cyCommand[2] = SPC_CMD_ER_SECTOR;
 811              		.loc 1 503 0
 812 002a 40F20003 		movw	r3, #:lower16:cyCommand
 813 002e C0F20003 		movt	r3, #:upper16:cyCommand
 814 0032 4FF00802 		mov	r2, #8
 815 0036 9A70     		strb	r2, [r3, #2]
 504:.\Generated_Source\PSoC5/CySpc.c ****     
 505:.\Generated_Source\PSoC5/CySpc.c ****     /* Create packet parameters. */
 506:.\Generated_Source\PSoC5/CySpc.c ****     cyCommand[3] = array;
 816              		.loc 1 506 0
 817 0038 40F20003 		movw	r3, #:lower16:cyCommand
 818 003c C0F20003 		movt	r3, #:upper16:cyCommand
 819 0040 FA79     		ldrb	r2, [r7, #7]
 820 0042 DA70     		strb	r2, [r3, #3]
 507:.\Generated_Source\PSoC5/CySpc.c **** 
 508:.\Generated_Source\PSoC5/CySpc.c ****     if(array < LAST_FLASH_ARRAYID)
 821              		.loc 1 508 0
 822 0044 FB79     		ldrb	r3, [r7, #7]	@ zero_extendqisi2
 823 0046 3E2B     		cmp	r3, #62
 824 0048 07D8     		bhi	.L39
 509:.\Generated_Source\PSoC5/CySpc.c ****     {
 510:.\Generated_Source\PSoC5/CySpc.c ****         cyCommand[4] = FLASH_SECTOR_ADDRESS(address);  
 825              		.loc 1 510 0
 826 004a BB88     		ldrh	r3, [r7, #4]	@ movhi
 827 004c DAB2     		uxtb	r2, r3
 828 004e 40F20003 		movw	r3, #:lower16:cyCommand
 829 0052 C0F20003 		movt	r3, #:upper16:cyCommand
 830 0056 1A71     		strb	r2, [r3, #4]
 831 0058 09E0     		b	.L40
 832              	.L39:
 511:.\Generated_Source\PSoC5/CySpc.c ****     }
 512:.\Generated_Source\PSoC5/CySpc.c ****     else
 513:.\Generated_Source\PSoC5/CySpc.c ****     {
 514:.\Generated_Source\PSoC5/CySpc.c ****         cyCommand[4] = EEPROM_SECTOR_ADDRESS(address);  
 833              		.loc 1 514 0
 834 005a BB88     		ldrh	r3, [r7, #4]	@ movhi
 835 005c DBB2     		uxtb	r3, r3
 836 005e 1A46     		mov	r2, r3
 837 0060 02F07F02 		and	r2, r2, #127
 838 0064 40F20003 		movw	r3, #:lower16:cyCommand
 839 0068 C0F20003 		movt	r3, #:upper16:cyCommand
 840 006c 1A71     		strb	r2, [r3, #4]
 841              	.L40:
 515:.\Generated_Source\PSoC5/CySpc.c ****     }
 516:.\Generated_Source\PSoC5/CySpc.c **** 
 517:.\Generated_Source\PSoC5/CySpc.c ****     cyCommandSize = SIZEOF_CMD_ER_SECTOR;
 842              		.loc 1 517 0
 843 006e 40F20003 		movw	r3, #:lower16:cyCommandSize
 844 0072 C0F20003 		movt	r3, #:upper16:cyCommandSize
 845 0076 4FF00202 		mov	r2, #2
 846 007a 1A70     		strb	r2, [r3, #0]
 518:.\Generated_Source\PSoC5/CySpc.c **** 
ARM GAS  C:\Users\Geo\AppData\Local\Temp\ccuUflew.s 			page 25


 519:.\Generated_Source\PSoC5/CySpc.c ****     status = CYRET_SUCCESS;
 847              		.loc 1 519 0
 848 007c 4FF00003 		mov	r3, #0
 849 0080 FB60     		str	r3, [r7, #12]
 520:.\Generated_Source\PSoC5/CySpc.c ****     
 521:.\Generated_Source\PSoC5/CySpc.c ****     return status;
 850              		.loc 1 521 0
 851 0082 FB68     		ldr	r3, [r7, #12]
 522:.\Generated_Source\PSoC5/CySpc.c **** }
 852              		.loc 1 522 0
 853 0084 1846     		mov	r0, r3
 854 0086 07F11407 		add	r7, r7, #20
 855 008a BD46     		mov	sp, r7
 856 008c 80BC     		pop	{r7}
 857 008e 7047     		bx	lr
 858              		.cfi_endproc
 859              	.LFE9:
 860              		.size	CySpcCreateCmdEraseSector, .-CySpcCreateCmdEraseSector
 861              		.section	.text.CySpcCreateCmdGetTemp,"ax",%progbits
 862              		.align	2
 863              		.global	CySpcCreateCmdGetTemp
 864              		.thumb
 865              		.thumb_func
 866              		.type	CySpcCreateCmdGetTemp, %function
 867              	CySpcCreateCmdGetTemp:
 868              	.LFB10:
 523:.\Generated_Source\PSoC5/CySpc.c **** 
 524:.\Generated_Source\PSoC5/CySpc.c **** 
 525:.\Generated_Source\PSoC5/CySpc.c **** /*******************************************************************************
 526:.\Generated_Source\PSoC5/CySpc.c **** * Function Name: CySpcCreateCmdGetTemp
 527:.\Generated_Source\PSoC5/CySpc.c **** ********************************************************************************
 528:.\Generated_Source\PSoC5/CySpc.c **** * Summary:
 529:.\Generated_Source\PSoC5/CySpc.c **** *   Sets up the command to GetTemp.
 530:.\Generated_Source\PSoC5/CySpc.c **** *   NOTE: SPC functions are not meant to be called directly by the user application.
 531:.\Generated_Source\PSoC5/CySpc.c **** *   
 532:.\Generated_Source\PSoC5/CySpc.c **** *
 533:.\Generated_Source\PSoC5/CySpc.c **** * Parameters:
 534:.\Generated_Source\PSoC5/CySpc.c **** * numSamples:
 535:.\Generated_Source\PSoC5/CySpc.c **** *   Number of samples. Valid values are 1-5, resulting in 2 - 32 samples respectively.
 536:.\Generated_Source\PSoC5/CySpc.c **** *
 537:.\Generated_Source\PSoC5/CySpc.c **** * timerPeriod:
 538:.\Generated_Source\PSoC5/CySpc.c **** *   Number of ADC ACLK cycles. A valid 14 bit value is accepted, higher 2 bits 
 539:.\Generated_Source\PSoC5/CySpc.c **** *   of 16 bit values are ignored.
 540:.\Generated_Source\PSoC5/CySpc.c **** *
 541:.\Generated_Source\PSoC5/CySpc.c **** * clkDivSelect:
 542:.\Generated_Source\PSoC5/CySpc.c **** *   ADC ACLK clock divide value. Valid values are 2 - 225.
 543:.\Generated_Source\PSoC5/CySpc.c **** *   
 544:.\Generated_Source\PSoC5/CySpc.c **** * Return:
 545:.\Generated_Source\PSoC5/CySpc.c **** *   CYRET_SUCCESS if the command was created sucessfuly.
 546:.\Generated_Source\PSoC5/CySpc.c **** *   CYRET_BAD_PARAM if an invalid parameter was passed.
 547:.\Generated_Source\PSoC5/CySpc.c **** *
 548:.\Generated_Source\PSoC5/CySpc.c **** * Theory:
 549:.\Generated_Source\PSoC5/CySpc.c **** *
 550:.\Generated_Source\PSoC5/CySpc.c **** *
 551:.\Generated_Source\PSoC5/CySpc.c **** *******************************************************************************/
 552:.\Generated_Source\PSoC5/CySpc.c **** cystatus CySpcCreateCmdGetTemp(uint8 numSamples, uint16 timerPeriod, uint8 clkDivSelect)
 553:.\Generated_Source\PSoC5/CySpc.c **** {
ARM GAS  C:\Users\Geo\AppData\Local\Temp\ccuUflew.s 			page 26


 869              		.loc 1 553 0
 870              		.cfi_startproc
 871              		@ args = 0, pretend = 0, frame = 16
 872              		@ frame_needed = 1, uses_anonymous_args = 0
 873              		@ link register save eliminated.
 874 0000 80B4     		push	{r7}
 875              	.LCFI29:
 876              		.cfi_def_cfa_offset 4
 877 0002 85B0     		sub	sp, sp, #20
 878              	.LCFI30:
 879              		.cfi_def_cfa_offset 24
 880 0004 00AF     		add	r7, sp, #0
 881              		.cfi_offset 7, -4
 882              	.LCFI31:
 883              		.cfi_def_cfa_register 7
 884 0006 1346     		mov	r3, r2
 885 0008 0246     		mov	r2, r0
 886 000a FA71     		strb	r2, [r7, #7]
 887 000c 0A46     		mov	r2, r1	@ movhi
 888 000e BA80     		strh	r2, [r7, #4]	@ movhi
 889 0010 FB70     		strb	r3, [r7, #3]
 554:.\Generated_Source\PSoC5/CySpc.c ****     cystatus status;
 555:.\Generated_Source\PSoC5/CySpc.c **** 
 556:.\Generated_Source\PSoC5/CySpc.c **** 
 557:.\Generated_Source\PSoC5/CySpc.c ****     /* Check parameters. */
 558:.\Generated_Source\PSoC5/CySpc.c ****     if(numSamples)
 890              		.loc 1 558 0
 891 0012 FB79     		ldrb	r3, [r7, #7]	@ zero_extendqisi2
 892 0014 002B     		cmp	r3, #0
 893 0016 3CD0     		beq	.L43
 559:.\Generated_Source\PSoC5/CySpc.c ****     {
 560:.\Generated_Source\PSoC5/CySpc.c ****         /* Create packet command. */
 561:.\Generated_Source\PSoC5/CySpc.c ****         cyCommand[0] = SPC_KEY_ONE;
 894              		.loc 1 561 0
 895 0018 40F20003 		movw	r3, #:lower16:cyCommand
 896 001c C0F20003 		movt	r3, #:upper16:cyCommand
 897 0020 6FF04902 		mvn	r2, #73
 898 0024 1A70     		strb	r2, [r3, #0]
 562:.\Generated_Source\PSoC5/CySpc.c ****         cyCommand[1] = SPC_KEY_TWO(SPC_CMD_GET_TEMP);
 899              		.loc 1 562 0
 900 0026 40F20003 		movw	r3, #:lower16:cyCommand
 901 002a C0F20003 		movt	r3, #:upper16:cyCommand
 902 002e 6FF01E02 		mvn	r2, #30
 903 0032 5A70     		strb	r2, [r3, #1]
 563:.\Generated_Source\PSoC5/CySpc.c ****         cyCommand[2] = SPC_CMD_GET_TEMP;
 904              		.loc 1 563 0
 905 0034 40F20003 		movw	r3, #:lower16:cyCommand
 906 0038 C0F20003 		movt	r3, #:upper16:cyCommand
 907 003c 4FF00E02 		mov	r2, #14
 908 0040 9A70     		strb	r2, [r3, #2]
 564:.\Generated_Source\PSoC5/CySpc.c ****     
 565:.\Generated_Source\PSoC5/CySpc.c ****         /* Create packet parameters. */
 566:.\Generated_Source\PSoC5/CySpc.c ****         cyCommand[3] = numSamples;
 909              		.loc 1 566 0
 910 0042 40F20003 		movw	r3, #:lower16:cyCommand
 911 0046 C0F20003 		movt	r3, #:upper16:cyCommand
 912 004a FA79     		ldrb	r2, [r7, #7]
ARM GAS  C:\Users\Geo\AppData\Local\Temp\ccuUflew.s 			page 27


 913 004c DA70     		strb	r2, [r3, #3]
 567:.\Generated_Source\PSoC5/CySpc.c ****         cyCommand[4] = HI8(timerPeriod);
 914              		.loc 1 567 0
 915 004e BB88     		ldrh	r3, [r7, #4]
 916 0050 4FEA1323 		lsr	r3, r3, #8
 917 0054 9BB2     		uxth	r3, r3
 918 0056 DAB2     		uxtb	r2, r3
 919 0058 40F20003 		movw	r3, #:lower16:cyCommand
 920 005c C0F20003 		movt	r3, #:upper16:cyCommand
 921 0060 1A71     		strb	r2, [r3, #4]
 568:.\Generated_Source\PSoC5/CySpc.c ****         cyCommand[5] = LO8(timerPeriod);
 922              		.loc 1 568 0
 923 0062 BB88     		ldrh	r3, [r7, #4]	@ movhi
 924 0064 DAB2     		uxtb	r2, r3
 925 0066 40F20003 		movw	r3, #:lower16:cyCommand
 926 006a C0F20003 		movt	r3, #:upper16:cyCommand
 927 006e 5A71     		strb	r2, [r3, #5]
 569:.\Generated_Source\PSoC5/CySpc.c ****         cyCommand[6] = clkDivSelect;
 928              		.loc 1 569 0
 929 0070 40F20003 		movw	r3, #:lower16:cyCommand
 930 0074 C0F20003 		movt	r3, #:upper16:cyCommand
 931 0078 FA78     		ldrb	r2, [r7, #3]
 932 007a 9A71     		strb	r2, [r3, #6]
 570:.\Generated_Source\PSoC5/CySpc.c **** 
 571:.\Generated_Source\PSoC5/CySpc.c ****         cyCommandSize = SIZEOF_CMD_GET_TEMP;
 933              		.loc 1 571 0
 934 007c 40F20003 		movw	r3, #:lower16:cyCommandSize
 935 0080 C0F20003 		movt	r3, #:upper16:cyCommandSize
 936 0084 4FF00402 		mov	r2, #4
 937 0088 1A70     		strb	r2, [r3, #0]
 572:.\Generated_Source\PSoC5/CySpc.c **** 
 573:.\Generated_Source\PSoC5/CySpc.c ****         status = CYRET_SUCCESS;
 938              		.loc 1 573 0
 939 008a 4FF00003 		mov	r3, #0
 940 008e FB60     		str	r3, [r7, #12]
 941 0090 02E0     		b	.L44
 942              	.L43:
 574:.\Generated_Source\PSoC5/CySpc.c ****     }
 575:.\Generated_Source\PSoC5/CySpc.c ****     else
 576:.\Generated_Source\PSoC5/CySpc.c ****     {
 577:.\Generated_Source\PSoC5/CySpc.c ****         status = CYRET_BAD_PARAM;
 943              		.loc 1 577 0
 944 0092 4FF00103 		mov	r3, #1
 945 0096 FB60     		str	r3, [r7, #12]
 946              	.L44:
 578:.\Generated_Source\PSoC5/CySpc.c ****     }
 579:.\Generated_Source\PSoC5/CySpc.c **** 
 580:.\Generated_Source\PSoC5/CySpc.c ****     return status;
 947              		.loc 1 580 0
 948 0098 FB68     		ldr	r3, [r7, #12]
 581:.\Generated_Source\PSoC5/CySpc.c **** }
 949              		.loc 1 581 0
 950 009a 1846     		mov	r0, r3
 951 009c 07F11407 		add	r7, r7, #20
 952 00a0 BD46     		mov	sp, r7
 953 00a2 80BC     		pop	{r7}
 954 00a4 7047     		bx	lr
ARM GAS  C:\Users\Geo\AppData\Local\Temp\ccuUflew.s 			page 28


 955              		.cfi_endproc
 956              	.LFE10:
 957              		.size	CySpcCreateCmdGetTemp, .-CySpcCreateCmdGetTemp
 958 00a6 00BF     		.section	.text.CySpcCreateCmdSetupTs,"ax",%progbits
 959              		.align	2
 960              		.global	CySpcCreateCmdSetupTs
 961              		.thumb
 962              		.thumb_func
 963              		.type	CySpcCreateCmdSetupTs, %function
 964              	CySpcCreateCmdSetupTs:
 965              	.LFB11:
 582:.\Generated_Source\PSoC5/CySpc.c **** 
 583:.\Generated_Source\PSoC5/CySpc.c **** 
 584:.\Generated_Source\PSoC5/CySpc.c **** /*******************************************************************************
 585:.\Generated_Source\PSoC5/CySpc.c **** * Function Name: CySpcCreateCmdSetupTs
 586:.\Generated_Source\PSoC5/CySpc.c **** ********************************************************************************
 587:.\Generated_Source\PSoC5/CySpc.c **** * Summary:
 588:.\Generated_Source\PSoC5/CySpc.c **** *   Sets up the command to Setup Temperature Sensor.
 589:.\Generated_Source\PSoC5/CySpc.c **** *   NOTE: SPC functions are not meant to be called directly by the user application.
 590:.\Generated_Source\PSoC5/CySpc.c **** *   
 591:.\Generated_Source\PSoC5/CySpc.c **** *
 592:.\Generated_Source\PSoC5/CySpc.c **** * Parameters:
 593:.\Generated_Source\PSoC5/CySpc.c **** * SeqSelect:
 594:.\Generated_Source\PSoC5/CySpc.c **** *    Selection of current sources for the temperature diode. 
 595:.\Generated_Source\PSoC5/CySpc.c **** *    0: Enables one current path at a time.
 596:.\Generated_Source\PSoC5/CySpc.c **** *    1: Enables multiple current paths at a time.
 597:.\Generated_Source\PSoC5/CySpc.c **** *
 598:.\Generated_Source\PSoC5/CySpc.c **** * SeqFreeze:
 599:.\Generated_Source\PSoC5/CySpc.c **** *    0: Sequencer is enabled, cycling through the set of current paths for the 
 600:.\Generated_Source\PSoC5/CySpc.c **** *    temperature diode to average out the output voltage.
 601:.\Generated_Source\PSoC5/CySpc.c **** *    1: Sequencer is disabled and no cycling of the current paths occurs.
 602:.\Generated_Source\PSoC5/CySpc.c **** *
 603:.\Generated_Source\PSoC5/CySpc.c **** * ClkDivSel:
 604:.\Generated_Source\PSoC5/CySpc.c **** *    The divide ratio of the SPC Clock to be set in the ADC ACLK.
 605:.\Generated_Source\PSoC5/CySpc.c **** *
 606:.\Generated_Source\PSoC5/CySpc.c **** * CurvCompEnable:
 607:.\Generated_Source\PSoC5/CySpc.c **** *    Curvature compensation calculation enabling.
 608:.\Generated_Source\PSoC5/CySpc.c **** *    0: No curvature compensation is used.
 609:.\Generated_Source\PSoC5/CySpc.c **** *    1: Curvature compensation is enabled.
 610:.\Generated_Source\PSoC5/CySpc.c **** *   
 611:.\Generated_Source\PSoC5/CySpc.c **** * Return:
 612:.\Generated_Source\PSoC5/CySpc.c **** *   CYRET_SUCCESS if the command was created sucessfuly.
 613:.\Generated_Source\PSoC5/CySpc.c **** *
 614:.\Generated_Source\PSoC5/CySpc.c **** *
 615:.\Generated_Source\PSoC5/CySpc.c **** * Theory:
 616:.\Generated_Source\PSoC5/CySpc.c **** *
 617:.\Generated_Source\PSoC5/CySpc.c **** *
 618:.\Generated_Source\PSoC5/CySpc.c **** *******************************************************************************/
 619:.\Generated_Source\PSoC5/CySpc.c **** cystatus CySpcCreateCmdSetupTs(uint8 SeqSelect, uint8 SeqFreeze, uint8 ClkDivSel, uint8 CurvCompEna
 620:.\Generated_Source\PSoC5/CySpc.c **** {
 966              		.loc 1 620 0
 967              		.cfi_startproc
 968              		@ args = 0, pretend = 0, frame = 16
 969              		@ frame_needed = 1, uses_anonymous_args = 0
 970              		@ link register save eliminated.
 971 0000 80B4     		push	{r7}
 972              	.LCFI32:
ARM GAS  C:\Users\Geo\AppData\Local\Temp\ccuUflew.s 			page 29


 973              		.cfi_def_cfa_offset 4
 974 0002 85B0     		sub	sp, sp, #20
 975              	.LCFI33:
 976              		.cfi_def_cfa_offset 24
 977 0004 00AF     		add	r7, sp, #0
 978              		.cfi_offset 7, -4
 979              	.LCFI34:
 980              		.cfi_def_cfa_register 7
 981 0006 F871     		strb	r0, [r7, #7]
 982 0008 B971     		strb	r1, [r7, #6]
 983 000a 7A71     		strb	r2, [r7, #5]
 984 000c 3B71     		strb	r3, [r7, #4]
 621:.\Generated_Source\PSoC5/CySpc.c ****     cystatus status;
 622:.\Generated_Source\PSoC5/CySpc.c **** 
 623:.\Generated_Source\PSoC5/CySpc.c ****     
 624:.\Generated_Source\PSoC5/CySpc.c ****     /* Create packet command. */
 625:.\Generated_Source\PSoC5/CySpc.c ****     cyCommand[0] = SPC_KEY_ONE;
 985              		.loc 1 625 0
 986 000e 40F20003 		movw	r3, #:lower16:cyCommand
 987 0012 C0F20003 		movt	r3, #:upper16:cyCommand
 988 0016 6FF04902 		mvn	r2, #73
 989 001a 1A70     		strb	r2, [r3, #0]
 626:.\Generated_Source\PSoC5/CySpc.c ****     cyCommand[1] = SPC_KEY_TWO(SPC_CMD_SETUP_TS);
 990              		.loc 1 626 0
 991 001c 40F20003 		movw	r3, #:lower16:cyCommand
 992 0020 C0F20003 		movt	r3, #:upper16:cyCommand
 993 0024 6FF01B02 		mvn	r2, #27
 994 0028 5A70     		strb	r2, [r3, #1]
 627:.\Generated_Source\PSoC5/CySpc.c ****     cyCommand[2] = SPC_CMD_SETUP_TS;
 995              		.loc 1 627 0
 996 002a 40F20003 		movw	r3, #:lower16:cyCommand
 997 002e C0F20003 		movt	r3, #:upper16:cyCommand
 998 0032 4FF01102 		mov	r2, #17
 999 0036 9A70     		strb	r2, [r3, #2]
 628:.\Generated_Source\PSoC5/CySpc.c ****     
 629:.\Generated_Source\PSoC5/CySpc.c ****     /* Create packet parameters. */
 630:.\Generated_Source\PSoC5/CySpc.c ****     cyCommand[3] = SeqSelect;
 1000              		.loc 1 630 0
 1001 0038 40F20003 		movw	r3, #:lower16:cyCommand
 1002 003c C0F20003 		movt	r3, #:upper16:cyCommand
 1003 0040 FA79     		ldrb	r2, [r7, #7]
 1004 0042 DA70     		strb	r2, [r3, #3]
 631:.\Generated_Source\PSoC5/CySpc.c ****     cyCommand[4] = SeqFreeze;  
 1005              		.loc 1 631 0
 1006 0044 40F20003 		movw	r3, #:lower16:cyCommand
 1007 0048 C0F20003 		movt	r3, #:upper16:cyCommand
 1008 004c BA79     		ldrb	r2, [r7, #6]
 1009 004e 1A71     		strb	r2, [r3, #4]
 632:.\Generated_Source\PSoC5/CySpc.c ****     cyCommand[5] = ClkDivSel;  
 1010              		.loc 1 632 0
 1011 0050 40F20003 		movw	r3, #:lower16:cyCommand
 1012 0054 C0F20003 		movt	r3, #:upper16:cyCommand
 1013 0058 7A79     		ldrb	r2, [r7, #5]
 1014 005a 5A71     		strb	r2, [r3, #5]
 633:.\Generated_Source\PSoC5/CySpc.c ****     cyCommand[6] = CurvCompEnable;  
 1015              		.loc 1 633 0
 1016 005c 40F20003 		movw	r3, #:lower16:cyCommand
ARM GAS  C:\Users\Geo\AppData\Local\Temp\ccuUflew.s 			page 30


 1017 0060 C0F20003 		movt	r3, #:upper16:cyCommand
 1018 0064 3A79     		ldrb	r2, [r7, #4]
 1019 0066 9A71     		strb	r2, [r3, #6]
 634:.\Generated_Source\PSoC5/CySpc.c **** 
 635:.\Generated_Source\PSoC5/CySpc.c ****     cyCommandSize = SIZEOF_CMD_SETUP_TS;
 1020              		.loc 1 635 0
 1021 0068 40F20003 		movw	r3, #:lower16:cyCommandSize
 1022 006c C0F20003 		movt	r3, #:upper16:cyCommandSize
 1023 0070 4FF00402 		mov	r2, #4
 1024 0074 1A70     		strb	r2, [r3, #0]
 636:.\Generated_Source\PSoC5/CySpc.c **** 
 637:.\Generated_Source\PSoC5/CySpc.c ****     status = CYRET_SUCCESS;
 1025              		.loc 1 637 0
 1026 0076 4FF00003 		mov	r3, #0
 1027 007a FB60     		str	r3, [r7, #12]
 638:.\Generated_Source\PSoC5/CySpc.c ****     
 639:.\Generated_Source\PSoC5/CySpc.c ****     return status;
 1028              		.loc 1 639 0
 1029 007c FB68     		ldr	r3, [r7, #12]
 640:.\Generated_Source\PSoC5/CySpc.c **** }
 1030              		.loc 1 640 0
 1031 007e 1846     		mov	r0, r3
 1032 0080 07F11407 		add	r7, r7, #20
 1033 0084 BD46     		mov	sp, r7
 1034 0086 80BC     		pop	{r7}
 1035 0088 7047     		bx	lr
 1036              		.cfi_endproc
 1037              	.LFE11:
 1038              		.size	CySpcCreateCmdSetupTs, .-CySpcCreateCmdSetupTs
 1039 008a 00BF     		.section	.text.CySpcCreateCmdDisableTs,"ax",%progbits
 1040              		.align	2
 1041              		.global	CySpcCreateCmdDisableTs
 1042              		.thumb
 1043              		.thumb_func
 1044              		.type	CySpcCreateCmdDisableTs, %function
 1045              	CySpcCreateCmdDisableTs:
 1046              	.LFB12:
 641:.\Generated_Source\PSoC5/CySpc.c **** 
 642:.\Generated_Source\PSoC5/CySpc.c **** 
 643:.\Generated_Source\PSoC5/CySpc.c **** /*******************************************************************************
 644:.\Generated_Source\PSoC5/CySpc.c **** * Function Name: CySpcCreateCmdDisableTs
 645:.\Generated_Source\PSoC5/CySpc.c **** ********************************************************************************
 646:.\Generated_Source\PSoC5/CySpc.c **** * Summary:
 647:.\Generated_Source\PSoC5/CySpc.c **** *   Sets up the command to Temperature Sensor.
 648:.\Generated_Source\PSoC5/CySpc.c **** *   NOTE: SPC functions are not meant to be called directly by the user application.
 649:.\Generated_Source\PSoC5/CySpc.c **** *   
 650:.\Generated_Source\PSoC5/CySpc.c **** *
 651:.\Generated_Source\PSoC5/CySpc.c **** * Parameters:
 652:.\Generated_Source\PSoC5/CySpc.c **** *  None
 653:.\Generated_Source\PSoC5/CySpc.c **** *
 654:.\Generated_Source\PSoC5/CySpc.c **** *   
 655:.\Generated_Source\PSoC5/CySpc.c **** * Return:
 656:.\Generated_Source\PSoC5/CySpc.c **** *   CYRET_SUCCESS if the command was created sucessfuly.
 657:.\Generated_Source\PSoC5/CySpc.c **** *
 658:.\Generated_Source\PSoC5/CySpc.c **** *
 659:.\Generated_Source\PSoC5/CySpc.c **** * Theory:
 660:.\Generated_Source\PSoC5/CySpc.c **** *
ARM GAS  C:\Users\Geo\AppData\Local\Temp\ccuUflew.s 			page 31


 661:.\Generated_Source\PSoC5/CySpc.c **** *
 662:.\Generated_Source\PSoC5/CySpc.c **** *******************************************************************************/
 663:.\Generated_Source\PSoC5/CySpc.c **** cystatus CySpcCreateCmdDisableTs(void)
 664:.\Generated_Source\PSoC5/CySpc.c **** {
 1047              		.loc 1 664 0
 1048              		.cfi_startproc
 1049              		@ args = 0, pretend = 0, frame = 8
 1050              		@ frame_needed = 1, uses_anonymous_args = 0
 1051              		@ link register save eliminated.
 1052 0000 80B4     		push	{r7}
 1053              	.LCFI35:
 1054              		.cfi_def_cfa_offset 4
 1055 0002 83B0     		sub	sp, sp, #12
 1056              	.LCFI36:
 1057              		.cfi_def_cfa_offset 16
 1058 0004 00AF     		add	r7, sp, #0
 1059              		.cfi_offset 7, -4
 1060              	.LCFI37:
 1061              		.cfi_def_cfa_register 7
 665:.\Generated_Source\PSoC5/CySpc.c ****     cystatus status;
 666:.\Generated_Source\PSoC5/CySpc.c **** 
 667:.\Generated_Source\PSoC5/CySpc.c ****     
 668:.\Generated_Source\PSoC5/CySpc.c ****     /* Create packet command. */
 669:.\Generated_Source\PSoC5/CySpc.c ****     cyCommand[0] = SPC_KEY_ONE;
 1062              		.loc 1 669 0
 1063 0006 40F20003 		movw	r3, #:lower16:cyCommand
 1064 000a C0F20003 		movt	r3, #:upper16:cyCommand
 1065 000e 6FF04902 		mvn	r2, #73
 1066 0012 1A70     		strb	r2, [r3, #0]
 670:.\Generated_Source\PSoC5/CySpc.c ****     cyCommand[1] = SPC_KEY_TWO(SPC_CMD_DISABLE_TS);
 1067              		.loc 1 670 0
 1068 0014 40F20003 		movw	r3, #:lower16:cyCommand
 1069 0018 C0F20003 		movt	r3, #:upper16:cyCommand
 1070 001c 6FF01A02 		mvn	r2, #26
 1071 0020 5A70     		strb	r2, [r3, #1]
 671:.\Generated_Source\PSoC5/CySpc.c ****     cyCommand[2] = SPC_CMD_DISABLE_TS;
 1072              		.loc 1 671 0
 1073 0022 40F20003 		movw	r3, #:lower16:cyCommand
 1074 0026 C0F20003 		movt	r3, #:upper16:cyCommand
 1075 002a 4FF01202 		mov	r2, #18
 1076 002e 9A70     		strb	r2, [r3, #2]
 672:.\Generated_Source\PSoC5/CySpc.c ****     
 673:.\Generated_Source\PSoC5/CySpc.c ****     cyCommandSize = SIZEOF_CMD_DISABLE_TS;
 1077              		.loc 1 673 0
 1078 0030 40F20003 		movw	r3, #:lower16:cyCommandSize
 1079 0034 C0F20003 		movt	r3, #:upper16:cyCommandSize
 1080 0038 4FF00002 		mov	r2, #0
 1081 003c 1A70     		strb	r2, [r3, #0]
 674:.\Generated_Source\PSoC5/CySpc.c **** 
 675:.\Generated_Source\PSoC5/CySpc.c ****     status = CYRET_SUCCESS;
 1082              		.loc 1 675 0
 1083 003e 4FF00003 		mov	r3, #0
 1084 0042 7B60     		str	r3, [r7, #4]
 676:.\Generated_Source\PSoC5/CySpc.c ****     
 677:.\Generated_Source\PSoC5/CySpc.c ****     return status;
 1085              		.loc 1 677 0
 1086 0044 7B68     		ldr	r3, [r7, #4]
ARM GAS  C:\Users\Geo\AppData\Local\Temp\ccuUflew.s 			page 32


 678:.\Generated_Source\PSoC5/CySpc.c **** }
 1087              		.loc 1 678 0
 1088 0046 1846     		mov	r0, r3
 1089 0048 07F10C07 		add	r7, r7, #12
 1090 004c BD46     		mov	sp, r7
 1091 004e 80BC     		pop	{r7}
 1092 0050 7047     		bx	lr
 1093              		.cfi_endproc
 1094              	.LFE12:
 1095              		.size	CySpcCreateCmdDisableTs, .-CySpcCreateCmdDisableTs
 1096 0052 00BF     		.section	.text.CySpcActivePower,"ax",%progbits
 1097              		.align	2
 1098              		.global	CySpcActivePower
 1099              		.thumb
 1100              		.thumb_func
 1101              		.type	CySpcActivePower, %function
 1102              	CySpcActivePower:
 1103              	.LFB13:
 679:.\Generated_Source\PSoC5/CySpc.c **** 
 680:.\Generated_Source\PSoC5/CySpc.c **** 
 681:.\Generated_Source\PSoC5/CySpc.c **** /*******************************************************************************
 682:.\Generated_Source\PSoC5/CySpc.c **** * Function Name: CySpcActivePower
 683:.\Generated_Source\PSoC5/CySpc.c **** ********************************************************************************
 684:.\Generated_Source\PSoC5/CySpc.c **** * Summary:
 685:.\Generated_Source\PSoC5/CySpc.c **** *   Selects the power for active operation mode.
 686:.\Generated_Source\PSoC5/CySpc.c **** *   NOTE: SPC functions are not meant to be called directly by the user application.
 687:.\Generated_Source\PSoC5/CySpc.c **** *
 688:.\Generated_Source\PSoC5/CySpc.c **** *
 689:.\Generated_Source\PSoC5/CySpc.c **** * Parameters:
 690:.\Generated_Source\PSoC5/CySpc.c **** *   state:
 691:.\Generated_Source\PSoC5/CySpc.c **** *       Active power state. 1 is active, 0 inactive.
 692:.\Generated_Source\PSoC5/CySpc.c **** *
 693:.\Generated_Source\PSoC5/CySpc.c **** *   
 694:.\Generated_Source\PSoC5/CySpc.c **** * Return:
 695:.\Generated_Source\PSoC5/CySpc.c **** *   void.
 696:.\Generated_Source\PSoC5/CySpc.c **** *
 697:.\Generated_Source\PSoC5/CySpc.c **** *
 698:.\Generated_Source\PSoC5/CySpc.c **** *******************************************************************************/
 699:.\Generated_Source\PSoC5/CySpc.c **** void CySpcActivePower(uint8 state) 
 700:.\Generated_Source\PSoC5/CySpc.c **** {
 1104              		.loc 1 700 0
 1105              		.cfi_startproc
 1106              		@ args = 0, pretend = 0, frame = 8
 1107              		@ frame_needed = 1, uses_anonymous_args = 0
 1108              		@ link register save eliminated.
 1109 0000 80B4     		push	{r7}
 1110              	.LCFI38:
 1111              		.cfi_def_cfa_offset 4
 1112 0002 83B0     		sub	sp, sp, #12
 1113              	.LCFI39:
 1114              		.cfi_def_cfa_offset 16
 1115 0004 00AF     		add	r7, sp, #0
 1116              		.cfi_offset 7, -4
 1117              	.LCFI40:
 1118              		.cfi_def_cfa_register 7
 1119 0006 0346     		mov	r3, r0
 1120 0008 FB71     		strb	r3, [r7, #7]
ARM GAS  C:\Users\Geo\AppData\Local\Temp\ccuUflew.s 			page 33


 701:.\Generated_Source\PSoC5/CySpc.c ****     if(state == 0)
 1121              		.loc 1 701 0
 1122 000a FB79     		ldrb	r3, [r7, #7]	@ zero_extendqisi2
 1123 000c 002B     		cmp	r3, #0
 1124 000e 0DD1     		bne	.L51
 702:.\Generated_Source\PSoC5/CySpc.c ****     {
 703:.\Generated_Source\PSoC5/CySpc.c ****         *PM_ACT_SPC &= ~PM_SPC_MASK;
 1125              		.loc 1 703 0
 1126 0010 44F2A033 		movw	r3, #:lower16:1073759136
 1127 0014 C4F20003 		movt	r3, #:upper16:1073759136
 1128 0018 44F2A032 		movw	r2, #:lower16:1073759136
 1129 001c C4F20002 		movt	r2, #:upper16:1073759136
 1130 0020 1278     		ldrb	r2, [r2, #0]
 1131 0022 D2B2     		uxtb	r2, r2
 1132 0024 02F0F702 		and	r2, r2, #247
 1133 0028 1A70     		strb	r2, [r3, #0]
 1134 002a 0DE0     		b	.L53
 1135              	.L51:
 704:.\Generated_Source\PSoC5/CySpc.c ****     }
 705:.\Generated_Source\PSoC5/CySpc.c ****     else
 706:.\Generated_Source\PSoC5/CySpc.c ****     {
 707:.\Generated_Source\PSoC5/CySpc.c ****         *PM_ACT_SPC |= PM_SPC_MASK;
 1136              		.loc 1 707 0
 1137 002c 44F2A033 		movw	r3, #:lower16:1073759136
 1138 0030 C4F20003 		movt	r3, #:upper16:1073759136
 1139 0034 44F2A032 		movw	r2, #:lower16:1073759136
 1140 0038 C4F20002 		movt	r2, #:upper16:1073759136
 1141 003c 1278     		ldrb	r2, [r2, #0]
 1142 003e D2B2     		uxtb	r2, r2
 1143 0040 42F00802 		orr	r2, r2, #8
 1144 0044 D2B2     		uxtb	r2, r2
 1145 0046 1A70     		strb	r2, [r3, #0]
 1146              	.L53:
 708:.\Generated_Source\PSoC5/CySpc.c ****     }
 709:.\Generated_Source\PSoC5/CySpc.c **** }
 1147              		.loc 1 709 0
 1148 0048 07F10C07 		add	r7, r7, #12
 1149 004c BD46     		mov	sp, r7
 1150 004e 80BC     		pop	{r7}
 1151 0050 7047     		bx	lr
 1152              		.cfi_endproc
 1153              	.LFE13:
 1154              		.size	CySpcActivePower, .-CySpcActivePower
 1155 0052 00BF     		.section	.text.CySpcStandbyPower,"ax",%progbits
 1156              		.align	2
 1157              		.global	CySpcStandbyPower
 1158              		.thumb
 1159              		.thumb_func
 1160              		.type	CySpcStandbyPower, %function
 1161              	CySpcStandbyPower:
 1162              	.LFB14:
 710:.\Generated_Source\PSoC5/CySpc.c **** 
 711:.\Generated_Source\PSoC5/CySpc.c **** /*******************************************************************************
 712:.\Generated_Source\PSoC5/CySpc.c **** * Function Name: CySpcStandbyPower
 713:.\Generated_Source\PSoC5/CySpc.c **** ********************************************************************************
 714:.\Generated_Source\PSoC5/CySpc.c **** * Summary:
 715:.\Generated_Source\PSoC5/CySpc.c **** *   Selects the power for standby operation modes.
ARM GAS  C:\Users\Geo\AppData\Local\Temp\ccuUflew.s 			page 34


 716:.\Generated_Source\PSoC5/CySpc.c **** *   NOTE: SPC functions are not meant to be called directly by the user application.
 717:.\Generated_Source\PSoC5/CySpc.c **** *
 718:.\Generated_Source\PSoC5/CySpc.c **** *
 719:.\Generated_Source\PSoC5/CySpc.c **** * Parameters:
 720:.\Generated_Source\PSoC5/CySpc.c **** *   state:
 721:.\Generated_Source\PSoC5/CySpc.c **** *       Standby power state. 1 is active, 0 inactive.
 722:.\Generated_Source\PSoC5/CySpc.c **** *
 723:.\Generated_Source\PSoC5/CySpc.c **** *   
 724:.\Generated_Source\PSoC5/CySpc.c **** * Return:
 725:.\Generated_Source\PSoC5/CySpc.c **** *   void.
 726:.\Generated_Source\PSoC5/CySpc.c **** *
 727:.\Generated_Source\PSoC5/CySpc.c **** *
 728:.\Generated_Source\PSoC5/CySpc.c **** *******************************************************************************/
 729:.\Generated_Source\PSoC5/CySpc.c **** void CySpcStandbyPower(uint8 state) 
 730:.\Generated_Source\PSoC5/CySpc.c **** {
 1163              		.loc 1 730 0
 1164              		.cfi_startproc
 1165              		@ args = 0, pretend = 0, frame = 8
 1166              		@ frame_needed = 1, uses_anonymous_args = 0
 1167              		@ link register save eliminated.
 1168 0000 80B4     		push	{r7}
 1169              	.LCFI41:
 1170              		.cfi_def_cfa_offset 4
 1171 0002 83B0     		sub	sp, sp, #12
 1172              	.LCFI42:
 1173              		.cfi_def_cfa_offset 16
 1174 0004 00AF     		add	r7, sp, #0
 1175              		.cfi_offset 7, -4
 1176              	.LCFI43:
 1177              		.cfi_def_cfa_register 7
 1178 0006 0346     		mov	r3, r0
 1179 0008 FB71     		strb	r3, [r7, #7]
 731:.\Generated_Source\PSoC5/CySpc.c ****     if(state == 0)
 1180              		.loc 1 731 0
 1181 000a FB79     		ldrb	r3, [r7, #7]	@ zero_extendqisi2
 1182 000c 002B     		cmp	r3, #0
 1183 000e 0DD1     		bne	.L55
 732:.\Generated_Source\PSoC5/CySpc.c ****     {
 733:.\Generated_Source\PSoC5/CySpc.c ****         *PM_STBY_SPC &= ~PM_SPC_MASK;
 1184              		.loc 1 733 0
 1185 0010 44F2B033 		movw	r3, #:lower16:1073759152
 1186 0014 C4F20003 		movt	r3, #:upper16:1073759152
 1187 0018 44F2B032 		movw	r2, #:lower16:1073759152
 1188 001c C4F20002 		movt	r2, #:upper16:1073759152
 1189 0020 1278     		ldrb	r2, [r2, #0]
 1190 0022 D2B2     		uxtb	r2, r2
 1191 0024 02F0F702 		and	r2, r2, #247
 1192 0028 1A70     		strb	r2, [r3, #0]
 1193 002a 0DE0     		b	.L57
 1194              	.L55:
 734:.\Generated_Source\PSoC5/CySpc.c ****     }
 735:.\Generated_Source\PSoC5/CySpc.c ****     else
 736:.\Generated_Source\PSoC5/CySpc.c ****     {
 737:.\Generated_Source\PSoC5/CySpc.c ****         *PM_STBY_SPC |= PM_SPC_MASK;
 1195              		.loc 1 737 0
 1196 002c 44F2B033 		movw	r3, #:lower16:1073759152
 1197 0030 C4F20003 		movt	r3, #:upper16:1073759152
ARM GAS  C:\Users\Geo\AppData\Local\Temp\ccuUflew.s 			page 35


 1198 0034 44F2B032 		movw	r2, #:lower16:1073759152
 1199 0038 C4F20002 		movt	r2, #:upper16:1073759152
 1200 003c 1278     		ldrb	r2, [r2, #0]
 1201 003e D2B2     		uxtb	r2, r2
 1202 0040 42F00802 		orr	r2, r2, #8
 1203 0044 D2B2     		uxtb	r2, r2
 1204 0046 1A70     		strb	r2, [r3, #0]
 1205              	.L57:
 738:.\Generated_Source\PSoC5/CySpc.c ****     }
 739:.\Generated_Source\PSoC5/CySpc.c **** }
 1206              		.loc 1 739 0
 1207 0048 07F10C07 		add	r7, r7, #12
 1208 004c BD46     		mov	sp, r7
 1209 004e 80BC     		pop	{r7}
 1210 0050 7047     		bx	lr
 1211              		.cfi_endproc
 1212              	.LFE14:
 1213              		.size	CySpcStandbyPower, .-CySpcStandbyPower
 1214 0052 00BF     		.text
 1215              	.Letext0: