ARM GAS  C:\Users\Geo\AppData\Local\Temp\cc1XeoyO.s 			page 1


   1              		.syntax unified
   2              		.cpu cortex-m3
   3              		.fpu softvfp
   4              		.eabi_attribute 20, 1
   5              		.eabi_attribute 21, 1
   6              		.eabi_attribute 23, 3
   7              		.eabi_attribute 24, 1
   8              		.eabi_attribute 25, 1
   9              		.eabi_attribute 26, 1
  10              		.eabi_attribute 30, 6
  11              		.eabi_attribute 18, 4
  12              		.thumb
  13              		.file	"main.c"
  20 0000 86020000 		.text
  20      02003801 
  20      00000201 
  20      FB0E0D00 
  20      01010101 
  21              	.Ltext0:
  22              		.cfi_sections	.debug_frame
  23              		.comm	debugBuff,200,4
  24              		.bss
  25              		.align	2
  26              	_msg:
  27 0000 00000000 		.space	10
  27      00000000 
  27      0000
  28              	boardStatusByte:
  29 000a 00       		.space	1
  30              		.data
  31              		.type	mainState, %object
  32              		.size	mainState, 1
  33              	mainState:
  34 0000 01       		.byte	1
  35              		.bss
  36 000b 00       		.align	2
  37              	_mainTickCounter:
  38 000c 00000000 		.space	4
  39              	motionSensorTriggered:
  40 0010 00       		.space	1
  41              		.section	.rodata
  42              		.align	2
  43              	.LC0:
  44 0000 4D41494E 		.ascii	"MAIN: Running...\015\012\000"
  44      3A205275 
  44      6E6E696E 
  44      672E2E2E 
  44      0D0A00
  45 0013 00       		.align	2
  46              	.LC1:
  47 0014 4D41494E 		.ascii	"MAIN: Entering mainOff state.\015\012\000"
ARM GAS  C:\Users\Geo\AppData\Local\Temp\cc1XeoyO.s 			page 2


  47      3A20456E 
  47      74657269 
  47      6E67206D 
  47      61696E4F 
  48              		.align	2
  49              	.LC2:
  50 0034 4D41494E 		.ascii	"MAIN: Entering mainInRange state.\015\012\000"
  50      3A20456E 
  50      74657269 
  50      6E67206D 
  50      61696E49 
  51              		.align	2
  52              	.LC3:
  53 0058 4D41494E 		.ascii	"MAIN: Entering mainMotorOn state.\015\012\000"
  53      3A20456E 
  53      74657269 
  53      6E67206D 
  53      61696E4D 
  54              		.align	2
  55              	.LC4:
  56 007c 4D41494E 		.ascii	"MAIN: Remote has turned off motor.\015\012\000"
  56      3A205265 
  56      6D6F7465 
  56      20686173 
  56      20747572 
  57 00a1 000000   		.align	2
  58              	.LC5:
  59 00a4 4D41494E 		.ascii	"MAIN: Entering mainAlarmArmed state.\015\012\000"
  59      3A20456E 
  59      74657269 
  59      6E67206D 
  59      61696E41 
  60 00cb 00       		.align	2
  61              	.LC6:
  62 00cc 4D41494E 		.ascii	"MAIN: Entering mainAlarmTriggered state.\015\012\000"
  62      3A20456E 
  62      74657269 
  62      6E67206D 
  62      61696E41 
  63              		.global	__aeabi_ui2d
  64              		.global	__aeabi_dadd
  65 00f7 00       		.align	2
  66              	.LC7:
  67 00f8 4D41494E 		.ascii	"MAIN: Trigger Count = %f, Main State Count = %lu\015"
  67      3A205472 
  67      69676765 
  67      7220436F 
  67      756E7420 
  68 0129 0A00     		.ascii	"\012\000"
  69              		.global	__aeabi_d2uiz
  70 012b 00       		.align	2
  71              	.LC8:
  72 012c 4D41494E 		.ascii	"MAIN: Alarm triggered time elasped.\015\012\000"
  72      3A20416C 
  72      61726D20 
  72      74726967 
  72      67657265 
ARM GAS  C:\Users\Geo\AppData\Local\Temp\cc1XeoyO.s 			page 3


  73 0152 0000     		.section	.text.main,"ax",%progbits
  74              		.align	2
  75              		.global	main
  76              		.thumb
  77              		.thumb_func
  78              		.type	main, %function
  79              	main:
  80              	.LFB29:
  81              		.file 1 ".\\main.c"
   1:.\main.c      **** //!
   2:.\main.c      **** //! @file 		Led.c
   3:.\main.c      **** //! @author 	Geoffrey Hunter (gbmhunter@gmail.com)
   4:.\main.c      **** //! @date 		14/05/2011
   5:.\main.c      **** //! @brief 		Main GPRS task and supporting functions.
   6:.\main.c      **** //! @details
   7:.\main.c      **** //!		<b>Last Modified:			</b> 14/05/2011			\n
   8:.\main.c      **** //!		<b>Version:					</b> v1.0				\n
   9:.\main.c      **** //!		<b>Company:					</b> CladLabs			\n
  10:.\main.c      **** //!		<b>Project:					</b> Electric Skateboard\n
  11:.\main.c      **** //!		<b>Computer Architecture:	</b> ARM				\n
  12:.\main.c      **** //!		<b>Compiler:				</b> GCC				\n
  13:.\main.c      **** //! 	<b>uC Model:				</b> PSoC5				\n
  14:.\main.c      **** //!		<b>Documentation Format:	</b> Doxygen			\n
  15:.\main.c      **** //!		
  16:.\main.c      **** //!		Controls the led's on the board
  17:.\main.c      **** //!
  18:.\main.c      **** 
  19:.\main.c      **** //=================================================================================================
  20:.\main.c      **** //============================================ INFO ===============================================
  21:.\main.c      **** //=================================================================================================
  22:.\main.c      **** 
  23:.\main.c      **** //=================================================================================================
  24:.\main.c      **** //======================================= FILE INCLUSIONS =========================================
  25:.\main.c      **** //=================================================================================================
  26:.\main.c      **** 
  27:.\main.c      **** 
  28:.\main.c      **** #include <device.h>
  29:.\main.c      **** #include <stdio.h>
  30:.\main.c      **** 
  31:.\main.c      **** #include "../common/PublicObjects.h"
  32:.\main.c      **** 
  33:.\main.c      **** #include "Comms.h"
  34:.\main.c      **** 
  35:.\main.c      **** #include "Config.h"
  36:.\main.c      **** #include "Lights.h"
  37:.\main.c      **** #include "Piezo.h"
  38:.\main.c      **** #include "Motor.h"
  39:.\main.c      **** #include "Adc.h"
  40:.\main.c      **** 
  41:.\main.c      **** //===============================================================================================//
  42:.\main.c      **** //=================================== PRECOMPILER CHECKS ========================================//
  43:.\main.c      **** //===============================================================================================//
  44:.\main.c      **** 
  45:.\main.c      **** //=================================================================================================
  46:.\main.c      **** //========================================== DEFINES ==============================================
  47:.\main.c      **** //=================================================================================================
  48:.\main.c      **** 
ARM GAS  C:\Users\Geo\AppData\Local\Temp\cc1XeoyO.s 			page 4


  49:.\main.c      **** 
  50:.\main.c      **** 
  51:.\main.c      **** //=================================================================================================
  52:.\main.c      **** //========================================== TYPEDEF's ============================================
  53:.\main.c      **** //=================================================================================================
  54:.\main.c      **** 
  55:.\main.c      **** typedef enum{
  56:.\main.c      **** 	init,
  57:.\main.c      **** 	off,
  58:.\main.c      **** 	inRange,
  59:.\main.c      **** 	motorOn,
  60:.\main.c      **** 	alarmArmed,
  61:.\main.c      **** 	alarmTriggered
  62:.\main.c      **** } mainStates_t;
  63:.\main.c      **** 
  64:.\main.c      **** //=================================================================================================
  65:.\main.c      **** //==================================== PRIVATE VARIABLES ==========================================
  66:.\main.c      **** //=================================================================================================
  67:.\main.c      **** 
  68:.\main.c      **** static uint8_t _msg[configCOMMS_TX_MSG_LENGTH];
  69:.\main.c      **** // Status byte (shared with remote, both units can change bits, as set in definitions.h)
  70:.\main.c      **** static uint8_t boardStatusByte;
  71:.\main.c      **** 
  72:.\main.c      **** static mainStates_t mainState = off;
  73:.\main.c      **** 
  74:.\main.c      **** static uint32_t _mainTickCounter = 0;
  75:.\main.c      **** 
  76:.\main.c      **** static bool_t motionSensorTriggered = FALSE;
  77:.\main.c      **** 
  78:.\main.c      **** //=================================================================================================
  79:.\main.c      **** //=============================== PRIVATE FUNCTION PROTOTYPES =====================================
  80:.\main.c      **** //=================================================================================================
  81:.\main.c      **** 
  82:.\main.c      **** bool_t Main_CheckForAlarmOnOffPressed(void);
  83:.\main.c      **** void Main_CheckForLedOnOffPressed(void);
  84:.\main.c      **** void Main_CheckForChangeLedMode(void);
  85:.\main.c      **** void Main_BuildMsg(uint8_t *msg);
  86:.\main.c      **** 
  87:.\main.c      **** CY_ISR_PROTO(Main_MainTickIsr);
  88:.\main.c      **** CY_ISR_PROTO(Main_MotionSensorIsr);
  89:.\main.c      **** 
  90:.\main.c      **** //=================================================================================================
  91:.\main.c      **** //===================================== PUBLIC FUNCTIONS ==========================================
  92:.\main.c      **** //=================================================================================================
  93:.\main.c      **** 
  94:.\main.c      **** void main()
  95:.\main.c      **** {
  82              		.loc 1 95 0
  83              		.cfi_startproc
  84              		@ args = 0, pretend = 0, frame = 8
  85              		@ frame_needed = 1, uses_anonymous_args = 0
  86 0000 80B5     		push	{r7, lr}
  87              	.LCFI0:
  88              		.cfi_def_cfa_offset 8
  89 0002 86B0     		sub	sp, sp, #24
  90              	.LCFI1:
  91              		.cfi_def_cfa_offset 32
ARM GAS  C:\Users\Geo\AppData\Local\Temp\cc1XeoyO.s 			page 5


  92 0004 04AF     		add	r7, sp, #16
  93              		.cfi_offset 14, -4
  94              		.cfi_offset 7, -8
  95              	.LCFI2:
  96              		.cfi_def_cfa 7, 16
  96:.\main.c      **** 
  97:.\main.c      **** 	CyGlobalIntEnable;
  97              		.loc 1 97 0
  98              	@ 97 ".\main.c" 1
  99 0006 62B6     		CPSIE   i
 100              	@ 0 "" 2
  98:.\main.c      **** 	
  99:.\main.c      **** 	// Start main tick interrupt and pass in ISR
 100:.\main.c      **** 	IsrMainTick_StartEx(Main_MainTickIsr);
 101              		.loc 1 100 0
 102              		.thumb
 103 0008 40F20000 		movw	r0, #:lower16:Main_MainTickIsr
 104 000c C0F20000 		movt	r0, #:upper16:Main_MainTickIsr
 105 0010 FFF7FEFF 		bl	IsrMainTick_StartEx
 101:.\main.c      **** 	
 102:.\main.c      **** 	TimerMainTick_Start();
 106              		.loc 1 102 0
 107 0014 FFF7FEFF 		bl	TimerMainTick_Start
 103:.\main.c      **** 	
 104:.\main.c      **** 	static uint8_t iden_chars[3];
 105:.\main.c      **** 	iden_chars[0] = 's';
 108              		.loc 1 105 0
 109 0018 40F20003 		movw	r3, #:lower16:iden_chars.3789
 110 001c C0F20003 		movt	r3, #:upper16:iden_chars.3789
 111 0020 4FF07302 		mov	r2, #115
 112 0024 1A70     		strb	r2, [r3, #0]
 106:.\main.c      **** 	iden_chars[1] = 'k';
 113              		.loc 1 106 0
 114 0026 40F20003 		movw	r3, #:lower16:iden_chars.3789
 115 002a C0F20003 		movt	r3, #:upper16:iden_chars.3789
 116 002e 4FF06B02 		mov	r2, #107
 117 0032 5A70     		strb	r2, [r3, #1]
 107:.\main.c      **** 	iden_chars[2] = 't';
 118              		.loc 1 107 0
 119 0034 40F20003 		movw	r3, #:lower16:iden_chars.3789
 120 0038 C0F20003 		movt	r3, #:upper16:iden_chars.3789
 121 003c 4FF07402 		mov	r2, #116
 122 0040 9A70     		strb	r2, [r3, #2]
 108:.\main.c      **** 	
 109:.\main.c      **** 	Comms_Init(iden_chars);
 123              		.loc 1 109 0
 124 0042 40F20000 		movw	r0, #:lower16:iden_chars.3789
 125 0046 C0F20000 		movt	r0, #:upper16:iden_chars.3789
 126 004a FFF7FEFF 		bl	Comms_Init
 110:.\main.c      **** 	
 111:.\main.c      **** 	UartDebug_Start();
 127              		.loc 1 111 0
 128 004e FFF7FEFF 		bl	UartDebug_Start
 112:.\main.c      **** 	
 113:.\main.c      **** 	#if(configDEBUG_MAIN == 1)
 114:.\main.c      **** 		UartDebug_PutString("MAIN: Running...\r\n");
 129              		.loc 1 114 0
ARM GAS  C:\Users\Geo\AppData\Local\Temp\cc1XeoyO.s 			page 6


 130 0052 40F20000 		movw	r0, #:lower16:.LC0
 131 0056 C0F20000 		movt	r0, #:upper16:.LC0
 132 005a FFF7FEFF 		bl	UartDebug_PutString
 115:.\main.c      **** 	#endif
 116:.\main.c      **** 
 117:.\main.c      **** 	
 118:.\main.c      **** 	// Start motion sensor interrupt and pass in ISR
 119:.\main.c      **** 	IsrMotionSensor_StartEx(Main_MotionSensorIsr);
 133              		.loc 1 119 0
 134 005e 40F20000 		movw	r0, #:lower16:Main_MotionSensorIsr
 135 0062 C0F20000 		movt	r0, #:upper16:Main_MotionSensorIsr
 136 0066 FFF7FEFF 		bl	IsrMotionSensor_StartEx
 120:.\main.c      **** 	IsrMotionSensor_ClearPending();
 137              		.loc 1 120 0
 138 006a FFF7FEFF 		bl	IsrMotionSensor_ClearPending
 121:.\main.c      **** 	
 122:.\main.c      **** 	static mainStates_t prevMainState = init;
 123:.\main.c      **** 	
 124:.\main.c      **** 	// Flash lights as start-up O.K.
 125:.\main.c      ****     Lights_AllOn();
 139              		.loc 1 125 0
 140 006e FFF7FEFF 		bl	Lights_AllOn
 126:.\main.c      **** 	CyDelay(500);
 141              		.loc 1 126 0
 142 0072 4FF4FA70 		mov	r0, #500
 143 0076 FFF7FEFF 		bl	CyDelay
 127:.\main.c      **** 	Lights_AllOff();
 144              		.loc 1 127 0
 145 007a FFF7FEFF 		bl	Lights_AllOff
 128:.\main.c      **** 	CyDelay(250);
 146              		.loc 1 128 0
 147 007e 4FF0FA00 		mov	r0, #250
 148 0082 FFF7FEFF 		bl	CyDelay
 129:.\main.c      **** 	
 130:.\main.c      **** 	//PinXbeeSleep_Write(0);
 131:.\main.c      **** 	// Lights_SetLedMode(LIGHT_FRONT_LEFT, OFF, 0);
 132:.\main.c      **** 	// Lights_SetLedMode(LIGHT_FRONT_RIGHT, OFF, 500);
 133:.\main.c      **** 
 134:.\main.c      **** 	uint32_t currentTick = 0;
 149              		.loc 1 134 0
 150 0086 4FF00003 		mov	r3, #0
 151 008a 7B60     		str	r3, [r7, #4]
 152 008c 00E0     		b	.L31
 153              	.L37:
 135:.\main.c      **** 	static uint8_t alarmTriggerCount = 0;
 136:.\main.c      **** 	static uint32_t alarmTriggeredStartCount = 0;
 137:.\main.c      ****     
 138:.\main.c      ****     for(;;)
 139:.\main.c      ****     {
 140:.\main.c      **** 		
 141:.\main.c      **** 		// Update the current tick
 142:.\main.c      **** 		currentTick = _mainTickCounter;
 143:.\main.c      ****        
 144:.\main.c      **** 	   //===================================== CALL SUB-STATE MACHINES =============================//
 145:.\main.c      **** 	   
 146:.\main.c      **** 	   // Inputs
 147:.\main.c      **** 	   Lights_Run();
ARM GAS  C:\Users\Geo\AppData\Local\Temp\cc1XeoyO.s 			page 7


 148:.\main.c      **** 	   Adc_Run();
 149:.\main.c      **** 	   Comms_Run();
 150:.\main.c      **** 	   
 151:.\main.c      **** 	   // Outputs
 152:.\main.c      **** 	   Motor_Run();
 153:.\main.c      **** 	   Piezo_Run();
 154:.\main.c      **** 	   
 155:.\main.c      **** 	   //======================================== MAIN STATE MACHINE ===============================//
 156:.\main.c      **** 		switch(mainState)
 157:.\main.c      **** 		{
 158:.\main.c      **** 			
 159:.\main.c      **** 			case off:
 160:.\main.c      **** 				if(prevMainState != off)
 161:.\main.c      **** 				{
 162:.\main.c      **** 					#if(configDEBUG_MAIN == 1)
 163:.\main.c      **** 						UartDebug_PutString("MAIN: Entering mainOff state.\r\n");
 164:.\main.c      **** 					#endif
 165:.\main.c      **** 					// Clear on bit in status byte
 166:.\main.c      **** 					boardStatusByte &= ( (1 << commsON_BIT_POS)^0xFF );
 167:.\main.c      **** 					// Clear in range bit
 168:.\main.c      **** 					boardStatusByte &= ( (1 << commsIN_RANGE_BIT_POS)^0xFF );
 169:.\main.c      **** 					
 170:.\main.c      **** 					// Flash orange LED
 171:.\main.c      **** 					Lights_SetLedMode(LED_ORANGE, FLASHING, 500);
 172:.\main.c      **** 					Lights_SetLedMode(LED_RED, OFF, 0);
 173:.\main.c      **** 					Lights_SetLedMode(LED_GREEN, OFF, 0);
 174:.\main.c      **** 					
 175:.\main.c      **** 					// Turn off skirting light
 176:.\main.c      **** 					Lights_SetLedMode(LIGHT_SKIRTING, OFF, 0);
 177:.\main.c      **** 					
 178:.\main.c      **** 					Piezo_EmitBeep();
 179:.\main.c      **** 					Piezo_EmitBeep();
 180:.\main.c      **** 					
 181:.\main.c      **** 					prevMainState = off;
 182:.\main.c      **** 				}
 183:.\main.c      **** 					
 184:.\main.c      **** 				// Check if new packet has arrived from remote
 185:.\main.c      **** 				if(Comms_IsNewPacket())
 186:.\main.c      **** 				{
 187:.\main.c      **** 					
 188:.\main.c      **** 					Main_BuildMsg(_msg);
 189:.\main.c      **** 					Comms_Send(_msg, configCOMMS_TX_MSG_LENGTH);
 190:.\main.c      **** 					mainState = inRange;
 191:.\main.c      **** 					break;
 192:.\main.c      **** 				}
 193:.\main.c      **** 				
 194:.\main.c      **** 				break;
 195:.\main.c      **** 			//=========================================== IN RANGE STATE =================================//
 196:.\main.c      **** 			// Skateboard is in range of remote, but not turned on yet
 197:.\main.c      **** 			// Only state that you can go to alarm state from
 198:.\main.c      **** 			case inRange:
 199:.\main.c      **** 				if(prevMainState != inRange)
 200:.\main.c      **** 				{
 201:.\main.c      **** 					#if(configDEBUG_MAIN == 1)
 202:.\main.c      **** 						UartDebug_PutString("MAIN: Entering mainInRange state.\r\n");
 203:.\main.c      **** 					#endif
 204:.\main.c      **** 					
ARM GAS  C:\Users\Geo\AppData\Local\Temp\cc1XeoyO.s 			page 8


 205:.\main.c      **** 					// Set in-range bit in status byte
 206:.\main.c      **** 					boardStatusByte |= (1 << commsIN_RANGE_BIT_POS);
 207:.\main.c      **** 					
 208:.\main.c      **** 					// Solid on orange LED
 209:.\main.c      **** 					Lights_SetLedMode(LED_ORANGE, ON, 0);
 210:.\main.c      **** 					Lights_SetLedMode(LED_RED, OFF, 0);
 211:.\main.c      **** 					Lights_SetLedMode(LED_GREEN, OFF, 0);
 212:.\main.c      **** 					
 213:.\main.c      **** 					// Turn off skirting light
 214:.\main.c      **** 					Lights_SetLedMode(LIGHT_SKIRTING, OFF, 0);
 215:.\main.c      **** 					
 216:.\main.c      **** 					// Emit beep if arriving from any other state than motorOn
 217:.\main.c      **** 					if(prevMainState != motorOn)
 218:.\main.c      **** 						Piezo_EmitBeep();
 219:.\main.c      **** 					
 220:.\main.c      **** 					prevMainState = inRange;
 221:.\main.c      **** 				}
 222:.\main.c      **** 				
 223:.\main.c      **** 				if(Comms_IsNewPacket())
 224:.\main.c      **** 				{
 225:.\main.c      **** 					if(Comms_GetByte(commsSTATUS_BYTE_POS) & (1 << commsON_BIT_POS))
 226:.\main.c      **** 					{
 227:.\main.c      **** 						mainState = motorOn;
 228:.\main.c      **** 					}
 229:.\main.c      **** 					
 230:.\main.c      **** 					Main_CheckForLedOnOffPressed();
 231:.\main.c      **** 					Main_CheckForChangeLedMode();
 232:.\main.c      **** 						
 233:.\main.c      **** 					if(Main_CheckForAlarmOnOffPressed())
 234:.\main.c      **** 					{
 235:.\main.c      **** 						mainState = alarmArmed;
 236:.\main.c      **** 						// Set on bit in status byte before sending message
 237:.\main.c      **** 						boardStatusByte |= (1 << commsALARM_ON_BIT_POS);
 238:.\main.c      **** 					}
 239:.\main.c      **** 					
 240:.\main.c      **** 					Main_BuildMsg(_msg);
 241:.\main.c      **** 					Comms_Send(_msg, configCOMMS_TX_MSG_LENGTH);
 242:.\main.c      **** 				}
 243:.\main.c      **** 				
 244:.\main.c      **** 				if(Comms_Timeout())
 245:.\main.c      **** 				{
 246:.\main.c      **** 					// Turn off skateboard if communication lost with remote
 247:.\main.c      **** 					mainState = off;
 248:.\main.c      **** 					break;
 249:.\main.c      **** 				}
 250:.\main.c      **** 				
 251:.\main.c      **** 				break;
 252:.\main.c      **** 			//=========================================== MOTOR ON =======================================//
 253:.\main.c      **** 			// Skateboard is on, and motor can be controlled
 254:.\main.c      **** 			// Cannot enter alarm state from here (have to turn motor off first)
 255:.\main.c      **** 			case motorOn:
 256:.\main.c      **** 				if(prevMainState != motorOn)
 257:.\main.c      **** 				{
 258:.\main.c      **** 					#if(configDEBUG_MAIN == 1)
 259:.\main.c      **** 						UartDebug_PutString("MAIN: Entering mainMotorOn state.\r\n");
 260:.\main.c      **** 					#endif
 261:.\main.c      **** 					// Set on bit in status byte
ARM GAS  C:\Users\Geo\AppData\Local\Temp\cc1XeoyO.s 			page 9


 262:.\main.c      **** 					boardStatusByte |= (1 << commsON_BIT_POS);
 263:.\main.c      **** 					
 264:.\main.c      **** 					// Solid on orange LED
 265:.\main.c      **** 					Lights_SetLedMode(LED_ORANGE, ON, 0);
 266:.\main.c      **** 					Lights_SetLedMode(LED_RED, OFF, 0);
 267:.\main.c      **** 					Lights_SetLedMode(LED_GREEN, ON, 0);
 268:.\main.c      **** 					
 269:.\main.c      **** 					// Turn on skirting light
 270:.\main.c      **** 					Lights_SetLedMode(LIGHT_SKIRTING, ON, 0);
 271:.\main.c      **** 					
 272:.\main.c      **** 					Piezo_EmitMotorOnSound(up);
 273:.\main.c      **** 				
 274:.\main.c      **** 					// Enable motor
 275:.\main.c      **** 					Motor_TurnOn();
 276:.\main.c      **** 					
 277:.\main.c      **** 					prevMainState = motorOn;
 278:.\main.c      **** 				}
 279:.\main.c      **** 				
 280:.\main.c      **** 				if(Comms_IsNewPacket())
 281:.\main.c      **** 				{
 282:.\main.c      **** 					
 283:.\main.c      **** 					// Check if off button on remote has been pressed
 284:.\main.c      **** 					if(!(Comms_GetByte(commsSTATUS_BYTE_POS) & (1 << commsON_BIT_POS)))
 285:.\main.c      **** 					{
 286:.\main.c      **** 						#if(configDEBUG_MAIN == 1)
 287:.\main.c      **** 							UartDebug_PutString("MAIN: Remote has turned off motor.\r\n");
 288:.\main.c      **** 						#endif
 289:.\main.c      **** 						// Clear on bit in status byte
 290:.\main.c      **** 						boardStatusByte &= ((1 << commsON_BIT_POS)^0xFF);
 291:.\main.c      **** 						// Turn off motor (user has lost all speed control)
 292:.\main.c      **** 						Piezo_EmitMotorOnSound(down);
 293:.\main.c      **** 						Motor_TurnOff();
 294:.\main.c      **** 						mainState = inRange;
 295:.\main.c      **** 					}
 296:.\main.c      **** 					
 297:.\main.c      **** 					Main_CheckForLedOnOffPressed();
 298:.\main.c      **** 					Main_CheckForChangeLedMode();
 299:.\main.c      **** 
 300:.\main.c      **** 					Main_BuildMsg(_msg);
 301:.\main.c      **** 					Comms_Send(_msg, configCOMMS_TX_MSG_LENGTH);
 302:.\main.c      **** 				}
 303:.\main.c      **** 
 304:.\main.c      **** 				// Check if comms has timed out (no packet received in limit set by COMMS_TIMEOUT_PERIOD)
 305:.\main.c      **** 				if(Comms_Timeout())
 306:.\main.c      **** 				{
 307:.\main.c      **** 					// Clear on bit in status byte
 308:.\main.c      **** 					boardStatusByte &= ((1 << commsON_BIT_POS)^0xFF);
 309:.\main.c      **** 					// Turn off motor (user has lost all speed control)
 310:.\main.c      **** 					Motor_TurnOff();
 311:.\main.c      **** 					Piezo_EmitMotorOnSound(down);
 312:.\main.c      **** 					// Turn off skateboard if communication lost with remote
 313:.\main.c      **** 					mainState = off;
 314:.\main.c      **** 					break;
 315:.\main.c      **** 				}
 316:.\main.c      **** 
 317:.\main.c      **** 				break;
 318:.\main.c      **** 			//=========================================== ALARM ARMED STATE ================================
ARM GAS  C:\Users\Geo\AppData\Local\Temp\cc1XeoyO.s 			page 10


 319:.\main.c      **** 			// Allows lights to be turned on/off. No comms timeout in this state, so user can turn remote of
 320:.\main.c      **** 			case alarmArmed:
 321:.\main.c      **** 				if(prevMainState != alarmArmed)
 322:.\main.c      **** 				{
 323:.\main.c      **** 					#if(configDEBUG_MAIN == 1)
 324:.\main.c      **** 						UartDebug_PutString("MAIN: Entering mainAlarmArmed state.\r\n");
 325:.\main.c      **** 					#endif
 326:.\main.c      **** 					PinMotionSensor_ClearInterrupt();
 327:.\main.c      **** 					IsrMotionSensor_ClearPending();
 328:.\main.c      **** 					IsrMotionSensor_Enable();
 329:.\main.c      **** 					// Solid on orange LED
 330:.\main.c      **** 					Lights_SetLedMode(LED_ORANGE, OFF, 0);
 331:.\main.c      **** 					Lights_SetLedMode(LED_RED, ON, 0);
 332:.\main.c      **** 					Lights_SetLedMode(LED_GREEN, OFF, 0);
 333:.\main.c      **** 					
 334:.\main.c      **** 					Piezo_AlarmActivatedSound();
 335:.\main.c      **** 					
 336:.\main.c      **** 					// Turn off skirting light
 337:.\main.c      **** 					Lights_SetLedMode(LIGHT_SKIRTING, OFF, 0);
 338:.\main.c      **** 					
 339:.\main.c      **** 					// Reset trigger count
 340:.\main.c      **** 					alarmTriggerCount = 0;
 341:.\main.c      **** 					
 342:.\main.c      **** 					prevMainState = alarmArmed;
 343:.\main.c      **** 				}
 344:.\main.c      **** 				
 345:.\main.c      **** 				
 346:.\main.c      **** 				// Turn alarm on if motion sensor is triggered
 347:.\main.c      **** 				if(motionSensorTriggered)
 348:.\main.c      **** 				{
 349:.\main.c      **** 					// Reset triggered flag for next time around
 350:.\main.c      **** 					motionSensorTriggered = FALSE;
 351:.\main.c      **** 					// Increment trigger counter
 352:.\main.c      **** 					alarmTriggerCount++;
 353:.\main.c      **** 					PinMotionSensor_ClearInterrupt();
 354:.\main.c      **** 					IsrMotionSensor_ClearPending();
 355:.\main.c      **** 					IsrMotionSensor_Enable();
 356:.\main.c      **** 					if(alarmTriggerCount > configALARM_NUMBER_OF_WARNING_BEEPS)
 357:.\main.c      **** 						// Go to triggered state (activate piezo, flashes lights)
 358:.\main.c      **** 						mainState = alarmTriggered;
 359:.\main.c      **** 					else
 360:.\main.c      **** 						// Give warning
 361:.\main.c      **** 						Piezo_EmitBeep();
 362:.\main.c      **** 				}
 363:.\main.c      **** 				
 364:.\main.c      **** 				if(Comms_IsNewPacket())
 365:.\main.c      **** 				{	
 366:.\main.c      **** 					Main_CheckForLedOnOffPressed();
 367:.\main.c      **** 					Main_CheckForChangeLedMode();
 368:.\main.c      **** 					
 369:.\main.c      **** 					// Check for alarm being turned off
 370:.\main.c      **** 					if(!Main_CheckForAlarmOnOffPressed())
 371:.\main.c      **** 					{
 372:.\main.c      **** 						Piezo_AlarmEnable(FALSE);
 373:.\main.c      **** 						// Clear status byte of alarm set bit
 374:.\main.c      **** 						boardStatusByte &= ((1 << commsALARM_ON_BIT_POS)^0xFF);
 375:.\main.c      **** 						mainState = inRange;
ARM GAS  C:\Users\Geo\AppData\Local\Temp\cc1XeoyO.s 			page 11


 376:.\main.c      **** 					}
 377:.\main.c      **** 					
 378:.\main.c      **** 					Main_BuildMsg(_msg);
 379:.\main.c      **** 					Comms_Send(_msg, configCOMMS_TX_MSG_LENGTH);
 380:.\main.c      **** 				}
 381:.\main.c      **** 					
 382:.\main.c      **** 				break;
 383:.\main.c      **** 			//===================================== ALARM TRIGGERED STATE ================================//
 384:.\main.c      **** 			// No timeout for this state (user can set alarm and then turn of remote)
 385:.\main.c      **** 			case alarmTriggered:
 386:.\main.c      **** 				if(prevMainState != mainState)
 387:.\main.c      **** 				{
 388:.\main.c      **** 					#if(configDEBUG_MAIN == 1)
 389:.\main.c      **** 						UartDebug_PutString("MAIN: Entering mainAlarmTriggered state.\r\n");
 390:.\main.c      **** 					#endif
 391:.\main.c      **** 					// Turn the alarm on
 392:.\main.c      **** 					Piezo_AlarmEnable(TRUE);
 393:.\main.c      **** 					
 394:.\main.c      **** 					// Turn on skirting light, flash all other high-power lights
 395:.\main.c      **** 					Lights_SetLedMode(LIGHT_SKIRTING, ON, 0);
 396:.\main.c      **** 					Lights_SetLedMode(LIGHT_FRONT, FLASHING, 200);
 397:.\main.c      **** 					Lights_SetLedMode(LIGHT_BACK, FLASHING, 200);
 398:.\main.c      **** 					
 399:.\main.c      **** 					// Remeber the count at which this state was entered
 400:.\main.c      **** 					alarmTriggeredStartCount = _mainTickCounter;
 401:.\main.c      **** 					
 402:.\main.c      **** 					prevMainState = mainState;
 403:.\main.c      **** 				}
 404:.\main.c      **** 					#if(configDEBUG_MAIN == 1)
 405:.\main.c      **** 						snprintf(debugBuff, sizeof(debugBuff), "MAIN: Trigger Count = %f, Main State Count = %lu\r\n"
 406:.\main.c      **** 							alarmTriggeredStartCount + configALARM_TIME_TO_REMAIN_TRIGGERED_SEC*1000.0/configMAIN_TICK_P
 407:.\main.c      **** 						UartDebug_PutString(debugBuff);
 408:.\main.c      **** 					#endif
 409:.\main.c      **** 				
 410:.\main.c      **** 				
 411:.\main.c      **** 				if(Comms_IsNewPacket())
 412:.\main.c      **** 				{
 413:.\main.c      **** 					
 414:.\main.c      **** 					Main_CheckForLedOnOffPressed();
 415:.\main.c      **** 					Main_CheckForChangeLedMode();
 416:.\main.c      **** 					
 417:.\main.c      **** 					// Check for alarm being turned off
 418:.\main.c      **** 					if(!Main_CheckForAlarmOnOffPressed())
 419:.\main.c      **** 					{
 420:.\main.c      **** 						Piezo_AlarmEnable(FALSE);
 421:.\main.c      **** 						// Clear status byte of alarm set bit
 422:.\main.c      **** 						boardStatusByte &= ((1 << commsALARM_ON_BIT_POS)^0xFF);
 423:.\main.c      **** 						Lights_TurnOffHighPowerLights();
 424:.\main.c      **** 						mainState = inRange;
 425:.\main.c      **** 					}
 426:.\main.c      **** 					
 427:.\main.c      **** 					Main_BuildMsg(_msg);
 428:.\main.c      **** 					Comms_Send(_msg, configCOMMS_TX_MSG_LENGTH);
 429:.\main.c      **** 				}
 430:.\main.c      **** 				
 431:.\main.c      **** 				if(_mainTickCounter >= (uint32_t)(alarmTriggeredStartCount + configALARM_TIME_TO_REMAIN_TRIGGER
 432:.\main.c      **** 				{
ARM GAS  C:\Users\Geo\AppData\Local\Temp\cc1XeoyO.s 			page 12


 433:.\main.c      **** 					#if(configDEBUG_MAIN == 1)
 434:.\main.c      **** 						UartDebug_PutString("MAIN: Alarm triggered time elasped.\r\n");
 435:.\main.c      **** 					#endif
 436:.\main.c      **** 					// Disable alarm sound and go back to alarm armed state
 437:.\main.c      **** 					Piezo_AlarmEnable(FALSE);
 438:.\main.c      **** 					Lights_TurnOffHighPowerLights();
 439:.\main.c      **** 					mainState = alarmArmed;
 440:.\main.c      **** 				}
 441:.\main.c      **** 				
 442:.\main.c      **** 				break;
 443:.\main.c      **** 				
 444:.\main.c      **** 			default:
 445:.\main.c      **** 				break;
 446:.\main.c      **** 		}
 447:.\main.c      **** 		
 448:.\main.c      **** 		
 449:.\main.c      **** 		// Wait for next tick from interrupt
 450:.\main.c      **** 		if(currentTick == _mainTickCounter)
 451:.\main.c      **** 			// Normal operation, wait for next tick
 452:.\main.c      **** 			while(currentTick == _mainTickCounter);
 453:.\main.c      **** 		else
 454:.\main.c      **** 		{
 455:.\main.c      **** 			// Tick has incremented before main loop has finished executing, code is running too slow
 456:.\main.c      **** 			//! @todo Add error checking
 457:.\main.c      **** 		}
 458:.\main.c      **** 	   
 459:.\main.c      ****     }
 154              		.loc 1 459 0
 155 008e 00BF     		nop
 156              	.L31:
 157              		.loc 1 142 0
 158 0090 40F20003 		movw	r3, #:lower16:_mainTickCounter
 159 0094 C0F20003 		movt	r3, #:upper16:_mainTickCounter
 160 0098 1B68     		ldr	r3, [r3, #0]
 161 009a 7B60     		str	r3, [r7, #4]
 162              		.loc 1 147 0
 163 009c FFF7FEFF 		bl	Lights_Run
 164              		.loc 1 148 0
 165 00a0 FFF7FEFF 		bl	Adc_Run
 166              		.loc 1 149 0
 167 00a4 FFF7FEFF 		bl	Comms_Run
 168              		.loc 1 152 0
 169 00a8 FFF7FEFF 		bl	Motor_Run
 170              		.loc 1 153 0
 171 00ac FFF7FEFF 		bl	Piezo_Run
 172              		.loc 1 156 0
 173 00b0 40F20003 		movw	r3, #:lower16:mainState
 174 00b4 C0F20003 		movt	r3, #:upper16:mainState
 175 00b8 1B78     		ldrb	r3, [r3, #0]	@ zero_extendqisi2
 176 00ba 03F1FF33 		add	r3, r3, #-1
 177 00be 042B     		cmp	r3, #4
 178 00c0 00F27383 		bhi	.L2
 179 00c4 01A2     		adr	r2, .L8
 180 00c6 52F823F0 		ldr	pc, [r2, r3, lsl #2]
 181 00ca 00BF     		.align	2
 182              	.L8:
 183 00cc E1000000 		.word	.L3+1
ARM GAS  C:\Users\Geo\AppData\Local\Temp\cc1XeoyO.s 			page 13


 184 00d0 CD010000 		.word	.L4+1
 185 00d4 0F030000 		.word	.L5+1
 186 00d8 6F040000 		.word	.L6+1
 187 00dc D5050000 		.word	.L7+1
 188              	.L3:
 189              		.loc 1 160 0
 190 00e0 40F20003 		movw	r3, #:lower16:prevMainState.3790
 191 00e4 C0F20003 		movt	r3, #:upper16:prevMainState.3790
 192 00e8 1B78     		ldrb	r3, [r3, #0]	@ zero_extendqisi2
 193 00ea 012B     		cmp	r3, #1
 194 00ec 52D0     		beq	.L9
 195              		.loc 1 163 0
 196 00ee 40F20000 		movw	r0, #:lower16:.LC1
 197 00f2 C0F20000 		movt	r0, #:upper16:.LC1
 198 00f6 FFF7FEFF 		bl	UartDebug_PutString
 199              		.loc 1 166 0
 200 00fa 40F20003 		movw	r3, #:lower16:boardStatusByte
 201 00fe C0F20003 		movt	r3, #:upper16:boardStatusByte
 202 0102 1B78     		ldrb	r3, [r3, #0]	@ zero_extendqisi2
 203 0104 1A46     		mov	r2, r3
 204 0106 02F0FE02 		and	r2, r2, #254
 205 010a 40F20003 		movw	r3, #:lower16:boardStatusByte
 206 010e C0F20003 		movt	r3, #:upper16:boardStatusByte
 207 0112 1A70     		strb	r2, [r3, #0]
 208              		.loc 1 168 0
 209 0114 40F20003 		movw	r3, #:lower16:boardStatusByte
 210 0118 C0F20003 		movt	r3, #:upper16:boardStatusByte
 211 011c 1B78     		ldrb	r3, [r3, #0]	@ zero_extendqisi2
 212 011e 1A46     		mov	r2, r3
 213 0120 02F0FB02 		and	r2, r2, #251
 214 0124 40F20003 		movw	r3, #:lower16:boardStatusByte
 215 0128 C0F20003 		movt	r3, #:upper16:boardStatusByte
 216 012c 1A70     		strb	r2, [r3, #0]
 217              		.loc 1 171 0
 218 012e 4FF00100 		mov	r0, #1
 219 0132 4FF00201 		mov	r1, #2
 220 0136 0FF29863 		adr	r3, .L38
 221 013a D3E90023 		ldrd	r2, [r3]
 222 013e FFF7FEFF 		bl	Lights_SetLedMode
 223              		.loc 1 172 0
 224 0142 4FF00000 		mov	r0, #0
 225 0146 4FF00001 		mov	r1, #0
 226 014a 4FF00002 		mov	r2, #0
 227 014e 4FF00003 		mov	r3, #0
 228 0152 FFF7FEFF 		bl	Lights_SetLedMode
 229              		.loc 1 173 0
 230 0156 4FF00200 		mov	r0, #2
 231 015a 4FF00001 		mov	r1, #0
 232 015e 4FF00002 		mov	r2, #0
 233 0162 4FF00003 		mov	r3, #0
 234 0166 FFF7FEFF 		bl	Lights_SetLedMode
 235              		.loc 1 176 0
 236 016a 4FF00500 		mov	r0, #5
 237 016e 4FF00001 		mov	r1, #0
 238 0172 4FF00002 		mov	r2, #0
 239 0176 4FF00003 		mov	r3, #0
 240 017a FFF7FEFF 		bl	Lights_SetLedMode
ARM GAS  C:\Users\Geo\AppData\Local\Temp\cc1XeoyO.s 			page 14


 241              		.loc 1 178 0
 242 017e FFF7FEFF 		bl	Piezo_EmitBeep
 243              		.loc 1 179 0
 244 0182 FFF7FEFF 		bl	Piezo_EmitBeep
 245              		.loc 1 181 0
 246 0186 40F20003 		movw	r3, #:lower16:prevMainState.3790
 247 018a C0F20003 		movt	r3, #:upper16:prevMainState.3790
 248 018e 4FF00102 		mov	r2, #1
 249 0192 1A70     		strb	r2, [r3, #0]
 250              	.L9:
 251              		.loc 1 185 0
 252 0194 FFF7FEFF 		bl	Comms_IsNewPacket
 253 0198 0346     		mov	r3, r0
 254 019a 002B     		cmp	r3, #0
 255 019c 00F0FE82 		beq	.L33
 256              		.loc 1 188 0
 257 01a0 40F20000 		movw	r0, #:lower16:_msg
 258 01a4 C0F20000 		movt	r0, #:upper16:_msg
 259 01a8 FFF7FEFF 		bl	Main_BuildMsg
 260              		.loc 1 189 0
 261 01ac 40F20000 		movw	r0, #:lower16:_msg
 262 01b0 C0F20000 		movt	r0, #:upper16:_msg
 263 01b4 4FF00A01 		mov	r1, #10
 264 01b8 FFF7FEFF 		bl	Comms_Send
 265              		.loc 1 190 0
 266 01bc 40F20003 		movw	r3, #:lower16:mainState
 267 01c0 C0F20003 		movt	r3, #:upper16:mainState
 268 01c4 4FF00202 		mov	r2, #2
 269 01c8 1A70     		strb	r2, [r3, #0]
 270              		.loc 1 191 0
 271 01ca EEE2     		b	.L2
 272              	.L4:
 273              		.loc 1 199 0
 274 01cc 40F20003 		movw	r3, #:lower16:prevMainState.3790
 275 01d0 C0F20003 		movt	r3, #:upper16:prevMainState.3790
 276 01d4 1B78     		ldrb	r3, [r3, #0]	@ zero_extendqisi2
 277 01d6 022B     		cmp	r3, #2
 278 01d8 4AD0     		beq	.L11
 279              		.loc 1 202 0
 280 01da 40F20000 		movw	r0, #:lower16:.LC2
 281 01de C0F20000 		movt	r0, #:upper16:.LC2
 282 01e2 FFF7FEFF 		bl	UartDebug_PutString
 283              		.loc 1 206 0
 284 01e6 40F20003 		movw	r3, #:lower16:boardStatusByte
 285 01ea C0F20003 		movt	r3, #:upper16:boardStatusByte
 286 01ee 1B78     		ldrb	r3, [r3, #0]	@ zero_extendqisi2
 287 01f0 43F00403 		orr	r3, r3, #4
 288 01f4 DAB2     		uxtb	r2, r3
 289 01f6 40F20003 		movw	r3, #:lower16:boardStatusByte
 290 01fa C0F20003 		movt	r3, #:upper16:boardStatusByte
 291 01fe 1A70     		strb	r2, [r3, #0]
 292              		.loc 1 209 0
 293 0200 4FF00100 		mov	r0, #1
 294 0204 4FF00101 		mov	r1, #1
 295 0208 4FF00002 		mov	r2, #0
 296 020c 4FF00003 		mov	r3, #0
 297 0210 FFF7FEFF 		bl	Lights_SetLedMode
ARM GAS  C:\Users\Geo\AppData\Local\Temp\cc1XeoyO.s 			page 15


 298              		.loc 1 210 0
 299 0214 4FF00000 		mov	r0, #0
 300 0218 4FF00001 		mov	r1, #0
 301 021c 4FF00002 		mov	r2, #0
 302 0220 4FF00003 		mov	r3, #0
 303 0224 FFF7FEFF 		bl	Lights_SetLedMode
 304              		.loc 1 211 0
 305 0228 4FF00200 		mov	r0, #2
 306 022c 4FF00001 		mov	r1, #0
 307 0230 4FF00002 		mov	r2, #0
 308 0234 4FF00003 		mov	r3, #0
 309 0238 FFF7FEFF 		bl	Lights_SetLedMode
 310              		.loc 1 214 0
 311 023c 4FF00500 		mov	r0, #5
 312 0240 4FF00001 		mov	r1, #0
 313 0244 4FF00002 		mov	r2, #0
 314 0248 4FF00003 		mov	r3, #0
 315 024c FFF7FEFF 		bl	Lights_SetLedMode
 316              		.loc 1 217 0
 317 0250 40F20003 		movw	r3, #:lower16:prevMainState.3790
 318 0254 C0F20003 		movt	r3, #:upper16:prevMainState.3790
 319 0258 1B78     		ldrb	r3, [r3, #0]	@ zero_extendqisi2
 320 025a 032B     		cmp	r3, #3
 321 025c 01D0     		beq	.L12
 322              		.loc 1 218 0
 323 025e FFF7FEFF 		bl	Piezo_EmitBeep
 324              	.L12:
 325              		.loc 1 220 0
 326 0262 40F20003 		movw	r3, #:lower16:prevMainState.3790
 327 0266 C0F20003 		movt	r3, #:upper16:prevMainState.3790
 328 026a 4FF00202 		mov	r2, #2
 329 026e 1A70     		strb	r2, [r3, #0]
 330              	.L11:
 331              		.loc 1 223 0
 332 0270 FFF7FEFF 		bl	Comms_IsNewPacket
 333 0274 0346     		mov	r3, r0
 334 0276 002B     		cmp	r3, #0
 335 0278 3BD0     		beq	.L13
 336              		.loc 1 225 0
 337 027a 4FF00400 		mov	r0, #4
 338 027e FFF7FEFF 		bl	Comms_GetByte
 339 0282 0346     		mov	r3, r0
 340 0284 03F00103 		and	r3, r3, #1
 341 0288 DBB2     		uxtb	r3, r3
 342 028a 002B     		cmp	r3, #0
 343 028c 06D0     		beq	.L14
 344              		.loc 1 227 0
 345 028e 40F20003 		movw	r3, #:lower16:mainState
 346 0292 C0F20003 		movt	r3, #:upper16:mainState
 347 0296 4FF00302 		mov	r2, #3
 348 029a 1A70     		strb	r2, [r3, #0]
 349              	.L14:
 350              		.loc 1 230 0
 351 029c FFF7FEFF 		bl	Main_CheckForLedOnOffPressed
 352              		.loc 1 231 0
 353 02a0 FFF7FEFF 		bl	Main_CheckForChangeLedMode
 354              		.loc 1 233 0
ARM GAS  C:\Users\Geo\AppData\Local\Temp\cc1XeoyO.s 			page 16


 355 02a4 FFF7FEFF 		bl	Main_CheckForAlarmOnOffPressed
 356 02a8 0346     		mov	r3, r0
 357 02aa 002B     		cmp	r3, #0
 358 02ac 13D0     		beq	.L15
 359              		.loc 1 235 0
 360 02ae 40F20003 		movw	r3, #:lower16:mainState
 361 02b2 C0F20003 		movt	r3, #:upper16:mainState
 362 02b6 4FF00402 		mov	r2, #4
 363 02ba 1A70     		strb	r2, [r3, #0]
 364              		.loc 1 237 0
 365 02bc 40F20003 		movw	r3, #:lower16:boardStatusByte
 366 02c0 C0F20003 		movt	r3, #:upper16:boardStatusByte
 367 02c4 1B78     		ldrb	r3, [r3, #0]	@ zero_extendqisi2
 368 02c6 43F00203 		orr	r3, r3, #2
 369 02ca DAB2     		uxtb	r2, r3
 370 02cc 40F20003 		movw	r3, #:lower16:boardStatusByte
 371 02d0 C0F20003 		movt	r3, #:upper16:boardStatusByte
 372 02d4 1A70     		strb	r2, [r3, #0]
 373              	.L15:
 374              		.loc 1 240 0
 375 02d6 40F20000 		movw	r0, #:lower16:_msg
 376 02da C0F20000 		movt	r0, #:upper16:_msg
 377 02de FFF7FEFF 		bl	Main_BuildMsg
 378              		.loc 1 241 0
 379 02e2 40F20000 		movw	r0, #:lower16:_msg
 380 02e6 C0F20000 		movt	r0, #:upper16:_msg
 381 02ea 4FF00A01 		mov	r1, #10
 382 02ee FFF7FEFF 		bl	Comms_Send
 383              	.L13:
 384              		.loc 1 244 0
 385 02f2 FFF7FEFF 		bl	Comms_Timeout
 386 02f6 0346     		mov	r3, r0
 387 02f8 002B     		cmp	r3, #0
 388 02fa 00F05182 		beq	.L34
 389              		.loc 1 247 0
 390 02fe 40F20003 		movw	r3, #:lower16:mainState
 391 0302 C0F20003 		movt	r3, #:upper16:mainState
 392 0306 4FF00102 		mov	r2, #1
 393 030a 1A70     		strb	r2, [r3, #0]
 394              		.loc 1 248 0
 395 030c 4DE2     		b	.L2
 396              	.L5:
 397              		.loc 1 256 0
 398 030e 40F20003 		movw	r3, #:lower16:prevMainState.3790
 399 0312 C0F20003 		movt	r3, #:upper16:prevMainState.3790
 400 0316 1B78     		ldrb	r3, [r3, #0]	@ zero_extendqisi2
 401 0318 032B     		cmp	r3, #3
 402 031a 47D0     		beq	.L17
 403              		.loc 1 259 0
 404 031c 40F20000 		movw	r0, #:lower16:.LC3
 405 0320 C0F20000 		movt	r0, #:upper16:.LC3
 406 0324 FFF7FEFF 		bl	UartDebug_PutString
 407              		.loc 1 262 0
 408 0328 40F20003 		movw	r3, #:lower16:boardStatusByte
 409 032c C0F20003 		movt	r3, #:upper16:boardStatusByte
 410 0330 1B78     		ldrb	r3, [r3, #0]	@ zero_extendqisi2
 411 0332 43F00103 		orr	r3, r3, #1
ARM GAS  C:\Users\Geo\AppData\Local\Temp\cc1XeoyO.s 			page 17


 412 0336 DAB2     		uxtb	r2, r3
 413 0338 40F20003 		movw	r3, #:lower16:boardStatusByte
 414 033c C0F20003 		movt	r3, #:upper16:boardStatusByte
 415 0340 1A70     		strb	r2, [r3, #0]
 416              		.loc 1 265 0
 417 0342 4FF00100 		mov	r0, #1
 418 0346 4FF00101 		mov	r1, #1
 419 034a 4FF00002 		mov	r2, #0
 420 034e 4FF00003 		mov	r3, #0
 421 0352 FFF7FEFF 		bl	Lights_SetLedMode
 422              		.loc 1 266 0
 423 0356 4FF00000 		mov	r0, #0
 424 035a 4FF00001 		mov	r1, #0
 425 035e 4FF00002 		mov	r2, #0
 426 0362 4FF00003 		mov	r3, #0
 427 0366 FFF7FEFF 		bl	Lights_SetLedMode
 428              		.loc 1 267 0
 429 036a 4FF00200 		mov	r0, #2
 430 036e 4FF00101 		mov	r1, #1
 431 0372 4FF00002 		mov	r2, #0
 432 0376 4FF00003 		mov	r3, #0
 433 037a FFF7FEFF 		bl	Lights_SetLedMode
 434              		.loc 1 270 0
 435 037e 4FF00500 		mov	r0, #5
 436 0382 4FF00101 		mov	r1, #1
 437 0386 4FF00002 		mov	r2, #0
 438 038a 4FF00003 		mov	r3, #0
 439 038e FFF7FEFF 		bl	Lights_SetLedMode
 440              		.loc 1 272 0
 441 0392 4FF00000 		mov	r0, #0
 442 0396 FFF7FEFF 		bl	Piezo_EmitMotorOnSound
 443              		.loc 1 275 0
 444 039a FFF7FEFF 		bl	Motor_TurnOn
 445              		.loc 1 277 0
 446 039e 40F20003 		movw	r3, #:lower16:prevMainState.3790
 447 03a2 C0F20003 		movt	r3, #:upper16:prevMainState.3790
 448 03a6 4FF00302 		mov	r2, #3
 449 03aa 1A70     		strb	r2, [r3, #0]
 450              	.L17:
 451              		.loc 1 280 0
 452 03ac FFF7FEFF 		bl	Comms_IsNewPacket
 453 03b0 0346     		mov	r3, r0
 454 03b2 002B     		cmp	r3, #0
 455 03b4 3AD0     		beq	.L18
 456              		.loc 1 284 0
 457 03b6 4FF00400 		mov	r0, #4
 458 03ba FFF7FEFF 		bl	Comms_GetByte
 459 03be 0346     		mov	r3, r0
 460 03c0 03F00103 		and	r3, r3, #1
 461 03c4 002B     		cmp	r3, #0
 462 03c6 1FD1     		bne	.L19
 463              		.loc 1 287 0
 464 03c8 40F20000 		movw	r0, #:lower16:.LC4
 465 03cc C0F20000 		movt	r0, #:upper16:.LC4
 466 03d0 FFF7FEFF 		bl	UartDebug_PutString
 467              		.loc 1 290 0
 468 03d4 40F20003 		movw	r3, #:lower16:boardStatusByte
ARM GAS  C:\Users\Geo\AppData\Local\Temp\cc1XeoyO.s 			page 18


 469 03d8 C0F20003 		movt	r3, #:upper16:boardStatusByte
 470 03dc 1B78     		ldrb	r3, [r3, #0]	@ zero_extendqisi2
 471 03de 1A46     		mov	r2, r3
 472 03e0 02F0FE02 		and	r2, r2, #254
 473 03e4 40F20003 		movw	r3, #:lower16:boardStatusByte
 474 03e8 C0F20003 		movt	r3, #:upper16:boardStatusByte
 475 03ec 1A70     		strb	r2, [r3, #0]
 476              		.loc 1 292 0
 477 03ee 4FF00100 		mov	r0, #1
 478 03f2 FFF7FEFF 		bl	Piezo_EmitMotorOnSound
 479              		.loc 1 293 0
 480 03f6 FFF7FEFF 		bl	Motor_TurnOff
 481              		.loc 1 294 0
 482 03fa 40F20003 		movw	r3, #:lower16:mainState
 483 03fe C0F20003 		movt	r3, #:upper16:mainState
 484 0402 4FF00202 		mov	r2, #2
 485 0406 1A70     		strb	r2, [r3, #0]
 486              	.L19:
 487              		.loc 1 297 0
 488 0408 FFF7FEFF 		bl	Main_CheckForLedOnOffPressed
 489              		.loc 1 298 0
 490 040c FFF7FEFF 		bl	Main_CheckForChangeLedMode
 491              		.loc 1 300 0
 492 0410 40F20000 		movw	r0, #:lower16:_msg
 493 0414 C0F20000 		movt	r0, #:upper16:_msg
 494 0418 FFF7FEFF 		bl	Main_BuildMsg
 495              		.loc 1 301 0
 496 041c 40F20000 		movw	r0, #:lower16:_msg
 497 0420 C0F20000 		movt	r0, #:upper16:_msg
 498 0424 4FF00A01 		mov	r1, #10
 499 0428 FFF7FEFF 		bl	Comms_Send
 500              	.L18:
 501              		.loc 1 305 0
 502 042c FFF7FEFF 		bl	Comms_Timeout
 503 0430 0346     		mov	r3, r0
 504 0432 002B     		cmp	r3, #0
 505 0434 00F0B681 		beq	.L35
 506              		.loc 1 308 0
 507 0438 40F20003 		movw	r3, #:lower16:boardStatusByte
 508 043c C0F20003 		movt	r3, #:upper16:boardStatusByte
 509 0440 1B78     		ldrb	r3, [r3, #0]	@ zero_extendqisi2
 510 0442 1A46     		mov	r2, r3
 511 0444 02F0FE02 		and	r2, r2, #254
 512 0448 40F20003 		movw	r3, #:lower16:boardStatusByte
 513 044c C0F20003 		movt	r3, #:upper16:boardStatusByte
 514 0450 1A70     		strb	r2, [r3, #0]
 515              		.loc 1 310 0
 516 0452 FFF7FEFF 		bl	Motor_TurnOff
 517              		.loc 1 311 0
 518 0456 4FF00100 		mov	r0, #1
 519 045a FFF7FEFF 		bl	Piezo_EmitMotorOnSound
 520              		.loc 1 313 0
 521 045e 40F20003 		movw	r3, #:lower16:mainState
 522 0462 C0F20003 		movt	r3, #:upper16:mainState
 523 0466 4FF00102 		mov	r2, #1
 524 046a 1A70     		strb	r2, [r3, #0]
 525              		.loc 1 314 0
ARM GAS  C:\Users\Geo\AppData\Local\Temp\cc1XeoyO.s 			page 19


 526 046c 9DE1     		b	.L2
 527              	.L6:
 528              		.loc 1 321 0
 529 046e 40F20003 		movw	r3, #:lower16:prevMainState.3790
 530 0472 C0F20003 		movt	r3, #:upper16:prevMainState.3790
 531 0476 1B78     		ldrb	r3, [r3, #0]	@ zero_extendqisi2
 532 0478 042B     		cmp	r3, #4
 533 047a 43D0     		beq	.L21
 534              		.loc 1 324 0
 535 047c 40F20000 		movw	r0, #:lower16:.LC5
 536 0480 C0F20000 		movt	r0, #:upper16:.LC5
 537 0484 FFF7FEFF 		bl	UartDebug_PutString
 538              		.loc 1 326 0
 539 0488 FFF7FEFF 		bl	PinMotionSensor_ClearInterrupt
 540              		.loc 1 327 0
 541 048c FFF7FEFF 		bl	IsrMotionSensor_ClearPending
 542              		.loc 1 328 0
 543 0490 FFF7FEFF 		bl	IsrMotionSensor_Enable
 544              		.loc 1 330 0
 545 0494 4FF00100 		mov	r0, #1
 546 0498 4FF00001 		mov	r1, #0
 547 049c 4FF00002 		mov	r2, #0
 548 04a0 4FF00003 		mov	r3, #0
 549 04a4 FFF7FEFF 		bl	Lights_SetLedMode
 550              		.loc 1 331 0
 551 04a8 4FF00000 		mov	r0, #0
 552 04ac 4FF00101 		mov	r1, #1
 553 04b0 4FF00002 		mov	r2, #0
 554 04b4 4FF00003 		mov	r3, #0
 555 04b8 FFF7FEFF 		bl	Lights_SetLedMode
 556              		.loc 1 332 0
 557 04bc 4FF00200 		mov	r0, #2
 558 04c0 4FF00001 		mov	r1, #0
 559 04c4 4FF00002 		mov	r2, #0
 560 04c8 4FF00003 		mov	r3, #0
 561 04cc FFF7FEFF 		bl	Lights_SetLedMode
 562              		.loc 1 334 0
 563 04d0 FFF7FEFF 		bl	Piezo_AlarmActivatedSound
 564              		.loc 1 337 0
 565 04d4 4FF00500 		mov	r0, #5
 566 04d8 4FF00001 		mov	r1, #0
 567 04dc 4FF00002 		mov	r2, #0
 568 04e0 4FF00003 		mov	r3, #0
 569 04e4 FFF7FEFF 		bl	Lights_SetLedMode
 570              		.loc 1 340 0
 571 04e8 40F20003 		movw	r3, #:lower16:alarmTriggerCount.3792
 572 04ec C0F20003 		movt	r3, #:upper16:alarmTriggerCount.3792
 573 04f0 4FF00002 		mov	r2, #0
 574 04f4 1A70     		strb	r2, [r3, #0]
 575              		.loc 1 342 0
 576 04f6 40F20003 		movw	r3, #:lower16:prevMainState.3790
 577 04fa C0F20003 		movt	r3, #:upper16:prevMainState.3790
 578 04fe 4FF00402 		mov	r2, #4
 579 0502 1A70     		strb	r2, [r3, #0]
 580              	.L21:
 581              		.loc 1 347 0
 582 0504 40F20003 		movw	r3, #:lower16:motionSensorTriggered
ARM GAS  C:\Users\Geo\AppData\Local\Temp\cc1XeoyO.s 			page 20


 583 0508 C0F20003 		movt	r3, #:upper16:motionSensorTriggered
 584 050c 1B78     		ldrb	r3, [r3, #0]	@ zero_extendqisi2
 585 050e 002B     		cmp	r3, #0
 586 0510 2AD0     		beq	.L22
 587              		.loc 1 350 0
 588 0512 40F20003 		movw	r3, #:lower16:motionSensorTriggered
 589 0516 C0F20003 		movt	r3, #:upper16:motionSensorTriggered
 590 051a 4FF00002 		mov	r2, #0
 591 051e 1A70     		strb	r2, [r3, #0]
 592              		.loc 1 352 0
 593 0520 40F20003 		movw	r3, #:lower16:alarmTriggerCount.3792
 594 0524 C0F20003 		movt	r3, #:upper16:alarmTriggerCount.3792
 595 0528 1B78     		ldrb	r3, [r3, #0]	@ zero_extendqisi2
 596 052a 03F10103 		add	r3, r3, #1
 597 052e DAB2     		uxtb	r2, r3
 598 0530 40F20003 		movw	r3, #:lower16:alarmTriggerCount.3792
 599 0534 C0F20003 		movt	r3, #:upper16:alarmTriggerCount.3792
 600 0538 1A70     		strb	r2, [r3, #0]
 601              		.loc 1 353 0
 602 053a FFF7FEFF 		bl	PinMotionSensor_ClearInterrupt
 603              		.loc 1 354 0
 604 053e FFF7FEFF 		bl	IsrMotionSensor_ClearPending
 605              		.loc 1 355 0
 606 0542 FFF7FEFF 		bl	IsrMotionSensor_Enable
 607              		.loc 1 356 0
 608 0546 40F20003 		movw	r3, #:lower16:alarmTriggerCount.3792
 609 054a C0F20003 		movt	r3, #:upper16:alarmTriggerCount.3792
 610 054e 1B78     		ldrb	r3, [r3, #0]	@ zero_extendqisi2
 611 0550 022B     		cmp	r3, #2
 612 0552 07D9     		bls	.L23
 613              		.loc 1 358 0
 614 0554 40F20003 		movw	r3, #:lower16:mainState
 615 0558 C0F20003 		movt	r3, #:upper16:mainState
 616 055c 4FF00502 		mov	r2, #5
 617 0560 1A70     		strb	r2, [r3, #0]
 618 0562 01E0     		b	.L22
 619              	.L23:
 620              		.loc 1 361 0
 621 0564 FFF7FEFF 		bl	Piezo_EmitBeep
 622              	.L22:
 623              		.loc 1 364 0
 624 0568 FFF7FEFF 		bl	Comms_IsNewPacket
 625 056c 0346     		mov	r3, r0
 626 056e 002B     		cmp	r3, #0
 627 0570 00F01A81 		beq	.L36
 628              		.loc 1 366 0
 629 0574 FFF7FEFF 		bl	Main_CheckForLedOnOffPressed
 630              		.loc 1 367 0
 631 0578 FFF7FEFF 		bl	Main_CheckForChangeLedMode
 632              		.loc 1 370 0
 633 057c FFF7FEFF 		bl	Main_CheckForAlarmOnOffPressed
 634 0580 0346     		mov	r3, r0
 635 0582 002B     		cmp	r3, #0
 636 0584 17D1     		bne	.L25
 637              		.loc 1 372 0
 638 0586 4FF00000 		mov	r0, #0
 639 058a FFF7FEFF 		bl	Piezo_AlarmEnable
ARM GAS  C:\Users\Geo\AppData\Local\Temp\cc1XeoyO.s 			page 21


 640              		.loc 1 374 0
 641 058e 40F20003 		movw	r3, #:lower16:boardStatusByte
 642 0592 C0F20003 		movt	r3, #:upper16:boardStatusByte
 643 0596 1B78     		ldrb	r3, [r3, #0]	@ zero_extendqisi2
 644 0598 1A46     		mov	r2, r3
 645 059a 02F0FD02 		and	r2, r2, #253
 646 059e 40F20003 		movw	r3, #:lower16:boardStatusByte
 647 05a2 C0F20003 		movt	r3, #:upper16:boardStatusByte
 648 05a6 1A70     		strb	r2, [r3, #0]
 649              		.loc 1 375 0
 650 05a8 40F20003 		movw	r3, #:lower16:mainState
 651 05ac C0F20003 		movt	r3, #:upper16:mainState
 652 05b0 4FF00202 		mov	r2, #2
 653 05b4 1A70     		strb	r2, [r3, #0]
 654              	.L25:
 655              		.loc 1 378 0
 656 05b6 40F20000 		movw	r0, #:lower16:_msg
 657 05ba C0F20000 		movt	r0, #:upper16:_msg
 658 05be FFF7FEFF 		bl	Main_BuildMsg
 659              		.loc 1 379 0
 660 05c2 40F20000 		movw	r0, #:lower16:_msg
 661 05c6 C0F20000 		movt	r0, #:upper16:_msg
 662 05ca 4FF00A01 		mov	r1, #10
 663 05ce FFF7FEFF 		bl	Comms_Send
 664              		.loc 1 382 0
 665 05d2 EAE0     		b	.L2
 666              	.L7:
 667              		.loc 1 386 0
 668 05d4 40F20003 		movw	r3, #:lower16:prevMainState.3790
 669 05d8 C0F20003 		movt	r3, #:upper16:prevMainState.3790
 670 05dc 1A78     		ldrb	r2, [r3, #0]	@ zero_extendqisi2
 671 05de 40F20003 		movw	r3, #:lower16:mainState
 672 05e2 C0F20003 		movt	r3, #:upper16:mainState
 673 05e6 1B78     		ldrb	r3, [r3, #0]	@ zero_extendqisi2
 674 05e8 9A42     		cmp	r2, r3
 675 05ea 3FD0     		beq	.L26
 676              		.loc 1 389 0
 677 05ec 40F20000 		movw	r0, #:lower16:.LC6
 678 05f0 C0F20000 		movt	r0, #:upper16:.LC6
 679 05f4 FFF7FEFF 		bl	UartDebug_PutString
 680              		.loc 1 392 0
 681 05f8 4FF00100 		mov	r0, #1
 682 05fc FFF7FEFF 		bl	Piezo_AlarmEnable
 683              		.loc 1 395 0
 684 0600 4FF00500 		mov	r0, #5
 685 0604 4FF00101 		mov	r1, #1
 686 0608 4FF00002 		mov	r2, #0
 687 060c 4FF00003 		mov	r3, #0
 688 0610 FFF7FEFF 		bl	Lights_SetLedMode
 689              		.loc 1 396 0
 690 0614 4FF00300 		mov	r0, #3
 691 0618 4FF00201 		mov	r1, #2
 692 061c 4FF00002 		mov	r2, #0
 693 0620 4FF08043 		mov	r3, #1073741824
 694 0624 03F5D203 		add	r3, r3, #6881280
 695 0628 FFF7FEFF 		bl	Lights_SetLedMode
 696              		.loc 1 397 0
ARM GAS  C:\Users\Geo\AppData\Local\Temp\cc1XeoyO.s 			page 22


 697 062c 4FF00400 		mov	r0, #4
 698 0630 4FF00201 		mov	r1, #2
 699 0634 4FF00002 		mov	r2, #0
 700 0638 4FF08043 		mov	r3, #1073741824
 701 063c 03F5D203 		add	r3, r3, #6881280
 702 0640 FFF7FEFF 		bl	Lights_SetLedMode
 703              		.loc 1 400 0
 704 0644 40F20003 		movw	r3, #:lower16:_mainTickCounter
 705 0648 C0F20003 		movt	r3, #:upper16:_mainTickCounter
 706 064c 1A68     		ldr	r2, [r3, #0]
 707 064e 40F20003 		movw	r3, #:lower16:alarmTriggeredStartCount.3793
 708 0652 C0F20003 		movt	r3, #:upper16:alarmTriggeredStartCount.3793
 709 0656 1A60     		str	r2, [r3, #0]
 710              		.loc 1 402 0
 711 0658 40F20003 		movw	r3, #:lower16:mainState
 712 065c C0F20003 		movt	r3, #:upper16:mainState
 713 0660 1A78     		ldrb	r2, [r3, #0]	@ zero_extendqisi2
 714 0662 40F20003 		movw	r3, #:lower16:prevMainState.3790
 715 0666 C0F20003 		movt	r3, #:upper16:prevMainState.3790
 716 066a 1A70     		strb	r2, [r3, #0]
 717              	.L26:
 718              		.loc 1 405 0
 719 066c 40F20003 		movw	r3, #:lower16:alarmTriggeredStartCount.3793
 720 0670 C0F20003 		movt	r3, #:upper16:alarmTriggeredStartCount.3793
 721 0674 1B68     		ldr	r3, [r3, #0]
 722 0676 1846     		mov	r0, r3
 723 0678 FFF7FEFF 		bl	__aeabi_ui2d
 724 067c 0246     		mov	r2, r0
 725 067e 0B46     		mov	r3, r1
 726 0680 1046     		mov	r0, r2
 727 0682 1946     		mov	r1, r3
 728 0684 54A3     		adr	r3, .L38+8
 729 0686 D3E90023 		ldrd	r2, [r3]
 730 068a FFF7FEFF 		bl	__aeabi_dadd
 731 068e 0246     		mov	r2, r0
 732 0690 0B46     		mov	r3, r1
 733 0692 1046     		mov	r0, r2
 734 0694 1946     		mov	r1, r3
 735 0696 40F20003 		movw	r3, #:lower16:_mainTickCounter
 736 069a C0F20003 		movt	r3, #:upper16:_mainTickCounter
 737 069e 1B68     		ldr	r3, [r3, #0]
 738 06a0 CDE90001 		strd	r0, [sp]
 739 06a4 0293     		str	r3, [sp, #8]
 740 06a6 40F20000 		movw	r0, #:lower16:debugBuff
 741 06aa C0F20000 		movt	r0, #:upper16:debugBuff
 742 06ae 4FF0C801 		mov	r1, #200
 743 06b2 40F20002 		movw	r2, #:lower16:.LC7
 744 06b6 C0F20002 		movt	r2, #:upper16:.LC7
 745 06ba FFF7FEFF 		bl	snprintf
 746              		.loc 1 407 0
 747 06be 40F20000 		movw	r0, #:lower16:debugBuff
 748 06c2 C0F20000 		movt	r0, #:upper16:debugBuff
 749 06c6 FFF7FEFF 		bl	UartDebug_PutString
 750              		.loc 1 411 0
 751 06ca FFF7FEFF 		bl	Comms_IsNewPacket
 752 06ce 0346     		mov	r3, r0
 753 06d0 002B     		cmp	r3, #0
ARM GAS  C:\Users\Geo\AppData\Local\Temp\cc1XeoyO.s 			page 23


 754 06d2 30D0     		beq	.L27
 755              		.loc 1 414 0
 756 06d4 FFF7FEFF 		bl	Main_CheckForLedOnOffPressed
 757              		.loc 1 415 0
 758 06d8 FFF7FEFF 		bl	Main_CheckForChangeLedMode
 759              		.loc 1 418 0
 760 06dc FFF7FEFF 		bl	Main_CheckForAlarmOnOffPressed
 761 06e0 0346     		mov	r3, r0
 762 06e2 002B     		cmp	r3, #0
 763 06e4 19D1     		bne	.L28
 764              		.loc 1 420 0
 765 06e6 4FF00000 		mov	r0, #0
 766 06ea FFF7FEFF 		bl	Piezo_AlarmEnable
 767              		.loc 1 422 0
 768 06ee 40F20003 		movw	r3, #:lower16:boardStatusByte
 769 06f2 C0F20003 		movt	r3, #:upper16:boardStatusByte
 770 06f6 1B78     		ldrb	r3, [r3, #0]	@ zero_extendqisi2
 771 06f8 1A46     		mov	r2, r3
 772 06fa 02F0FD02 		and	r2, r2, #253
 773 06fe 40F20003 		movw	r3, #:lower16:boardStatusByte
 774 0702 C0F20003 		movt	r3, #:upper16:boardStatusByte
 775 0706 1A70     		strb	r2, [r3, #0]
 776              		.loc 1 423 0
 777 0708 FFF7FEFF 		bl	Lights_TurnOffHighPowerLights
 778              		.loc 1 424 0
 779 070c 40F20003 		movw	r3, #:lower16:mainState
 780 0710 C0F20003 		movt	r3, #:upper16:mainState
 781 0714 4FF00202 		mov	r2, #2
 782 0718 1A70     		strb	r2, [r3, #0]
 783              	.L28:
 784              		.loc 1 427 0
 785 071a 40F20000 		movw	r0, #:lower16:_msg
 786 071e C0F20000 		movt	r0, #:upper16:_msg
 787 0722 FFF7FEFF 		bl	Main_BuildMsg
 788              		.loc 1 428 0
 789 0726 40F20000 		movw	r0, #:lower16:_msg
 790 072a C0F20000 		movt	r0, #:upper16:_msg
 791 072e 4FF00A01 		mov	r1, #10
 792 0732 FFF7FEFF 		bl	Comms_Send
 793              	.L27:
 794              		.loc 1 431 0
 795 0736 40F20003 		movw	r3, #:lower16:alarmTriggeredStartCount.3793
 796 073a C0F20003 		movt	r3, #:upper16:alarmTriggeredStartCount.3793
 797 073e 1B68     		ldr	r3, [r3, #0]
 798 0740 1846     		mov	r0, r3
 799 0742 FFF7FEFF 		bl	__aeabi_ui2d
 800 0746 0246     		mov	r2, r0
 801 0748 0B46     		mov	r3, r1
 802 074a 1046     		mov	r0, r2
 803 074c 1946     		mov	r1, r3
 804 074e 22A3     		adr	r3, .L38+8
 805 0750 D3E90023 		ldrd	r2, [r3]
 806 0754 FFF7FEFF 		bl	__aeabi_dadd
 807 0758 0246     		mov	r2, r0
 808 075a 0B46     		mov	r3, r1
 809 075c 1046     		mov	r0, r2
 810 075e 1946     		mov	r1, r3
ARM GAS  C:\Users\Geo\AppData\Local\Temp\cc1XeoyO.s 			page 24


 811 0760 FFF7FEFF 		bl	__aeabi_d2uiz
 812 0764 0246     		mov	r2, r0
 813 0766 40F20003 		movw	r3, #:lower16:_mainTickCounter
 814 076a C0F20003 		movt	r3, #:upper16:_mainTickCounter
 815 076e 1B68     		ldr	r3, [r3, #0]
 816 0770 9A42     		cmp	r2, r3
 817 0772 1AD8     		bhi	.L2
 818              		.loc 1 434 0
 819 0774 40F20000 		movw	r0, #:lower16:.LC8
 820 0778 C0F20000 		movt	r0, #:upper16:.LC8
 821 077c FFF7FEFF 		bl	UartDebug_PutString
 822              		.loc 1 437 0
 823 0780 4FF00000 		mov	r0, #0
 824 0784 FFF7FEFF 		bl	Piezo_AlarmEnable
 825              		.loc 1 438 0
 826 0788 FFF7FEFF 		bl	Lights_TurnOffHighPowerLights
 827              		.loc 1 439 0
 828 078c 40F20003 		movw	r3, #:lower16:mainState
 829 0790 C0F20003 		movt	r3, #:upper16:mainState
 830 0794 4FF00402 		mov	r2, #4
 831 0798 1A70     		strb	r2, [r3, #0]
 832 079a 06E0     		b	.L2
 833              	.L33:
 834              		.loc 1 194 0
 835 079c 00BF     		nop
 836 079e 04E0     		b	.L2
 837              	.L34:
 838              		.loc 1 251 0
 839 07a0 00BF     		nop
 840 07a2 02E0     		b	.L2
 841              	.L35:
 842              		.loc 1 317 0
 843 07a4 00BF     		nop
 844 07a6 00E0     		b	.L2
 845              	.L36:
 846              		.loc 1 382 0
 847 07a8 00BF     		nop
 848              	.L2:
 849              		.loc 1 450 0
 850 07aa 40F20003 		movw	r3, #:lower16:_mainTickCounter
 851 07ae C0F20003 		movt	r3, #:upper16:_mainTickCounter
 852 07b2 1B68     		ldr	r3, [r3, #0]
 853 07b4 7A68     		ldr	r2, [r7, #4]
 854 07b6 9A42     		cmp	r2, r3
 855 07b8 7FF469AC 		bne	.L37
 856              	.L30:
 857              		.loc 1 452 0
 858 07bc 40F20003 		movw	r3, #:lower16:_mainTickCounter
 859 07c0 C0F20003 		movt	r3, #:upper16:_mainTickCounter
 860 07c4 1B68     		ldr	r3, [r3, #0]
 861 07c6 7A68     		ldr	r2, [r7, #4]
 862 07c8 9A42     		cmp	r2, r3
 863 07ca F7D0     		beq	.L30
 864              		.loc 1 459 0
 865 07cc 60E4     		b	.L31
 866              	.L39:
 867 07ce 00BF     		.align	3
ARM GAS  C:\Users\Geo\AppData\Local\Temp\cc1XeoyO.s 			page 25


 868              	.L38:
 869 07d0 00000000 		.word	0
 870 07d4 00407F40 		.word	1082081280
 871 07d8 00000000 		.word	0
 872 07dc 00408F40 		.word	1083129856
 873              		.cfi_endproc
 874              	.LFE29:
 875              		.size	main, .-main
 876              		.section	.text.Main_CheckForLedOnOffPressed,"ax",%progbits
 877              		.align	2
 878              		.global	Main_CheckForLedOnOffPressed
 879              		.thumb
 880              		.thumb_func
 881              		.type	Main_CheckForLedOnOffPressed, %function
 882              	Main_CheckForLedOnOffPressed:
 883              	.LFB30:
 460:.\main.c      **** }
 461:.\main.c      **** 
 462:.\main.c      **** //=================================================================================================
 463:.\main.c      **** //==================================== PRIVATE FUNCTIONS ==========================================
 464:.\main.c      **** //=================================================================================================
 465:.\main.c      **** 
 466:.\main.c      **** //! @brief		Checks the status byte to see if the leds have been turned on
 467:.\main.c      **** void Main_CheckForLedOnOffPressed(void)
 468:.\main.c      **** {
 884              		.loc 1 468 0
 885              		.cfi_startproc
 886              		@ args = 0, pretend = 0, frame = 0
 887              		@ frame_needed = 1, uses_anonymous_args = 0
 888 0000 80B5     		push	{r7, lr}
 889              	.LCFI3:
 890              		.cfi_def_cfa_offset 8
 891 0002 00AF     		add	r7, sp, #0
 892              		.cfi_offset 14, -4
 893              		.cfi_offset 7, -8
 894              	.LCFI4:
 895              		.cfi_def_cfa_register 7
 469:.\main.c      **** 	// Check for light on/off button being pressed on remote
 470:.\main.c      **** 	if(Comms_GetByte(commsSTATUS_BYTE_POS) & (1 << commsLIGHTS_ON_BIT_POS))
 896              		.loc 1 470 0
 897 0004 4FF00400 		mov	r0, #4
 898 0008 FFF7FEFF 		bl	Comms_GetByte
 899 000c 0346     		mov	r3, r0
 900 000e 03F00803 		and	r3, r3, #8
 901 0012 002B     		cmp	r3, #0
 902 0014 09D0     		beq	.L41
 471:.\main.c      **** 	{
 472:.\main.c      **** 		if(Lights_IsHighPowerLightsOn() == FALSE)
 903              		.loc 1 472 0
 904 0016 FFF7FEFF 		bl	Lights_IsHighPowerLightsOn
 905 001a 0346     		mov	r3, r0
 906 001c 002B     		cmp	r3, #0
 907 001e 0ED1     		bne	.L45
 473:.\main.c      **** 		{
 474:.\main.c      **** 			Lights_TurnOnHighPowerLights();
 908              		.loc 1 474 0
 909 0020 FFF7FEFF 		bl	Lights_TurnOnHighPowerLights
ARM GAS  C:\Users\Geo\AppData\Local\Temp\cc1XeoyO.s 			page 26


 475:.\main.c      **** 			Piezo_EmitBeep();
 910              		.loc 1 475 0
 911 0024 FFF7FEFF 		bl	Piezo_EmitBeep
 912 0028 0AE0     		b	.L44
 913              	.L41:
 476:.\main.c      **** 		}
 477:.\main.c      **** 	}
 478:.\main.c      **** 	else
 479:.\main.c      **** 	{
 480:.\main.c      **** 		if(Lights_IsHighPowerLightsOn() == TRUE)
 914              		.loc 1 480 0
 915 002a FFF7FEFF 		bl	Lights_IsHighPowerLightsOn
 916 002e 0346     		mov	r3, r0
 917 0030 012B     		cmp	r3, #1
 918 0032 05D1     		bne	.L44
 481:.\main.c      **** 		{
 482:.\main.c      **** 			Lights_TurnOffHighPowerLights();
 919              		.loc 1 482 0
 920 0034 FFF7FEFF 		bl	Lights_TurnOffHighPowerLights
 483:.\main.c      **** 			Piezo_EmitBeep();
 921              		.loc 1 483 0
 922 0038 FFF7FEFF 		bl	Piezo_EmitBeep
 923 003c 00E0     		b	.L44
 924              	.L45:
 925              		.loc 1 475 0
 926 003e 00BF     		nop
 927              	.L44:
 484:.\main.c      **** 		}
 485:.\main.c      **** 	}
 486:.\main.c      **** }
 928              		.loc 1 486 0
 929 0040 80BD     		pop	{r7, pc}
 930              		.cfi_endproc
 931              	.LFE30:
 932              		.size	Main_CheckForLedOnOffPressed, .-Main_CheckForLedOnOffPressed
 933 0042 00BF     		.section	.text.Main_CheckForChangeLedMode,"ax",%progbits
 934              		.align	2
 935              		.global	Main_CheckForChangeLedMode
 936              		.thumb
 937              		.thumb_func
 938              		.type	Main_CheckForChangeLedMode, %function
 939              	Main_CheckForChangeLedMode:
 940              	.LFB31:
 487:.\main.c      **** 
 488:.\main.c      **** //! @brief		Checks wether user has pressed the light mode button on remote
 489:.\main.c      **** void Main_CheckForChangeLedMode(void)
 490:.\main.c      **** {
 941              		.loc 1 490 0
 942              		.cfi_startproc
 943              		@ args = 0, pretend = 0, frame = 0
 944              		@ frame_needed = 1, uses_anonymous_args = 0
 945 0000 80B5     		push	{r7, lr}
 946              	.LCFI5:
 947              		.cfi_def_cfa_offset 8
 948 0002 00AF     		add	r7, sp, #0
 949              		.cfi_offset 14, -4
 950              		.cfi_offset 7, -8
ARM GAS  C:\Users\Geo\AppData\Local\Temp\cc1XeoyO.s 			page 27


 951              	.LCFI6:
 952              		.cfi_def_cfa_register 7
 491:.\main.c      **** 	// Check for light on/off button being pressed on remote
 492:.\main.c      **** 	if(Comms_GetByte(commsSTATUS_BYTE_POS) & (1 << commsCHANGE_LIGHT_MODE_BIT_POS))
 953              		.loc 1 492 0
 954 0004 4FF00400 		mov	r0, #4
 955 0008 FFF7FEFF 		bl	Comms_GetByte
 956 000c 0346     		mov	r3, r0
 957 000e 03F01003 		and	r3, r3, #16
 958 0012 002B     		cmp	r3, #0
 959 0014 05D0     		beq	.L48
 493:.\main.c      **** 	{
 494:.\main.c      **** 		Piezo_EmitBeep();
 960              		.loc 1 494 0
 961 0016 FFF7FEFF 		bl	Piezo_EmitBeep
 495:.\main.c      **** 		Lights_ChangeHighPowerLightMode();
 962              		.loc 1 495 0
 963 001a FFF7FEFF 		bl	Lights_ChangeHighPowerLightMode
 496:.\main.c      **** 		Lights_TurnOnHighPowerLights();
 964              		.loc 1 496 0
 965 001e FFF7FEFF 		bl	Lights_TurnOnHighPowerLights
 966              	.L48:
 497:.\main.c      **** 	}
 498:.\main.c      **** }
 967              		.loc 1 498 0
 968 0022 80BD     		pop	{r7, pc}
 969              		.cfi_endproc
 970              	.LFE31:
 971              		.size	Main_CheckForChangeLedMode, .-Main_CheckForChangeLedMode
 972              		.section	.text.Main_CheckForAlarmOnOffPressed,"ax",%progbits
 973              		.align	2
 974              		.global	Main_CheckForAlarmOnOffPressed
 975              		.thumb
 976              		.thumb_func
 977              		.type	Main_CheckForAlarmOnOffPressed, %function
 978              	Main_CheckForAlarmOnOffPressed:
 979              	.LFB32:
 499:.\main.c      **** 
 500:.\main.c      **** //! @brief 		Checks for light on/off button being pressed on remote
 501:.\main.c      **** bool_t Main_CheckForAlarmOnOffPressed(void)
 502:.\main.c      **** {
 980              		.loc 1 502 0
 981              		.cfi_startproc
 982              		@ args = 0, pretend = 0, frame = 0
 983              		@ frame_needed = 1, uses_anonymous_args = 0
 984 0000 80B5     		push	{r7, lr}
 985              	.LCFI7:
 986              		.cfi_def_cfa_offset 8
 987 0002 00AF     		add	r7, sp, #0
 988              		.cfi_offset 14, -4
 989              		.cfi_offset 7, -8
 990              	.LCFI8:
 991              		.cfi_def_cfa_register 7
 503:.\main.c      **** 	// Check for light on/off button being pressed on remote
 504:.\main.c      **** 	if(Comms_GetByte(commsSTATUS_BYTE_POS) & (1 << commsALARM_ON_BIT_POS))
 992              		.loc 1 504 0
 993 0004 4FF00400 		mov	r0, #4
ARM GAS  C:\Users\Geo\AppData\Local\Temp\cc1XeoyO.s 			page 28


 994 0008 FFF7FEFF 		bl	Comms_GetByte
 995 000c 0346     		mov	r3, r0
 996 000e 03F00203 		and	r3, r3, #2
 997 0012 002B     		cmp	r3, #0
 998 0014 02D0     		beq	.L50
 505:.\main.c      **** 		return TRUE;
 999              		.loc 1 505 0
 1000 0016 4FF00103 		mov	r3, #1
 1001 001a 01E0     		b	.L51
 1002              	.L50:
 506:.\main.c      **** 	else
 507:.\main.c      **** 		return FALSE;
 1003              		.loc 1 507 0
 1004 001c 4FF00003 		mov	r3, #0
 1005              	.L51:
 508:.\main.c      **** }
 1006              		.loc 1 508 0
 1007 0020 1846     		mov	r0, r3
 1008 0022 80BD     		pop	{r7, pc}
 1009              		.cfi_endproc
 1010              	.LFE32:
 1011              		.size	Main_CheckForAlarmOnOffPressed, .-Main_CheckForAlarmOnOffPressed
 1012              		.section	.text.Main_BuildMsg,"ax",%progbits
 1013              		.align	2
 1014              		.global	Main_BuildMsg
 1015              		.thumb
 1016              		.thumb_func
 1017              		.type	Main_BuildMsg, %function
 1018              	Main_BuildMsg:
 1019              	.LFB33:
 509:.\main.c      **** 
 510:.\main.c      **** //! @brief		Builds message to send over comms
 511:.\main.c      **** void Main_BuildMsg(uint8_t *msg)
 512:.\main.c      **** {
 1020              		.loc 1 512 0
 1021              		.cfi_startproc
 1022              		@ args = 0, pretend = 0, frame = 16
 1023              		@ frame_needed = 1, uses_anonymous_args = 0
 1024 0000 90B5     		push	{r4, r7, lr}
 1025              	.LCFI9:
 1026              		.cfi_def_cfa_offset 12
 1027 0002 85B0     		sub	sp, sp, #20
 1028              	.LCFI10:
 1029              		.cfi_def_cfa_offset 32
 1030 0004 00AF     		add	r7, sp, #0
 1031              		.cfi_offset 14, -4
 1032              		.cfi_offset 7, -8
 1033              		.cfi_offset 4, -12
 1034              	.LCFI11:
 1035              		.cfi_def_cfa_register 7
 1036 0006 7860     		str	r0, [r7, #4]
 513:.\main.c      **** 	msg[0] = 'r';
 1037              		.loc 1 513 0
 1038 0008 7B68     		ldr	r3, [r7, #4]
 1039 000a 4FF07202 		mov	r2, #114
 1040 000e 1A70     		strb	r2, [r3, #0]
 514:.\main.c      **** 	msg[1] = 'm';
ARM GAS  C:\Users\Geo\AppData\Local\Temp\cc1XeoyO.s 			page 29


 1041              		.loc 1 514 0
 1042 0010 7B68     		ldr	r3, [r7, #4]
 1043 0012 03F10103 		add	r3, r3, #1
 1044 0016 4FF06D02 		mov	r2, #109
 1045 001a 1A70     		strb	r2, [r3, #0]
 515:.\main.c      **** 	msg[2] = 't';
 1046              		.loc 1 515 0
 1047 001c 7B68     		ldr	r3, [r7, #4]
 1048 001e 03F10203 		add	r3, r3, #2
 1049 0022 4FF07402 		mov	r2, #116
 1050 0026 1A70     		strb	r2, [r3, #0]
 516:.\main.c      **** 	msg[3] = 0x03;
 1051              		.loc 1 516 0
 1052 0028 7B68     		ldr	r3, [r7, #4]
 1053 002a 03F10303 		add	r3, r3, #3
 1054 002e 4FF00302 		mov	r2, #3
 1055 0032 1A70     		strb	r2, [r3, #0]
 517:.\main.c      **** 	msg[commsSTATUS_BYTE_POS] = boardStatusByte;
 1056              		.loc 1 517 0
 1057 0034 7B68     		ldr	r3, [r7, #4]
 1058 0036 03F10402 		add	r2, r3, #4
 1059 003a 40F20003 		movw	r3, #:lower16:boardStatusByte
 1060 003e C0F20003 		movt	r3, #:upper16:boardStatusByte
 1061 0042 1B78     		ldrb	r3, [r3, #0]	@ zero_extendqisi2
 1062 0044 1370     		strb	r3, [r2, #0]
 518:.\main.c      **** 	msg[5] = Comms_GetByte(commsMOTOR_HIGH_BYTE_POS);
 1063              		.loc 1 518 0
 1064 0046 7B68     		ldr	r3, [r7, #4]
 1065 0048 03F10504 		add	r4, r3, #5
 1066 004c 4FF00500 		mov	r0, #5
 1067 0050 FFF7FEFF 		bl	Comms_GetByte
 1068 0054 0346     		mov	r3, r0
 1069 0056 2370     		strb	r3, [r4, #0]
 519:.\main.c      **** 	msg[6] = Comms_GetByte(commsMOTOR_LOW_BYTE_POS);
 1070              		.loc 1 519 0
 1071 0058 7B68     		ldr	r3, [r7, #4]
 1072 005a 03F10604 		add	r4, r3, #6
 1073 005e 4FF00600 		mov	r0, #6
 1074 0062 FFF7FEFF 		bl	Comms_GetByte
 1075 0066 0346     		mov	r3, r0
 1076 0068 2370     		strb	r3, [r4, #0]
 520:.\main.c      **** 	
 521:.\main.c      **** 	uint16_t throttleVal16Bit = (uint16_t)Adc_GetBattVolt();
 1077              		.loc 1 521 0
 1078 006a FFF7FEFF 		bl	Adc_GetBattVolt
 1079 006e 0246     		mov	r2, r0
 1080 0070 0B46     		mov	r3, r1
 1081 0072 1046     		mov	r0, r2
 1082 0074 1946     		mov	r1, r3
 1083 0076 FFF7FEFF 		bl	__aeabi_d2uiz
 1084 007a 0346     		mov	r3, r0
 1085 007c FB81     		strh	r3, [r7, #14]	@ movhi
 522:.\main.c      **** 	msg[commsBOARD_BATT_VOLT_HIGH_BYTE_POS] = (uint8_t)(throttleVal16Bit >> 8);
 1086              		.loc 1 522 0
 1087 007e 7B68     		ldr	r3, [r7, #4]
 1088 0080 03F10703 		add	r3, r3, #7
 1089 0084 FA89     		ldrh	r2, [r7, #14]
ARM GAS  C:\Users\Geo\AppData\Local\Temp\cc1XeoyO.s 			page 30


 1090 0086 4FEA1222 		lsr	r2, r2, #8
 1091 008a 92B2     		uxth	r2, r2
 1092 008c D2B2     		uxtb	r2, r2
 1093 008e 1A70     		strb	r2, [r3, #0]
 523:.\main.c      **** 	msg[commsBOARD_BATT_VOLT_LOW_BYTE_POS] = (uint8_t)(throttleVal16Bit >> 0);
 1094              		.loc 1 523 0
 1095 0090 7B68     		ldr	r3, [r7, #4]
 1096 0092 03F10803 		add	r3, r3, #8
 1097 0096 FA89     		ldrh	r2, [r7, #14]	@ movhi
 1098 0098 D2B2     		uxtb	r2, r2
 1099 009a 1A70     		strb	r2, [r3, #0]
 524:.\main.c      **** 
 525:.\main.c      **** 	msg[9] = '\0';
 1100              		.loc 1 525 0
 1101 009c 7B68     		ldr	r3, [r7, #4]
 1102 009e 03F10903 		add	r3, r3, #9
 1103 00a2 4FF00002 		mov	r2, #0
 1104 00a6 1A70     		strb	r2, [r3, #0]
 526:.\main.c      **** 	
 527:.\main.c      **** }
 1105              		.loc 1 527 0
 1106 00a8 07F11407 		add	r7, r7, #20
 1107 00ac BD46     		mov	sp, r7
 1108 00ae 90BD     		pop	{r4, r7, pc}
 1109              		.cfi_endproc
 1110              	.LFE33:
 1111              		.size	Main_BuildMsg, .-Main_BuildMsg
 1112              		.section	.text.Main_MotionSensorIsr,"ax",%progbits
 1113              		.align	2
 1114              		.global	Main_MotionSensorIsr
 1115              		.thumb
 1116              		.thumb_func
 1117              		.type	Main_MotionSensorIsr, %function
 1118              	Main_MotionSensorIsr:
 1119              	.LFB34:
 528:.\main.c      **** 
 529:.\main.c      **** //===============================================================================================//
 530:.\main.c      **** //============================================ ISR's ============================================//
 531:.\main.c      **** //===============================================================================================//
 532:.\main.c      **** 
 533:.\main.c      **** 
 534:.\main.c      **** CY_ISR(Main_MotionSensorIsr)
 535:.\main.c      **** {
 1120              		.loc 1 535 0
 1121              		.cfi_startproc
 1122              		@ args = 0, pretend = 0, frame = 0
 1123              		@ frame_needed = 1, uses_anonymous_args = 0
 1124 0000 80B5     		push	{r7, lr}
 1125              	.LCFI12:
 1126              		.cfi_def_cfa_offset 8
 1127 0002 00AF     		add	r7, sp, #0
 1128              		.cfi_offset 14, -4
 1129              		.cfi_offset 7, -8
 1130              	.LCFI13:
 1131              		.cfi_def_cfa_register 7
 536:.\main.c      **** 	motionSensorTriggered = TRUE;
 1132              		.loc 1 536 0
ARM GAS  C:\Users\Geo\AppData\Local\Temp\cc1XeoyO.s 			page 31


 1133 0004 40F20003 		movw	r3, #:lower16:motionSensorTriggered
 1134 0008 C0F20003 		movt	r3, #:upper16:motionSensorTriggered
 1135 000c 4FF00102 		mov	r2, #1
 1136 0010 1A70     		strb	r2, [r3, #0]
 537:.\main.c      **** 	IsrMotionSensor_Disable();
 1137              		.loc 1 537 0
 1138 0012 FFF7FEFF 		bl	IsrMotionSensor_Disable
 538:.\main.c      **** }
 1139              		.loc 1 538 0
 1140 0016 80BD     		pop	{r7, pc}
 1141              		.cfi_endproc
 1142              	.LFE34:
 1143              		.size	Main_MotionSensorIsr, .-Main_MotionSensorIsr
 1144              		.section	.text.Main_MainTickIsr,"ax",%progbits
 1145              		.align	2
 1146              		.global	Main_MainTickIsr
 1147              		.thumb
 1148              		.thumb_func
 1149              		.type	Main_MainTickIsr, %function
 1150              	Main_MainTickIsr:
 1151              	.LFB35:
 539:.\main.c      **** 
 540:.\main.c      **** //! @brief 		ISR to handle the main tick
 541:.\main.c      **** CY_ISR(Main_MainTickIsr)
 542:.\main.c      **** {
 1152              		.loc 1 542 0
 1153              		.cfi_startproc
 1154              		@ args = 0, pretend = 0, frame = 0
 1155              		@ frame_needed = 1, uses_anonymous_args = 0
 1156              		@ link register save eliminated.
 1157 0000 80B4     		push	{r7}
 1158              	.LCFI14:
 1159              		.cfi_def_cfa_offset 4
 1160 0002 00AF     		add	r7, sp, #0
 1161              		.cfi_offset 7, -4
 1162              	.LCFI15:
 1163              		.cfi_def_cfa_register 7
 543:.\main.c      **** 	// Increment the tick counter. This will cause the main loop to execute once
 544:.\main.c      **** 	_mainTickCounter++;
 1164              		.loc 1 544 0
 1165 0004 40F20003 		movw	r3, #:lower16:_mainTickCounter
 1166 0008 C0F20003 		movt	r3, #:upper16:_mainTickCounter
 1167 000c 1B68     		ldr	r3, [r3, #0]
 1168 000e 03F10102 		add	r2, r3, #1
 1169 0012 40F20003 		movw	r3, #:lower16:_mainTickCounter
 1170 0016 C0F20003 		movt	r3, #:upper16:_mainTickCounter
 1171 001a 1A60     		str	r2, [r3, #0]
 545:.\main.c      **** }
 1172              		.loc 1 545 0
 1173 001c BD46     		mov	sp, r7
 1174 001e 80BC     		pop	{r7}
 1175 0020 7047     		bx	lr
 1176              		.cfi_endproc
 1177              	.LFE35:
 1178              		.size	Main_MainTickIsr, .-Main_MainTickIsr
 1179 0022 00BF     		.bss
 1180 0011 000000   		.align	2
ARM GAS  C:\Users\Geo\AppData\Local\Temp\cc1XeoyO.s 			page 32


 1181              	iden_chars.3789:
 1182 0014 000000   		.space	3
 1183              	prevMainState.3790:
 1184 0017 00       		.space	1
 1185              	alarmTriggerCount.3792:
 1186 0018 00       		.space	1
 1187 0019 000000   		.align	2
 1188              	alarmTriggeredStartCount.3793:
 1189 001c 00000000 		.space	4
 1190              		.text
 1191              	.Letext0: