ARM GAS  C:\Users\Geo\AppData\Local\Temp\cc9LC2E6.s 			page 1


   1              		.syntax unified
   2              		.cpu cortex-m3
   3              		.fpu softvfp
   4              		.eabi_attribute 20, 1
   5              		.eabi_attribute 21, 1
   6              		.eabi_attribute 23, 3
   7              		.eabi_attribute 24, 1
   8              		.eabi_attribute 25, 1
   9              		.eabi_attribute 26, 1
  10              		.eabi_attribute 30, 6
  11              		.eabi_attribute 18, 4
  12              		.thumb
  13              		.file	"Piezo.c"
  20 0000 11020000 		.text
  20      02002A01 
  20      00000201 
  20      FB0E0D00 
  20      01010101 
  21              	.Ltext0:
  22              		.cfi_sections	.debug_frame
  23              		.comm	debugBuff,200,4
  24              		.bss
  25              	_motorOnSoundDirection:
  26 0000 00       		.space	1
  27              		.global	_emitMotorSoundFlag
  28              		.type	_emitMotorSoundFlag, %object
  29              		.size	_emitMotorSoundFlag, 1
  30              	_emitMotorSoundFlag:
  31 0001 00       		.space	1
  32              		.global	_alarmEnableFlag
  33              		.type	_alarmEnableFlag, %object
  34              		.size	_alarmEnableFlag, 1
  35              	_alarmEnableFlag:
  36 0002 00       		.space	1
  37              		.global	_alarmActivatedSoundFlag
  38              		.type	_alarmActivatedSoundFlag, %object
  39              		.size	_alarmActivatedSoundFlag, 1
  40              	_alarmActivatedSoundFlag:
  41 0003 00       		.space	1
  42              		.global	_piezoBeepCount
  43              		.type	_piezoBeepCount, %object
  44              		.size	_piezoBeepCount, 1
  45              	_piezoBeepCount:
  46 0004 00       		.space	1
  47              		.global	__aeabi_i2d
  48              		.global	__aeabi_dsub
  49              		.global	__aeabi_d2uiz
  50              		.global	__aeabi_dadd
  51              		.section	.text.Piezo_Run,"ax",%progbits
  52              		.align	2
  53              		.global	Piezo_Run
ARM GAS  C:\Users\Geo\AppData\Local\Temp\cc9LC2E6.s 			page 2


  54              		.thumb
  55              		.thumb_func
  56              		.type	Piezo_Run, %function
  57              	Piezo_Run:
  58              	.LFB29:
  59              		.file 1 ".\\Piezo.c"
   1:.\Piezo.c     **** //!
   2:.\Piezo.c     **** //! @file 		Piezo.c
   3:.\Piezo.c     **** //! @author 	Geoffrey Hunter (gbmhunter@gmail.com)
   4:.\Piezo.c     **** //! @date 		14/05/2011
   5:.\Piezo.c     **** //! @brief 		Controls the piezo functions on the skateboard.
   6:.\Piezo.c     **** //! @details
   7:.\Piezo.c     **** //!		<b>Last Modified:			</b> 14/05/2011			\n
   8:.\Piezo.c     **** //!		<b>Version:					</b> v1.0				\n
   9:.\Piezo.c     **** //!		<b>Company:					</b> CladLabs			\n
  10:.\Piezo.c     **** //!		<b>Project:					</b> Electric Skateboard\n
  11:.\Piezo.c     **** //!		<b>Computer Architecture:	</b> ARM				\n
  12:.\Piezo.c     **** //!		<b>Compiler:				</b> GCC				\n
  13:.\Piezo.c     **** //! 	<b>uC Model:				</b> PSoC5				\n
  14:.\Piezo.c     **** //!		<b>Documentation Format:	</b> Doxygen			\n
  15:.\Piezo.c     **** //!		
  16:.\Piezo.c     **** //!		Controls the led's on the board
  17:.\Piezo.c     **** //!
  18:.\Piezo.c     **** 
  19:.\Piezo.c     **** //=================================================================================================
  20:.\Piezo.c     **** //============================================ INFO ===============================================
  21:.\Piezo.c     **** //=================================================================================================
  22:.\Piezo.c     **** 
  23:.\Piezo.c     **** //=================================================================================================
  24:.\Piezo.c     **** //======================================= FILE INCLUSIONS =========================================
  25:.\Piezo.c     **** //=================================================================================================
  26:.\Piezo.c     **** 
  27:.\Piezo.c     **** #include <device.h>
  28:.\Piezo.c     **** #include "../common/PublicObjects.h"
  29:.\Piezo.c     **** #include "Piezo.h"
  30:.\Piezo.c     **** #include "Config.h"
  31:.\Piezo.c     **** 
  32:.\Piezo.c     **** //===============================================================================================//
  33:.\Piezo.c     **** //=================================== PRECOMPILER CHECKS ========================================//
  34:.\Piezo.c     **** //===============================================================================================//
  35:.\Piezo.c     **** 
  36:.\Piezo.c     **** //=================================================================================================
  37:.\Piezo.c     **** //========================================== DEFINES ==============================================
  38:.\Piezo.c     **** //=================================================================================================
  39:.\Piezo.c     **** 
  40:.\Piezo.c     **** //=================================================================================================
  41:.\Piezo.c     **** //========================================== TYPEDEF's ============================================
  42:.\Piezo.c     **** //=================================================================================================
  43:.\Piezo.c     **** 
  44:.\Piezo.c     **** typedef enum
  45:.\Piezo.c     **** {
  46:.\Piezo.c     **** 	piezoInit,
  47:.\Piezo.c     **** 	piezoOff,
  48:.\Piezo.c     **** 	piezoAlarmSound1,
  49:.\Piezo.c     **** 	piezoAlarmSound2,
  50:.\Piezo.c     **** 	piezoBeeping,
  51:.\Piezo.c     **** 	piezoMotorOnSound,
ARM GAS  C:\Users\Geo\AppData\Local\Temp\cc9LC2E6.s 			page 3


  52:.\Piezo.c     **** 	alarmActivatedSound1,
  53:.\Piezo.c     **** 	alarmActivatedSound2,
  54:.\Piezo.c     **** 	alarmActivatedSound3
  55:.\Piezo.c     **** } piezoStates_t;
  56:.\Piezo.c     **** 
  57:.\Piezo.c     **** //=================================================================================================
  58:.\Piezo.c     **** //==================================== PRIVATE VARIABLES ==========================================
  59:.\Piezo.c     **** //=================================================================================================
  60:.\Piezo.c     **** 
  61:.\Piezo.c     **** 
  62:.\Piezo.c     **** static motorOnSoundDirection_t _motorOnSoundDirection = up;
  63:.\Piezo.c     **** 
  64:.\Piezo.c     **** bool_t _emitMotorSoundFlag = FALSE;
  65:.\Piezo.c     **** bool_t _alarmEnableFlag = FALSE;
  66:.\Piezo.c     **** bool_t _alarmActivatedSoundFlag = FALSE;
  67:.\Piezo.c     **** uint8_t _piezoBeepCount = 0;
  68:.\Piezo.c     **** 
  69:.\Piezo.c     **** //=================================================================================================
  70:.\Piezo.c     **** //=============================== PRIVATE FUNCTION PROTOTYPES =====================================
  71:.\Piezo.c     **** //=================================================================================================
  72:.\Piezo.c     **** 
  73:.\Piezo.c     **** //=================================================================================================
  74:.\Piezo.c     **** //===================================== PUBLIC FUNCTIONS ==========================================
  75:.\Piezo.c     **** //=================================================================================================
  76:.\Piezo.c     **** 
  77:.\Piezo.c     **** void Piezo_Run(void)
  78:.\Piezo.c     **** {
  60              		.loc 1 78 0
  61              		.cfi_startproc
  62              		@ args = 0, pretend = 0, frame = 0
  63              		@ frame_needed = 1, uses_anonymous_args = 0
  64 0000 80B5     		push	{r7, lr}
  65              	.LCFI0:
  66              		.cfi_def_cfa_offset 8
  67 0002 00AF     		add	r7, sp, #0
  68              		.cfi_offset 14, -4
  69              		.cfi_offset 7, -8
  70              	.LCFI1:
  71              		.cfi_def_cfa_register 7
  79:.\Piezo.c     **** 	static uint32_t counter = 0;
  80:.\Piezo.c     **** 	
  81:.\Piezo.c     **** 	static uint32_t piezoLastChangeCount = 0;
  82:.\Piezo.c     **** 
  83:.\Piezo.c     **** 	// Calculate run times in counts
  84:.\Piezo.c     **** 	static uint32_t piezoAlarmSound1RunTimeCounts = (uint32_t)(configALARM_TONE_1_PERIOD_MS/configMAIN
  85:.\Piezo.c     **** 	static uint32_t piezoAlarmSound2RunTimeCounts = (uint32_t)(configALARM_TONE_2_PERIOD_MS/configMAIN
  86:.\Piezo.c     **** 	static uint32_t	beepRunTimeCounts = (uint32_t)(configBEEP_PERIOD_MS/configMAIN_TICK_PERIOD_MS);
  87:.\Piezo.c     **** 	static uint32_t	motorOnToneTimeCounts = (uint32_t)(configMOTOR_ON_TONE_PERIOD_MS/configMAIN_TICK_P
  88:.\Piezo.c     **** 	static uint32_t piezoActivatedSound1RunTimeCounts = (uint32_t)(configALARM_ACTIVATED_SOUND_1_PERIO
  89:.\Piezo.c     **** 	static uint32_t piezoActivatedSound2RunTimeCounts = (uint32_t)(configALARM_ACTIVATED_SOUND_2_PERIO
  90:.\Piezo.c     **** 	static uint32_t piezoActivatedSound3RunTimeCounts = (uint32_t)(configALARM_ACTIVATED_SOUND_3_PERIO
  91:.\Piezo.c     **** 	
  92:.\Piezo.c     **** 	static uint16_t currentToneCounts = 0;
  93:.\Piezo.c     **** 	static uint16_t toneCount = 0;
  94:.\Piezo.c     **** 
  95:.\Piezo.c     **** 	static piezoStates_t prevPiezoState = piezoInit;
  96:.\Piezo.c     **** 	static piezoStates_t piezoState = piezoInit;
ARM GAS  C:\Users\Geo\AppData\Local\Temp\cc9LC2E6.s 			page 4


  97:.\Piezo.c     **** 	
  98:.\Piezo.c     **** 	switch(piezoState)
  72              		.loc 1 98 0
  73 0004 40F20003 		movw	r3, #:lower16:piezoState.3004
  74 0008 C0F20003 		movt	r3, #:upper16:piezoState.3004
  75 000c 1B78     		ldrb	r3, [r3, #0]	@ zero_extendqisi2
  76 000e 082B     		cmp	r3, #8
  77 0010 00F2E982 		bhi	.L2
  78 0014 01A2     		adr	r2, .L12
  79 0016 52F823F0 		ldr	pc, [r2, r3, lsl #2]
  80 001a 00BF     		.align	2
  81              	.L12:
  82 001c 41000000 		.word	.L3+1
  83 0020 51000000 		.word	.L4+1
  84 0024 21010000 		.word	.L5+1
  85 0028 B9010000 		.word	.L6+1
  86 002c 4D020000 		.word	.L7+1
  87 0030 C7020000 		.word	.L8+1
  88 0034 6B040000 		.word	.L9+1
  89 0038 E5040000 		.word	.L10+1
  90 003c 59050000 		.word	.L11+1
  91              	.L3:
  99:.\Piezo.c     **** 	{
 100:.\Piezo.c     **** 		case piezoInit:
 101:.\Piezo.c     **** 			piezoState = piezoOff;
  92              		.loc 1 101 0
  93 0040 40F20003 		movw	r3, #:lower16:piezoState.3004
  94 0044 C0F20003 		movt	r3, #:upper16:piezoState.3004
  95 0048 4FF00102 		mov	r2, #1
  96 004c 1A70     		strb	r2, [r3, #0]
 102:.\Piezo.c     **** 			break;
  97              		.loc 1 102 0
  98 004e CAE2     		b	.L2
  99              	.L4:
 103:.\Piezo.c     **** 		case piezoOff:
 104:.\Piezo.c     **** 			if(prevPiezoState != piezoOff)
 100              		.loc 1 104 0
 101 0050 40F20003 		movw	r3, #:lower16:prevPiezoState.3003
 102 0054 C0F20003 		movt	r3, #:upper16:prevPiezoState.3003
 103 0058 1B78     		ldrb	r3, [r3, #0]	@ zero_extendqisi2
 104 005a 012B     		cmp	r3, #1
 105 005c 08D0     		beq	.L13
 105:.\Piezo.c     **** 			{
 106:.\Piezo.c     **** 				#if(configDEBUG_PIEZO == 1)
 107:.\Piezo.c     **** 					UartDebug_PutString("PIEZO: Entering piezoOff state.\r\n");
 108:.\Piezo.c     **** 				#endif
 109:.\Piezo.c     **** 				PwmPiezo_Stop();
 106              		.loc 1 109 0
 107 005e FFF7FEFF 		bl	PwmPiezo_Stop
 110:.\Piezo.c     **** 				prevPiezoState = piezoOff;
 108              		.loc 1 110 0
 109 0062 40F20003 		movw	r3, #:lower16:prevPiezoState.3003
 110 0066 C0F20003 		movt	r3, #:upper16:prevPiezoState.3003
 111 006a 4FF00102 		mov	r2, #1
 112 006e 1A70     		strb	r2, [r3, #0]
 113              	.L13:
 111:.\Piezo.c     **** 			}
ARM GAS  C:\Users\Geo\AppData\Local\Temp\cc9LC2E6.s 			page 5


 112:.\Piezo.c     **** 			
 113:.\Piezo.c     **** 			if(_emitMotorSoundFlag)
 114              		.loc 1 113 0
 115 0070 40F20003 		movw	r3, #:lower16:_emitMotorSoundFlag
 116 0074 C0F20003 		movt	r3, #:upper16:_emitMotorSoundFlag
 117 0078 1B78     		ldrb	r3, [r3, #0]	@ zero_extendqisi2
 118 007a 002B     		cmp	r3, #0
 119 007c 0ED0     		beq	.L14
 114:.\Piezo.c     **** 			{
 115:.\Piezo.c     **** 				piezoState = piezoMotorOnSound;
 120              		.loc 1 115 0
 121 007e 40F20003 		movw	r3, #:lower16:piezoState.3004
 122 0082 C0F20003 		movt	r3, #:upper16:piezoState.3004
 123 0086 4FF00502 		mov	r2, #5
 124 008a 1A70     		strb	r2, [r3, #0]
 116:.\Piezo.c     **** 				_emitMotorSoundFlag = FALSE;
 125              		.loc 1 116 0
 126 008c 40F20003 		movw	r3, #:lower16:_emitMotorSoundFlag
 127 0090 C0F20003 		movt	r3, #:upper16:_emitMotorSoundFlag
 128 0094 4FF00002 		mov	r2, #0
 129 0098 1A70     		strb	r2, [r3, #0]
 117:.\Piezo.c     **** 				break;
 130              		.loc 1 117 0
 131 009a A4E2     		b	.L2
 132              	.L14:
 118:.\Piezo.c     **** 			}
 119:.\Piezo.c     **** 			
 120:.\Piezo.c     **** 			if(_alarmEnableFlag)
 133              		.loc 1 120 0
 134 009c 40F20003 		movw	r3, #:lower16:_alarmEnableFlag
 135 00a0 C0F20003 		movt	r3, #:upper16:_alarmEnableFlag
 136 00a4 1B78     		ldrb	r3, [r3, #0]	@ zero_extendqisi2
 137 00a6 002B     		cmp	r3, #0
 138 00a8 07D0     		beq	.L15
 121:.\Piezo.c     **** 			{
 122:.\Piezo.c     **** 				piezoState = piezoAlarmSound1;
 139              		.loc 1 122 0
 140 00aa 40F20003 		movw	r3, #:lower16:piezoState.3004
 141 00ae C0F20003 		movt	r3, #:upper16:piezoState.3004
 142 00b2 4FF00202 		mov	r2, #2
 143 00b6 1A70     		strb	r2, [r3, #0]
 123:.\Piezo.c     **** 				break;
 144              		.loc 1 123 0
 145 00b8 95E2     		b	.L2
 146              	.L15:
 124:.\Piezo.c     **** 			}
 125:.\Piezo.c     **** 			
 126:.\Piezo.c     **** 			if(_piezoBeepCount != 0)
 147              		.loc 1 126 0
 148 00ba 40F20003 		movw	r3, #:lower16:_piezoBeepCount
 149 00be C0F20003 		movt	r3, #:upper16:_piezoBeepCount
 150 00c2 1B78     		ldrb	r3, [r3, #0]	@ zero_extendqisi2
 151 00c4 002B     		cmp	r3, #0
 152 00c6 14D0     		beq	.L16
 127:.\Piezo.c     **** 			{
 128:.\Piezo.c     **** 				piezoState = piezoBeeping;
 153              		.loc 1 128 0
ARM GAS  C:\Users\Geo\AppData\Local\Temp\cc9LC2E6.s 			page 6


 154 00c8 40F20003 		movw	r3, #:lower16:piezoState.3004
 155 00cc C0F20003 		movt	r3, #:upper16:piezoState.3004
 156 00d0 4FF00402 		mov	r2, #4
 157 00d4 1A70     		strb	r2, [r3, #0]
 129:.\Piezo.c     **** 				_piezoBeepCount--;
 158              		.loc 1 129 0
 159 00d6 40F20003 		movw	r3, #:lower16:_piezoBeepCount
 160 00da C0F20003 		movt	r3, #:upper16:_piezoBeepCount
 161 00de 1B78     		ldrb	r3, [r3, #0]	@ zero_extendqisi2
 162 00e0 03F1FF33 		add	r3, r3, #-1
 163 00e4 DAB2     		uxtb	r2, r3
 164 00e6 40F20003 		movw	r3, #:lower16:_piezoBeepCount
 165 00ea C0F20003 		movt	r3, #:upper16:_piezoBeepCount
 166 00ee 1A70     		strb	r2, [r3, #0]
 130:.\Piezo.c     **** 				break;
 167              		.loc 1 130 0
 168 00f0 79E2     		b	.L2
 169              	.L16:
 131:.\Piezo.c     **** 			}
 132:.\Piezo.c     **** 			
 133:.\Piezo.c     **** 			if(_alarmActivatedSoundFlag)
 170              		.loc 1 133 0
 171 00f2 40F20003 		movw	r3, #:lower16:_alarmActivatedSoundFlag
 172 00f6 C0F20003 		movt	r3, #:upper16:_alarmActivatedSoundFlag
 173 00fa 1B78     		ldrb	r3, [r3, #0]	@ zero_extendqisi2
 174 00fc 002B     		cmp	r3, #0
 175 00fe 00F06582 		beq	.L37
 134:.\Piezo.c     **** 			{
 135:.\Piezo.c     **** 				piezoState = alarmActivatedSound1;
 176              		.loc 1 135 0
 177 0102 40F20003 		movw	r3, #:lower16:piezoState.3004
 178 0106 C0F20003 		movt	r3, #:upper16:piezoState.3004
 179 010a 4FF00602 		mov	r2, #6
 180 010e 1A70     		strb	r2, [r3, #0]
 136:.\Piezo.c     **** 				_alarmActivatedSoundFlag = FALSE;
 181              		.loc 1 136 0
 182 0110 40F20003 		movw	r3, #:lower16:_alarmActivatedSoundFlag
 183 0114 C0F20003 		movt	r3, #:upper16:_alarmActivatedSoundFlag
 184 0118 4FF00002 		mov	r2, #0
 185 011c 1A70     		strb	r2, [r3, #0]
 137:.\Piezo.c     **** 				break;
 186              		.loc 1 137 0
 187 011e 62E2     		b	.L2
 188              	.L5:
 138:.\Piezo.c     **** 			}
 139:.\Piezo.c     **** 		
 140:.\Piezo.c     **** 			break;
 141:.\Piezo.c     **** 			
 142:.\Piezo.c     **** 		case piezoAlarmSound1:
 143:.\Piezo.c     **** 			if(prevPiezoState != piezoAlarmSound1)
 189              		.loc 1 143 0
 190 0120 40F20003 		movw	r3, #:lower16:prevPiezoState.3003
 191 0124 C0F20003 		movt	r3, #:upper16:prevPiezoState.3003
 192 0128 1B78     		ldrb	r3, [r3, #0]	@ zero_extendqisi2
 193 012a 022B     		cmp	r3, #2
 194 012c 1AD0     		beq	.L18
 144:.\Piezo.c     **** 			{
ARM GAS  C:\Users\Geo\AppData\Local\Temp\cc9LC2E6.s 			page 7


 145:.\Piezo.c     **** 				#if(configDEBUG_PIEZO == 1)
 146:.\Piezo.c     **** 					UartDebug_PutString("PIEZO: Entering piezoAlarmSound1 state.\r\n");
 147:.\Piezo.c     **** 				#endif
 148:.\Piezo.c     **** 				PwmPiezo_Start();
 195              		.loc 1 148 0
 196 012e FFF7FEFF 		bl	PwmPiezo_Start
 149:.\Piezo.c     **** 				PwmPiezo_WritePeriod(6000);
 197              		.loc 1 149 0
 198 0132 41F27070 		movw	r0, #6000
 199 0136 FFF7FEFF 		bl	PwmPiezo_WritePeriod
 150:.\Piezo.c     **** 				PwmPiezo_WriteCompare(3000);
 200              		.loc 1 150 0
 201 013a 40F6B830 		movw	r0, #3000
 202 013e FFF7FEFF 		bl	PwmPiezo_WriteCompare
 151:.\Piezo.c     **** 				
 152:.\Piezo.c     **** 				piezoLastChangeCount = counter;
 203              		.loc 1 152 0
 204 0142 40F20003 		movw	r3, #:lower16:counter.2992
 205 0146 C0F20003 		movt	r3, #:upper16:counter.2992
 206 014a 1A68     		ldr	r2, [r3, #0]
 207 014c 40F20003 		movw	r3, #:lower16:piezoLastChangeCount.2993
 208 0150 C0F20003 		movt	r3, #:upper16:piezoLastChangeCount.2993
 209 0154 1A60     		str	r2, [r3, #0]
 153:.\Piezo.c     **** 				
 154:.\Piezo.c     **** 				prevPiezoState = piezoAlarmSound1;
 210              		.loc 1 154 0
 211 0156 40F20003 		movw	r3, #:lower16:prevPiezoState.3003
 212 015a C0F20003 		movt	r3, #:upper16:prevPiezoState.3003
 213 015e 4FF00202 		mov	r2, #2
 214 0162 1A70     		strb	r2, [r3, #0]
 215              	.L18:
 155:.\Piezo.c     **** 			}
 156:.\Piezo.c     **** 			
 157:.\Piezo.c     **** 			if(_alarmEnableFlag == FALSE)
 216              		.loc 1 157 0
 217 0164 40F20003 		movw	r3, #:lower16:_alarmEnableFlag
 218 0168 C0F20003 		movt	r3, #:upper16:_alarmEnableFlag
 219 016c 1B78     		ldrb	r3, [r3, #0]	@ zero_extendqisi2
 220 016e 002B     		cmp	r3, #0
 221 0170 07D1     		bne	.L19
 158:.\Piezo.c     **** 			{
 159:.\Piezo.c     **** 				piezoState = piezoOff;
 222              		.loc 1 159 0
 223 0172 40F20003 		movw	r3, #:lower16:piezoState.3004
 224 0176 C0F20003 		movt	r3, #:upper16:piezoState.3004
 225 017a 4FF00102 		mov	r2, #1
 226 017e 1A70     		strb	r2, [r3, #0]
 160:.\Piezo.c     **** 				break;
 227              		.loc 1 160 0
 228 0180 31E2     		b	.L2
 229              	.L19:
 161:.\Piezo.c     **** 			}
 162:.\Piezo.c     **** 			
 163:.\Piezo.c     **** 			if(counter >= piezoLastChangeCount + piezoAlarmSound1RunTimeCounts)
 230              		.loc 1 163 0
 231 0182 40F20003 		movw	r3, #:lower16:piezoLastChangeCount.2993
 232 0186 C0F20003 		movt	r3, #:upper16:piezoLastChangeCount.2993
ARM GAS  C:\Users\Geo\AppData\Local\Temp\cc9LC2E6.s 			page 8


 233 018a 1A68     		ldr	r2, [r3, #0]
 234 018c 40F20003 		movw	r3, #:lower16:piezoAlarmSound1RunTimeCounts.2994
 235 0190 C0F20003 		movt	r3, #:upper16:piezoAlarmSound1RunTimeCounts.2994
 236 0194 1B68     		ldr	r3, [r3, #0]
 237 0196 1A44     		add	r2, r2, r3
 238 0198 40F20003 		movw	r3, #:lower16:counter.2992
 239 019c C0F20003 		movt	r3, #:upper16:counter.2992
 240 01a0 1B68     		ldr	r3, [r3, #0]
 241 01a2 9A42     		cmp	r2, r3
 242 01a4 00F21482 		bhi	.L38
 164:.\Piezo.c     **** 			{
 165:.\Piezo.c     **** 				piezoState = piezoAlarmSound2;
 243              		.loc 1 165 0
 244 01a8 40F20003 		movw	r3, #:lower16:piezoState.3004
 245 01ac C0F20003 		movt	r3, #:upper16:piezoState.3004
 246 01b0 4FF00302 		mov	r2, #3
 247 01b4 1A70     		strb	r2, [r3, #0]
 166:.\Piezo.c     **** 				break;
 248              		.loc 1 166 0
 249 01b6 16E2     		b	.L2
 250              	.L6:
 167:.\Piezo.c     **** 			}
 168:.\Piezo.c     **** 			break;
 169:.\Piezo.c     **** 			
 170:.\Piezo.c     **** 		case piezoAlarmSound2:
 171:.\Piezo.c     **** 			if(prevPiezoState != piezoAlarmSound2)
 251              		.loc 1 171 0
 252 01b8 40F20003 		movw	r3, #:lower16:prevPiezoState.3003
 253 01bc C0F20003 		movt	r3, #:upper16:prevPiezoState.3003
 254 01c0 1B78     		ldrb	r3, [r3, #0]	@ zero_extendqisi2
 255 01c2 032B     		cmp	r3, #3
 256 01c4 18D0     		beq	.L21
 172:.\Piezo.c     **** 			{
 173:.\Piezo.c     **** 				#if(configDEBUG_PIEZO == 1)
 174:.\Piezo.c     **** 					UartDebug_PutString("PIEZO: Entering piezoAlarmSound2 state.\r\n");
 175:.\Piezo.c     **** 				#endif
 176:.\Piezo.c     **** 				PwmPiezo_WritePeriod(6500);
 257              		.loc 1 176 0
 258 01c6 41F66410 		movw	r0, #6500
 259 01ca FFF7FEFF 		bl	PwmPiezo_WritePeriod
 177:.\Piezo.c     **** 				PwmPiezo_WriteCompare(3250);
 260              		.loc 1 177 0
 261 01ce 40F6B240 		movw	r0, #3250
 262 01d2 FFF7FEFF 		bl	PwmPiezo_WriteCompare
 178:.\Piezo.c     **** 				
 179:.\Piezo.c     **** 				piezoLastChangeCount = counter;
 263              		.loc 1 179 0
 264 01d6 40F20003 		movw	r3, #:lower16:counter.2992
 265 01da C0F20003 		movt	r3, #:upper16:counter.2992
 266 01de 1A68     		ldr	r2, [r3, #0]
 267 01e0 40F20003 		movw	r3, #:lower16:piezoLastChangeCount.2993
 268 01e4 C0F20003 		movt	r3, #:upper16:piezoLastChangeCount.2993
 269 01e8 1A60     		str	r2, [r3, #0]
 180:.\Piezo.c     **** 				
 181:.\Piezo.c     **** 				prevPiezoState = piezoAlarmSound2;
 270              		.loc 1 181 0
 271 01ea 40F20003 		movw	r3, #:lower16:prevPiezoState.3003
ARM GAS  C:\Users\Geo\AppData\Local\Temp\cc9LC2E6.s 			page 9


 272 01ee C0F20003 		movt	r3, #:upper16:prevPiezoState.3003
 273 01f2 4FF00302 		mov	r2, #3
 274 01f6 1A70     		strb	r2, [r3, #0]
 275              	.L21:
 182:.\Piezo.c     **** 			}
 183:.\Piezo.c     **** 			
 184:.\Piezo.c     **** 			if(_alarmEnableFlag == FALSE)
 276              		.loc 1 184 0
 277 01f8 40F20003 		movw	r3, #:lower16:_alarmEnableFlag
 278 01fc C0F20003 		movt	r3, #:upper16:_alarmEnableFlag
 279 0200 1B78     		ldrb	r3, [r3, #0]	@ zero_extendqisi2
 280 0202 002B     		cmp	r3, #0
 281 0204 07D1     		bne	.L22
 185:.\Piezo.c     **** 			{
 186:.\Piezo.c     **** 				piezoState = piezoOff;
 282              		.loc 1 186 0
 283 0206 40F20003 		movw	r3, #:lower16:piezoState.3004
 284 020a C0F20003 		movt	r3, #:upper16:piezoState.3004
 285 020e 4FF00102 		mov	r2, #1
 286 0212 1A70     		strb	r2, [r3, #0]
 187:.\Piezo.c     **** 				break;
 287              		.loc 1 187 0
 288 0214 E7E1     		b	.L2
 289              	.L22:
 188:.\Piezo.c     **** 			}
 189:.\Piezo.c     **** 			
 190:.\Piezo.c     **** 			if(counter >= piezoLastChangeCount + piezoAlarmSound2RunTimeCounts)
 290              		.loc 1 190 0
 291 0216 40F20003 		movw	r3, #:lower16:piezoLastChangeCount.2993
 292 021a C0F20003 		movt	r3, #:upper16:piezoLastChangeCount.2993
 293 021e 1A68     		ldr	r2, [r3, #0]
 294 0220 40F20003 		movw	r3, #:lower16:piezoAlarmSound2RunTimeCounts.2995
 295 0224 C0F20003 		movt	r3, #:upper16:piezoAlarmSound2RunTimeCounts.2995
 296 0228 1B68     		ldr	r3, [r3, #0]
 297 022a 1A44     		add	r2, r2, r3
 298 022c 40F20003 		movw	r3, #:lower16:counter.2992
 299 0230 C0F20003 		movt	r3, #:upper16:counter.2992
 300 0234 1B68     		ldr	r3, [r3, #0]
 301 0236 9A42     		cmp	r2, r3
 302 0238 00F2CC81 		bhi	.L39
 191:.\Piezo.c     **** 			{
 192:.\Piezo.c     **** 				piezoState = piezoAlarmSound1;
 303              		.loc 1 192 0
 304 023c 40F20003 		movw	r3, #:lower16:piezoState.3004
 305 0240 C0F20003 		movt	r3, #:upper16:piezoState.3004
 306 0244 4FF00202 		mov	r2, #2
 307 0248 1A70     		strb	r2, [r3, #0]
 193:.\Piezo.c     **** 				break;
 308              		.loc 1 193 0
 309 024a CCE1     		b	.L2
 310              	.L7:
 194:.\Piezo.c     **** 			}
 195:.\Piezo.c     **** 			
 196:.\Piezo.c     **** 			break;
 197:.\Piezo.c     **** 		case piezoBeeping:
 198:.\Piezo.c     **** 		
 199:.\Piezo.c     **** 			if(prevPiezoState != piezoBeeping)
ARM GAS  C:\Users\Geo\AppData\Local\Temp\cc9LC2E6.s 			page 10


 311              		.loc 1 199 0
 312 024c 40F20003 		movw	r3, #:lower16:prevPiezoState.3003
 313 0250 C0F20003 		movt	r3, #:upper16:prevPiezoState.3003
 314 0254 1B78     		ldrb	r3, [r3, #0]	@ zero_extendqisi2
 315 0256 042B     		cmp	r3, #4
 316 0258 1AD0     		beq	.L24
 200:.\Piezo.c     **** 			{
 201:.\Piezo.c     **** 				#if(configDEBUG_PIEZO == 1)
 202:.\Piezo.c     **** 					UartDebug_PutString("PIEZO: Entering piezoBeeping state.\r\n");
 203:.\Piezo.c     **** 				#endif
 204:.\Piezo.c     **** 				PwmPiezo_WritePeriod(6000);
 317              		.loc 1 204 0
 318 025a 41F27070 		movw	r0, #6000
 319 025e FFF7FEFF 		bl	PwmPiezo_WritePeriod
 205:.\Piezo.c     **** 				PwmPiezo_WriteCompare(3000);
 320              		.loc 1 205 0
 321 0262 40F6B830 		movw	r0, #3000
 322 0266 FFF7FEFF 		bl	PwmPiezo_WriteCompare
 206:.\Piezo.c     **** 				PwmPiezo_Start();
 323              		.loc 1 206 0
 324 026a FFF7FEFF 		bl	PwmPiezo_Start
 207:.\Piezo.c     **** 				
 208:.\Piezo.c     **** 				piezoLastChangeCount = counter;
 325              		.loc 1 208 0
 326 026e 40F20003 		movw	r3, #:lower16:counter.2992
 327 0272 C0F20003 		movt	r3, #:upper16:counter.2992
 328 0276 1A68     		ldr	r2, [r3, #0]
 329 0278 40F20003 		movw	r3, #:lower16:piezoLastChangeCount.2993
 330 027c C0F20003 		movt	r3, #:upper16:piezoLastChangeCount.2993
 331 0280 1A60     		str	r2, [r3, #0]
 209:.\Piezo.c     **** 				
 210:.\Piezo.c     **** 				prevPiezoState = piezoBeeping;
 332              		.loc 1 210 0
 333 0282 40F20003 		movw	r3, #:lower16:prevPiezoState.3003
 334 0286 C0F20003 		movt	r3, #:upper16:prevPiezoState.3003
 335 028a 4FF00402 		mov	r2, #4
 336 028e 1A70     		strb	r2, [r3, #0]
 337              	.L24:
 211:.\Piezo.c     **** 			}
 212:.\Piezo.c     **** 			
 213:.\Piezo.c     **** 			if(counter >= piezoLastChangeCount + beepRunTimeCounts)
 338              		.loc 1 213 0
 339 0290 40F20003 		movw	r3, #:lower16:piezoLastChangeCount.2993
 340 0294 C0F20003 		movt	r3, #:upper16:piezoLastChangeCount.2993
 341 0298 1A68     		ldr	r2, [r3, #0]
 342 029a 40F20003 		movw	r3, #:lower16:beepRunTimeCounts.2996
 343 029e C0F20003 		movt	r3, #:upper16:beepRunTimeCounts.2996
 344 02a2 1B68     		ldr	r3, [r3, #0]
 345 02a4 1A44     		add	r2, r2, r3
 346 02a6 40F20003 		movw	r3, #:lower16:counter.2992
 347 02aa C0F20003 		movt	r3, #:upper16:counter.2992
 348 02ae 1B68     		ldr	r3, [r3, #0]
 349 02b0 9A42     		cmp	r2, r3
 350 02b2 00F29181 		bhi	.L40
 214:.\Piezo.c     **** 			{
 215:.\Piezo.c     **** 				piezoState = piezoOff;
 351              		.loc 1 215 0
ARM GAS  C:\Users\Geo\AppData\Local\Temp\cc9LC2E6.s 			page 11


 352 02b6 40F20003 		movw	r3, #:lower16:piezoState.3004
 353 02ba C0F20003 		movt	r3, #:upper16:piezoState.3004
 354 02be 4FF00102 		mov	r2, #1
 355 02c2 1A70     		strb	r2, [r3, #0]
 216:.\Piezo.c     **** 				break;
 356              		.loc 1 216 0
 357 02c4 8FE1     		b	.L2
 358              	.L8:
 217:.\Piezo.c     **** 			}
 218:.\Piezo.c     **** 			
 219:.\Piezo.c     **** 			break;
 220:.\Piezo.c     **** 			
 221:.\Piezo.c     **** 		case piezoMotorOnSound:
 222:.\Piezo.c     **** 		
 223:.\Piezo.c     **** 			if(prevPiezoState != piezoMotorOnSound)
 359              		.loc 1 223 0
 360 02c6 40F20003 		movw	r3, #:lower16:prevPiezoState.3003
 361 02ca C0F20003 		movt	r3, #:upper16:prevPiezoState.3003
 362 02ce 1B78     		ldrb	r3, [r3, #0]	@ zero_extendqisi2
 363 02d0 052B     		cmp	r3, #5
 364 02d2 33D0     		beq	.L26
 224:.\Piezo.c     **** 			{
 225:.\Piezo.c     **** 				#if(configDEBUG_PIEZO == 1)
 226:.\Piezo.c     **** 					UartDebug_PutString("PIEZO: Entering piezoMotorOnSound state.\r\n");
 227:.\Piezo.c     **** 				#endif
 228:.\Piezo.c     **** 				currentToneCounts = (configPWM_PIEZO_CLOCK_FREQ_MHZ*1000000.0)/configPIEZO_MOTOR_ON_START_FREQ_
 365              		.loc 1 228 0
 366 02d4 40F20003 		movw	r3, #:lower16:currentToneCounts.3001
 367 02d8 C0F20003 		movt	r3, #:upper16:currentToneCounts.3001
 368 02dc 4FF4FA52 		mov	r2, #8000
 369 02e0 1A80     		strh	r2, [r3, #0]	@ movhi
 229:.\Piezo.c     **** 				PwmPiezo_WritePeriod(currentToneCounts);
 370              		.loc 1 229 0
 371 02e2 40F20003 		movw	r3, #:lower16:currentToneCounts.3001
 372 02e6 C0F20003 		movt	r3, #:upper16:currentToneCounts.3001
 373 02ea 1B88     		ldrh	r3, [r3, #0]
 374 02ec 1846     		mov	r0, r3
 375 02ee FFF7FEFF 		bl	PwmPiezo_WritePeriod
 230:.\Piezo.c     **** 				PwmPiezo_WriteCompare(currentToneCounts/2);
 376              		.loc 1 230 0
 377 02f2 40F20003 		movw	r3, #:lower16:currentToneCounts.3001
 378 02f6 C0F20003 		movt	r3, #:upper16:currentToneCounts.3001
 379 02fa 1B88     		ldrh	r3, [r3, #0]
 380 02fc 4FEA5303 		lsr	r3, r3, #1
 381 0300 9BB2     		uxth	r3, r3
 382 0302 1846     		mov	r0, r3
 383 0304 FFF7FEFF 		bl	PwmPiezo_WriteCompare
 231:.\Piezo.c     **** 				PwmPiezo_Start();
 384              		.loc 1 231 0
 385 0308 FFF7FEFF 		bl	PwmPiezo_Start
 232:.\Piezo.c     **** 				toneCount = 0;
 386              		.loc 1 232 0
 387 030c 40F20003 		movw	r3, #:lower16:toneCount.3002
 388 0310 C0F20003 		movt	r3, #:upper16:toneCount.3002
 389 0314 4FF00002 		mov	r2, #0
 390 0318 1A80     		strh	r2, [r3, #0]	@ movhi
 233:.\Piezo.c     **** 				
ARM GAS  C:\Users\Geo\AppData\Local\Temp\cc9LC2E6.s 			page 12


 234:.\Piezo.c     **** 				piezoLastChangeCount = counter;
 391              		.loc 1 234 0
 392 031a 40F20003 		movw	r3, #:lower16:counter.2992
 393 031e C0F20003 		movt	r3, #:upper16:counter.2992
 394 0322 1A68     		ldr	r2, [r3, #0]
 395 0324 40F20003 		movw	r3, #:lower16:piezoLastChangeCount.2993
 396 0328 C0F20003 		movt	r3, #:upper16:piezoLastChangeCount.2993
 397 032c 1A60     		str	r2, [r3, #0]
 235:.\Piezo.c     **** 				
 236:.\Piezo.c     **** 				prevPiezoState = piezoMotorOnSound;
 398              		.loc 1 236 0
 399 032e 40F20003 		movw	r3, #:lower16:prevPiezoState.3003
 400 0332 C0F20003 		movt	r3, #:upper16:prevPiezoState.3003
 401 0336 4FF00502 		mov	r2, #5
 402 033a 1A70     		strb	r2, [r3, #0]
 403              	.L26:
 237:.\Piezo.c     **** 			}
 238:.\Piezo.c     **** 			
 239:.\Piezo.c     **** 			if(counter >= piezoLastChangeCount + motorOnToneTimeCounts)
 404              		.loc 1 239 0
 405 033c 40F20003 		movw	r3, #:lower16:piezoLastChangeCount.2993
 406 0340 C0F20003 		movt	r3, #:upper16:piezoLastChangeCount.2993
 407 0344 1A68     		ldr	r2, [r3, #0]
 408 0346 40F20003 		movw	r3, #:lower16:motorOnToneTimeCounts.2997
 409 034a C0F20003 		movt	r3, #:upper16:motorOnToneTimeCounts.2997
 410 034e 1B68     		ldr	r3, [r3, #0]
 411 0350 1A44     		add	r2, r2, r3
 412 0352 40F20003 		movw	r3, #:lower16:counter.2992
 413 0356 C0F20003 		movt	r3, #:upper16:counter.2992
 414 035a 1B68     		ldr	r3, [r3, #0]
 415 035c 9A42     		cmp	r2, r3
 416 035e 00F23D81 		bhi	.L41
 240:.\Piezo.c     **** 			{
 241:.\Piezo.c     **** 				toneCount++;
 417              		.loc 1 241 0
 418 0362 40F20003 		movw	r3, #:lower16:toneCount.3002
 419 0366 C0F20003 		movt	r3, #:upper16:toneCount.3002
 420 036a 1B88     		ldrh	r3, [r3, #0]
 421 036c 03F10103 		add	r3, r3, #1
 422 0370 9AB2     		uxth	r2, r3
 423 0372 40F20003 		movw	r3, #:lower16:toneCount.3002
 424 0376 C0F20003 		movt	r3, #:upper16:toneCount.3002
 425 037a 1A80     		strh	r2, [r3, #0]	@ movhi
 242:.\Piezo.c     **** 				if(toneCount >= configMOTOR_ON_NUM_TONES)
 426              		.loc 1 242 0
 427 037c 40F20003 		movw	r3, #:lower16:toneCount.3002
 428 0380 C0F20003 		movt	r3, #:upper16:toneCount.3002
 429 0384 1B88     		ldrh	r3, [r3, #0]
 430 0386 092B     		cmp	r3, #9
 431 0388 07D9     		bls	.L28
 243:.\Piezo.c     **** 				{
 244:.\Piezo.c     **** 					piezoState = piezoOff;
 432              		.loc 1 244 0
 433 038a 40F20003 		movw	r3, #:lower16:piezoState.3004
 434 038e C0F20003 		movt	r3, #:upper16:piezoState.3004
 435 0392 4FF00102 		mov	r2, #1
 436 0396 1A70     		strb	r2, [r3, #0]
ARM GAS  C:\Users\Geo\AppData\Local\Temp\cc9LC2E6.s 			page 13


 245:.\Piezo.c     **** 					break;
 437              		.loc 1 245 0
 438 0398 25E1     		b	.L2
 439              	.L28:
 246:.\Piezo.c     **** 				}
 247:.\Piezo.c     **** 				if(_motorOnSoundDirection == up)
 440              		.loc 1 247 0
 441 039a 40F20003 		movw	r3, #:lower16:_motorOnSoundDirection
 442 039e C0F20003 		movt	r3, #:upper16:_motorOnSoundDirection
 443 03a2 1B78     		ldrb	r3, [r3, #0]	@ zero_extendqisi2
 444 03a4 002B     		cmp	r3, #0
 445 03a6 21D1     		bne	.L29
 248:.\Piezo.c     **** 					currentToneCounts = currentToneCounts - configPIEZO_MOTOR_ON_JUMP_COUNTS;
 446              		.loc 1 248 0
 447 03a8 40F20003 		movw	r3, #:lower16:currentToneCounts.3001
 448 03ac C0F20003 		movt	r3, #:upper16:currentToneCounts.3001
 449 03b0 1B88     		ldrh	r3, [r3, #0]
 450 03b2 1846     		mov	r0, r3
 451 03b4 FFF7FEFF 		bl	__aeabi_i2d
 452 03b8 0246     		mov	r2, r0
 453 03ba 0B46     		mov	r3, r1
 454 03bc 1046     		mov	r0, r2
 455 03be 1946     		mov	r1, r3
 456 03c0 4FF00002 		mov	r2, #0
 457 03c4 4FF08043 		mov	r3, #1073741824
 458 03c8 03F5D203 		add	r3, r3, #6881280
 459 03cc FFF7FEFF 		bl	__aeabi_dsub
 460 03d0 0246     		mov	r2, r0
 461 03d2 0B46     		mov	r3, r1
 462 03d4 1046     		mov	r0, r2
 463 03d6 1946     		mov	r1, r3
 464 03d8 FFF7FEFF 		bl	__aeabi_d2uiz
 465 03dc 0346     		mov	r3, r0
 466 03de 9AB2     		uxth	r2, r3
 467 03e0 40F20003 		movw	r3, #:lower16:currentToneCounts.3001
 468 03e4 C0F20003 		movt	r3, #:upper16:currentToneCounts.3001
 469 03e8 1A80     		strh	r2, [r3, #0]	@ movhi
 470 03ea 20E0     		b	.L30
 471              	.L29:
 249:.\Piezo.c     **** 				else
 250:.\Piezo.c     **** 					// Must be down
 251:.\Piezo.c     **** 					currentToneCounts = currentToneCounts + configPIEZO_MOTOR_ON_JUMP_COUNTS;
 472              		.loc 1 251 0
 473 03ec 40F20003 		movw	r3, #:lower16:currentToneCounts.3001
 474 03f0 C0F20003 		movt	r3, #:upper16:currentToneCounts.3001
 475 03f4 1B88     		ldrh	r3, [r3, #0]
 476 03f6 1846     		mov	r0, r3
 477 03f8 FFF7FEFF 		bl	__aeabi_i2d
 478 03fc 0246     		mov	r2, r0
 479 03fe 0B46     		mov	r3, r1
 480 0400 1046     		mov	r0, r2
 481 0402 1946     		mov	r1, r3
 482 0404 4FF00002 		mov	r2, #0
 483 0408 4FF08043 		mov	r3, #1073741824
 484 040c 03F5D203 		add	r3, r3, #6881280
 485 0410 FFF7FEFF 		bl	__aeabi_dadd
 486 0414 0246     		mov	r2, r0
ARM GAS  C:\Users\Geo\AppData\Local\Temp\cc9LC2E6.s 			page 14


 487 0416 0B46     		mov	r3, r1
 488 0418 1046     		mov	r0, r2
 489 041a 1946     		mov	r1, r3
 490 041c FFF7FEFF 		bl	__aeabi_d2uiz
 491 0420 0346     		mov	r3, r0
 492 0422 9AB2     		uxth	r2, r3
 493 0424 40F20003 		movw	r3, #:lower16:currentToneCounts.3001
 494 0428 C0F20003 		movt	r3, #:upper16:currentToneCounts.3001
 495 042c 1A80     		strh	r2, [r3, #0]	@ movhi
 496              	.L30:
 252:.\Piezo.c     **** 					
 253:.\Piezo.c     **** 				PwmPiezo_WritePeriod(currentToneCounts);
 497              		.loc 1 253 0
 498 042e 40F20003 		movw	r3, #:lower16:currentToneCounts.3001
 499 0432 C0F20003 		movt	r3, #:upper16:currentToneCounts.3001
 500 0436 1B88     		ldrh	r3, [r3, #0]
 501 0438 1846     		mov	r0, r3
 502 043a FFF7FEFF 		bl	PwmPiezo_WritePeriod
 254:.\Piezo.c     **** 				PwmPiezo_WriteCompare(currentToneCounts/2);
 503              		.loc 1 254 0
 504 043e 40F20003 		movw	r3, #:lower16:currentToneCounts.3001
 505 0442 C0F20003 		movt	r3, #:upper16:currentToneCounts.3001
 506 0446 1B88     		ldrh	r3, [r3, #0]
 507 0448 4FEA5303 		lsr	r3, r3, #1
 508 044c 9BB2     		uxth	r3, r3
 509 044e 1846     		mov	r0, r3
 510 0450 FFF7FEFF 		bl	PwmPiezo_WriteCompare
 255:.\Piezo.c     **** 				piezoLastChangeCount = counter;
 511              		.loc 1 255 0
 512 0454 40F20003 		movw	r3, #:lower16:counter.2992
 513 0458 C0F20003 		movt	r3, #:upper16:counter.2992
 514 045c 1A68     		ldr	r2, [r3, #0]
 515 045e 40F20003 		movw	r3, #:lower16:piezoLastChangeCount.2993
 516 0462 C0F20003 		movt	r3, #:upper16:piezoLastChangeCount.2993
 517 0466 1A60     		str	r2, [r3, #0]
 256:.\Piezo.c     **** 			}
 257:.\Piezo.c     **** 			
 258:.\Piezo.c     **** 			break;
 518              		.loc 1 258 0
 519 0468 BDE0     		b	.L2
 520              	.L9:
 259:.\Piezo.c     **** 		case alarmActivatedSound1:
 260:.\Piezo.c     **** 			if(prevPiezoState != alarmActivatedSound1)
 521              		.loc 1 260 0
 522 046a 40F20003 		movw	r3, #:lower16:prevPiezoState.3003
 523 046e C0F20003 		movt	r3, #:upper16:prevPiezoState.3003
 524 0472 1B78     		ldrb	r3, [r3, #0]	@ zero_extendqisi2
 525 0474 062B     		cmp	r3, #6
 526 0476 1AD0     		beq	.L31
 261:.\Piezo.c     **** 			{
 262:.\Piezo.c     **** 				#if(configDEBUG_PIEZO == 1)
 263:.\Piezo.c     **** 					UartDebug_PutString("PIEZO: Entering alarmActivatedSound1 state.\r\n");
 264:.\Piezo.c     **** 				#endif
 265:.\Piezo.c     **** 				PwmPiezo_Start();
 527              		.loc 1 265 0
 528 0478 FFF7FEFF 		bl	PwmPiezo_Start
 266:.\Piezo.c     **** 				PwmPiezo_WritePeriod(6000);
ARM GAS  C:\Users\Geo\AppData\Local\Temp\cc9LC2E6.s 			page 15


 529              		.loc 1 266 0
 530 047c 41F27070 		movw	r0, #6000
 531 0480 FFF7FEFF 		bl	PwmPiezo_WritePeriod
 267:.\Piezo.c     **** 				PwmPiezo_WriteCompare(3000);
 532              		.loc 1 267 0
 533 0484 40F6B830 		movw	r0, #3000
 534 0488 FFF7FEFF 		bl	PwmPiezo_WriteCompare
 268:.\Piezo.c     **** 				
 269:.\Piezo.c     **** 				piezoLastChangeCount = counter;
 535              		.loc 1 269 0
 536 048c 40F20003 		movw	r3, #:lower16:counter.2992
 537 0490 C0F20003 		movt	r3, #:upper16:counter.2992
 538 0494 1A68     		ldr	r2, [r3, #0]
 539 0496 40F20003 		movw	r3, #:lower16:piezoLastChangeCount.2993
 540 049a C0F20003 		movt	r3, #:upper16:piezoLastChangeCount.2993
 541 049e 1A60     		str	r2, [r3, #0]
 270:.\Piezo.c     **** 				
 271:.\Piezo.c     **** 				prevPiezoState = alarmActivatedSound1;
 542              		.loc 1 271 0
 543 04a0 40F20003 		movw	r3, #:lower16:prevPiezoState.3003
 544 04a4 C0F20003 		movt	r3, #:upper16:prevPiezoState.3003
 545 04a8 4FF00602 		mov	r2, #6
 546 04ac 1A70     		strb	r2, [r3, #0]
 547              	.L31:
 272:.\Piezo.c     **** 			}
 273:.\Piezo.c     **** 			
 274:.\Piezo.c     **** 			if(counter >= piezoLastChangeCount + piezoActivatedSound1RunTimeCounts)
 548              		.loc 1 274 0
 549 04ae 40F20003 		movw	r3, #:lower16:piezoLastChangeCount.2993
 550 04b2 C0F20003 		movt	r3, #:upper16:piezoLastChangeCount.2993
 551 04b6 1A68     		ldr	r2, [r3, #0]
 552 04b8 40F20003 		movw	r3, #:lower16:piezoActivatedSound1RunTimeCounts.2998
 553 04bc C0F20003 		movt	r3, #:upper16:piezoActivatedSound1RunTimeCounts.2998
 554 04c0 1B68     		ldr	r3, [r3, #0]
 555 04c2 1A44     		add	r2, r2, r3
 556 04c4 40F20003 		movw	r3, #:lower16:counter.2992
 557 04c8 C0F20003 		movt	r3, #:upper16:counter.2992
 558 04cc 1B68     		ldr	r3, [r3, #0]
 559 04ce 9A42     		cmp	r2, r3
 560 04d0 00F28680 		bhi	.L42
 275:.\Piezo.c     **** 			{
 276:.\Piezo.c     **** 				piezoState = alarmActivatedSound2;
 561              		.loc 1 276 0
 562 04d4 40F20003 		movw	r3, #:lower16:piezoState.3004
 563 04d8 C0F20003 		movt	r3, #:upper16:piezoState.3004
 564 04dc 4FF00702 		mov	r2, #7
 565 04e0 1A70     		strb	r2, [r3, #0]
 277:.\Piezo.c     **** 				break;
 566              		.loc 1 277 0
 567 04e2 80E0     		b	.L2
 568              	.L10:
 278:.\Piezo.c     **** 			}
 279:.\Piezo.c     **** 			break;
 280:.\Piezo.c     **** 			
 281:.\Piezo.c     **** 		case alarmActivatedSound2:
 282:.\Piezo.c     **** 			if(prevPiezoState != alarmActivatedSound2)
 569              		.loc 1 282 0
ARM GAS  C:\Users\Geo\AppData\Local\Temp\cc9LC2E6.s 			page 16


 570 04e4 40F20003 		movw	r3, #:lower16:prevPiezoState.3003
 571 04e8 C0F20003 		movt	r3, #:upper16:prevPiezoState.3003
 572 04ec 1B78     		ldrb	r3, [r3, #0]	@ zero_extendqisi2
 573 04ee 072B     		cmp	r3, #7
 574 04f0 18D0     		beq	.L33
 283:.\Piezo.c     **** 			{
 284:.\Piezo.c     **** 				#if(configDEBUG_PIEZO == 1)
 285:.\Piezo.c     **** 					UartDebug_PutString("PIEZO: Entering alarmActivatedSound2 state.\r\n");
 286:.\Piezo.c     **** 				#endif
 287:.\Piezo.c     **** 				PwmPiezo_WritePeriod(6500);
 575              		.loc 1 287 0
 576 04f2 41F66410 		movw	r0, #6500
 577 04f6 FFF7FEFF 		bl	PwmPiezo_WritePeriod
 288:.\Piezo.c     **** 				PwmPiezo_WriteCompare(0);
 578              		.loc 1 288 0
 579 04fa 4FF00000 		mov	r0, #0
 580 04fe FFF7FEFF 		bl	PwmPiezo_WriteCompare
 289:.\Piezo.c     **** 				
 290:.\Piezo.c     **** 				piezoLastChangeCount = counter;
 581              		.loc 1 290 0
 582 0502 40F20003 		movw	r3, #:lower16:counter.2992
 583 0506 C0F20003 		movt	r3, #:upper16:counter.2992
 584 050a 1A68     		ldr	r2, [r3, #0]
 585 050c 40F20003 		movw	r3, #:lower16:piezoLastChangeCount.2993
 586 0510 C0F20003 		movt	r3, #:upper16:piezoLastChangeCount.2993
 587 0514 1A60     		str	r2, [r3, #0]
 291:.\Piezo.c     **** 				
 292:.\Piezo.c     **** 				prevPiezoState = alarmActivatedSound2;
 588              		.loc 1 292 0
 589 0516 40F20003 		movw	r3, #:lower16:prevPiezoState.3003
 590 051a C0F20003 		movt	r3, #:upper16:prevPiezoState.3003
 591 051e 4FF00702 		mov	r2, #7
 592 0522 1A70     		strb	r2, [r3, #0]
 593              	.L33:
 293:.\Piezo.c     **** 			}
 294:.\Piezo.c     **** 			
 295:.\Piezo.c     **** 			if(counter >= piezoLastChangeCount + piezoActivatedSound2RunTimeCounts)
 594              		.loc 1 295 0
 595 0524 40F20003 		movw	r3, #:lower16:piezoLastChangeCount.2993
 596 0528 C0F20003 		movt	r3, #:upper16:piezoLastChangeCount.2993
 597 052c 1A68     		ldr	r2, [r3, #0]
 598 052e 40F20003 		movw	r3, #:lower16:piezoActivatedSound2RunTimeCounts.2999
 599 0532 C0F20003 		movt	r3, #:upper16:piezoActivatedSound2RunTimeCounts.2999
 600 0536 1B68     		ldr	r3, [r3, #0]
 601 0538 1A44     		add	r2, r2, r3
 602 053a 40F20003 		movw	r3, #:lower16:counter.2992
 603 053e C0F20003 		movt	r3, #:upper16:counter.2992
 604 0542 1B68     		ldr	r3, [r3, #0]
 605 0544 9A42     		cmp	r2, r3
 606 0546 4DD8     		bhi	.L43
 296:.\Piezo.c     **** 			{
 297:.\Piezo.c     **** 				piezoState = alarmActivatedSound3;
 607              		.loc 1 297 0
 608 0548 40F20003 		movw	r3, #:lower16:piezoState.3004
 609 054c C0F20003 		movt	r3, #:upper16:piezoState.3004
 610 0550 4FF00802 		mov	r2, #8
 611 0554 1A70     		strb	r2, [r3, #0]
ARM GAS  C:\Users\Geo\AppData\Local\Temp\cc9LC2E6.s 			page 17


 298:.\Piezo.c     **** 				break;
 612              		.loc 1 298 0
 613 0556 46E0     		b	.L2
 614              	.L11:
 299:.\Piezo.c     **** 			}
 300:.\Piezo.c     **** 			
 301:.\Piezo.c     **** 			break;
 302:.\Piezo.c     **** 		case alarmActivatedSound3:
 303:.\Piezo.c     **** 			if(prevPiezoState != alarmActivatedSound3)
 615              		.loc 1 303 0
 616 0558 40F20003 		movw	r3, #:lower16:prevPiezoState.3003
 617 055c C0F20003 		movt	r3, #:upper16:prevPiezoState.3003
 618 0560 1B78     		ldrb	r3, [r3, #0]	@ zero_extendqisi2
 619 0562 082B     		cmp	r3, #8
 620 0564 18D0     		beq	.L35
 304:.\Piezo.c     **** 			{
 305:.\Piezo.c     **** 				#if(configDEBUG_PIEZO == 1)
 306:.\Piezo.c     **** 					UartDebug_PutString("PIEZO: Entering alarmActivatedSound3 state.\r\n");
 307:.\Piezo.c     **** 				#endif
 308:.\Piezo.c     **** 				PwmPiezo_WritePeriod(6000);
 621              		.loc 1 308 0
 622 0566 41F27070 		movw	r0, #6000
 623 056a FFF7FEFF 		bl	PwmPiezo_WritePeriod
 309:.\Piezo.c     **** 				PwmPiezo_WriteCompare(3000);
 624              		.loc 1 309 0
 625 056e 40F6B830 		movw	r0, #3000
 626 0572 FFF7FEFF 		bl	PwmPiezo_WriteCompare
 310:.\Piezo.c     **** 				
 311:.\Piezo.c     **** 				piezoLastChangeCount = counter;
 627              		.loc 1 311 0
 628 0576 40F20003 		movw	r3, #:lower16:counter.2992
 629 057a C0F20003 		movt	r3, #:upper16:counter.2992
 630 057e 1A68     		ldr	r2, [r3, #0]
 631 0580 40F20003 		movw	r3, #:lower16:piezoLastChangeCount.2993
 632 0584 C0F20003 		movt	r3, #:upper16:piezoLastChangeCount.2993
 633 0588 1A60     		str	r2, [r3, #0]
 312:.\Piezo.c     **** 				
 313:.\Piezo.c     **** 				prevPiezoState = alarmActivatedSound3;
 634              		.loc 1 313 0
 635 058a 40F20003 		movw	r3, #:lower16:prevPiezoState.3003
 636 058e C0F20003 		movt	r3, #:upper16:prevPiezoState.3003
 637 0592 4FF00802 		mov	r2, #8
 638 0596 1A70     		strb	r2, [r3, #0]
 639              	.L35:
 314:.\Piezo.c     **** 			}
 315:.\Piezo.c     **** 			
 316:.\Piezo.c     **** 			if(counter >= piezoLastChangeCount + piezoActivatedSound3RunTimeCounts)
 640              		.loc 1 316 0
 641 0598 40F20003 		movw	r3, #:lower16:piezoLastChangeCount.2993
 642 059c C0F20003 		movt	r3, #:upper16:piezoLastChangeCount.2993
 643 05a0 1A68     		ldr	r2, [r3, #0]
 644 05a2 40F20003 		movw	r3, #:lower16:piezoActivatedSound3RunTimeCounts.3000
 645 05a6 C0F20003 		movt	r3, #:upper16:piezoActivatedSound3RunTimeCounts.3000
 646 05aa 1B68     		ldr	r3, [r3, #0]
 647 05ac 1A44     		add	r2, r2, r3
 648 05ae 40F20003 		movw	r3, #:lower16:counter.2992
 649 05b2 C0F20003 		movt	r3, #:upper16:counter.2992
ARM GAS  C:\Users\Geo\AppData\Local\Temp\cc9LC2E6.s 			page 18


 650 05b6 1B68     		ldr	r3, [r3, #0]
 651 05b8 9A42     		cmp	r2, r3
 652 05ba 14D8     		bhi	.L2
 317:.\Piezo.c     **** 			{
 318:.\Piezo.c     **** 				piezoState = piezoOff;
 653              		.loc 1 318 0
 654 05bc 40F20003 		movw	r3, #:lower16:piezoState.3004
 655 05c0 C0F20003 		movt	r3, #:upper16:piezoState.3004
 656 05c4 4FF00102 		mov	r2, #1
 657 05c8 1A70     		strb	r2, [r3, #0]
 658 05ca 0CE0     		b	.L2
 659              	.L37:
 660              		.loc 1 140 0
 661 05cc 00BF     		nop
 662 05ce 0AE0     		b	.L2
 663              	.L38:
 664              		.loc 1 168 0
 665 05d0 00BF     		nop
 666 05d2 08E0     		b	.L2
 667              	.L39:
 668              		.loc 1 196 0
 669 05d4 00BF     		nop
 670 05d6 06E0     		b	.L2
 671              	.L40:
 672              		.loc 1 219 0
 673 05d8 00BF     		nop
 674 05da 04E0     		b	.L2
 675              	.L41:
 676              		.loc 1 258 0
 677 05dc 00BF     		nop
 678 05de 02E0     		b	.L2
 679              	.L42:
 680              		.loc 1 279 0
 681 05e0 00BF     		nop
 682 05e2 00E0     		b	.L2
 683              	.L43:
 684              		.loc 1 301 0
 685 05e4 00BF     		nop
 686              	.L2:
 319:.\Piezo.c     **** 				break;
 320:.\Piezo.c     **** 			}
 321:.\Piezo.c     **** 			
 322:.\Piezo.c     **** 			break;
 323:.\Piezo.c     **** 	}
 324:.\Piezo.c     **** 	
 325:.\Piezo.c     **** 	// Increment state machine loop counter
 326:.\Piezo.c     **** 	counter++;
 687              		.loc 1 326 0
 688 05e6 40F20003 		movw	r3, #:lower16:counter.2992
 689 05ea C0F20003 		movt	r3, #:upper16:counter.2992
 690 05ee 1B68     		ldr	r3, [r3, #0]
 691 05f0 03F10102 		add	r2, r3, #1
 692 05f4 40F20003 		movw	r3, #:lower16:counter.2992
 693 05f8 C0F20003 		movt	r3, #:upper16:counter.2992
 694 05fc 1A60     		str	r2, [r3, #0]
 327:.\Piezo.c     **** }
 695              		.loc 1 327 0
ARM GAS  C:\Users\Geo\AppData\Local\Temp\cc9LC2E6.s 			page 19


 696 05fe 80BD     		pop	{r7, pc}
 697              		.cfi_endproc
 698              	.LFE29:
 699              		.size	Piezo_Run, .-Piezo_Run
 700              		.section	.text.Piezo_AlarmEnable,"ax",%progbits
 701              		.align	2
 702              		.global	Piezo_AlarmEnable
 703              		.thumb
 704              		.thumb_func
 705              		.type	Piezo_AlarmEnable, %function
 706              	Piezo_AlarmEnable:
 707              	.LFB30:
 328:.\Piezo.c     **** 
 329:.\Piezo.c     **** 
 330:.\Piezo.c     **** void Piezo_AlarmEnable(bool_t enable)
 331:.\Piezo.c     **** {
 708              		.loc 1 331 0
 709              		.cfi_startproc
 710              		@ args = 0, pretend = 0, frame = 8
 711              		@ frame_needed = 1, uses_anonymous_args = 0
 712              		@ link register save eliminated.
 713 0000 80B4     		push	{r7}
 714              	.LCFI2:
 715              		.cfi_def_cfa_offset 4
 716 0002 83B0     		sub	sp, sp, #12
 717              	.LCFI3:
 718              		.cfi_def_cfa_offset 16
 719 0004 00AF     		add	r7, sp, #0
 720              		.cfi_offset 7, -4
 721              	.LCFI4:
 722              		.cfi_def_cfa_register 7
 723 0006 0346     		mov	r3, r0
 724 0008 FB71     		strb	r3, [r7, #7]
 332:.\Piezo.c     **** 	_alarmEnableFlag = enable;
 725              		.loc 1 332 0
 726 000a 40F20003 		movw	r3, #:lower16:_alarmEnableFlag
 727 000e C0F20003 		movt	r3, #:upper16:_alarmEnableFlag
 728 0012 FA79     		ldrb	r2, [r7, #7]
 729 0014 1A70     		strb	r2, [r3, #0]
 333:.\Piezo.c     **** }
 730              		.loc 1 333 0
 731 0016 07F10C07 		add	r7, r7, #12
 732 001a BD46     		mov	sp, r7
 733 001c 80BC     		pop	{r7}
 734 001e 7047     		bx	lr
 735              		.cfi_endproc
 736              	.LFE30:
 737              		.size	Piezo_AlarmEnable, .-Piezo_AlarmEnable
 738              		.section	.text.Piezo_EmitBeep,"ax",%progbits
 739              		.align	2
 740              		.global	Piezo_EmitBeep
 741              		.thumb
 742              		.thumb_func
 743              		.type	Piezo_EmitBeep, %function
 744              	Piezo_EmitBeep:
 745              	.LFB31:
 334:.\Piezo.c     **** 
ARM GAS  C:\Users\Geo\AppData\Local\Temp\cc9LC2E6.s 			page 20


 335:.\Piezo.c     **** 
 336:.\Piezo.c     **** void Piezo_EmitBeep(void)
 337:.\Piezo.c     **** {
 746              		.loc 1 337 0
 747              		.cfi_startproc
 748              		@ args = 0, pretend = 0, frame = 0
 749              		@ frame_needed = 1, uses_anonymous_args = 0
 750              		@ link register save eliminated.
 751 0000 80B4     		push	{r7}
 752              	.LCFI5:
 753              		.cfi_def_cfa_offset 4
 754 0002 00AF     		add	r7, sp, #0
 755              		.cfi_offset 7, -4
 756              	.LCFI6:
 757              		.cfi_def_cfa_register 7
 338:.\Piezo.c     **** 	_piezoBeepCount++;
 758              		.loc 1 338 0
 759 0004 40F20003 		movw	r3, #:lower16:_piezoBeepCount
 760 0008 C0F20003 		movt	r3, #:upper16:_piezoBeepCount
 761 000c 1B78     		ldrb	r3, [r3, #0]	@ zero_extendqisi2
 762 000e 03F10103 		add	r3, r3, #1
 763 0012 DAB2     		uxtb	r2, r3
 764 0014 40F20003 		movw	r3, #:lower16:_piezoBeepCount
 765 0018 C0F20003 		movt	r3, #:upper16:_piezoBeepCount
 766 001c 1A70     		strb	r2, [r3, #0]
 339:.\Piezo.c     **** }
 767              		.loc 1 339 0
 768 001e BD46     		mov	sp, r7
 769 0020 80BC     		pop	{r7}
 770 0022 7047     		bx	lr
 771              		.cfi_endproc
 772              	.LFE31:
 773              		.size	Piezo_EmitBeep, .-Piezo_EmitBeep
 774              		.section	.text.Piezo_EmitMotorOnSound,"ax",%progbits
 775              		.align	2
 776              		.global	Piezo_EmitMotorOnSound
 777              		.thumb
 778              		.thumb_func
 779              		.type	Piezo_EmitMotorOnSound, %function
 780              	Piezo_EmitMotorOnSound:
 781              	.LFB32:
 340:.\Piezo.c     **** 
 341:.\Piezo.c     **** void Piezo_EmitMotorOnSound(motorOnSoundDirection_t motorOnSoundDirection)
 342:.\Piezo.c     **** {
 782              		.loc 1 342 0
 783              		.cfi_startproc
 784              		@ args = 0, pretend = 0, frame = 8
 785              		@ frame_needed = 1, uses_anonymous_args = 0
 786              		@ link register save eliminated.
 787 0000 80B4     		push	{r7}
 788              	.LCFI7:
 789              		.cfi_def_cfa_offset 4
 790 0002 83B0     		sub	sp, sp, #12
 791              	.LCFI8:
 792              		.cfi_def_cfa_offset 16
 793 0004 00AF     		add	r7, sp, #0
 794              		.cfi_offset 7, -4
ARM GAS  C:\Users\Geo\AppData\Local\Temp\cc9LC2E6.s 			page 21


 795              	.LCFI9:
 796              		.cfi_def_cfa_register 7
 797 0006 0346     		mov	r3, r0
 798 0008 FB71     		strb	r3, [r7, #7]
 343:.\Piezo.c     **** 	_motorOnSoundDirection = motorOnSoundDirection;
 799              		.loc 1 343 0
 800 000a 40F20003 		movw	r3, #:lower16:_motorOnSoundDirection
 801 000e C0F20003 		movt	r3, #:upper16:_motorOnSoundDirection
 802 0012 FA79     		ldrb	r2, [r7, #7]
 803 0014 1A70     		strb	r2, [r3, #0]
 344:.\Piezo.c     **** 	// Set flag for state machine to enter motor piezo sound
 345:.\Piezo.c     **** 	_emitMotorSoundFlag = TRUE;
 804              		.loc 1 345 0
 805 0016 40F20003 		movw	r3, #:lower16:_emitMotorSoundFlag
 806 001a C0F20003 		movt	r3, #:upper16:_emitMotorSoundFlag
 807 001e 4FF00102 		mov	r2, #1
 808 0022 1A70     		strb	r2, [r3, #0]
 346:.\Piezo.c     **** }
 809              		.loc 1 346 0
 810 0024 07F10C07 		add	r7, r7, #12
 811 0028 BD46     		mov	sp, r7
 812 002a 80BC     		pop	{r7}
 813 002c 7047     		bx	lr
 814              		.cfi_endproc
 815              	.LFE32:
 816              		.size	Piezo_EmitMotorOnSound, .-Piezo_EmitMotorOnSound
 817 002e 00BF     		.section	.text.Piezo_AlarmActivatedSound,"ax",%progbits
 818              		.align	2
 819              		.global	Piezo_AlarmActivatedSound
 820              		.thumb
 821              		.thumb_func
 822              		.type	Piezo_AlarmActivatedSound, %function
 823              	Piezo_AlarmActivatedSound:
 824              	.LFB33:
 347:.\Piezo.c     **** 
 348:.\Piezo.c     **** void Piezo_AlarmActivatedSound(void)
 349:.\Piezo.c     **** {
 825              		.loc 1 349 0
 826              		.cfi_startproc
 827              		@ args = 0, pretend = 0, frame = 0
 828              		@ frame_needed = 1, uses_anonymous_args = 0
 829              		@ link register save eliminated.
 830 0000 80B4     		push	{r7}
 831              	.LCFI10:
 832              		.cfi_def_cfa_offset 4
 833 0002 00AF     		add	r7, sp, #0
 834              		.cfi_offset 7, -4
 835              	.LCFI11:
 836              		.cfi_def_cfa_register 7
 350:.\Piezo.c     **** 	_alarmActivatedSoundFlag = TRUE;
 837              		.loc 1 350 0
 838 0004 40F20003 		movw	r3, #:lower16:_alarmActivatedSoundFlag
 839 0008 C0F20003 		movt	r3, #:upper16:_alarmActivatedSoundFlag
 840 000c 4FF00102 		mov	r2, #1
 841 0010 1A70     		strb	r2, [r3, #0]
 351:.\Piezo.c     **** }
 842              		.loc 1 351 0
ARM GAS  C:\Users\Geo\AppData\Local\Temp\cc9LC2E6.s 			page 22


 843 0012 BD46     		mov	sp, r7
 844 0014 80BC     		pop	{r7}
 845 0016 7047     		bx	lr
 846              		.cfi_endproc
 847              	.LFE33:
 848              		.size	Piezo_AlarmActivatedSound, .-Piezo_AlarmActivatedSound
 849              		.bss
 850              	piezoState.3004:
 851 0005 00       		.space	1
 852              	prevPiezoState.3003:
 853 0006 00       		.space	1
 854 0007 00       		.align	2
 855              	counter.2992:
 856 0008 00000000 		.space	4
 857              		.align	2
 858              	piezoLastChangeCount.2993:
 859 000c 00000000 		.space	4
 860              		.data
 861              		.align	2
 862              		.type	piezoAlarmSound1RunTimeCounts.2994, %object
 863              		.size	piezoAlarmSound1RunTimeCounts.2994, 4
 864              	piezoAlarmSound1RunTimeCounts.2994:
 865 0000 19000000 		.word	25
 866              		.align	2
 867              		.type	piezoAlarmSound2RunTimeCounts.2995, %object
 868              		.size	piezoAlarmSound2RunTimeCounts.2995, 4
 869              	piezoAlarmSound2RunTimeCounts.2995:
 870 0004 19000000 		.word	25
 871              		.align	2
 872              		.type	beepRunTimeCounts.2996, %object
 873              		.size	beepRunTimeCounts.2996, 4
 874              	beepRunTimeCounts.2996:
 875 0008 0A000000 		.word	10
 876              		.bss
 877              		.align	1
 878              	currentToneCounts.3001:
 879 0010 0000     		.space	2
 880              		.align	1
 881              	toneCount.3002:
 882 0012 0000     		.space	2
 883              		.data
 884              		.align	2
 885              		.type	motorOnToneTimeCounts.2997, %object
 886              		.size	motorOnToneTimeCounts.2997, 4
 887              	motorOnToneTimeCounts.2997:
 888 000c 05000000 		.word	5
 889              		.align	2
 890              		.type	piezoActivatedSound1RunTimeCounts.2998, %object
 891              		.size	piezoActivatedSound1RunTimeCounts.2998, 4
 892              	piezoActivatedSound1RunTimeCounts.2998:
 893 0010 28000000 		.word	40
 894              		.align	2
 895              		.type	piezoActivatedSound2RunTimeCounts.2999, %object
 896              		.size	piezoActivatedSound2RunTimeCounts.2999, 4
 897              	piezoActivatedSound2RunTimeCounts.2999:
 898 0014 14000000 		.word	20
 899              		.align	2
ARM GAS  C:\Users\Geo\AppData\Local\Temp\cc9LC2E6.s 			page 23


 900              		.type	piezoActivatedSound3RunTimeCounts.3000, %object
 901              		.size	piezoActivatedSound3RunTimeCounts.3000, 4
 902              	piezoActivatedSound3RunTimeCounts.3000:
 903 0018 28000000 		.word	40
 904              		.text
 905              	.Letext0: