ARM GAS  C:\Users\Geo\AppData\Local\Temp\ccqdDxT4.s 			page 1


   1              		.syntax unified
   2              		.cpu cortex-m3
   3              		.fpu softvfp
   4              		.eabi_attribute 20, 1
   5              		.eabi_attribute 21, 1
   6              		.eabi_attribute 23, 3
   7              		.eabi_attribute 24, 1
   8              		.eabi_attribute 25, 1
   9              		.eabi_attribute 26, 1
  10              		.eabi_attribute 30, 6
  11              		.eabi_attribute 18, 4
  12              		.thumb
  13              		.file	"PinMotionSensor.c"
  20 0000 C8000000 		.text
  20      02006800 
  20      00000201 
  20      FB0E0D00 
  20      01010101 
  21              	.Ltext0:
  22              		.cfi_sections	.debug_frame
  23              		.section	.text.PinMotionSensor_Write,"ax",%progbits
  24              		.align	2
  25              		.global	PinMotionSensor_Write
  26              		.thumb
  27              		.thumb_func
  28              		.type	PinMotionSensor_Write, %function
  29              	PinMotionSensor_Write:
  30              	.LFB0:
  31              		.file 1 ".\\Generated_Source\\PSoC5\\PinMotionSensor.c"
   1:.\Generated_Source\PSoC5/PinMotionSensor.c **** /*******************************************************************************
   2:.\Generated_Source\PSoC5/PinMotionSensor.c **** * File Name: PinMotionSensor.c  
   3:.\Generated_Source\PSoC5/PinMotionSensor.c **** * Version 1.60
   4:.\Generated_Source\PSoC5/PinMotionSensor.c **** *
   5:.\Generated_Source\PSoC5/PinMotionSensor.c **** * Description:
   6:.\Generated_Source\PSoC5/PinMotionSensor.c **** *  This file contains API to enable firmware control of a Pins component.
   7:.\Generated_Source\PSoC5/PinMotionSensor.c **** *
   8:.\Generated_Source\PSoC5/PinMotionSensor.c **** * Note:
   9:.\Generated_Source\PSoC5/PinMotionSensor.c **** *
  10:.\Generated_Source\PSoC5/PinMotionSensor.c **** ********************************************************************************
  11:.\Generated_Source\PSoC5/PinMotionSensor.c **** * Copyright 2008-2010, Cypress Semiconductor Corporation.  All rights reserved.
  12:.\Generated_Source\PSoC5/PinMotionSensor.c **** * You may use this file only in accordance with the license, terms, conditions, 
  13:.\Generated_Source\PSoC5/PinMotionSensor.c **** * disclaimers, and limitations in the end user license agreement accompanying 
  14:.\Generated_Source\PSoC5/PinMotionSensor.c **** * the software package with which this file was provided.
  15:.\Generated_Source\PSoC5/PinMotionSensor.c **** ********************************************************************************/
  16:.\Generated_Source\PSoC5/PinMotionSensor.c **** 
  17:.\Generated_Source\PSoC5/PinMotionSensor.c **** #include "cytypes.h"
  18:.\Generated_Source\PSoC5/PinMotionSensor.c **** #include "PinMotionSensor.h"
  19:.\Generated_Source\PSoC5/PinMotionSensor.c **** 
  20:.\Generated_Source\PSoC5/PinMotionSensor.c **** /* APIs are not generated for P15[7:6] */
  21:.\Generated_Source\PSoC5/PinMotionSensor.c **** #if !(CYDEV_CHIP_FAMILY_USED == CYDEV_CHIP_FAMILY_PSOC5 &&\
  22:.\Generated_Source\PSoC5/PinMotionSensor.c ****      CYDEV_CHIP_REVISION_USED == CYDEV_CHIP_REVISION_5A_PRODUCTION &&\
ARM GAS  C:\Users\Geo\AppData\Local\Temp\ccqdDxT4.s 			page 2


  23:.\Generated_Source\PSoC5/PinMotionSensor.c **** 	 PinMotionSensor__PORT == 15 && (PinMotionSensor__MASK & 0xC0))
  24:.\Generated_Source\PSoC5/PinMotionSensor.c **** 
  25:.\Generated_Source\PSoC5/PinMotionSensor.c **** /*******************************************************************************
  26:.\Generated_Source\PSoC5/PinMotionSensor.c **** * Function Name: PinMotionSensor_Write
  27:.\Generated_Source\PSoC5/PinMotionSensor.c **** ********************************************************************************
  28:.\Generated_Source\PSoC5/PinMotionSensor.c **** * Summary:
  29:.\Generated_Source\PSoC5/PinMotionSensor.c **** *  Assign a new value to the digital port's data output register.  
  30:.\Generated_Source\PSoC5/PinMotionSensor.c **** *
  31:.\Generated_Source\PSoC5/PinMotionSensor.c **** * Parameters:  
  32:.\Generated_Source\PSoC5/PinMotionSensor.c **** *  prtValue:  The value to be assigned to the Digital Port. 
  33:.\Generated_Source\PSoC5/PinMotionSensor.c **** *
  34:.\Generated_Source\PSoC5/PinMotionSensor.c **** * Return: 
  35:.\Generated_Source\PSoC5/PinMotionSensor.c **** *  void 
  36:.\Generated_Source\PSoC5/PinMotionSensor.c **** *  
  37:.\Generated_Source\PSoC5/PinMotionSensor.c **** *******************************************************************************/
  38:.\Generated_Source\PSoC5/PinMotionSensor.c **** void PinMotionSensor_Write(uint8 value) 
  39:.\Generated_Source\PSoC5/PinMotionSensor.c **** {
  32              		.loc 1 39 0
  33              		.cfi_startproc
  34              		@ args = 0, pretend = 0, frame = 16
  35              		@ frame_needed = 1, uses_anonymous_args = 0
  36              		@ link register save eliminated.
  37 0000 80B4     		push	{r7}
  38              	.LCFI0:
  39              		.cfi_def_cfa_offset 4
  40 0002 85B0     		sub	sp, sp, #20
  41              	.LCFI1:
  42              		.cfi_def_cfa_offset 24
  43 0004 00AF     		add	r7, sp, #0
  44              		.cfi_offset 7, -4
  45              	.LCFI2:
  46              		.cfi_def_cfa_register 7
  47 0006 0346     		mov	r3, r0
  48 0008 FB71     		strb	r3, [r7, #7]
  40:.\Generated_Source\PSoC5/PinMotionSensor.c ****     uint8 staticBits = PinMotionSensor_DR & ~PinMotionSensor_MASK;
  49              		.loc 1 40 0
  50 000a 45F26013 		movw	r3, #:lower16:1073762656
  51 000e C4F20003 		movt	r3, #:upper16:1073762656
  52 0012 1B78     		ldrb	r3, [r3, #0]
  53 0014 DBB2     		uxtb	r3, r3
  54 0016 23F00203 		bic	r3, r3, #2
  55 001a FB73     		strb	r3, [r7, #15]
  41:.\Generated_Source\PSoC5/PinMotionSensor.c ****     PinMotionSensor_DR = staticBits | ((value << PinMotionSensor_SHIFT) & PinMotionSensor_MASK);
  56              		.loc 1 41 0
  57 001c 45F26013 		movw	r3, #:lower16:1073762656
  58 0020 C4F20003 		movt	r3, #:upper16:1073762656
  59 0024 FA79     		ldrb	r2, [r7, #7]
  60 0026 4FEA4202 		lsl	r2, r2, #1
  61 002a D2B2     		uxtb	r2, r2
  62 002c 02F00202 		and	r2, r2, #2
  63 0030 F97B     		ldrb	r1, [r7, #15]
  64 0032 42EA0102 		orr	r2, r2, r1
  65 0036 D2B2     		uxtb	r2, r2
  66 0038 1A70     		strb	r2, [r3, #0]
  42:.\Generated_Source\PSoC5/PinMotionSensor.c **** }
  67              		.loc 1 42 0
  68 003a 07F11407 		add	r7, r7, #20
ARM GAS  C:\Users\Geo\AppData\Local\Temp\ccqdDxT4.s 			page 3


  69 003e BD46     		mov	sp, r7
  70 0040 80BC     		pop	{r7}
  71 0042 7047     		bx	lr
  72              		.cfi_endproc
  73              	.LFE0:
  74              		.size	PinMotionSensor_Write, .-PinMotionSensor_Write
  75              		.section	.text.PinMotionSensor_SetDriveMode,"ax",%progbits
  76              		.align	2
  77              		.global	PinMotionSensor_SetDriveMode
  78              		.thumb
  79              		.thumb_func
  80              		.type	PinMotionSensor_SetDriveMode, %function
  81              	PinMotionSensor_SetDriveMode:
  82              	.LFB1:
  43:.\Generated_Source\PSoC5/PinMotionSensor.c **** 
  44:.\Generated_Source\PSoC5/PinMotionSensor.c **** 
  45:.\Generated_Source\PSoC5/PinMotionSensor.c **** /*******************************************************************************
  46:.\Generated_Source\PSoC5/PinMotionSensor.c **** * Function Name: PinMotionSensor_SetDriveMode
  47:.\Generated_Source\PSoC5/PinMotionSensor.c **** ********************************************************************************
  48:.\Generated_Source\PSoC5/PinMotionSensor.c **** * Summary:
  49:.\Generated_Source\PSoC5/PinMotionSensor.c **** *  Change the drive mode on the pins of the port.
  50:.\Generated_Source\PSoC5/PinMotionSensor.c **** * 
  51:.\Generated_Source\PSoC5/PinMotionSensor.c **** * Parameters:  
  52:.\Generated_Source\PSoC5/PinMotionSensor.c **** *  mode:  Change the pins to this drive mode.
  53:.\Generated_Source\PSoC5/PinMotionSensor.c **** *
  54:.\Generated_Source\PSoC5/PinMotionSensor.c **** * Return: 
  55:.\Generated_Source\PSoC5/PinMotionSensor.c **** *  void
  56:.\Generated_Source\PSoC5/PinMotionSensor.c **** *
  57:.\Generated_Source\PSoC5/PinMotionSensor.c **** *******************************************************************************/
  58:.\Generated_Source\PSoC5/PinMotionSensor.c **** void PinMotionSensor_SetDriveMode(uint8 mode) 
  59:.\Generated_Source\PSoC5/PinMotionSensor.c **** {
  83              		.loc 1 59 0
  84              		.cfi_startproc
  85              		@ args = 0, pretend = 0, frame = 8
  86              		@ frame_needed = 1, uses_anonymous_args = 0
  87              		@ link register save eliminated.
  88 0000 80B4     		push	{r7}
  89              	.LCFI3:
  90              		.cfi_def_cfa_offset 4
  91 0002 83B0     		sub	sp, sp, #12
  92              	.LCFI4:
  93              		.cfi_def_cfa_offset 16
  94 0004 00AF     		add	r7, sp, #0
  95              		.cfi_offset 7, -4
  96              	.LCFI5:
  97              		.cfi_def_cfa_register 7
  98 0006 0346     		mov	r3, r0
  99 0008 FB71     		strb	r3, [r7, #7]
  60:.\Generated_Source\PSoC5/PinMotionSensor.c **** 	CyPins_SetPinDriveMode(PinMotionSensor_0, mode);
 100              		.loc 1 60 0
 101 000a 45F23103 		movw	r3, #:lower16:1073762353
 102 000e C4F20003 		movt	r3, #:upper16:1073762353
 103 0012 45F23102 		movw	r2, #:lower16:1073762353
 104 0016 C4F20002 		movt	r2, #:upper16:1073762353
 105 001a 1278     		ldrb	r2, [r2, #0]
 106 001c D2B2     		uxtb	r2, r2
 107 001e 1146     		mov	r1, r2
ARM GAS  C:\Users\Geo\AppData\Local\Temp\ccqdDxT4.s 			page 4


 108 0020 01F0F101 		and	r1, r1, #241
 109 0024 FA79     		ldrb	r2, [r7, #7]	@ zero_extendqisi2
 110 0026 02F00E02 		and	r2, r2, #14
 111 002a 41EA0202 		orr	r2, r1, r2
 112 002e D2B2     		uxtb	r2, r2
 113 0030 1A70     		strb	r2, [r3, #0]
  61:.\Generated_Source\PSoC5/PinMotionSensor.c **** }
 114              		.loc 1 61 0
 115 0032 07F10C07 		add	r7, r7, #12
 116 0036 BD46     		mov	sp, r7
 117 0038 80BC     		pop	{r7}
 118 003a 7047     		bx	lr
 119              		.cfi_endproc
 120              	.LFE1:
 121              		.size	PinMotionSensor_SetDriveMode, .-PinMotionSensor_SetDriveMode
 122              		.section	.text.PinMotionSensor_Read,"ax",%progbits
 123              		.align	2
 124              		.global	PinMotionSensor_Read
 125              		.thumb
 126              		.thumb_func
 127              		.type	PinMotionSensor_Read, %function
 128              	PinMotionSensor_Read:
 129              	.LFB2:
  62:.\Generated_Source\PSoC5/PinMotionSensor.c **** 
  63:.\Generated_Source\PSoC5/PinMotionSensor.c **** 
  64:.\Generated_Source\PSoC5/PinMotionSensor.c **** /*******************************************************************************
  65:.\Generated_Source\PSoC5/PinMotionSensor.c **** * Function Name: PinMotionSensor_Read
  66:.\Generated_Source\PSoC5/PinMotionSensor.c **** ********************************************************************************
  67:.\Generated_Source\PSoC5/PinMotionSensor.c **** * Summary:
  68:.\Generated_Source\PSoC5/PinMotionSensor.c **** *  Read the current value on the pins of the Digital Port in right justified 
  69:.\Generated_Source\PSoC5/PinMotionSensor.c **** *  form.
  70:.\Generated_Source\PSoC5/PinMotionSensor.c **** *
  71:.\Generated_Source\PSoC5/PinMotionSensor.c **** * Parameters:  
  72:.\Generated_Source\PSoC5/PinMotionSensor.c **** *  void 
  73:.\Generated_Source\PSoC5/PinMotionSensor.c **** *
  74:.\Generated_Source\PSoC5/PinMotionSensor.c **** * Return: 
  75:.\Generated_Source\PSoC5/PinMotionSensor.c **** *  Returns the current value of the Digital Port as a right justified number
  76:.\Generated_Source\PSoC5/PinMotionSensor.c **** *  
  77:.\Generated_Source\PSoC5/PinMotionSensor.c **** * Note:
  78:.\Generated_Source\PSoC5/PinMotionSensor.c **** *  Macro PinMotionSensor_ReadPS calls this function. 
  79:.\Generated_Source\PSoC5/PinMotionSensor.c **** *  
  80:.\Generated_Source\PSoC5/PinMotionSensor.c **** *******************************************************************************/
  81:.\Generated_Source\PSoC5/PinMotionSensor.c **** uint8 PinMotionSensor_Read(void) 
  82:.\Generated_Source\PSoC5/PinMotionSensor.c **** {
 130              		.loc 1 82 0
 131              		.cfi_startproc
 132              		@ args = 0, pretend = 0, frame = 0
 133              		@ frame_needed = 1, uses_anonymous_args = 0
 134              		@ link register save eliminated.
 135 0000 80B4     		push	{r7}
 136              	.LCFI6:
 137              		.cfi_def_cfa_offset 4
 138 0002 00AF     		add	r7, sp, #0
 139              		.cfi_offset 7, -4
 140              	.LCFI7:
 141              		.cfi_def_cfa_register 7
  83:.\Generated_Source\PSoC5/PinMotionSensor.c ****     return (PinMotionSensor_PS & PinMotionSensor_MASK) >> PinMotionSensor_SHIFT;
ARM GAS  C:\Users\Geo\AppData\Local\Temp\ccqdDxT4.s 			page 5


 142              		.loc 1 83 0
 143 0004 45F26113 		movw	r3, #:lower16:1073762657
 144 0008 C4F20003 		movt	r3, #:upper16:1073762657
 145 000c 1B78     		ldrb	r3, [r3, #0]
 146 000e DBB2     		uxtb	r3, r3
 147 0010 03F00203 		and	r3, r3, #2
 148 0014 4FEA5303 		lsr	r3, r3, #1
 149 0018 DBB2     		uxtb	r3, r3
  84:.\Generated_Source\PSoC5/PinMotionSensor.c **** }
 150              		.loc 1 84 0
 151 001a 1846     		mov	r0, r3
 152 001c BD46     		mov	sp, r7
 153 001e 80BC     		pop	{r7}
 154 0020 7047     		bx	lr
 155              		.cfi_endproc
 156              	.LFE2:
 157              		.size	PinMotionSensor_Read, .-PinMotionSensor_Read
 158 0022 00BF     		.section	.text.PinMotionSensor_ReadDataReg,"ax",%progbits
 159              		.align	2
 160              		.global	PinMotionSensor_ReadDataReg
 161              		.thumb
 162              		.thumb_func
 163              		.type	PinMotionSensor_ReadDataReg, %function
 164              	PinMotionSensor_ReadDataReg:
 165              	.LFB3:
  85:.\Generated_Source\PSoC5/PinMotionSensor.c **** 
  86:.\Generated_Source\PSoC5/PinMotionSensor.c **** 
  87:.\Generated_Source\PSoC5/PinMotionSensor.c **** /*******************************************************************************
  88:.\Generated_Source\PSoC5/PinMotionSensor.c **** * Function Name: PinMotionSensor_ReadDataReg
  89:.\Generated_Source\PSoC5/PinMotionSensor.c **** ********************************************************************************
  90:.\Generated_Source\PSoC5/PinMotionSensor.c **** * Summary:
  91:.\Generated_Source\PSoC5/PinMotionSensor.c **** *  Read the current value assigned to a Digital Port's data output register
  92:.\Generated_Source\PSoC5/PinMotionSensor.c **** *
  93:.\Generated_Source\PSoC5/PinMotionSensor.c **** * Parameters:  
  94:.\Generated_Source\PSoC5/PinMotionSensor.c **** *  void 
  95:.\Generated_Source\PSoC5/PinMotionSensor.c **** *
  96:.\Generated_Source\PSoC5/PinMotionSensor.c **** * Return: 
  97:.\Generated_Source\PSoC5/PinMotionSensor.c **** *  Returns the current value assigned to the Digital Port's data output register
  98:.\Generated_Source\PSoC5/PinMotionSensor.c **** *  
  99:.\Generated_Source\PSoC5/PinMotionSensor.c **** *******************************************************************************/
 100:.\Generated_Source\PSoC5/PinMotionSensor.c **** uint8 PinMotionSensor_ReadDataReg(void) 
 101:.\Generated_Source\PSoC5/PinMotionSensor.c **** {
 166              		.loc 1 101 0
 167              		.cfi_startproc
 168              		@ args = 0, pretend = 0, frame = 0
 169              		@ frame_needed = 1, uses_anonymous_args = 0
 170              		@ link register save eliminated.
 171 0000 80B4     		push	{r7}
 172              	.LCFI8:
 173              		.cfi_def_cfa_offset 4
 174 0002 00AF     		add	r7, sp, #0
 175              		.cfi_offset 7, -4
 176              	.LCFI9:
 177              		.cfi_def_cfa_register 7
 102:.\Generated_Source\PSoC5/PinMotionSensor.c ****     return (PinMotionSensor_DR & PinMotionSensor_MASK) >> PinMotionSensor_SHIFT;
 178              		.loc 1 102 0
 179 0004 45F26013 		movw	r3, #:lower16:1073762656
ARM GAS  C:\Users\Geo\AppData\Local\Temp\ccqdDxT4.s 			page 6


 180 0008 C4F20003 		movt	r3, #:upper16:1073762656
 181 000c 1B78     		ldrb	r3, [r3, #0]
 182 000e DBB2     		uxtb	r3, r3
 183 0010 03F00203 		and	r3, r3, #2
 184 0014 4FEA5303 		lsr	r3, r3, #1
 185 0018 DBB2     		uxtb	r3, r3
 103:.\Generated_Source\PSoC5/PinMotionSensor.c **** }
 186              		.loc 1 103 0
 187 001a 1846     		mov	r0, r3
 188 001c BD46     		mov	sp, r7
 189 001e 80BC     		pop	{r7}
 190 0020 7047     		bx	lr
 191              		.cfi_endproc
 192              	.LFE3:
 193              		.size	PinMotionSensor_ReadDataReg, .-PinMotionSensor_ReadDataReg
 194 0022 00BF     		.section	.text.PinMotionSensor_ClearInterrupt,"ax",%progbits
 195              		.align	2
 196              		.global	PinMotionSensor_ClearInterrupt
 197              		.thumb
 198              		.thumb_func
 199              		.type	PinMotionSensor_ClearInterrupt, %function
 200              	PinMotionSensor_ClearInterrupt:
 201              	.LFB4:
 104:.\Generated_Source\PSoC5/PinMotionSensor.c **** 
 105:.\Generated_Source\PSoC5/PinMotionSensor.c **** 
 106:.\Generated_Source\PSoC5/PinMotionSensor.c **** /* If Interrupts Are Enabled for this Pins component */ 
 107:.\Generated_Source\PSoC5/PinMotionSensor.c **** #if defined(PinMotionSensor_INTSTAT) 
 108:.\Generated_Source\PSoC5/PinMotionSensor.c **** 
 109:.\Generated_Source\PSoC5/PinMotionSensor.c ****     /*******************************************************************************
 110:.\Generated_Source\PSoC5/PinMotionSensor.c ****     * Function Name: PinMotionSensor_ClearInterrupt
 111:.\Generated_Source\PSoC5/PinMotionSensor.c ****     ********************************************************************************
 112:.\Generated_Source\PSoC5/PinMotionSensor.c ****     * Summary:
 113:.\Generated_Source\PSoC5/PinMotionSensor.c ****     *  Clears any active interrupts attached to port and returns the value of the 
 114:.\Generated_Source\PSoC5/PinMotionSensor.c ****     *  interrupt status register.
 115:.\Generated_Source\PSoC5/PinMotionSensor.c ****     *
 116:.\Generated_Source\PSoC5/PinMotionSensor.c ****     * Parameters:  
 117:.\Generated_Source\PSoC5/PinMotionSensor.c ****     *  void 
 118:.\Generated_Source\PSoC5/PinMotionSensor.c ****     *
 119:.\Generated_Source\PSoC5/PinMotionSensor.c ****     * Return: 
 120:.\Generated_Source\PSoC5/PinMotionSensor.c ****     *  Returns the value of the interrupt status register
 121:.\Generated_Source\PSoC5/PinMotionSensor.c ****     *  
 122:.\Generated_Source\PSoC5/PinMotionSensor.c ****     *******************************************************************************/
 123:.\Generated_Source\PSoC5/PinMotionSensor.c ****     uint8 PinMotionSensor_ClearInterrupt(void) 
 124:.\Generated_Source\PSoC5/PinMotionSensor.c ****     {
 202              		.loc 1 124 0
 203              		.cfi_startproc
 204              		@ args = 0, pretend = 0, frame = 0
 205              		@ frame_needed = 1, uses_anonymous_args = 0
 206              		@ link register save eliminated.
 207 0000 80B4     		push	{r7}
 208              	.LCFI10:
 209              		.cfi_def_cfa_offset 4
 210 0002 00AF     		add	r7, sp, #0
 211              		.cfi_offset 7, -4
 212              	.LCFI11:
 213              		.cfi_def_cfa_register 7
 125:.\Generated_Source\PSoC5/PinMotionSensor.c ****         return (PinMotionSensor_INTSTAT & PinMotionSensor_MASK) >> PinMotionSensor_SHIFT;
ARM GAS  C:\Users\Geo\AppData\Local\Temp\ccqdDxT4.s 			page 7


 214              		.loc 1 125 0
 215 0004 44F28653 		movw	r3, #:lower16:1073759622
 216 0008 C4F20003 		movt	r3, #:upper16:1073759622
 217 000c 1B78     		ldrb	r3, [r3, #0]
 218 000e DBB2     		uxtb	r3, r3
 219 0010 03F00203 		and	r3, r3, #2
 220 0014 4FEA5303 		lsr	r3, r3, #1
 221 0018 DBB2     		uxtb	r3, r3
 126:.\Generated_Source\PSoC5/PinMotionSensor.c ****     }
 222              		.loc 1 126 0
 223 001a 1846     		mov	r0, r3
 224 001c BD46     		mov	sp, r7
 225 001e 80BC     		pop	{r7}
 226 0020 7047     		bx	lr
 227              		.cfi_endproc
 228              	.LFE4:
 229              		.size	PinMotionSensor_ClearInterrupt, .-PinMotionSensor_ClearInterrupt
 230 0022 00BF     		.text
 231              	.Letext0: