ARM GAS  C:\Users\Geo\AppData\Local\Temp\cciOuHtX.s 			page 1


   1              		.syntax unified
   2              		.cpu cortex-m3
   3              		.fpu softvfp
   4              		.eabi_attribute 20, 1
   5              		.eabi_attribute 21, 1
   6              		.eabi_attribute 23, 3
   7              		.eabi_attribute 24, 1
   8              		.eabi_attribute 25, 1
   9              		.eabi_attribute 26, 1
  10              		.eabi_attribute 30, 6
  11              		.eabi_attribute 18, 4
  12              		.thumb
  13              		.file	"PwmMotor_PM.c"
  20 0000 D6000000 		.text
  20      02007200 
  20      00000201 
  20      FB0E0D00 
  20      01010101 
  21              	.Ltext0:
  22              		.cfi_sections	.debug_frame
  23              		.bss
  24              		.align	2
  25              	PwmMotor_backup:
  26 0000 00000000 		.space	12
  26      00000000 
  26      00000000 
  27              		.section	.text.PwmMotor_SaveConfig,"ax",%progbits
  28              		.align	2
  29              		.global	PwmMotor_SaveConfig
  30              		.thumb
  31              		.thumb_func
  32              		.type	PwmMotor_SaveConfig, %function
  33              	PwmMotor_SaveConfig:
  34              	.LFB0:
  35              		.file 1 ".\\Generated_Source\\PSoC5\\PwmMotor_PM.c"
   1:.\Generated_Source\PSoC5/PwmMotor_PM.c **** /*******************************************************************************
   2:.\Generated_Source\PSoC5/PwmMotor_PM.c **** * File Name: PwmMotor_PM.c
   3:.\Generated_Source\PSoC5/PwmMotor_PM.c **** * Version 2.10
   4:.\Generated_Source\PSoC5/PwmMotor_PM.c **** *
   5:.\Generated_Source\PSoC5/PwmMotor_PM.c **** * Description:
   6:.\Generated_Source\PSoC5/PwmMotor_PM.c **** *  This file provides the power management source code to API for the
   7:.\Generated_Source\PSoC5/PwmMotor_PM.c **** *  PWM.
   8:.\Generated_Source\PSoC5/PwmMotor_PM.c **** *
   9:.\Generated_Source\PSoC5/PwmMotor_PM.c **** * Note:
  10:.\Generated_Source\PSoC5/PwmMotor_PM.c **** *
  11:.\Generated_Source\PSoC5/PwmMotor_PM.c **** ********************************************************************************
  12:.\Generated_Source\PSoC5/PwmMotor_PM.c **** * Copyright 2008-2011, Cypress Semiconductor Corporation.  All rights reserved.
  13:.\Generated_Source\PSoC5/PwmMotor_PM.c **** * You may use this file only in accordance with the license, terms, conditions,
  14:.\Generated_Source\PSoC5/PwmMotor_PM.c **** * disclaimers, and limitations in the end user license agreement accompanying
  15:.\Generated_Source\PSoC5/PwmMotor_PM.c **** * the software package with which this file was provided.
  16:.\Generated_Source\PSoC5/PwmMotor_PM.c **** *******************************************************************************/
ARM GAS  C:\Users\Geo\AppData\Local\Temp\cciOuHtX.s 			page 2


  17:.\Generated_Source\PSoC5/PwmMotor_PM.c **** #include "cytypes.h"
  18:.\Generated_Source\PSoC5/PwmMotor_PM.c **** #include "PwmMotor.h"
  19:.\Generated_Source\PSoC5/PwmMotor_PM.c **** 
  20:.\Generated_Source\PSoC5/PwmMotor_PM.c **** static PwmMotor_backupStruct PwmMotor_backup;
  21:.\Generated_Source\PSoC5/PwmMotor_PM.c **** 
  22:.\Generated_Source\PSoC5/PwmMotor_PM.c **** 
  23:.\Generated_Source\PSoC5/PwmMotor_PM.c **** /*******************************************************************************
  24:.\Generated_Source\PSoC5/PwmMotor_PM.c **** * Function Name: PwmMotor_SaveConfig
  25:.\Generated_Source\PSoC5/PwmMotor_PM.c **** ********************************************************************************
  26:.\Generated_Source\PSoC5/PwmMotor_PM.c **** *
  27:.\Generated_Source\PSoC5/PwmMotor_PM.c **** * Summary:
  28:.\Generated_Source\PSoC5/PwmMotor_PM.c **** *  Saves the current user configuration of the component.
  29:.\Generated_Source\PSoC5/PwmMotor_PM.c **** *  
  30:.\Generated_Source\PSoC5/PwmMotor_PM.c **** * Parameters:  
  31:.\Generated_Source\PSoC5/PwmMotor_PM.c **** *  void
  32:.\Generated_Source\PSoC5/PwmMotor_PM.c **** *
  33:.\Generated_Source\PSoC5/PwmMotor_PM.c **** * Return: 
  34:.\Generated_Source\PSoC5/PwmMotor_PM.c **** *  void
  35:.\Generated_Source\PSoC5/PwmMotor_PM.c **** *
  36:.\Generated_Source\PSoC5/PwmMotor_PM.c **** * Global variables:
  37:.\Generated_Source\PSoC5/PwmMotor_PM.c **** *  PwmMotor_backup:  Variables of this global structure are modified to 
  38:.\Generated_Source\PSoC5/PwmMotor_PM.c **** *  store the values of non retention configuration registers when Sleep() API is 
  39:.\Generated_Source\PSoC5/PwmMotor_PM.c **** *  called.
  40:.\Generated_Source\PSoC5/PwmMotor_PM.c **** *
  41:.\Generated_Source\PSoC5/PwmMotor_PM.c **** * Reentrant:
  42:.\Generated_Source\PSoC5/PwmMotor_PM.c **** *  No.
  43:.\Generated_Source\PSoC5/PwmMotor_PM.c **** *
  44:.\Generated_Source\PSoC5/PwmMotor_PM.c **** *******************************************************************************/
  45:.\Generated_Source\PSoC5/PwmMotor_PM.c **** void PwmMotor_SaveConfig(void)
  46:.\Generated_Source\PSoC5/PwmMotor_PM.c **** {
  36              		.loc 1 46 0
  37              		.cfi_startproc
  38              		@ args = 0, pretend = 0, frame = 0
  39              		@ frame_needed = 1, uses_anonymous_args = 0
  40 0000 80B5     		push	{r7, lr}
  41              	.LCFI0:
  42              		.cfi_def_cfa_offset 8
  43 0002 00AF     		add	r7, sp, #0
  44              		.cfi_offset 14, -4
  45              		.cfi_offset 7, -8
  46              	.LCFI1:
  47              		.cfi_def_cfa_register 7
  47:.\Generated_Source\PSoC5/PwmMotor_PM.c ****     
  48:.\Generated_Source\PSoC5/PwmMotor_PM.c ****     #if(!PwmMotor_UsingFixedFunction)
  49:.\Generated_Source\PSoC5/PwmMotor_PM.c ****         #if (PwmMotor_PSOC3_ES2 || PwmMotor_PSOC5_ES1)
  50:.\Generated_Source\PSoC5/PwmMotor_PM.c ****             PwmMotor_backup.PWMUdb = PwmMotor_ReadCounter();
  48              		.loc 1 50 0
  49 0004 FFF7FEFF 		bl	PwmMotor_ReadCounter
  50 0008 0346     		mov	r3, r0
  51 000a 1A46     		mov	r2, r3
  52 000c 40F20003 		movw	r3, #:lower16:PwmMotor_backup
  53 0010 C0F20003 		movt	r3, #:upper16:PwmMotor_backup
  54 0014 5A80     		strh	r2, [r3, #2]	@ movhi
  51:.\Generated_Source\PSoC5/PwmMotor_PM.c ****             PwmMotor_backup.PWMPeriod = PwmMotor_ReadPeriod();
  55              		.loc 1 51 0
  56 0016 46F24453 		movw	r3, #:lower16:1073767748
  57 001a C4F20003 		movt	r3, #:upper16:1073767748
ARM GAS  C:\Users\Geo\AppData\Local\Temp\cciOuHtX.s 			page 3


  58 001e 1B88     		ldrh	r3, [r3, #0]	@ movhi
  59 0020 9AB2     		uxth	r2, r3
  60 0022 40F20003 		movw	r3, #:lower16:PwmMotor_backup
  61 0026 C0F20003 		movt	r3, #:upper16:PwmMotor_backup
  62 002a 9A80     		strh	r2, [r3, #4]	@ movhi
  52:.\Generated_Source\PSoC5/PwmMotor_PM.c ****             #if (PwmMotor_UseStatus)
  53:.\Generated_Source\PSoC5/PwmMotor_PM.c ****                 PwmMotor_backup.InterruptMaskValue = PwmMotor_STATUS_MASK;
  63              		.loc 1 53 0
  64 002c 46F28453 		movw	r3, #:lower16:1073767812
  65 0030 C4F20003 		movt	r3, #:upper16:1073767812
  66 0034 1B78     		ldrb	r3, [r3, #0]
  67 0036 DAB2     		uxtb	r2, r3
  68 0038 40F20003 		movw	r3, #:lower16:PwmMotor_backup
  69 003c C0F20003 		movt	r3, #:upper16:PwmMotor_backup
  70 0040 9A71     		strb	r2, [r3, #6]
  54:.\Generated_Source\PSoC5/PwmMotor_PM.c ****             #endif
  55:.\Generated_Source\PSoC5/PwmMotor_PM.c ****             
  56:.\Generated_Source\PSoC5/PwmMotor_PM.c ****             #if(PwmMotor_UseOneCompareMode)
  57:.\Generated_Source\PSoC5/PwmMotor_PM.c ****                 PwmMotor_backup.PWMCompareValue = PwmMotor_ReadCompare();
  71              		.loc 1 57 0
  72 0042 46F22453 		movw	r3, #:lower16:1073767716
  73 0046 C4F20003 		movt	r3, #:upper16:1073767716
  74 004a 1B88     		ldrh	r3, [r3, #0]	@ movhi
  75 004c 9AB2     		uxth	r2, r3
  76 004e 40F20003 		movw	r3, #:lower16:PwmMotor_backup
  77 0052 C0F20003 		movt	r3, #:upper16:PwmMotor_backup
  78 0056 1A81     		strh	r2, [r3, #8]	@ movhi
  58:.\Generated_Source\PSoC5/PwmMotor_PM.c ****             #else
  59:.\Generated_Source\PSoC5/PwmMotor_PM.c ****                 PwmMotor_backup.PWMCompareValue1 = PwmMotor_ReadCompare1();
  60:.\Generated_Source\PSoC5/PwmMotor_PM.c ****                 PwmMotor_backup.PWMCompareValue2 = PwmMotor_ReadCompare2();
  61:.\Generated_Source\PSoC5/PwmMotor_PM.c ****             #endif
  62:.\Generated_Source\PSoC5/PwmMotor_PM.c ****             
  63:.\Generated_Source\PSoC5/PwmMotor_PM.c ****            #if(PwmMotor_DeadBandUsed)
  64:.\Generated_Source\PSoC5/PwmMotor_PM.c ****                 PwmMotor_backup.PWMdeadBandValue = PwmMotor_ReadDeadTime();
  65:.\Generated_Source\PSoC5/PwmMotor_PM.c ****             #endif
  66:.\Generated_Source\PSoC5/PwmMotor_PM.c ****           
  67:.\Generated_Source\PSoC5/PwmMotor_PM.c ****             #if ( PwmMotor_KillModeMinTime)
  68:.\Generated_Source\PSoC5/PwmMotor_PM.c ****                 PwmMotor_backup.PWMKillCounterPeriod = PwmMotor_ReadKillTime();
  69:.\Generated_Source\PSoC5/PwmMotor_PM.c ****             #endif
  70:.\Generated_Source\PSoC5/PwmMotor_PM.c ****         #endif
  71:.\Generated_Source\PSoC5/PwmMotor_PM.c ****         
  72:.\Generated_Source\PSoC5/PwmMotor_PM.c ****         #if (PwmMotor_PSOC3_ES3 || PwmMotor_PSOC5_ES2)
  73:.\Generated_Source\PSoC5/PwmMotor_PM.c ****             #if(!PwmMotor_PWMModeIsCenterAligned)
  74:.\Generated_Source\PSoC5/PwmMotor_PM.c ****                 PwmMotor_backup.PWMPeriod = PwmMotor_ReadPeriod();
  75:.\Generated_Source\PSoC5/PwmMotor_PM.c ****             #endif
  76:.\Generated_Source\PSoC5/PwmMotor_PM.c ****             PwmMotor_backup.PWMUdb = PwmMotor_ReadCounter();
  77:.\Generated_Source\PSoC5/PwmMotor_PM.c ****             #if (PwmMotor_UseStatus)
  78:.\Generated_Source\PSoC5/PwmMotor_PM.c ****                 PwmMotor_backup.InterruptMaskValue = PwmMotor_STATUS_MASK;
  79:.\Generated_Source\PSoC5/PwmMotor_PM.c ****             #endif
  80:.\Generated_Source\PSoC5/PwmMotor_PM.c ****             
  81:.\Generated_Source\PSoC5/PwmMotor_PM.c ****             #if(PwmMotor_DeadBandMode == PwmMotor__B_PWM__DBM_256_CLOCKS || PwmMotor_DeadBandMode =
  82:.\Generated_Source\PSoC5/PwmMotor_PM.c ****                 PwmMotor_backup.PWMdeadBandValue = PwmMotor_ReadDeadTime();
  83:.\Generated_Source\PSoC5/PwmMotor_PM.c ****             #endif
  84:.\Generated_Source\PSoC5/PwmMotor_PM.c ****             
  85:.\Generated_Source\PSoC5/PwmMotor_PM.c ****             #if(PwmMotor_KillModeMinTime)
  86:.\Generated_Source\PSoC5/PwmMotor_PM.c ****                  PwmMotor_backup.PWMKillCounterPeriod = PwmMotor_ReadKillTime();
  87:.\Generated_Source\PSoC5/PwmMotor_PM.c ****             #endif
ARM GAS  C:\Users\Geo\AppData\Local\Temp\cciOuHtX.s 			page 4


  88:.\Generated_Source\PSoC5/PwmMotor_PM.c ****         #endif
  89:.\Generated_Source\PSoC5/PwmMotor_PM.c ****         
  90:.\Generated_Source\PSoC5/PwmMotor_PM.c ****         #if(PwmMotor_UseControl)
  91:.\Generated_Source\PSoC5/PwmMotor_PM.c ****             PwmMotor_backup.PWMControlRegister = PwmMotor_ReadControlRegister();
  79              		.loc 1 91 0
  80 0058 46F27553 		movw	r3, #:lower16:1073767797
  81 005c C4F20003 		movt	r3, #:upper16:1073767797
  82 0060 1B78     		ldrb	r3, [r3, #0]
  83 0062 DAB2     		uxtb	r2, r3
  84 0064 40F20003 		movw	r3, #:lower16:PwmMotor_backup
  85 0068 C0F20003 		movt	r3, #:upper16:PwmMotor_backup
  86 006c 9A72     		strb	r2, [r3, #10]
  92:.\Generated_Source\PSoC5/PwmMotor_PM.c ****         #endif
  93:.\Generated_Source\PSoC5/PwmMotor_PM.c ****     #endif  
  94:.\Generated_Source\PSoC5/PwmMotor_PM.c **** }
  87              		.loc 1 94 0
  88 006e 80BD     		pop	{r7, pc}
  89              		.cfi_endproc
  90              	.LFE0:
  91              		.size	PwmMotor_SaveConfig, .-PwmMotor_SaveConfig
  92              		.section	.text.PwmMotor_RestoreConfig,"ax",%progbits
  93              		.align	2
  94              		.global	PwmMotor_RestoreConfig
  95              		.thumb
  96              		.thumb_func
  97              		.type	PwmMotor_RestoreConfig, %function
  98              	PwmMotor_RestoreConfig:
  99              	.LFB1:
  95:.\Generated_Source\PSoC5/PwmMotor_PM.c **** 
  96:.\Generated_Source\PSoC5/PwmMotor_PM.c **** 
  97:.\Generated_Source\PSoC5/PwmMotor_PM.c **** /*******************************************************************************
  98:.\Generated_Source\PSoC5/PwmMotor_PM.c **** * Function Name: PwmMotor_RestoreConfig
  99:.\Generated_Source\PSoC5/PwmMotor_PM.c **** ********************************************************************************
 100:.\Generated_Source\PSoC5/PwmMotor_PM.c **** * 
 101:.\Generated_Source\PSoC5/PwmMotor_PM.c **** * Summary:
 102:.\Generated_Source\PSoC5/PwmMotor_PM.c **** *  Restores the current user configuration of the component.
 103:.\Generated_Source\PSoC5/PwmMotor_PM.c **** *
 104:.\Generated_Source\PSoC5/PwmMotor_PM.c **** * Parameters:  
 105:.\Generated_Source\PSoC5/PwmMotor_PM.c **** *  void
 106:.\Generated_Source\PSoC5/PwmMotor_PM.c **** *
 107:.\Generated_Source\PSoC5/PwmMotor_PM.c **** * Return: 
 108:.\Generated_Source\PSoC5/PwmMotor_PM.c **** *  void
 109:.\Generated_Source\PSoC5/PwmMotor_PM.c **** *
 110:.\Generated_Source\PSoC5/PwmMotor_PM.c **** * Global variables:
 111:.\Generated_Source\PSoC5/PwmMotor_PM.c **** *  PwmMotor_backup:  Variables of this global structure are used to restore 
 112:.\Generated_Source\PSoC5/PwmMotor_PM.c **** *  the values of non retention registers on wakeup from sleep mode.
 113:.\Generated_Source\PSoC5/PwmMotor_PM.c **** *
 114:.\Generated_Source\PSoC5/PwmMotor_PM.c **** * Reentrant:
 115:.\Generated_Source\PSoC5/PwmMotor_PM.c **** *  Yes.
 116:.\Generated_Source\PSoC5/PwmMotor_PM.c **** *
 117:.\Generated_Source\PSoC5/PwmMotor_PM.c **** *******************************************************************************/
 118:.\Generated_Source\PSoC5/PwmMotor_PM.c **** void PwmMotor_RestoreConfig(void) 
 119:.\Generated_Source\PSoC5/PwmMotor_PM.c **** {
 100              		.loc 1 119 0
 101              		.cfi_startproc
 102              		@ args = 0, pretend = 0, frame = 8
 103              		@ frame_needed = 1, uses_anonymous_args = 0
ARM GAS  C:\Users\Geo\AppData\Local\Temp\cciOuHtX.s 			page 5


 104 0000 80B5     		push	{r7, lr}
 105              	.LCFI2:
 106              		.cfi_def_cfa_offset 8
 107 0002 82B0     		sub	sp, sp, #8
 108              	.LCFI3:
 109              		.cfi_def_cfa_offset 16
 110 0004 00AF     		add	r7, sp, #0
 111              		.cfi_offset 14, -4
 112              		.cfi_offset 7, -8
 113              	.LCFI4:
 114              		.cfi_def_cfa_register 7
 120:.\Generated_Source\PSoC5/PwmMotor_PM.c ****         #if(!PwmMotor_UsingFixedFunction)
 121:.\Generated_Source\PSoC5/PwmMotor_PM.c ****             #if (PwmMotor_PSOC3_ES2 || PwmMotor_PSOC5_ES1)
 122:.\Generated_Source\PSoC5/PwmMotor_PM.c ****                 /* Interrupt State Backup for Critical Region*/
 123:.\Generated_Source\PSoC5/PwmMotor_PM.c ****                 uint8 PwmMotor_interruptState;
 124:.\Generated_Source\PSoC5/PwmMotor_PM.c ****                 /* Enter Critical Region*/
 125:.\Generated_Source\PSoC5/PwmMotor_PM.c ****                 PwmMotor_interruptState = CyEnterCriticalSection();
 115              		.loc 1 125 0
 116 0006 FFF7FEFF 		bl	CyEnterCriticalSection
 117 000a 0346     		mov	r3, r0
 118 000c FB71     		strb	r3, [r7, #7]
 126:.\Generated_Source\PSoC5/PwmMotor_PM.c ****                 #if (PwmMotor_UseStatus)
 127:.\Generated_Source\PSoC5/PwmMotor_PM.c ****                     /* Use the interrupt output of the status register for IRQ output */
 128:.\Generated_Source\PSoC5/PwmMotor_PM.c ****                     PwmMotor_STATUS_AUX_CTRL |= PwmMotor_STATUS_ACTL_INT_EN_MASK;
 119              		.loc 1 128 0
 120 000e 46F29453 		movw	r3, #:lower16:1073767828
 121 0012 C4F20003 		movt	r3, #:upper16:1073767828
 122 0016 46F29452 		movw	r2, #:lower16:1073767828
 123 001a C4F20002 		movt	r2, #:upper16:1073767828
 124 001e 1278     		ldrb	r2, [r2, #0]
 125 0020 D2B2     		uxtb	r2, r2
 126 0022 42F01002 		orr	r2, r2, #16
 127 0026 D2B2     		uxtb	r2, r2
 128 0028 1A70     		strb	r2, [r3, #0]
 129:.\Generated_Source\PSoC5/PwmMotor_PM.c ****                     
 130:.\Generated_Source\PSoC5/PwmMotor_PM.c ****                     PwmMotor_STATUS_MASK = PwmMotor_backup.InterruptMaskValue;
 129              		.loc 1 130 0
 130 002a 46F28453 		movw	r3, #:lower16:1073767812
 131 002e C4F20003 		movt	r3, #:upper16:1073767812
 132 0032 40F20002 		movw	r2, #:lower16:PwmMotor_backup
 133 0036 C0F20002 		movt	r2, #:upper16:PwmMotor_backup
 134 003a 9279     		ldrb	r2, [r2, #6]	@ zero_extendqisi2
 135 003c 1A70     		strb	r2, [r3, #0]
 131:.\Generated_Source\PSoC5/PwmMotor_PM.c ****                 #endif
 132:.\Generated_Source\PSoC5/PwmMotor_PM.c ****                 
 133:.\Generated_Source\PSoC5/PwmMotor_PM.c ****                 #if (PwmMotor_Resolution == 8)
 134:.\Generated_Source\PSoC5/PwmMotor_PM.c ****                     /* Set FIFO 0 to 1 byte register for period*/
 135:.\Generated_Source\PSoC5/PwmMotor_PM.c ****                     PwmMotor_AUX_CONTROLDP0 |= (PwmMotor_AUX_CTRL_FIFO0_CLR);
 136:.\Generated_Source\PSoC5/PwmMotor_PM.c ****                 #else /* (PwmMotor_Resolution == 16)*/
 137:.\Generated_Source\PSoC5/PwmMotor_PM.c ****                     /* Set FIFO 0 to 1 byte register for period */
 138:.\Generated_Source\PSoC5/PwmMotor_PM.c ****                     PwmMotor_AUX_CONTROLDP0 |= (PwmMotor_AUX_CTRL_FIFO0_CLR);
 136              		.loc 1 138 0
 137 003e 46F29453 		movw	r3, #:lower16:1073767828
 138 0042 C4F20003 		movt	r3, #:upper16:1073767828
 139 0046 46F29452 		movw	r2, #:lower16:1073767828
 140 004a C4F20002 		movt	r2, #:upper16:1073767828
 141 004e 1278     		ldrb	r2, [r2, #0]
ARM GAS  C:\Users\Geo\AppData\Local\Temp\cciOuHtX.s 			page 6


 142 0050 D2B2     		uxtb	r2, r2
 143 0052 42F00102 		orr	r2, r2, #1
 144 0056 D2B2     		uxtb	r2, r2
 145 0058 1A70     		strb	r2, [r3, #0]
 139:.\Generated_Source\PSoC5/PwmMotor_PM.c ****                     PwmMotor_AUX_CONTROLDP1 |= (PwmMotor_AUX_CTRL_FIFO0_CLR);
 146              		.loc 1 139 0
 147 005a 46F29553 		movw	r3, #:lower16:1073767829
 148 005e C4F20003 		movt	r3, #:upper16:1073767829
 149 0062 46F29552 		movw	r2, #:lower16:1073767829
 150 0066 C4F20002 		movt	r2, #:upper16:1073767829
 151 006a 1278     		ldrb	r2, [r2, #0]
 152 006c D2B2     		uxtb	r2, r2
 153 006e 42F00102 		orr	r2, r2, #1
 154 0072 D2B2     		uxtb	r2, r2
 155 0074 1A70     		strb	r2, [r3, #0]
 140:.\Generated_Source\PSoC5/PwmMotor_PM.c ****                 #endif
 141:.\Generated_Source\PSoC5/PwmMotor_PM.c ****                 /* Exit Critical Region*/
 142:.\Generated_Source\PSoC5/PwmMotor_PM.c ****                 CyExitCriticalSection(PwmMotor_interruptState);
 156              		.loc 1 142 0
 157 0076 FB79     		ldrb	r3, [r7, #7]	@ zero_extendqisi2
 158 0078 1846     		mov	r0, r3
 159 007a FFF7FEFF 		bl	CyExitCriticalSection
 143:.\Generated_Source\PSoC5/PwmMotor_PM.c ****                 
 144:.\Generated_Source\PSoC5/PwmMotor_PM.c ****                 PwmMotor_WriteCounter(PwmMotor_backup.PWMUdb);
 160              		.loc 1 144 0
 161 007e 40F20003 		movw	r3, #:lower16:PwmMotor_backup
 162 0082 C0F20003 		movt	r3, #:upper16:PwmMotor_backup
 163 0086 5B88     		ldrh	r3, [r3, #2]
 164 0088 1846     		mov	r0, r3
 165 008a FFF7FEFF 		bl	PwmMotor_WriteCounter
 145:.\Generated_Source\PSoC5/PwmMotor_PM.c ****                 PwmMotor_WritePeriod(PwmMotor_backup.PWMPeriod);
 166              		.loc 1 145 0
 167 008e 40F20003 		movw	r3, #:lower16:PwmMotor_backup
 168 0092 C0F20003 		movt	r3, #:upper16:PwmMotor_backup
 169 0096 9B88     		ldrh	r3, [r3, #4]
 170 0098 1846     		mov	r0, r3
 171 009a FFF7FEFF 		bl	PwmMotor_WritePeriod
 146:.\Generated_Source\PSoC5/PwmMotor_PM.c ****                 
 147:.\Generated_Source\PSoC5/PwmMotor_PM.c ****                 #if(PwmMotor_UseOneCompareMode)
 148:.\Generated_Source\PSoC5/PwmMotor_PM.c ****                     PwmMotor_WriteCompare(PwmMotor_backup.PWMCompareValue);
 172              		.loc 1 148 0
 173 009e 40F20003 		movw	r3, #:lower16:PwmMotor_backup
 174 00a2 C0F20003 		movt	r3, #:upper16:PwmMotor_backup
 175 00a6 1B89     		ldrh	r3, [r3, #8]
 176 00a8 1846     		mov	r0, r3
 177 00aa FFF7FEFF 		bl	PwmMotor_WriteCompare
 149:.\Generated_Source\PSoC5/PwmMotor_PM.c ****                 #else
 150:.\Generated_Source\PSoC5/PwmMotor_PM.c ****                     PwmMotor_WriteCompare1(PwmMotor_backup.PWMCompareValue1);
 151:.\Generated_Source\PSoC5/PwmMotor_PM.c ****                     PwmMotor_WriteCompare2(PwmMotor_backup.PWMCompareValue2);
 152:.\Generated_Source\PSoC5/PwmMotor_PM.c ****                 #endif
 153:.\Generated_Source\PSoC5/PwmMotor_PM.c ****                 
 154:.\Generated_Source\PSoC5/PwmMotor_PM.c ****                #if(PwmMotor_DeadBandMode == PwmMotor__B_PWM__DBM_256_CLOCKS || PwmMotor_DeadBandMod
 155:.\Generated_Source\PSoC5/PwmMotor_PM.c ****                     PwmMotor_WriteDeadTime(PwmMotor_backup.PWMdeadBandValue);
 156:.\Generated_Source\PSoC5/PwmMotor_PM.c ****                 #endif
 157:.\Generated_Source\PSoC5/PwmMotor_PM.c ****             
 158:.\Generated_Source\PSoC5/PwmMotor_PM.c ****                 #if ( PwmMotor_KillModeMinTime)
 159:.\Generated_Source\PSoC5/PwmMotor_PM.c ****                     PwmMotor_WriteKillTime(PwmMotor_backup.PWMKillCounterPeriod);
ARM GAS  C:\Users\Geo\AppData\Local\Temp\cciOuHtX.s 			page 7


 160:.\Generated_Source\PSoC5/PwmMotor_PM.c ****                 #endif
 161:.\Generated_Source\PSoC5/PwmMotor_PM.c ****             #endif
 162:.\Generated_Source\PSoC5/PwmMotor_PM.c ****             
 163:.\Generated_Source\PSoC5/PwmMotor_PM.c ****             #if (PwmMotor_PSOC3_ES3 || PwmMotor_PSOC5_ES2)
 164:.\Generated_Source\PSoC5/PwmMotor_PM.c ****                 #if(!PwmMotor_PWMModeIsCenterAligned)
 165:.\Generated_Source\PSoC5/PwmMotor_PM.c ****                     PwmMotor_WritePeriod(PwmMotor_backup.PWMPeriod);
 166:.\Generated_Source\PSoC5/PwmMotor_PM.c ****                 #endif
 167:.\Generated_Source\PSoC5/PwmMotor_PM.c ****                 PwmMotor_WriteCounter(PwmMotor_backup.PWMUdb);
 168:.\Generated_Source\PSoC5/PwmMotor_PM.c ****                 #if (PwmMotor_UseStatus)
 169:.\Generated_Source\PSoC5/PwmMotor_PM.c ****                     PwmMotor_STATUS_MASK = PwmMotor_backup.InterruptMaskValue;
 170:.\Generated_Source\PSoC5/PwmMotor_PM.c ****                 #endif
 171:.\Generated_Source\PSoC5/PwmMotor_PM.c ****                 
 172:.\Generated_Source\PSoC5/PwmMotor_PM.c ****                 #if(PwmMotor_DeadBandMode == PwmMotor__B_PWM__DBM_256_CLOCKS || PwmMotor_DeadBandMo
 173:.\Generated_Source\PSoC5/PwmMotor_PM.c ****                     PwmMotor_WriteDeadTime(PwmMotor_backup.PWMdeadBandValue);
 174:.\Generated_Source\PSoC5/PwmMotor_PM.c ****                 #endif
 175:.\Generated_Source\PSoC5/PwmMotor_PM.c ****                 
 176:.\Generated_Source\PSoC5/PwmMotor_PM.c ****                 #if(PwmMotor_KillModeMinTime)
 177:.\Generated_Source\PSoC5/PwmMotor_PM.c ****                     PwmMotor_WriteKillTime(PwmMotor_backup.PWMKillCounterPeriod);
 178:.\Generated_Source\PSoC5/PwmMotor_PM.c ****                 #endif
 179:.\Generated_Source\PSoC5/PwmMotor_PM.c ****             #endif
 180:.\Generated_Source\PSoC5/PwmMotor_PM.c ****             
 181:.\Generated_Source\PSoC5/PwmMotor_PM.c ****             #if(PwmMotor_UseControl)
 182:.\Generated_Source\PSoC5/PwmMotor_PM.c ****                 PwmMotor_WriteControlRegister(PwmMotor_backup.PWMControlRegister); 
 178              		.loc 1 182 0
 179 00ae 46F27553 		movw	r3, #:lower16:1073767797
 180 00b2 C4F20003 		movt	r3, #:upper16:1073767797
 181 00b6 40F20002 		movw	r2, #:lower16:PwmMotor_backup
 182 00ba C0F20002 		movt	r2, #:upper16:PwmMotor_backup
 183 00be 927A     		ldrb	r2, [r2, #10]	@ zero_extendqisi2
 184 00c0 1A70     		strb	r2, [r3, #0]
 183:.\Generated_Source\PSoC5/PwmMotor_PM.c ****             #endif
 184:.\Generated_Source\PSoC5/PwmMotor_PM.c ****         #endif  
 185:.\Generated_Source\PSoC5/PwmMotor_PM.c ****     }
 185              		.loc 1 185 0
 186 00c2 07F10807 		add	r7, r7, #8
 187 00c6 BD46     		mov	sp, r7
 188 00c8 80BD     		pop	{r7, pc}
 189              		.cfi_endproc
 190              	.LFE1:
 191              		.size	PwmMotor_RestoreConfig, .-PwmMotor_RestoreConfig
 192 00ca 00BF     		.section	.text.PwmMotor_Sleep,"ax",%progbits
 193              		.align	2
 194              		.global	PwmMotor_Sleep
 195              		.thumb
 196              		.thumb_func
 197              		.type	PwmMotor_Sleep, %function
 198              	PwmMotor_Sleep:
 199              	.LFB2:
 186:.\Generated_Source\PSoC5/PwmMotor_PM.c **** 
 187:.\Generated_Source\PSoC5/PwmMotor_PM.c **** 
 188:.\Generated_Source\PSoC5/PwmMotor_PM.c **** /*******************************************************************************
 189:.\Generated_Source\PSoC5/PwmMotor_PM.c **** * Function Name: PwmMotor_Sleep
 190:.\Generated_Source\PSoC5/PwmMotor_PM.c **** ********************************************************************************
 191:.\Generated_Source\PSoC5/PwmMotor_PM.c **** * 
 192:.\Generated_Source\PSoC5/PwmMotor_PM.c **** * Summary:
 193:.\Generated_Source\PSoC5/PwmMotor_PM.c **** *  Disables block's operation and saves the user configuration. Should be called 
 194:.\Generated_Source\PSoC5/PwmMotor_PM.c **** *  just prior to entering sleep.
ARM GAS  C:\Users\Geo\AppData\Local\Temp\cciOuHtX.s 			page 8


 195:.\Generated_Source\PSoC5/PwmMotor_PM.c **** *  
 196:.\Generated_Source\PSoC5/PwmMotor_PM.c **** * Parameters:  
 197:.\Generated_Source\PSoC5/PwmMotor_PM.c **** *  void
 198:.\Generated_Source\PSoC5/PwmMotor_PM.c **** *
 199:.\Generated_Source\PSoC5/PwmMotor_PM.c **** * Return: 
 200:.\Generated_Source\PSoC5/PwmMotor_PM.c **** *  void
 201:.\Generated_Source\PSoC5/PwmMotor_PM.c **** *
 202:.\Generated_Source\PSoC5/PwmMotor_PM.c **** * Global variables:
 203:.\Generated_Source\PSoC5/PwmMotor_PM.c **** *  PwmMotor_backup.PWMEnableState:  Is modified depending on the enable state
 204:.\Generated_Source\PSoC5/PwmMotor_PM.c **** *  of the block before entering sleep mode.
 205:.\Generated_Source\PSoC5/PwmMotor_PM.c **** *
 206:.\Generated_Source\PSoC5/PwmMotor_PM.c **** * Reentrant:
 207:.\Generated_Source\PSoC5/PwmMotor_PM.c **** *  No.
 208:.\Generated_Source\PSoC5/PwmMotor_PM.c **** *
 209:.\Generated_Source\PSoC5/PwmMotor_PM.c **** *******************************************************************************/
 210:.\Generated_Source\PSoC5/PwmMotor_PM.c **** void PwmMotor_Sleep(void)
 211:.\Generated_Source\PSoC5/PwmMotor_PM.c **** {
 200              		.loc 1 211 0
 201              		.cfi_startproc
 202              		@ args = 0, pretend = 0, frame = 0
 203              		@ frame_needed = 1, uses_anonymous_args = 0
 204 0000 80B5     		push	{r7, lr}
 205              	.LCFI5:
 206              		.cfi_def_cfa_offset 8
 207 0002 00AF     		add	r7, sp, #0
 208              		.cfi_offset 14, -4
 209              		.cfi_offset 7, -8
 210              	.LCFI6:
 211              		.cfi_def_cfa_register 7
 212:.\Generated_Source\PSoC5/PwmMotor_PM.c ****     #if(PwmMotor_UseControl)
 213:.\Generated_Source\PSoC5/PwmMotor_PM.c ****         if(PwmMotor_CTRL_ENABLE == (PwmMotor_CONTROL & PwmMotor_CTRL_ENABLE))
 212              		.loc 1 213 0
 213 0004 46F27553 		movw	r3, #:lower16:1073767797
 214 0008 C4F20003 		movt	r3, #:upper16:1073767797
 215 000c 1B78     		ldrb	r3, [r3, #0]
 216 000e DBB2     		uxtb	r3, r3
 217 0010 5BB2     		sxtb	r3, r3
 218 0012 002B     		cmp	r3, #0
 219 0014 07DA     		bge	.L6
 214:.\Generated_Source\PSoC5/PwmMotor_PM.c ****         {
 215:.\Generated_Source\PSoC5/PwmMotor_PM.c ****             /*Component is enabled */
 216:.\Generated_Source\PSoC5/PwmMotor_PM.c ****             PwmMotor_backup.PWMEnableState = 1u;
 220              		.loc 1 216 0
 221 0016 40F20003 		movw	r3, #:lower16:PwmMotor_backup
 222 001a C0F20003 		movt	r3, #:upper16:PwmMotor_backup
 223 001e 4FF00102 		mov	r2, #1
 224 0022 1A70     		strb	r2, [r3, #0]
 225 0024 06E0     		b	.L7
 226              	.L6:
 217:.\Generated_Source\PSoC5/PwmMotor_PM.c ****         }
 218:.\Generated_Source\PSoC5/PwmMotor_PM.c ****         else
 219:.\Generated_Source\PSoC5/PwmMotor_PM.c ****         {
 220:.\Generated_Source\PSoC5/PwmMotor_PM.c ****             /* Component is disabled */
 221:.\Generated_Source\PSoC5/PwmMotor_PM.c ****             PwmMotor_backup.PWMEnableState = 0u;
 227              		.loc 1 221 0
 228 0026 40F20003 		movw	r3, #:lower16:PwmMotor_backup
 229 002a C0F20003 		movt	r3, #:upper16:PwmMotor_backup
ARM GAS  C:\Users\Geo\AppData\Local\Temp\cciOuHtX.s 			page 9


 230 002e 4FF00002 		mov	r2, #0
 231 0032 1A70     		strb	r2, [r3, #0]
 232              	.L7:
 222:.\Generated_Source\PSoC5/PwmMotor_PM.c ****         }
 223:.\Generated_Source\PSoC5/PwmMotor_PM.c ****     #endif
 224:.\Generated_Source\PSoC5/PwmMotor_PM.c ****     /* Stop component */
 225:.\Generated_Source\PSoC5/PwmMotor_PM.c ****     PwmMotor_Stop();
 233              		.loc 1 225 0
 234 0034 FFF7FEFF 		bl	PwmMotor_Stop
 226:.\Generated_Source\PSoC5/PwmMotor_PM.c ****     
 227:.\Generated_Source\PSoC5/PwmMotor_PM.c ****     /* Save registers configuration */
 228:.\Generated_Source\PSoC5/PwmMotor_PM.c ****     PwmMotor_SaveConfig();
 235              		.loc 1 228 0
 236 0038 FFF7FEFF 		bl	PwmMotor_SaveConfig
 229:.\Generated_Source\PSoC5/PwmMotor_PM.c **** }
 237              		.loc 1 229 0
 238 003c 80BD     		pop	{r7, pc}
 239              		.cfi_endproc
 240              	.LFE2:
 241              		.size	PwmMotor_Sleep, .-PwmMotor_Sleep
 242 003e 00BF     		.section	.text.PwmMotor_Wakeup,"ax",%progbits
 243              		.align	2
 244              		.global	PwmMotor_Wakeup
 245              		.thumb
 246              		.thumb_func
 247              		.type	PwmMotor_Wakeup, %function
 248              	PwmMotor_Wakeup:
 249              	.LFB3:
 230:.\Generated_Source\PSoC5/PwmMotor_PM.c **** 
 231:.\Generated_Source\PSoC5/PwmMotor_PM.c **** 
 232:.\Generated_Source\PSoC5/PwmMotor_PM.c **** /*******************************************************************************
 233:.\Generated_Source\PSoC5/PwmMotor_PM.c **** * Function Name: PwmMotor_Wakeup
 234:.\Generated_Source\PSoC5/PwmMotor_PM.c **** ********************************************************************************
 235:.\Generated_Source\PSoC5/PwmMotor_PM.c **** * 
 236:.\Generated_Source\PSoC5/PwmMotor_PM.c **** * Summary:
 237:.\Generated_Source\PSoC5/PwmMotor_PM.c **** *  Restores and enables the user configuration. Should be called just after 
 238:.\Generated_Source\PSoC5/PwmMotor_PM.c **** *  awaking from sleep.
 239:.\Generated_Source\PSoC5/PwmMotor_PM.c **** *  
 240:.\Generated_Source\PSoC5/PwmMotor_PM.c **** * Parameters:  
 241:.\Generated_Source\PSoC5/PwmMotor_PM.c **** *  void
 242:.\Generated_Source\PSoC5/PwmMotor_PM.c **** *
 243:.\Generated_Source\PSoC5/PwmMotor_PM.c **** * Return: 
 244:.\Generated_Source\PSoC5/PwmMotor_PM.c **** *  void
 245:.\Generated_Source\PSoC5/PwmMotor_PM.c **** *
 246:.\Generated_Source\PSoC5/PwmMotor_PM.c **** * Global variables:
 247:.\Generated_Source\PSoC5/PwmMotor_PM.c **** *  PwmMotor_backup.pwmEnable:  Is used to restore the enable state of 
 248:.\Generated_Source\PSoC5/PwmMotor_PM.c **** *  block on wakeup from sleep mode.
 249:.\Generated_Source\PSoC5/PwmMotor_PM.c **** *
 250:.\Generated_Source\PSoC5/PwmMotor_PM.c **** * Reentrant:
 251:.\Generated_Source\PSoC5/PwmMotor_PM.c **** *  Yes
 252:.\Generated_Source\PSoC5/PwmMotor_PM.c **** *
 253:.\Generated_Source\PSoC5/PwmMotor_PM.c **** *******************************************************************************/
 254:.\Generated_Source\PSoC5/PwmMotor_PM.c **** void PwmMotor_Wakeup(void) 
 255:.\Generated_Source\PSoC5/PwmMotor_PM.c **** {
 250              		.loc 1 255 0
 251              		.cfi_startproc
 252              		@ args = 0, pretend = 0, frame = 0
ARM GAS  C:\Users\Geo\AppData\Local\Temp\cciOuHtX.s 			page 10


 253              		@ frame_needed = 1, uses_anonymous_args = 0
 254 0000 80B5     		push	{r7, lr}
 255              	.LCFI7:
 256              		.cfi_def_cfa_offset 8
 257 0002 00AF     		add	r7, sp, #0
 258              		.cfi_offset 14, -4
 259              		.cfi_offset 7, -8
 260              	.LCFI8:
 261              		.cfi_def_cfa_register 7
 256:.\Generated_Source\PSoC5/PwmMotor_PM.c ****      /* Restore registers values */
 257:.\Generated_Source\PSoC5/PwmMotor_PM.c ****     PwmMotor_RestoreConfig();
 262              		.loc 1 257 0
 263 0004 FFF7FEFF 		bl	PwmMotor_RestoreConfig
 258:.\Generated_Source\PSoC5/PwmMotor_PM.c ****     
 259:.\Generated_Source\PSoC5/PwmMotor_PM.c ****     if(PwmMotor_backup.PWMEnableState != 0u)
 264              		.loc 1 259 0
 265 0008 40F20003 		movw	r3, #:lower16:PwmMotor_backup
 266 000c C0F20003 		movt	r3, #:upper16:PwmMotor_backup
 267 0010 1B78     		ldrb	r3, [r3, #0]	@ zero_extendqisi2
 268 0012 002B     		cmp	r3, #0
 269 0014 01D0     		beq	.L11
 260:.\Generated_Source\PSoC5/PwmMotor_PM.c ****     {
 261:.\Generated_Source\PSoC5/PwmMotor_PM.c ****         /* Enable component's operation */
 262:.\Generated_Source\PSoC5/PwmMotor_PM.c ****         PwmMotor_Enable();
 270              		.loc 1 262 0
 271 0016 FFF7FEFF 		bl	PwmMotor_Enable
 272              	.L11:
 263:.\Generated_Source\PSoC5/PwmMotor_PM.c ****     } /* Do nothing if component's block was disabled before */
 264:.\Generated_Source\PSoC5/PwmMotor_PM.c ****     
 265:.\Generated_Source\PSoC5/PwmMotor_PM.c **** }
 273              		.loc 1 265 0
 274 001a 80BD     		pop	{r7, pc}
 275              		.cfi_endproc
 276              	.LFE3:
 277              		.size	PwmMotor_Wakeup, .-PwmMotor_Wakeup
 278              		.text
 279              	.Letext0: