ARM GAS  C:\Users\Geo\AppData\Local\Temp\cc4G7ue8.s 			page 1


   1              		.syntax unified
   2              		.cpu cortex-m3
   3              		.fpu softvfp
   4              		.eabi_attribute 20, 1
   5              		.eabi_attribute 21, 1
   6              		.eabi_attribute 23, 3
   7              		.eabi_attribute 24, 1
   8              		.eabi_attribute 25, 1
   9              		.eabi_attribute 26, 1
  10              		.eabi_attribute 30, 6
  11              		.eabi_attribute 18, 4
  12              		.thumb
  13              		.file	"PwmPiezo.c"
  20 0000 23010000 		.text
  20      02006100 
  20      00000201 
  20      FB0E0D00 
  20      01010101 
  21              	.Ltext0:
  22              		.cfi_sections	.debug_frame
  23              		.global	PwmPiezo_initVar
  24              		.bss
  25              		.type	PwmPiezo_initVar, %object
  26              		.size	PwmPiezo_initVar, 1
  27              	PwmPiezo_initVar:
  28 0000 00       		.space	1
  29              		.section	.text.PwmPiezo_Start,"ax",%progbits
  30              		.align	2
  31              		.global	PwmPiezo_Start
  32              		.thumb
  33              		.thumb_func
  34              		.type	PwmPiezo_Start, %function
  35              	PwmPiezo_Start:
  36              	.LFB0:
  37              		.file 1 ".\\Generated_Source\\PSoC5\\PwmPiezo.c"
   1:.\Generated_Source\PSoC5/PwmPiezo.c **** /*******************************************************************************
   2:.\Generated_Source\PSoC5/PwmPiezo.c **** * File Name: PwmPiezo.c  
   3:.\Generated_Source\PSoC5/PwmPiezo.c **** * Version 2.10
   4:.\Generated_Source\PSoC5/PwmPiezo.c **** *
   5:.\Generated_Source\PSoC5/PwmPiezo.c **** * Description:
   6:.\Generated_Source\PSoC5/PwmPiezo.c **** *  The PWM User Module consist of an 8 or 16-bit counter with two 8 or 16-bit
   7:.\Generated_Source\PSoC5/PwmPiezo.c **** *  comparitors. Each instance of this user module is capable of generating
   8:.\Generated_Source\PSoC5/PwmPiezo.c **** *  two PWM outputs with the same period. The pulse width is selectable between
   9:.\Generated_Source\PSoC5/PwmPiezo.c **** *  1 and 255/65535. The period is selectable between 2 and 255/65536 clocks. 
  10:.\Generated_Source\PSoC5/PwmPiezo.c **** *  The compare value output may be configured to be active when the present 
  11:.\Generated_Source\PSoC5/PwmPiezo.c **** *  counter is less than or less than/equal to the compare value.
  12:.\Generated_Source\PSoC5/PwmPiezo.c **** *  A terminal count output is also provided. It generates a pulse one clock
  13:.\Generated_Source\PSoC5/PwmPiezo.c **** *  width wide when the counter is equal to zero.
  14:.\Generated_Source\PSoC5/PwmPiezo.c **** *
  15:.\Generated_Source\PSoC5/PwmPiezo.c **** * Note:
  16:.\Generated_Source\PSoC5/PwmPiezo.c **** *
ARM GAS  C:\Users\Geo\AppData\Local\Temp\cc4G7ue8.s 			page 2


  17:.\Generated_Source\PSoC5/PwmPiezo.c **** *******************************************************************************
  18:.\Generated_Source\PSoC5/PwmPiezo.c **** * Copyright 2008-2011, Cypress Semiconductor Corporation.  All rights reserved.
  19:.\Generated_Source\PSoC5/PwmPiezo.c **** * You may use this file only in accordance with the license, terms, conditions, 
  20:.\Generated_Source\PSoC5/PwmPiezo.c **** * disclaimers, and limitations in the end user license agreement accompanying 
  21:.\Generated_Source\PSoC5/PwmPiezo.c **** * the software package with which this file was provided.
  22:.\Generated_Source\PSoC5/PwmPiezo.c **** ********************************************************************************/
  23:.\Generated_Source\PSoC5/PwmPiezo.c **** 
  24:.\Generated_Source\PSoC5/PwmPiezo.c **** #include "cytypes.h"
  25:.\Generated_Source\PSoC5/PwmPiezo.c **** #include "PwmPiezo.h"
  26:.\Generated_Source\PSoC5/PwmPiezo.c **** 
  27:.\Generated_Source\PSoC5/PwmPiezo.c **** uint8 PwmPiezo_initVar = 0u;
  28:.\Generated_Source\PSoC5/PwmPiezo.c **** 
  29:.\Generated_Source\PSoC5/PwmPiezo.c **** /*******************************************************************************
  30:.\Generated_Source\PSoC5/PwmPiezo.c **** * Function Name: PwmPiezo_Start
  31:.\Generated_Source\PSoC5/PwmPiezo.c **** ********************************************************************************
  32:.\Generated_Source\PSoC5/PwmPiezo.c **** *
  33:.\Generated_Source\PSoC5/PwmPiezo.c **** * Summary:
  34:.\Generated_Source\PSoC5/PwmPiezo.c **** *  The start function initializes the pwm with the default values, the 
  35:.\Generated_Source\PSoC5/PwmPiezo.c **** *  enables the counter to begin counting.  It does not enable interrupts,
  36:.\Generated_Source\PSoC5/PwmPiezo.c **** *  the EnableInt command should be called if interrupt generation is required.
  37:.\Generated_Source\PSoC5/PwmPiezo.c **** *
  38:.\Generated_Source\PSoC5/PwmPiezo.c **** * Parameters:  
  39:.\Generated_Source\PSoC5/PwmPiezo.c **** *  void  
  40:.\Generated_Source\PSoC5/PwmPiezo.c **** *
  41:.\Generated_Source\PSoC5/PwmPiezo.c **** * Return: 
  42:.\Generated_Source\PSoC5/PwmPiezo.c **** *  void
  43:.\Generated_Source\PSoC5/PwmPiezo.c **** *
  44:.\Generated_Source\PSoC5/PwmPiezo.c **** * Global variables:
  45:.\Generated_Source\PSoC5/PwmPiezo.c **** *  PwmPiezo_initVar: Is modified when this function is called for the first 
  46:.\Generated_Source\PSoC5/PwmPiezo.c **** *   time. Is used to ensure that initialization happens only once.
  47:.\Generated_Source\PSoC5/PwmPiezo.c **** *
  48:.\Generated_Source\PSoC5/PwmPiezo.c **** * Reentrant:
  49:.\Generated_Source\PSoC5/PwmPiezo.c **** *  Yes
  50:.\Generated_Source\PSoC5/PwmPiezo.c **** *
  51:.\Generated_Source\PSoC5/PwmPiezo.c **** *******************************************************************************/
  52:.\Generated_Source\PSoC5/PwmPiezo.c **** void PwmPiezo_Start(void) 
  53:.\Generated_Source\PSoC5/PwmPiezo.c **** {
  38              		.loc 1 53 0
  39              		.cfi_startproc
  40              		@ args = 0, pretend = 0, frame = 0
  41              		@ frame_needed = 1, uses_anonymous_args = 0
  42 0000 80B5     		push	{r7, lr}
  43              	.LCFI0:
  44              		.cfi_def_cfa_offset 8
  45 0002 00AF     		add	r7, sp, #0
  46              		.cfi_offset 14, -4
  47              		.cfi_offset 7, -8
  48              	.LCFI1:
  49              		.cfi_def_cfa_register 7
  54:.\Generated_Source\PSoC5/PwmPiezo.c ****     /* If not Initialized then initialize all required hardware and software */
  55:.\Generated_Source\PSoC5/PwmPiezo.c ****     if(PwmPiezo_initVar == 0u)
  50              		.loc 1 55 0
  51 0004 40F20003 		movw	r3, #:lower16:PwmPiezo_initVar
  52 0008 C0F20003 		movt	r3, #:upper16:PwmPiezo_initVar
  53 000c 1B78     		ldrb	r3, [r3, #0]	@ zero_extendqisi2
  54 000e 002B     		cmp	r3, #0
  55 0010 08D1     		bne	.L2
ARM GAS  C:\Users\Geo\AppData\Local\Temp\cc4G7ue8.s 			page 3


  56:.\Generated_Source\PSoC5/PwmPiezo.c ****     {
  57:.\Generated_Source\PSoC5/PwmPiezo.c ****         PwmPiezo_Init();
  56              		.loc 1 57 0
  57 0012 FFF7FEFF 		bl	PwmPiezo_Init
  58:.\Generated_Source\PSoC5/PwmPiezo.c ****         PwmPiezo_initVar = 1u;
  58              		.loc 1 58 0
  59 0016 40F20003 		movw	r3, #:lower16:PwmPiezo_initVar
  60 001a C0F20003 		movt	r3, #:upper16:PwmPiezo_initVar
  61 001e 4FF00102 		mov	r2, #1
  62 0022 1A70     		strb	r2, [r3, #0]
  63              	.L2:
  59:.\Generated_Source\PSoC5/PwmPiezo.c ****     }
  60:.\Generated_Source\PSoC5/PwmPiezo.c ****     PwmPiezo_Enable();
  64              		.loc 1 60 0
  65 0024 FFF7FEFF 		bl	PwmPiezo_Enable
  61:.\Generated_Source\PSoC5/PwmPiezo.c **** 
  62:.\Generated_Source\PSoC5/PwmPiezo.c **** }
  66              		.loc 1 62 0
  67 0028 80BD     		pop	{r7, pc}
  68              		.cfi_endproc
  69              	.LFE0:
  70              		.size	PwmPiezo_Start, .-PwmPiezo_Start
  71 002a 00BF     		.section	.text.PwmPiezo_Init,"ax",%progbits
  72              		.align	2
  73              		.global	PwmPiezo_Init
  74              		.thumb
  75              		.thumb_func
  76              		.type	PwmPiezo_Init, %function
  77              	PwmPiezo_Init:
  78              	.LFB1:
  63:.\Generated_Source\PSoC5/PwmPiezo.c **** 
  64:.\Generated_Source\PSoC5/PwmPiezo.c **** 
  65:.\Generated_Source\PSoC5/PwmPiezo.c **** /*******************************************************************************
  66:.\Generated_Source\PSoC5/PwmPiezo.c **** * Function Name: PwmPiezo_Init
  67:.\Generated_Source\PSoC5/PwmPiezo.c **** ********************************************************************************
  68:.\Generated_Source\PSoC5/PwmPiezo.c **** *
  69:.\Generated_Source\PSoC5/PwmPiezo.c **** * Summary:
  70:.\Generated_Source\PSoC5/PwmPiezo.c **** *  Initialize component's parameters to the parameters set by user in the 
  71:.\Generated_Source\PSoC5/PwmPiezo.c **** *  customizer of the component placed onto schematic. Usually called in 
  72:.\Generated_Source\PSoC5/PwmPiezo.c **** *  PwmPiezo_Start().
  73:.\Generated_Source\PSoC5/PwmPiezo.c **** *
  74:.\Generated_Source\PSoC5/PwmPiezo.c **** * Parameters:  
  75:.\Generated_Source\PSoC5/PwmPiezo.c **** *  void
  76:.\Generated_Source\PSoC5/PwmPiezo.c **** *
  77:.\Generated_Source\PSoC5/PwmPiezo.c **** * Return: 
  78:.\Generated_Source\PSoC5/PwmPiezo.c **** *  void
  79:.\Generated_Source\PSoC5/PwmPiezo.c **** *
  80:.\Generated_Source\PSoC5/PwmPiezo.c **** * Reentrant:
  81:.\Generated_Source\PSoC5/PwmPiezo.c **** *  Yes
  82:.\Generated_Source\PSoC5/PwmPiezo.c **** *
  83:.\Generated_Source\PSoC5/PwmPiezo.c **** *******************************************************************************/
  84:.\Generated_Source\PSoC5/PwmPiezo.c **** void PwmPiezo_Init(void) 
  85:.\Generated_Source\PSoC5/PwmPiezo.c **** {
  79              		.loc 1 85 0
  80              		.cfi_startproc
  81              		@ args = 0, pretend = 0, frame = 8
  82              		@ frame_needed = 1, uses_anonymous_args = 0
ARM GAS  C:\Users\Geo\AppData\Local\Temp\cc4G7ue8.s 			page 4


  83 0000 80B5     		push	{r7, lr}
  84              	.LCFI2:
  85              		.cfi_def_cfa_offset 8
  86 0002 82B0     		sub	sp, sp, #8
  87              	.LCFI3:
  88              		.cfi_def_cfa_offset 16
  89 0004 00AF     		add	r7, sp, #0
  90              		.cfi_offset 14, -4
  91              		.cfi_offset 7, -8
  92              	.LCFI4:
  93              		.cfi_def_cfa_register 7
  86:.\Generated_Source\PSoC5/PwmPiezo.c ****     #if (PwmPiezo_UsingFixedFunction || PwmPiezo_UseControl)
  87:.\Generated_Source\PSoC5/PwmPiezo.c ****         uint8 ctrl;
  88:.\Generated_Source\PSoC5/PwmPiezo.c ****     #endif
  89:.\Generated_Source\PSoC5/PwmPiezo.c ****     
  90:.\Generated_Source\PSoC5/PwmPiezo.c ****     #if(!PwmPiezo_UsingFixedFunction) 
  91:.\Generated_Source\PSoC5/PwmPiezo.c ****         #if(PwmPiezo_UseStatus)
  92:.\Generated_Source\PSoC5/PwmPiezo.c ****             /* Interrupt State Backup for Critical Region*/
  93:.\Generated_Source\PSoC5/PwmPiezo.c ****             uint8 PwmPiezo_interruptState;
  94:.\Generated_Source\PSoC5/PwmPiezo.c ****         #endif
  95:.\Generated_Source\PSoC5/PwmPiezo.c ****     #endif
  96:.\Generated_Source\PSoC5/PwmPiezo.c ****     
  97:.\Generated_Source\PSoC5/PwmPiezo.c ****    #if (PwmPiezo_UsingFixedFunction)
  98:.\Generated_Source\PSoC5/PwmPiezo.c ****         /* You are allowed to write the compare value (FF only) */
  99:.\Generated_Source\PSoC5/PwmPiezo.c ****         PwmPiezo_CONTROL |= PwmPiezo_CFG0_MODE;
 100:.\Generated_Source\PSoC5/PwmPiezo.c ****         #if (PwmPiezo_DeadBand2_4)
 101:.\Generated_Source\PSoC5/PwmPiezo.c ****             PwmPiezo_CONTROL |= PwmPiezo_CFG0_DB;
 102:.\Generated_Source\PSoC5/PwmPiezo.c ****         #endif
 103:.\Generated_Source\PSoC5/PwmPiezo.c ****                 
 104:.\Generated_Source\PSoC5/PwmPiezo.c ****         /* Set the default Compare Mode */
 105:.\Generated_Source\PSoC5/PwmPiezo.c ****         #if(PwmPiezo_PSOC3_ES2 || PwmPiezo_PSOC5_ES1)
 106:.\Generated_Source\PSoC5/PwmPiezo.c ****                 ctrl = PwmPiezo_CONTROL2 & ~PwmPiezo_CTRL_CMPMODE1_MASK;
 107:.\Generated_Source\PSoC5/PwmPiezo.c ****                 PwmPiezo_CONTROL2 = ctrl | PwmPiezo_DEFAULT_COMPARE1_MODE;
 108:.\Generated_Source\PSoC5/PwmPiezo.c ****         #endif
 109:.\Generated_Source\PSoC5/PwmPiezo.c ****         #if(PwmPiezo_PSOC3_ES3 || PwmPiezo_PSOC5_ES2)
 110:.\Generated_Source\PSoC5/PwmPiezo.c ****                 ctrl = PwmPiezo_CONTROL3 & ~PwmPiezo_CTRL_CMPMODE1_MASK;
 111:.\Generated_Source\PSoC5/PwmPiezo.c ****                 PwmPiezo_CONTROL3 = ctrl | PwmPiezo_DEFAULT_COMPARE1_MODE;
 112:.\Generated_Source\PSoC5/PwmPiezo.c ****         #endif
 113:.\Generated_Source\PSoC5/PwmPiezo.c ****         
 114:.\Generated_Source\PSoC5/PwmPiezo.c ****          /* Clear and Set SYNCTC and SYNCCMP bits of RT1 register */
 115:.\Generated_Source\PSoC5/PwmPiezo.c ****         PwmPiezo_RT1 &= ~PwmPiezo_RT1_MASK;
 116:.\Generated_Source\PSoC5/PwmPiezo.c ****         PwmPiezo_RT1 |= PwmPiezo_SYNC;     
 117:.\Generated_Source\PSoC5/PwmPiezo.c ****                 
 118:.\Generated_Source\PSoC5/PwmPiezo.c ****         /*Enable DSI Sync all all inputs of the PWM*/
 119:.\Generated_Source\PSoC5/PwmPiezo.c ****         PwmPiezo_RT1 &= ~(PwmPiezo_SYNCDSI_MASK);
 120:.\Generated_Source\PSoC5/PwmPiezo.c ****         PwmPiezo_RT1 |= PwmPiezo_SYNCDSI_EN;
 121:.\Generated_Source\PSoC5/PwmPiezo.c ****        
 122:.\Generated_Source\PSoC5/PwmPiezo.c ****     #elif (PwmPiezo_UseControl)
 123:.\Generated_Source\PSoC5/PwmPiezo.c ****         /* Set the default compare mode defined in the parameter */
 124:.\Generated_Source\PSoC5/PwmPiezo.c ****         ctrl = PwmPiezo_CONTROL & ~PwmPiezo_CTRL_CMPMODE2_MASK & ~PwmPiezo_CTRL_CMPMODE1_MASK;
  94              		.loc 1 124 0
  95 0006 46F27E43 		movw	r3, #:lower16:1073767550
  96 000a C4F20003 		movt	r3, #:upper16:1073767550
  97 000e 1B78     		ldrb	r3, [r3, #0]
  98 0010 DBB2     		uxtb	r3, r3
  99 0012 23F03F03 		bic	r3, r3, #63
 100 0016 BB71     		strb	r3, [r7, #6]
ARM GAS  C:\Users\Geo\AppData\Local\Temp\cc4G7ue8.s 			page 5


 125:.\Generated_Source\PSoC5/PwmPiezo.c ****         PwmPiezo_CONTROL = ctrl | PwmPiezo_DEFAULT_COMPARE2_MODE | PwmPiezo_DEFAULT_COMPARE1_MODE;
 101              		.loc 1 125 0
 102 0018 46F27E43 		movw	r3, #:lower16:1073767550
 103 001c C4F20003 		movt	r3, #:upper16:1073767550
 104 0020 BA79     		ldrb	r2, [r7, #6]
 105 0022 42F01B02 		orr	r2, r2, #27
 106 0026 D2B2     		uxtb	r2, r2
 107 0028 1A70     		strb	r2, [r3, #0]
 126:.\Generated_Source\PSoC5/PwmPiezo.c ****     #endif 
 127:.\Generated_Source\PSoC5/PwmPiezo.c ****         
 128:.\Generated_Source\PSoC5/PwmPiezo.c ****     #if (!PwmPiezo_UsingFixedFunction)
 129:.\Generated_Source\PSoC5/PwmPiezo.c ****         #if (PwmPiezo_Resolution == 8)
 130:.\Generated_Source\PSoC5/PwmPiezo.c ****             /* Set FIFO 0 to 1 byte register for period*/
 131:.\Generated_Source\PSoC5/PwmPiezo.c ****             PwmPiezo_AUX_CONTROLDP0 |= (PwmPiezo_AUX_CTRL_FIFO0_CLR);
 132:.\Generated_Source\PSoC5/PwmPiezo.c ****         #else /* (PwmPiezo_Resolution == 16)*/
 133:.\Generated_Source\PSoC5/PwmPiezo.c ****             /* Set FIFO 0 to 1 byte register for period */
 134:.\Generated_Source\PSoC5/PwmPiezo.c ****             PwmPiezo_AUX_CONTROLDP0 |= (PwmPiezo_AUX_CTRL_FIFO0_CLR);
 108              		.loc 1 134 0
 109 002a 46F29D43 		movw	r3, #:lower16:1073767581
 110 002e C4F20003 		movt	r3, #:upper16:1073767581
 111 0032 46F29D42 		movw	r2, #:lower16:1073767581
 112 0036 C4F20002 		movt	r2, #:upper16:1073767581
 113 003a 1278     		ldrb	r2, [r2, #0]
 114 003c D2B2     		uxtb	r2, r2
 115 003e 42F00102 		orr	r2, r2, #1
 116 0042 D2B2     		uxtb	r2, r2
 117 0044 1A70     		strb	r2, [r3, #0]
 135:.\Generated_Source\PSoC5/PwmPiezo.c ****             PwmPiezo_AUX_CONTROLDP1 |= (PwmPiezo_AUX_CTRL_FIFO0_CLR);
 118              		.loc 1 135 0
 119 0046 46F29E43 		movw	r3, #:lower16:1073767582
 120 004a C4F20003 		movt	r3, #:upper16:1073767582
 121 004e 46F29E42 		movw	r2, #:lower16:1073767582
 122 0052 C4F20002 		movt	r2, #:upper16:1073767582
 123 0056 1278     		ldrb	r2, [r2, #0]
 124 0058 D2B2     		uxtb	r2, r2
 125 005a 42F00102 		orr	r2, r2, #1
 126 005e D2B2     		uxtb	r2, r2
 127 0060 1A70     		strb	r2, [r3, #0]
 136:.\Generated_Source\PSoC5/PwmPiezo.c ****         #endif
 137:.\Generated_Source\PSoC5/PwmPiezo.c ****     #endif
 138:.\Generated_Source\PSoC5/PwmPiezo.c ****         
 139:.\Generated_Source\PSoC5/PwmPiezo.c ****     PwmPiezo_WritePeriod(PwmPiezo_INIT_PERIOD_VALUE);
 128              		.loc 1 139 0
 129 0062 4FF0C500 		mov	r0, #197
 130 0066 FFF7FEFF 		bl	PwmPiezo_WritePeriod
 140:.\Generated_Source\PSoC5/PwmPiezo.c ****     PwmPiezo_WriteCounter(PwmPiezo_INIT_PERIOD_VALUE);
 131              		.loc 1 140 0
 132 006a 4FF0C500 		mov	r0, #197
 133 006e FFF7FEFF 		bl	PwmPiezo_WriteCounter
 141:.\Generated_Source\PSoC5/PwmPiezo.c ****         
 142:.\Generated_Source\PSoC5/PwmPiezo.c ****         #if (PwmPiezo_UseOneCompareMode)
 143:.\Generated_Source\PSoC5/PwmPiezo.c ****             PwmPiezo_WriteCompare(PwmPiezo_INIT_COMPARE_VALUE1);
 134              		.loc 1 143 0
 135 0072 4FF07F00 		mov	r0, #127
 136 0076 FFF7FEFF 		bl	PwmPiezo_WriteCompare
 144:.\Generated_Source\PSoC5/PwmPiezo.c ****         #else
 145:.\Generated_Source\PSoC5/PwmPiezo.c ****             PwmPiezo_WriteCompare1(PwmPiezo_INIT_COMPARE_VALUE1);
ARM GAS  C:\Users\Geo\AppData\Local\Temp\cc4G7ue8.s 			page 6


 146:.\Generated_Source\PSoC5/PwmPiezo.c ****             PwmPiezo_WriteCompare2(PwmPiezo_INIT_COMPARE_VALUE2);
 147:.\Generated_Source\PSoC5/PwmPiezo.c ****         #endif
 148:.\Generated_Source\PSoC5/PwmPiezo.c ****         
 149:.\Generated_Source\PSoC5/PwmPiezo.c ****         #if (PwmPiezo_KillModeMinTime)
 150:.\Generated_Source\PSoC5/PwmPiezo.c ****             PwmPiezo_WriteKillTime(PwmPiezo_MinimumKillTime);
 151:.\Generated_Source\PSoC5/PwmPiezo.c ****         #endif
 152:.\Generated_Source\PSoC5/PwmPiezo.c ****         
 153:.\Generated_Source\PSoC5/PwmPiezo.c ****         #if (PwmPiezo_DeadBandUsed)
 154:.\Generated_Source\PSoC5/PwmPiezo.c ****             PwmPiezo_WriteDeadTime(PwmPiezo_INIT_DEAD_TIME);
 155:.\Generated_Source\PSoC5/PwmPiezo.c ****         #endif
 156:.\Generated_Source\PSoC5/PwmPiezo.c **** 
 157:.\Generated_Source\PSoC5/PwmPiezo.c ****     #if (PwmPiezo_UseStatus || PwmPiezo_UsingFixedFunction)
 158:.\Generated_Source\PSoC5/PwmPiezo.c ****         PwmPiezo_SetInterruptMode(PwmPiezo_INIT_INTERRUPTS_MODE);
 137              		.loc 1 158 0
 138 007a 46F28E43 		movw	r3, #:lower16:1073767566
 139 007e C4F20003 		movt	r3, #:upper16:1073767566
 140 0082 4FF00002 		mov	r2, #0
 141 0086 1A70     		strb	r2, [r3, #0]
 159:.\Generated_Source\PSoC5/PwmPiezo.c ****     #endif
 160:.\Generated_Source\PSoC5/PwmPiezo.c ****         
 161:.\Generated_Source\PSoC5/PwmPiezo.c ****     #if (PwmPiezo_UsingFixedFunction)
 162:.\Generated_Source\PSoC5/PwmPiezo.c ****         /* Globally Enable the Fixed Function Block chosen */
 163:.\Generated_Source\PSoC5/PwmPiezo.c ****         PwmPiezo_GLOBAL_ENABLE |= PwmPiezo_BLOCK_EN_MASK;
 164:.\Generated_Source\PSoC5/PwmPiezo.c ****         /* Set the Interrupt source to come from the status register */
 165:.\Generated_Source\PSoC5/PwmPiezo.c ****         PwmPiezo_CONTROL2 |= PwmPiezo_CTRL2_IRQ_SEL;
 166:.\Generated_Source\PSoC5/PwmPiezo.c ****     #else
 167:.\Generated_Source\PSoC5/PwmPiezo.c ****         #if(PwmPiezo_UseStatus)
 168:.\Generated_Source\PSoC5/PwmPiezo.c ****             
 169:.\Generated_Source\PSoC5/PwmPiezo.c ****             /* CyEnterCriticalRegion and CyExitCriticalRegion are used to mark following region cri
 170:.\Generated_Source\PSoC5/PwmPiezo.c ****             /* Enter Critical Region*/
 171:.\Generated_Source\PSoC5/PwmPiezo.c ****             PwmPiezo_interruptState = CyEnterCriticalSection();
 142              		.loc 1 171 0
 143 0088 FFF7FEFF 		bl	CyEnterCriticalSection
 144 008c 0346     		mov	r3, r0
 145 008e FB71     		strb	r3, [r7, #7]
 172:.\Generated_Source\PSoC5/PwmPiezo.c ****             /* Use the interrupt output of the status register for IRQ output */
 173:.\Generated_Source\PSoC5/PwmPiezo.c ****             PwmPiezo_STATUS_AUX_CTRL |= PwmPiezo_STATUS_ACTL_INT_EN_MASK;
 146              		.loc 1 173 0
 147 0090 46F29E43 		movw	r3, #:lower16:1073767582
 148 0094 C4F20003 		movt	r3, #:upper16:1073767582
 149 0098 46F29E42 		movw	r2, #:lower16:1073767582
 150 009c C4F20002 		movt	r2, #:upper16:1073767582
 151 00a0 1278     		ldrb	r2, [r2, #0]
 152 00a2 D2B2     		uxtb	r2, r2
 153 00a4 42F01002 		orr	r2, r2, #16
 154 00a8 D2B2     		uxtb	r2, r2
 155 00aa 1A70     		strb	r2, [r3, #0]
 174:.\Generated_Source\PSoC5/PwmPiezo.c ****             
 175:.\Generated_Source\PSoC5/PwmPiezo.c ****              /* Exit Critical Region*/
 176:.\Generated_Source\PSoC5/PwmPiezo.c ****             CyExitCriticalSection(PwmPiezo_interruptState);
 156              		.loc 1 176 0
 157 00ac FB79     		ldrb	r3, [r7, #7]	@ zero_extendqisi2
 158 00ae 1846     		mov	r0, r3
 159 00b0 FFF7FEFF 		bl	CyExitCriticalSection
 177:.\Generated_Source\PSoC5/PwmPiezo.c ****             
 178:.\Generated_Source\PSoC5/PwmPiezo.c ****             /* Clear the FIFO to enable the PwmPiezo_STATUS_FIFOFULL
 179:.\Generated_Source\PSoC5/PwmPiezo.c ****                    bit to be set on FIFO full. */
ARM GAS  C:\Users\Geo\AppData\Local\Temp\cc4G7ue8.s 			page 7


 180:.\Generated_Source\PSoC5/PwmPiezo.c ****             PwmPiezo_ClearFIFO();
 160              		.loc 1 180 0
 161 00b4 FFF7FEFF 		bl	PwmPiezo_ClearFIFO
 181:.\Generated_Source\PSoC5/PwmPiezo.c ****         #endif
 182:.\Generated_Source\PSoC5/PwmPiezo.c ****     #endif
 183:.\Generated_Source\PSoC5/PwmPiezo.c **** }
 162              		.loc 1 183 0
 163 00b8 07F10807 		add	r7, r7, #8
 164 00bc BD46     		mov	sp, r7
 165 00be 80BD     		pop	{r7, pc}
 166              		.cfi_endproc
 167              	.LFE1:
 168              		.size	PwmPiezo_Init, .-PwmPiezo_Init
 169              		.section	.text.PwmPiezo_Enable,"ax",%progbits
 170              		.align	2
 171              		.global	PwmPiezo_Enable
 172              		.thumb
 173              		.thumb_func
 174              		.type	PwmPiezo_Enable, %function
 175              	PwmPiezo_Enable:
 176              	.LFB2:
 184:.\Generated_Source\PSoC5/PwmPiezo.c **** 
 185:.\Generated_Source\PSoC5/PwmPiezo.c **** 
 186:.\Generated_Source\PSoC5/PwmPiezo.c **** /*******************************************************************************
 187:.\Generated_Source\PSoC5/PwmPiezo.c **** * Function Name: PwmPiezo_Enable
 188:.\Generated_Source\PSoC5/PwmPiezo.c **** ********************************************************************************
 189:.\Generated_Source\PSoC5/PwmPiezo.c **** *
 190:.\Generated_Source\PSoC5/PwmPiezo.c **** * Summary: 
 191:.\Generated_Source\PSoC5/PwmPiezo.c **** *  Enables the PWM block operation
 192:.\Generated_Source\PSoC5/PwmPiezo.c **** *
 193:.\Generated_Source\PSoC5/PwmPiezo.c **** * Parameters:  
 194:.\Generated_Source\PSoC5/PwmPiezo.c **** *  void
 195:.\Generated_Source\PSoC5/PwmPiezo.c **** *
 196:.\Generated_Source\PSoC5/PwmPiezo.c **** * Return: 
 197:.\Generated_Source\PSoC5/PwmPiezo.c **** *  void
 198:.\Generated_Source\PSoC5/PwmPiezo.c **** *
 199:.\Generated_Source\PSoC5/PwmPiezo.c **** * Side Effects: 
 200:.\Generated_Source\PSoC5/PwmPiezo.c **** *  This works only if software enable mode is chosen
 201:.\Generated_Source\PSoC5/PwmPiezo.c **** *
 202:.\Generated_Source\PSoC5/PwmPiezo.c **** * Reentrant:
 203:.\Generated_Source\PSoC5/PwmPiezo.c **** *  Yes
 204:.\Generated_Source\PSoC5/PwmPiezo.c **** *
 205:.\Generated_Source\PSoC5/PwmPiezo.c **** *******************************************************************************/
 206:.\Generated_Source\PSoC5/PwmPiezo.c **** void PwmPiezo_Enable(void) 
 207:.\Generated_Source\PSoC5/PwmPiezo.c **** {
 177              		.loc 1 207 0
 178              		.cfi_startproc
 179              		@ args = 0, pretend = 0, frame = 0
 180              		@ frame_needed = 1, uses_anonymous_args = 0
 181              		@ link register save eliminated.
 182 0000 80B4     		push	{r7}
 183              	.LCFI5:
 184              		.cfi_def_cfa_offset 4
 185 0002 00AF     		add	r7, sp, #0
 186              		.cfi_offset 7, -4
 187              	.LCFI6:
 188              		.cfi_def_cfa_register 7
ARM GAS  C:\Users\Geo\AppData\Local\Temp\cc4G7ue8.s 			page 8


 208:.\Generated_Source\PSoC5/PwmPiezo.c ****     /* Globally Enable the Fixed Function Block chosen */
 209:.\Generated_Source\PSoC5/PwmPiezo.c ****     #if (PwmPiezo_UsingFixedFunction)
 210:.\Generated_Source\PSoC5/PwmPiezo.c ****         PwmPiezo_GLOBAL_ENABLE |= PwmPiezo_BLOCK_EN_MASK;
 211:.\Generated_Source\PSoC5/PwmPiezo.c ****         PwmPiezo_GLOBAL_STBY_ENABLE |= PwmPiezo_BLOCK_STBY_EN_MASK;
 212:.\Generated_Source\PSoC5/PwmPiezo.c ****     #endif 
 213:.\Generated_Source\PSoC5/PwmPiezo.c ****     
 214:.\Generated_Source\PSoC5/PwmPiezo.c ****     /* Enable the PWM from the control register  */
 215:.\Generated_Source\PSoC5/PwmPiezo.c ****     #if (PwmPiezo_UseControl || PwmPiezo_UsingFixedFunction)
 216:.\Generated_Source\PSoC5/PwmPiezo.c ****         PwmPiezo_CONTROL |= PwmPiezo_CTRL_ENABLE;
 189              		.loc 1 216 0
 190 0004 46F27E43 		movw	r3, #:lower16:1073767550
 191 0008 C4F20003 		movt	r3, #:upper16:1073767550
 192 000c 46F27E42 		movw	r2, #:lower16:1073767550
 193 0010 C4F20002 		movt	r2, #:upper16:1073767550
 194 0014 1278     		ldrb	r2, [r2, #0]
 195 0016 D2B2     		uxtb	r2, r2
 196 0018 6FEA4262 		mvn	r2, r2, lsl #25
 197 001c 6FEA5262 		mvn	r2, r2, lsr #25
 198 0020 D2B2     		uxtb	r2, r2
 199 0022 1A70     		strb	r2, [r3, #0]
 217:.\Generated_Source\PSoC5/PwmPiezo.c ****     #endif
 218:.\Generated_Source\PSoC5/PwmPiezo.c **** }
 200              		.loc 1 218 0
 201 0024 BD46     		mov	sp, r7
 202 0026 80BC     		pop	{r7}
 203 0028 7047     		bx	lr
 204              		.cfi_endproc
 205              	.LFE2:
 206              		.size	PwmPiezo_Enable, .-PwmPiezo_Enable
 207 002a 00BF     		.section	.text.PwmPiezo_Stop,"ax",%progbits
 208              		.align	2
 209              		.global	PwmPiezo_Stop
 210              		.thumb
 211              		.thumb_func
 212              		.type	PwmPiezo_Stop, %function
 213              	PwmPiezo_Stop:
 214              	.LFB3:
 219:.\Generated_Source\PSoC5/PwmPiezo.c **** 
 220:.\Generated_Source\PSoC5/PwmPiezo.c **** 
 221:.\Generated_Source\PSoC5/PwmPiezo.c **** /*******************************************************************************
 222:.\Generated_Source\PSoC5/PwmPiezo.c **** * Function Name: PwmPiezo_Stop
 223:.\Generated_Source\PSoC5/PwmPiezo.c **** ********************************************************************************
 224:.\Generated_Source\PSoC5/PwmPiezo.c **** *
 225:.\Generated_Source\PSoC5/PwmPiezo.c **** * Summary:
 226:.\Generated_Source\PSoC5/PwmPiezo.c **** *  The stop function halts the PWM, but does not change any modes or disable
 227:.\Generated_Source\PSoC5/PwmPiezo.c **** *  interrupts.
 228:.\Generated_Source\PSoC5/PwmPiezo.c **** *
 229:.\Generated_Source\PSoC5/PwmPiezo.c **** * Parameters:  
 230:.\Generated_Source\PSoC5/PwmPiezo.c **** *  void  
 231:.\Generated_Source\PSoC5/PwmPiezo.c **** *
 232:.\Generated_Source\PSoC5/PwmPiezo.c **** * Return: 
 233:.\Generated_Source\PSoC5/PwmPiezo.c **** *  void
 234:.\Generated_Source\PSoC5/PwmPiezo.c **** *
 235:.\Generated_Source\PSoC5/PwmPiezo.c **** * Side Effects:
 236:.\Generated_Source\PSoC5/PwmPiezo.c **** *  If the Enable mode is set to Hardware only then this function
 237:.\Generated_Source\PSoC5/PwmPiezo.c **** *  has no effect on the operation of the PWM
 238:.\Generated_Source\PSoC5/PwmPiezo.c **** *
ARM GAS  C:\Users\Geo\AppData\Local\Temp\cc4G7ue8.s 			page 9


 239:.\Generated_Source\PSoC5/PwmPiezo.c **** * Reentrant:
 240:.\Generated_Source\PSoC5/PwmPiezo.c **** *  Yes
 241:.\Generated_Source\PSoC5/PwmPiezo.c **** *
 242:.\Generated_Source\PSoC5/PwmPiezo.c **** *******************************************************************************/
 243:.\Generated_Source\PSoC5/PwmPiezo.c **** void PwmPiezo_Stop(void) 
 244:.\Generated_Source\PSoC5/PwmPiezo.c **** {
 215              		.loc 1 244 0
 216              		.cfi_startproc
 217              		@ args = 0, pretend = 0, frame = 0
 218              		@ frame_needed = 1, uses_anonymous_args = 0
 219              		@ link register save eliminated.
 220 0000 80B4     		push	{r7}
 221              	.LCFI7:
 222              		.cfi_def_cfa_offset 4
 223 0002 00AF     		add	r7, sp, #0
 224              		.cfi_offset 7, -4
 225              	.LCFI8:
 226              		.cfi_def_cfa_register 7
 245:.\Generated_Source\PSoC5/PwmPiezo.c ****     #if (PwmPiezo_UseControl || PwmPiezo_UsingFixedFunction)
 246:.\Generated_Source\PSoC5/PwmPiezo.c ****         PwmPiezo_CONTROL &= ~PwmPiezo_CTRL_ENABLE;
 227              		.loc 1 246 0
 228 0004 46F27E43 		movw	r3, #:lower16:1073767550
 229 0008 C4F20003 		movt	r3, #:upper16:1073767550
 230 000c 46F27E42 		movw	r2, #:lower16:1073767550
 231 0010 C4F20002 		movt	r2, #:upper16:1073767550
 232 0014 1278     		ldrb	r2, [r2, #0]
 233 0016 D2B2     		uxtb	r2, r2
 234 0018 02F07F02 		and	r2, r2, #127
 235 001c 1A70     		strb	r2, [r3, #0]
 247:.\Generated_Source\PSoC5/PwmPiezo.c ****     #endif
 248:.\Generated_Source\PSoC5/PwmPiezo.c ****     
 249:.\Generated_Source\PSoC5/PwmPiezo.c ****     /* Globally disable the Fixed Function Block chosen */
 250:.\Generated_Source\PSoC5/PwmPiezo.c ****     #if (PwmPiezo_UsingFixedFunction)
 251:.\Generated_Source\PSoC5/PwmPiezo.c ****         PwmPiezo_GLOBAL_ENABLE &= ~PwmPiezo_BLOCK_EN_MASK;
 252:.\Generated_Source\PSoC5/PwmPiezo.c ****         PwmPiezo_GLOBAL_STBY_ENABLE &= ~PwmPiezo_BLOCK_STBY_EN_MASK;
 253:.\Generated_Source\PSoC5/PwmPiezo.c ****     #endif
 254:.\Generated_Source\PSoC5/PwmPiezo.c **** }
 236              		.loc 1 254 0
 237 001e BD46     		mov	sp, r7
 238 0020 80BC     		pop	{r7}
 239 0022 7047     		bx	lr
 240              		.cfi_endproc
 241              	.LFE3:
 242              		.size	PwmPiezo_Stop, .-PwmPiezo_Stop
 243              		.section	.text.PwmPiezo_WriteCounter,"ax",%progbits
 244              		.align	2
 245              		.global	PwmPiezo_WriteCounter
 246              		.thumb
 247              		.thumb_func
 248              		.type	PwmPiezo_WriteCounter, %function
 249              	PwmPiezo_WriteCounter:
 250              	.LFB4:
 255:.\Generated_Source\PSoC5/PwmPiezo.c **** 
 256:.\Generated_Source\PSoC5/PwmPiezo.c **** 
 257:.\Generated_Source\PSoC5/PwmPiezo.c **** #if (PwmPiezo_UseOneCompareMode)
 258:.\Generated_Source\PSoC5/PwmPiezo.c **** #if (PwmPiezo_CompareMode1SW)
 259:.\Generated_Source\PSoC5/PwmPiezo.c **** /*******************************************************************************
ARM GAS  C:\Users\Geo\AppData\Local\Temp\cc4G7ue8.s 			page 10


 260:.\Generated_Source\PSoC5/PwmPiezo.c **** * Function Name: PwmPiezo_SetCompareMode
 261:.\Generated_Source\PSoC5/PwmPiezo.c **** ********************************************************************************
 262:.\Generated_Source\PSoC5/PwmPiezo.c **** * 
 263:.\Generated_Source\PSoC5/PwmPiezo.c **** * Summary:
 264:.\Generated_Source\PSoC5/PwmPiezo.c **** *  This function writes the Compare Mode for the pwm output when in Dither mode,
 265:.\Generated_Source\PSoC5/PwmPiezo.c **** *  Center Align Mode or One Output Mode.
 266:.\Generated_Source\PSoC5/PwmPiezo.c **** *
 267:.\Generated_Source\PSoC5/PwmPiezo.c **** * Parameters:
 268:.\Generated_Source\PSoC5/PwmPiezo.c **** *  comparemode:  The new compare mode for the PWM output. Use the compare types
 269:.\Generated_Source\PSoC5/PwmPiezo.c **** *                defined in the H file as input arguments.
 270:.\Generated_Source\PSoC5/PwmPiezo.c **** *
 271:.\Generated_Source\PSoC5/PwmPiezo.c **** * Return:
 272:.\Generated_Source\PSoC5/PwmPiezo.c **** *  void
 273:.\Generated_Source\PSoC5/PwmPiezo.c **** *
 274:.\Generated_Source\PSoC5/PwmPiezo.c **** * Reentrant:
 275:.\Generated_Source\PSoC5/PwmPiezo.c **** *  Yes
 276:.\Generated_Source\PSoC5/PwmPiezo.c **** *
 277:.\Generated_Source\PSoC5/PwmPiezo.c **** *******************************************************************************/
 278:.\Generated_Source\PSoC5/PwmPiezo.c **** void PwmPiezo_SetCompareMode(uint8 comparemode) 
 279:.\Generated_Source\PSoC5/PwmPiezo.c **** {
 280:.\Generated_Source\PSoC5/PwmPiezo.c ****     #if(PwmPiezo_UsingFixedFunction)
 281:.\Generated_Source\PSoC5/PwmPiezo.c ****             #if(PwmPiezo_PSOC3_ES2 || PwmPiezo_PSOC5_ES1)
 282:.\Generated_Source\PSoC5/PwmPiezo.c ****                         uint8 comparemodemasked = (comparemode << PwmPiezo_CTRL_CMPMODE1_SHIFT);
 283:.\Generated_Source\PSoC5/PwmPiezo.c ****                         PwmPiezo_CONTROL2 &= ~PwmPiezo_CTRL_CMPMODE1_MASK; /*Clear Existing Data */
 284:.\Generated_Source\PSoC5/PwmPiezo.c ****                         PwmPiezo_CONTROL2 |= comparemodemasked;  
 285:.\Generated_Source\PSoC5/PwmPiezo.c ****                 #endif
 286:.\Generated_Source\PSoC5/PwmPiezo.c ****                 
 287:.\Generated_Source\PSoC5/PwmPiezo.c ****             #if(PwmPiezo_PSOC3_ES3 || PwmPiezo_PSOC5_ES2)
 288:.\Generated_Source\PSoC5/PwmPiezo.c ****                     uint8 comparemodemasked = (comparemode << PwmPiezo_CTRL_CMPMODE1_SHIFT);
 289:.\Generated_Source\PSoC5/PwmPiezo.c ****             PwmPiezo_CONTROL3 &= ~PwmPiezo_CTRL_CMPMODE1_MASK; /*Clear Existing Data */
 290:.\Generated_Source\PSoC5/PwmPiezo.c ****             PwmPiezo_CONTROL3 |= comparemodemasked;     
 291:.\Generated_Source\PSoC5/PwmPiezo.c ****                 #endif
 292:.\Generated_Source\PSoC5/PwmPiezo.c ****                 
 293:.\Generated_Source\PSoC5/PwmPiezo.c ****     #elif (PwmPiezo_UseControl)
 294:.\Generated_Source\PSoC5/PwmPiezo.c ****         uint8 comparemode1masked = (comparemode << PwmPiezo_CTRL_CMPMODE1_SHIFT) & PwmPiezo_CTRL_CM
 295:.\Generated_Source\PSoC5/PwmPiezo.c ****         uint8 comparemode2masked = (comparemode << PwmPiezo_CTRL_CMPMODE2_SHIFT) & PwmPiezo_CTRL_CM
 296:.\Generated_Source\PSoC5/PwmPiezo.c ****         PwmPiezo_CONTROL &= ~(PwmPiezo_CTRL_CMPMODE1_MASK | PwmPiezo_CTRL_CMPMODE2_MASK); /*Clear e
 297:.\Generated_Source\PSoC5/PwmPiezo.c ****         PwmPiezo_CONTROL |= (comparemode1masked | comparemode2masked);
 298:.\Generated_Source\PSoC5/PwmPiezo.c ****         
 299:.\Generated_Source\PSoC5/PwmPiezo.c ****     #else
 300:.\Generated_Source\PSoC5/PwmPiezo.c ****         uint8 temp = comparemode;
 301:.\Generated_Source\PSoC5/PwmPiezo.c ****     #endif
 302:.\Generated_Source\PSoC5/PwmPiezo.c **** }
 303:.\Generated_Source\PSoC5/PwmPiezo.c **** #endif /* PwmPiezo_CompareMode1SW */
 304:.\Generated_Source\PSoC5/PwmPiezo.c **** 
 305:.\Generated_Source\PSoC5/PwmPiezo.c **** #else /* UseOneCompareMode */
 306:.\Generated_Source\PSoC5/PwmPiezo.c **** 
 307:.\Generated_Source\PSoC5/PwmPiezo.c **** 
 308:.\Generated_Source\PSoC5/PwmPiezo.c **** #if (PwmPiezo_CompareMode1SW)
 309:.\Generated_Source\PSoC5/PwmPiezo.c **** /*******************************************************************************
 310:.\Generated_Source\PSoC5/PwmPiezo.c **** * Function Name: PwmPiezo_SetCompareMode1
 311:.\Generated_Source\PSoC5/PwmPiezo.c **** ********************************************************************************
 312:.\Generated_Source\PSoC5/PwmPiezo.c **** * 
 313:.\Generated_Source\PSoC5/PwmPiezo.c **** * Summary:
 314:.\Generated_Source\PSoC5/PwmPiezo.c **** *  This function writes the Compare Mode for the pwm or pwm1 output
 315:.\Generated_Source\PSoC5/PwmPiezo.c **** *
 316:.\Generated_Source\PSoC5/PwmPiezo.c **** * Parameters:  
ARM GAS  C:\Users\Geo\AppData\Local\Temp\cc4G7ue8.s 			page 11


 317:.\Generated_Source\PSoC5/PwmPiezo.c **** *  comparemode:  The new compare mode for the PWM output. Use the compare types
 318:.\Generated_Source\PSoC5/PwmPiezo.c **** *                defined in the H file as input arguments.
 319:.\Generated_Source\PSoC5/PwmPiezo.c **** *
 320:.\Generated_Source\PSoC5/PwmPiezo.c **** * Return: 
 321:.\Generated_Source\PSoC5/PwmPiezo.c **** *  void
 322:.\Generated_Source\PSoC5/PwmPiezo.c **** *
 323:.\Generated_Source\PSoC5/PwmPiezo.c **** * Reentrant:
 324:.\Generated_Source\PSoC5/PwmPiezo.c **** *  Yes
 325:.\Generated_Source\PSoC5/PwmPiezo.c **** *
 326:.\Generated_Source\PSoC5/PwmPiezo.c **** *******************************************************************************/
 327:.\Generated_Source\PSoC5/PwmPiezo.c **** void PwmPiezo_SetCompareMode1(uint8 comparemode) 
 328:.\Generated_Source\PSoC5/PwmPiezo.c **** {
 329:.\Generated_Source\PSoC5/PwmPiezo.c ****     uint8 comparemodemasked = (comparemode << PwmPiezo_CTRL_CMPMODE1_SHIFT) & PwmPiezo_CTRL_CMPMODE
 330:.\Generated_Source\PSoC5/PwmPiezo.c ****     #if(PwmPiezo_UsingFixedFunction)
 331:.\Generated_Source\PSoC5/PwmPiezo.c ****             #if(PwmPiezo_PSOC3_ES2 || PwmPiezo_PSOC5_ES1)
 332:.\Generated_Source\PSoC5/PwmPiezo.c ****                         PwmPiezo_CONTROL2 &= PwmPiezo_CTRL_CMPMODE1_MASK; /*Clear existing mode */
 333:.\Generated_Source\PSoC5/PwmPiezo.c ****                         PwmPiezo_CONTROL2 |= comparemodemasked; 
 334:.\Generated_Source\PSoC5/PwmPiezo.c ****             #endif
 335:.\Generated_Source\PSoC5/PwmPiezo.c ****                 
 336:.\Generated_Source\PSoC5/PwmPiezo.c ****                 #if(PwmPiezo_PSOC3_ES3 || PwmPiezo_PSOC5_ES2)
 337:.\Generated_Source\PSoC5/PwmPiezo.c ****                     PwmPiezo_CONTROL3 &= PwmPiezo_CTRL_CMPMODE1_MASK; /*Clear existing mode */
 338:.\Generated_Source\PSoC5/PwmPiezo.c ****                         PwmPiezo_CONTROL3 |= comparemodemasked; 
 339:.\Generated_Source\PSoC5/PwmPiezo.c ****             #endif
 340:.\Generated_Source\PSoC5/PwmPiezo.c ****                 
 341:.\Generated_Source\PSoC5/PwmPiezo.c ****     #elif (PwmPiezo_UseControl)
 342:.\Generated_Source\PSoC5/PwmPiezo.c ****         PwmPiezo_CONTROL &= PwmPiezo_CTRL_CMPMODE1_MASK; /*Clear existing mode */
 343:.\Generated_Source\PSoC5/PwmPiezo.c ****         PwmPiezo_CONTROL |= comparemodemasked;
 344:.\Generated_Source\PSoC5/PwmPiezo.c ****     #endif    
 345:.\Generated_Source\PSoC5/PwmPiezo.c **** }
 346:.\Generated_Source\PSoC5/PwmPiezo.c **** #endif /* PwmPiezo_CompareMode1SW */
 347:.\Generated_Source\PSoC5/PwmPiezo.c **** 
 348:.\Generated_Source\PSoC5/PwmPiezo.c **** 
 349:.\Generated_Source\PSoC5/PwmPiezo.c **** #if (PwmPiezo_CompareMode2SW)
 350:.\Generated_Source\PSoC5/PwmPiezo.c **** /*******************************************************************************
 351:.\Generated_Source\PSoC5/PwmPiezo.c **** * Function Name: PwmPiezo_SetCompareMode2
 352:.\Generated_Source\PSoC5/PwmPiezo.c **** ********************************************************************************
 353:.\Generated_Source\PSoC5/PwmPiezo.c **** * 
 354:.\Generated_Source\PSoC5/PwmPiezo.c **** * Summary:
 355:.\Generated_Source\PSoC5/PwmPiezo.c **** *  This function writes the Compare Mode for the pwm or pwm2 output
 356:.\Generated_Source\PSoC5/PwmPiezo.c **** *
 357:.\Generated_Source\PSoC5/PwmPiezo.c **** * Parameters:  
 358:.\Generated_Source\PSoC5/PwmPiezo.c **** *  comparemode:  The new compare mode for the PWM output. Use the compare types
 359:.\Generated_Source\PSoC5/PwmPiezo.c **** *                defined in the H file as input arguments.
 360:.\Generated_Source\PSoC5/PwmPiezo.c **** *
 361:.\Generated_Source\PSoC5/PwmPiezo.c **** * Return: 
 362:.\Generated_Source\PSoC5/PwmPiezo.c **** *  void
 363:.\Generated_Source\PSoC5/PwmPiezo.c **** *
 364:.\Generated_Source\PSoC5/PwmPiezo.c **** * Reentrant:
 365:.\Generated_Source\PSoC5/PwmPiezo.c **** *  Yes
 366:.\Generated_Source\PSoC5/PwmPiezo.c **** *
 367:.\Generated_Source\PSoC5/PwmPiezo.c **** *******************************************************************************/
 368:.\Generated_Source\PSoC5/PwmPiezo.c **** void PwmPiezo_SetCompareMode2(uint8 comparemode) 
 369:.\Generated_Source\PSoC5/PwmPiezo.c **** {
 370:.\Generated_Source\PSoC5/PwmPiezo.c ****     #if(PwmPiezo_UsingFixedFunction)
 371:.\Generated_Source\PSoC5/PwmPiezo.c ****         /* Do Nothing because there is no second Compare Mode Register in FF block*/ 
 372:.\Generated_Source\PSoC5/PwmPiezo.c ****     #elif (PwmPiezo_UseControl)
 373:.\Generated_Source\PSoC5/PwmPiezo.c ****     uint8 comparemodemasked = (comparemode << PwmPiezo_CTRL_CMPMODE2_SHIFT) & PwmPiezo_CTRL_CMPMODE
ARM GAS  C:\Users\Geo\AppData\Local\Temp\cc4G7ue8.s 			page 12


 374:.\Generated_Source\PSoC5/PwmPiezo.c ****     PwmPiezo_CONTROL &= PwmPiezo_CTRL_CMPMODE2_MASK; /*Clear existing mode */
 375:.\Generated_Source\PSoC5/PwmPiezo.c ****     PwmPiezo_CONTROL |= comparemodemasked;
 376:.\Generated_Source\PSoC5/PwmPiezo.c ****     #endif    
 377:.\Generated_Source\PSoC5/PwmPiezo.c **** }
 378:.\Generated_Source\PSoC5/PwmPiezo.c **** #endif /*PwmPiezo_CompareMode2SW */
 379:.\Generated_Source\PSoC5/PwmPiezo.c **** #endif /* UseOneCompareMode */
 380:.\Generated_Source\PSoC5/PwmPiezo.c **** 
 381:.\Generated_Source\PSoC5/PwmPiezo.c **** 
 382:.\Generated_Source\PSoC5/PwmPiezo.c **** /*******************************************************************************
 383:.\Generated_Source\PSoC5/PwmPiezo.c **** * Function Name: PwmPiezo_WriteCounter
 384:.\Generated_Source\PSoC5/PwmPiezo.c **** ********************************************************************************
 385:.\Generated_Source\PSoC5/PwmPiezo.c **** * 
 386:.\Generated_Source\PSoC5/PwmPiezo.c **** * Summary:
 387:.\Generated_Source\PSoC5/PwmPiezo.c **** *  This function is used to change the counter value.
 388:.\Generated_Source\PSoC5/PwmPiezo.c **** *
 389:.\Generated_Source\PSoC5/PwmPiezo.c **** * Parameters:  
 390:.\Generated_Source\PSoC5/PwmPiezo.c **** *  counter:  This value may be between 1 and (2^Resolution)-1.   
 391:.\Generated_Source\PSoC5/PwmPiezo.c **** *
 392:.\Generated_Source\PSoC5/PwmPiezo.c **** * Return: 
 393:.\Generated_Source\PSoC5/PwmPiezo.c **** *  void
 394:.\Generated_Source\PSoC5/PwmPiezo.c **** *
 395:.\Generated_Source\PSoC5/PwmPiezo.c **** * Reentrant:
 396:.\Generated_Source\PSoC5/PwmPiezo.c **** *  Yes
 397:.\Generated_Source\PSoC5/PwmPiezo.c **** *
 398:.\Generated_Source\PSoC5/PwmPiezo.c **** *******************************************************************************/
 399:.\Generated_Source\PSoC5/PwmPiezo.c **** void PwmPiezo_WriteCounter(uint16 counter) 
 400:.\Generated_Source\PSoC5/PwmPiezo.c **** {
 251              		.loc 1 400 0
 252              		.cfi_startproc
 253              		@ args = 0, pretend = 0, frame = 8
 254              		@ frame_needed = 1, uses_anonymous_args = 0
 255              		@ link register save eliminated.
 256 0000 80B4     		push	{r7}
 257              	.LCFI9:
 258              		.cfi_def_cfa_offset 4
 259 0002 83B0     		sub	sp, sp, #12
 260              	.LCFI10:
 261              		.cfi_def_cfa_offset 16
 262 0004 00AF     		add	r7, sp, #0
 263              		.cfi_offset 7, -4
 264              	.LCFI11:
 265              		.cfi_def_cfa_register 7
 266 0006 0346     		mov	r3, r0
 267 0008 FB80     		strh	r3, [r7, #6]	@ movhi
 401:.\Generated_Source\PSoC5/PwmPiezo.c ****     #if(PwmPiezo_UsingFixedFunction)
 402:.\Generated_Source\PSoC5/PwmPiezo.c ****         CY_SET_REG16(PwmPiezo_COUNTER_LSB_PTR, (uint16)counter);
 403:.\Generated_Source\PSoC5/PwmPiezo.c ****     #else
 404:.\Generated_Source\PSoC5/PwmPiezo.c ****         CY_SET_REG16(PwmPiezo_COUNTER_LSB_PTR, counter);
 268              		.loc 1 404 0
 269 000a 46F20D43 		movw	r3, #:lower16:1073767437
 270 000e C4F20003 		movt	r3, #:upper16:1073767437
 271 0012 FA88     		ldrh	r2, [r7, #6]	@ movhi
 272 0014 1A80     		strh	r2, [r3, #0]	@ movhi
 405:.\Generated_Source\PSoC5/PwmPiezo.c ****     #endif
 406:.\Generated_Source\PSoC5/PwmPiezo.c **** }
 273              		.loc 1 406 0
 274 0016 07F10C07 		add	r7, r7, #12
ARM GAS  C:\Users\Geo\AppData\Local\Temp\cc4G7ue8.s 			page 13


 275 001a BD46     		mov	sp, r7
 276 001c 80BC     		pop	{r7}
 277 001e 7047     		bx	lr
 278              		.cfi_endproc
 279              	.LFE4:
 280              		.size	PwmPiezo_WriteCounter, .-PwmPiezo_WriteCounter
 281              		.section	.text.PwmPiezo_ReadCounter,"ax",%progbits
 282              		.align	2
 283              		.global	PwmPiezo_ReadCounter
 284              		.thumb
 285              		.thumb_func
 286              		.type	PwmPiezo_ReadCounter, %function
 287              	PwmPiezo_ReadCounter:
 288              	.LFB5:
 407:.\Generated_Source\PSoC5/PwmPiezo.c **** 
 408:.\Generated_Source\PSoC5/PwmPiezo.c **** 
 409:.\Generated_Source\PSoC5/PwmPiezo.c **** #if (!PwmPiezo_UsingFixedFunction)
 410:.\Generated_Source\PSoC5/PwmPiezo.c **** /*******************************************************************************
 411:.\Generated_Source\PSoC5/PwmPiezo.c **** * Function Name: PwmPiezo_ReadCounter
 412:.\Generated_Source\PSoC5/PwmPiezo.c **** ********************************************************************************
 413:.\Generated_Source\PSoC5/PwmPiezo.c **** * 
 414:.\Generated_Source\PSoC5/PwmPiezo.c **** * Summary:
 415:.\Generated_Source\PSoC5/PwmPiezo.c **** *  This function returns the current value of the counter.  It doesn't matter
 416:.\Generated_Source\PSoC5/PwmPiezo.c **** *  if the counter is enabled or running.
 417:.\Generated_Source\PSoC5/PwmPiezo.c **** *
 418:.\Generated_Source\PSoC5/PwmPiezo.c **** * Parameters:  
 419:.\Generated_Source\PSoC5/PwmPiezo.c **** *  void  
 420:.\Generated_Source\PSoC5/PwmPiezo.c **** *
 421:.\Generated_Source\PSoC5/PwmPiezo.c **** * Return: 
 422:.\Generated_Source\PSoC5/PwmPiezo.c **** *  The current value of the counter.
 423:.\Generated_Source\PSoC5/PwmPiezo.c **** *
 424:.\Generated_Source\PSoC5/PwmPiezo.c **** * Reentrant:
 425:.\Generated_Source\PSoC5/PwmPiezo.c **** *  Yes
 426:.\Generated_Source\PSoC5/PwmPiezo.c **** *
 427:.\Generated_Source\PSoC5/PwmPiezo.c **** *******************************************************************************/
 428:.\Generated_Source\PSoC5/PwmPiezo.c **** uint16 PwmPiezo_ReadCounter(void) 
 429:.\Generated_Source\PSoC5/PwmPiezo.c **** {
 289              		.loc 1 429 0
 290              		.cfi_startproc
 291              		@ args = 0, pretend = 0, frame = 0
 292              		@ frame_needed = 1, uses_anonymous_args = 0
 293              		@ link register save eliminated.
 294 0000 80B4     		push	{r7}
 295              	.LCFI12:
 296              		.cfi_def_cfa_offset 4
 297 0002 00AF     		add	r7, sp, #0
 298              		.cfi_offset 7, -4
 299              	.LCFI13:
 300              		.cfi_def_cfa_register 7
 430:.\Generated_Source\PSoC5/PwmPiezo.c ****     /* Force capture by reading Accumulator */
 431:.\Generated_Source\PSoC5/PwmPiezo.c ****     /* Must first do a software capture to be able to read the counter */
 432:.\Generated_Source\PSoC5/PwmPiezo.c ****     /* It is up to the user code to make sure there isn't already captured data in the FIFO */
 433:.\Generated_Source\PSoC5/PwmPiezo.c ****     CY_GET_REG8(PwmPiezo_COUNTERCAP_LSB_PTR);
 301              		.loc 1 433 0
 302 0004 46F21D43 		movw	r3, #:lower16:1073767453
 303 0008 C4F20003 		movt	r3, #:upper16:1073767453
 304 000c 1B78     		ldrb	r3, [r3, #0]
ARM GAS  C:\Users\Geo\AppData\Local\Temp\cc4G7ue8.s 			page 14


 434:.\Generated_Source\PSoC5/PwmPiezo.c ****     
 435:.\Generated_Source\PSoC5/PwmPiezo.c ****     /* Read the data from the FIFO (or capture register for Fixed Function)*/
 436:.\Generated_Source\PSoC5/PwmPiezo.c ****     return (CY_GET_REG16(PwmPiezo_CAPTURE_LSB_PTR));
 305              		.loc 1 436 0
 306 000e 46F25D43 		movw	r3, #:lower16:1073767517
 307 0012 C4F20003 		movt	r3, #:upper16:1073767517
 308 0016 1B88     		ldrh	r3, [r3, #0]	@ movhi
 309 0018 9BB2     		uxth	r3, r3
 437:.\Generated_Source\PSoC5/PwmPiezo.c **** }
 310              		.loc 1 437 0
 311 001a 1846     		mov	r0, r3
 312 001c BD46     		mov	sp, r7
 313 001e 80BC     		pop	{r7}
 314 0020 7047     		bx	lr
 315              		.cfi_endproc
 316              	.LFE5:
 317              		.size	PwmPiezo_ReadCounter, .-PwmPiezo_ReadCounter
 318 0022 00BF     		.section	.text.PwmPiezo_ClearFIFO,"ax",%progbits
 319              		.align	2
 320              		.global	PwmPiezo_ClearFIFO
 321              		.thumb
 322              		.thumb_func
 323              		.type	PwmPiezo_ClearFIFO, %function
 324              	PwmPiezo_ClearFIFO:
 325              	.LFB6:
 438:.\Generated_Source\PSoC5/PwmPiezo.c **** 
 439:.\Generated_Source\PSoC5/PwmPiezo.c **** 
 440:.\Generated_Source\PSoC5/PwmPiezo.c **** #if (PwmPiezo_UseStatus)
 441:.\Generated_Source\PSoC5/PwmPiezo.c **** /*******************************************************************************
 442:.\Generated_Source\PSoC5/PwmPiezo.c **** * Function Name: PwmPiezo_ClearFIFO
 443:.\Generated_Source\PSoC5/PwmPiezo.c **** ********************************************************************************
 444:.\Generated_Source\PSoC5/PwmPiezo.c **** * 
 445:.\Generated_Source\PSoC5/PwmPiezo.c **** * Summary:
 446:.\Generated_Source\PSoC5/PwmPiezo.c **** *  This function clears all capture data from the capture FIFO
 447:.\Generated_Source\PSoC5/PwmPiezo.c **** *
 448:.\Generated_Source\PSoC5/PwmPiezo.c **** * Parameters:  
 449:.\Generated_Source\PSoC5/PwmPiezo.c **** *  void
 450:.\Generated_Source\PSoC5/PwmPiezo.c **** *
 451:.\Generated_Source\PSoC5/PwmPiezo.c **** * Return: 
 452:.\Generated_Source\PSoC5/PwmPiezo.c **** *  void
 453:.\Generated_Source\PSoC5/PwmPiezo.c **** *
 454:.\Generated_Source\PSoC5/PwmPiezo.c **** * Reentrant:
 455:.\Generated_Source\PSoC5/PwmPiezo.c **** *  Yes
 456:.\Generated_Source\PSoC5/PwmPiezo.c **** *
 457:.\Generated_Source\PSoC5/PwmPiezo.c **** *******************************************************************************/
 458:.\Generated_Source\PSoC5/PwmPiezo.c **** void PwmPiezo_ClearFIFO(void) 
 459:.\Generated_Source\PSoC5/PwmPiezo.c **** {
 326              		.loc 1 459 0
 327              		.cfi_startproc
 328              		@ args = 0, pretend = 0, frame = 0
 329              		@ frame_needed = 1, uses_anonymous_args = 0
 330              		@ link register save eliminated.
 331 0000 80B4     		push	{r7}
 332              	.LCFI14:
 333              		.cfi_def_cfa_offset 4
 334 0002 00AF     		add	r7, sp, #0
 335              		.cfi_offset 7, -4
ARM GAS  C:\Users\Geo\AppData\Local\Temp\cc4G7ue8.s 			page 15


 336              	.LCFI15:
 337              		.cfi_def_cfa_register 7
 460:.\Generated_Source\PSoC5/PwmPiezo.c ****     while(PwmPiezo_ReadStatusRegister() & PwmPiezo_STATUS_FIFONEMPTY)
 338              		.loc 1 460 0
 339 0004 04E0     		b	.L15
 340              	.L16:
 461:.\Generated_Source\PSoC5/PwmPiezo.c ****         PwmPiezo_ReadCapture();
 341              		.loc 1 461 0
 342 0006 46F25D43 		movw	r3, #:lower16:1073767517
 343 000a C4F20003 		movt	r3, #:upper16:1073767517
 344 000e 1B88     		ldrh	r3, [r3, #0]	@ movhi
 345              	.L15:
 346              		.loc 1 460 0
 347 0010 46F26E43 		movw	r3, #:lower16:1073767534
 348 0014 C4F20003 		movt	r3, #:upper16:1073767534
 349 0018 1B78     		ldrb	r3, [r3, #0]
 350 001a DBB2     		uxtb	r3, r3
 351 001c 03F01003 		and	r3, r3, #16
 352 0020 002B     		cmp	r3, #0
 353 0022 F0D1     		bne	.L16
 462:.\Generated_Source\PSoC5/PwmPiezo.c **** }
 354              		.loc 1 462 0
 355 0024 BD46     		mov	sp, r7
 356 0026 80BC     		pop	{r7}
 357 0028 7047     		bx	lr
 358              		.cfi_endproc
 359              	.LFE6:
 360              		.size	PwmPiezo_ClearFIFO, .-PwmPiezo_ClearFIFO
 361 002a 00BF     		.section	.text.PwmPiezo_WritePeriod,"ax",%progbits
 362              		.align	2
 363              		.global	PwmPiezo_WritePeriod
 364              		.thumb
 365              		.thumb_func
 366              		.type	PwmPiezo_WritePeriod, %function
 367              	PwmPiezo_WritePeriod:
 368              	.LFB7:
 463:.\Generated_Source\PSoC5/PwmPiezo.c **** #endif /* PwmPiezo_UseStatus */
 464:.\Generated_Source\PSoC5/PwmPiezo.c **** #endif /* !PwmPiezo_UsingFixedFunction */
 465:.\Generated_Source\PSoC5/PwmPiezo.c **** 
 466:.\Generated_Source\PSoC5/PwmPiezo.c **** 
 467:.\Generated_Source\PSoC5/PwmPiezo.c **** /*******************************************************************************
 468:.\Generated_Source\PSoC5/PwmPiezo.c **** * Function Name: PwmPiezo_WritePeriod
 469:.\Generated_Source\PSoC5/PwmPiezo.c **** ********************************************************************************
 470:.\Generated_Source\PSoC5/PwmPiezo.c **** * 
 471:.\Generated_Source\PSoC5/PwmPiezo.c **** * Summary:
 472:.\Generated_Source\PSoC5/PwmPiezo.c **** *  This function is used to change the period of the counter.  The new period 
 473:.\Generated_Source\PSoC5/PwmPiezo.c **** *  will be loaded the next time terminal count is detected.
 474:.\Generated_Source\PSoC5/PwmPiezo.c **** *
 475:.\Generated_Source\PSoC5/PwmPiezo.c **** * Parameters:  
 476:.\Generated_Source\PSoC5/PwmPiezo.c **** *  period:  Period value. May be between 1 and (2^Resolution)-1.  A value of 0 
 477:.\Generated_Source\PSoC5/PwmPiezo.c **** *           will result in the counter remaining at zero.
 478:.\Generated_Source\PSoC5/PwmPiezo.c **** *
 479:.\Generated_Source\PSoC5/PwmPiezo.c **** * Return: 
 480:.\Generated_Source\PSoC5/PwmPiezo.c **** *  void
 481:.\Generated_Source\PSoC5/PwmPiezo.c **** *
 482:.\Generated_Source\PSoC5/PwmPiezo.c **** * Reentrant:
 483:.\Generated_Source\PSoC5/PwmPiezo.c **** *  Yes
ARM GAS  C:\Users\Geo\AppData\Local\Temp\cc4G7ue8.s 			page 16


 484:.\Generated_Source\PSoC5/PwmPiezo.c **** *
 485:.\Generated_Source\PSoC5/PwmPiezo.c **** *******************************************************************************/
 486:.\Generated_Source\PSoC5/PwmPiezo.c **** void PwmPiezo_WritePeriod(uint16 period) 
 487:.\Generated_Source\PSoC5/PwmPiezo.c **** {
 369              		.loc 1 487 0
 370              		.cfi_startproc
 371              		@ args = 0, pretend = 0, frame = 8
 372              		@ frame_needed = 1, uses_anonymous_args = 0
 373              		@ link register save eliminated.
 374 0000 80B4     		push	{r7}
 375              	.LCFI16:
 376              		.cfi_def_cfa_offset 4
 377 0002 83B0     		sub	sp, sp, #12
 378              	.LCFI17:
 379              		.cfi_def_cfa_offset 16
 380 0004 00AF     		add	r7, sp, #0
 381              		.cfi_offset 7, -4
 382              	.LCFI18:
 383              		.cfi_def_cfa_register 7
 384 0006 0346     		mov	r3, r0
 385 0008 FB80     		strh	r3, [r7, #6]	@ movhi
 488:.\Generated_Source\PSoC5/PwmPiezo.c ****     #if(PwmPiezo_UsingFixedFunction)
 489:.\Generated_Source\PSoC5/PwmPiezo.c ****         CY_SET_REG16(PwmPiezo_PERIOD_LSB_PTR, (uint16)period);
 490:.\Generated_Source\PSoC5/PwmPiezo.c ****     #else
 491:.\Generated_Source\PSoC5/PwmPiezo.c ****         CY_SET_REG16(PwmPiezo_PERIOD_LSB_PTR, period);
 386              		.loc 1 491 0
 387 000a 46F24D43 		movw	r3, #:lower16:1073767501
 388 000e C4F20003 		movt	r3, #:upper16:1073767501
 389 0012 FA88     		ldrh	r2, [r7, #6]	@ movhi
 390 0014 1A80     		strh	r2, [r3, #0]	@ movhi
 492:.\Generated_Source\PSoC5/PwmPiezo.c ****     #endif
 493:.\Generated_Source\PSoC5/PwmPiezo.c **** }
 391              		.loc 1 493 0
 392 0016 07F10C07 		add	r7, r7, #12
 393 001a BD46     		mov	sp, r7
 394 001c 80BC     		pop	{r7}
 395 001e 7047     		bx	lr
 396              		.cfi_endproc
 397              	.LFE7:
 398              		.size	PwmPiezo_WritePeriod, .-PwmPiezo_WritePeriod
 399              		.section	.text.PwmPiezo_WriteCompare,"ax",%progbits
 400              		.align	2
 401              		.global	PwmPiezo_WriteCompare
 402              		.thumb
 403              		.thumb_func
 404              		.type	PwmPiezo_WriteCompare, %function
 405              	PwmPiezo_WriteCompare:
 406              	.LFB8:
 494:.\Generated_Source\PSoC5/PwmPiezo.c **** 
 495:.\Generated_Source\PSoC5/PwmPiezo.c **** 
 496:.\Generated_Source\PSoC5/PwmPiezo.c **** #if (PwmPiezo_UseOneCompareMode)
 497:.\Generated_Source\PSoC5/PwmPiezo.c **** /*******************************************************************************
 498:.\Generated_Source\PSoC5/PwmPiezo.c **** * Function Name: PwmPiezo_WriteCompare
 499:.\Generated_Source\PSoC5/PwmPiezo.c **** ********************************************************************************
 500:.\Generated_Source\PSoC5/PwmPiezo.c **** * 
 501:.\Generated_Source\PSoC5/PwmPiezo.c **** * Summary:
 502:.\Generated_Source\PSoC5/PwmPiezo.c **** *  This funtion is used to change the compare1 value when the PWM is in Dither
ARM GAS  C:\Users\Geo\AppData\Local\Temp\cc4G7ue8.s 			page 17


 503:.\Generated_Source\PSoC5/PwmPiezo.c **** *  mode. The compare output will reflect the new value on the next UDB clock. 
 504:.\Generated_Source\PSoC5/PwmPiezo.c **** *  The compare output will be driven high when the present counter value is 
 505:.\Generated_Source\PSoC5/PwmPiezo.c **** *  compared to the compare value based on the compare mode defined in 
 506:.\Generated_Source\PSoC5/PwmPiezo.c **** *  Dither Mode.
 507:.\Generated_Source\PSoC5/PwmPiezo.c **** *
 508:.\Generated_Source\PSoC5/PwmPiezo.c **** * Parameters:  
 509:.\Generated_Source\PSoC5/PwmPiezo.c **** *  compare:  New compare value.  
 510:.\Generated_Source\PSoC5/PwmPiezo.c **** *
 511:.\Generated_Source\PSoC5/PwmPiezo.c **** * Return: 
 512:.\Generated_Source\PSoC5/PwmPiezo.c **** *  void
 513:.\Generated_Source\PSoC5/PwmPiezo.c **** *
 514:.\Generated_Source\PSoC5/PwmPiezo.c **** * Side Effects:
 515:.\Generated_Source\PSoC5/PwmPiezo.c **** *  This function is only available if the PWM mode parameter is set to
 516:.\Generated_Source\PSoC5/PwmPiezo.c **** *  Dither Mode, Center Aligned Mode or One Output Mode
 517:.\Generated_Source\PSoC5/PwmPiezo.c **** *
 518:.\Generated_Source\PSoC5/PwmPiezo.c **** * Reentrant:
 519:.\Generated_Source\PSoC5/PwmPiezo.c **** *  Yes
 520:.\Generated_Source\PSoC5/PwmPiezo.c **** *
 521:.\Generated_Source\PSoC5/PwmPiezo.c **** *******************************************************************************/
 522:.\Generated_Source\PSoC5/PwmPiezo.c **** void PwmPiezo_WriteCompare(uint16 compare) 
 523:.\Generated_Source\PSoC5/PwmPiezo.c **** {
 407              		.loc 1 523 0
 408              		.cfi_startproc
 409              		@ args = 0, pretend = 0, frame = 8
 410              		@ frame_needed = 1, uses_anonymous_args = 0
 411              		@ link register save eliminated.
 412 0000 80B4     		push	{r7}
 413              	.LCFI19:
 414              		.cfi_def_cfa_offset 4
 415 0002 83B0     		sub	sp, sp, #12
 416              	.LCFI20:
 417              		.cfi_def_cfa_offset 16
 418 0004 00AF     		add	r7, sp, #0
 419              		.cfi_offset 7, -4
 420              	.LCFI21:
 421              		.cfi_def_cfa_register 7
 422 0006 0346     		mov	r3, r0
 423 0008 FB80     		strh	r3, [r7, #6]	@ movhi
 524:.\Generated_Source\PSoC5/PwmPiezo.c ****    CY_SET_REG16(PwmPiezo_COMPARE1_LSB_PTR, compare);
 424              		.loc 1 524 0
 425 000a 46F22D43 		movw	r3, #:lower16:1073767469
 426 000e C4F20003 		movt	r3, #:upper16:1073767469
 427 0012 FA88     		ldrh	r2, [r7, #6]	@ movhi
 428 0014 1A80     		strh	r2, [r3, #0]	@ movhi
 525:.\Generated_Source\PSoC5/PwmPiezo.c ****    #if (PwmPiezo_PWMMode == PwmPiezo__B_PWM__DITHER)
 526:.\Generated_Source\PSoC5/PwmPiezo.c ****         CY_SET_REG16(PwmPiezo_COMPARE2_LSB_PTR, compare+1);
 527:.\Generated_Source\PSoC5/PwmPiezo.c ****    #endif
 528:.\Generated_Source\PSoC5/PwmPiezo.c **** }
 429              		.loc 1 528 0
 430 0016 07F10C07 		add	r7, r7, #12
 431 001a BD46     		mov	sp, r7
 432 001c 80BC     		pop	{r7}
 433 001e 7047     		bx	lr
 434              		.cfi_endproc
 435              	.LFE8:
 436              		.size	PwmPiezo_WriteCompare, .-PwmPiezo_WriteCompare
 437              		.text
ARM GAS  C:\Users\Geo\AppData\Local\Temp\cc4G7ue8.s 			page 18


 438              	.Letext0: