ARM GAS  C:\Users\Geo\AppData\Local\Temp\cc9KdAad.s 			page 1


   1              		.syntax unified
   2              		.cpu cortex-m3
   3              		.fpu softvfp
   4              		.eabi_attribute 20, 1
   5              		.eabi_attribute 21, 1
   6              		.eabi_attribute 23, 3
   7              		.eabi_attribute 24, 1
   8              		.eabi_attribute 25, 1
   9              		.eabi_attribute 26, 1
  10              		.eabi_attribute 30, 6
  11              		.eabi_attribute 18, 4
  12              		.thumb
  13              		.file	"UartXbee_INT.c"
  20 0000 B6000000 		.text
  20      02006500 
  20      00000201 
  20      FB0E0D00 
  20      01010101 
  21              	.Ltext0:
  22              		.cfi_sections	.debug_frame
  23              		.section	.text.UartXbee_RXISR,"ax",%progbits
  24              		.align	2
  25              		.global	UartXbee_RXISR
  26              		.thumb
  27              		.thumb_func
  28              		.type	UartXbee_RXISR, %function
  29              	UartXbee_RXISR:
  30              	.LFB0:
  31              		.file 1 ".\\Generated_Source\\PSoC5\\UartXbee_INT.c"
   1:.\Generated_Source\PSoC5/UartXbee_INT.c **** /*******************************************************************************
   2:.\Generated_Source\PSoC5/UartXbee_INT.c **** * File Name: UartXbee_INT.c
   3:.\Generated_Source\PSoC5/UartXbee_INT.c **** * Version 2.10
   4:.\Generated_Source\PSoC5/UartXbee_INT.c **** *
   5:.\Generated_Source\PSoC5/UartXbee_INT.c **** * Description:
   6:.\Generated_Source\PSoC5/UartXbee_INT.c **** *  This file provides all Interrupt Service functionality of the UART component
   7:.\Generated_Source\PSoC5/UartXbee_INT.c **** *
   8:.\Generated_Source\PSoC5/UartXbee_INT.c **** * Note:
   9:.\Generated_Source\PSoC5/UartXbee_INT.c **** *  Any unusual or non-standard behavior should be noted here. Other-
  10:.\Generated_Source\PSoC5/UartXbee_INT.c **** *  wise, this section should remain blank.
  11:.\Generated_Source\PSoC5/UartXbee_INT.c **** *
  12:.\Generated_Source\PSoC5/UartXbee_INT.c **** *******************************************************************************
  13:.\Generated_Source\PSoC5/UartXbee_INT.c **** * Copyright 2008-2011, Cypress Semiconductor Corporation.  All rights reserved.
  14:.\Generated_Source\PSoC5/UartXbee_INT.c **** * You may use this file only in accordance with the license, terms, conditions,
  15:.\Generated_Source\PSoC5/UartXbee_INT.c **** * disclaimers, and limitations in the end user license agreement accompanying
  16:.\Generated_Source\PSoC5/UartXbee_INT.c **** * the software package with which this file was provided.
  17:.\Generated_Source\PSoC5/UartXbee_INT.c **** ********************************************************************************/
  18:.\Generated_Source\PSoC5/UartXbee_INT.c **** 
  19:.\Generated_Source\PSoC5/UartXbee_INT.c **** #include "UartXbee.h"
  20:.\Generated_Source\PSoC5/UartXbee_INT.c **** #include "CyLib.h"
  21:.\Generated_Source\PSoC5/UartXbee_INT.c **** 
  22:.\Generated_Source\PSoC5/UartXbee_INT.c **** 
ARM GAS  C:\Users\Geo\AppData\Local\Temp\cc9KdAad.s 			page 2


  23:.\Generated_Source\PSoC5/UartXbee_INT.c **** /***************************************
  24:.\Generated_Source\PSoC5/UartXbee_INT.c **** * Custom Declratations
  25:.\Generated_Source\PSoC5/UartXbee_INT.c **** ***************************************/
  26:.\Generated_Source\PSoC5/UartXbee_INT.c **** /* `#START CUSTOM_DECLARATIONS` Place your declaration here */
  27:.\Generated_Source\PSoC5/UartXbee_INT.c **** 
  28:.\Generated_Source\PSoC5/UartXbee_INT.c **** /* `#END` */
  29:.\Generated_Source\PSoC5/UartXbee_INT.c **** 
  30:.\Generated_Source\PSoC5/UartXbee_INT.c **** #if( (UartXbee_RX_ENABLED || UartXbee_HD_ENABLED) && \
  31:.\Generated_Source\PSoC5/UartXbee_INT.c ****      (UartXbee_RXBUFFERSIZE > UartXbee_FIFO_LENGTH))
  32:.\Generated_Source\PSoC5/UartXbee_INT.c **** 
  33:.\Generated_Source\PSoC5/UartXbee_INT.c ****     extern volatile uint8 UartXbee_rxBuffer[];
  34:.\Generated_Source\PSoC5/UartXbee_INT.c ****     extern volatile uint8 UartXbee_rxBufferRead;
  35:.\Generated_Source\PSoC5/UartXbee_INT.c ****     extern volatile uint8 UartXbee_rxBufferWrite;
  36:.\Generated_Source\PSoC5/UartXbee_INT.c ****     extern volatile uint8 UartXbee_rxBufferLoopDetect;
  37:.\Generated_Source\PSoC5/UartXbee_INT.c ****     extern volatile uint8 UartXbee_rxBufferOverflow;
  38:.\Generated_Source\PSoC5/UartXbee_INT.c ****     #if (UartXbee_RXHW_ADDRESS_ENABLED)
  39:.\Generated_Source\PSoC5/UartXbee_INT.c ****         extern volatile uint8 UartXbee_rxAddressMode;
  40:.\Generated_Source\PSoC5/UartXbee_INT.c ****         extern volatile uint8 UartXbee_rxAddressDetected;
  41:.\Generated_Source\PSoC5/UartXbee_INT.c ****     #endif /* End EnableHWAddress */    
  42:.\Generated_Source\PSoC5/UartXbee_INT.c **** 
  43:.\Generated_Source\PSoC5/UartXbee_INT.c ****     /*******************************************************************************
  44:.\Generated_Source\PSoC5/UartXbee_INT.c ****     * Function Name: UartXbee_RXISR
  45:.\Generated_Source\PSoC5/UartXbee_INT.c ****     ********************************************************************************
  46:.\Generated_Source\PSoC5/UartXbee_INT.c ****     *
  47:.\Generated_Source\PSoC5/UartXbee_INT.c ****     * Summary:
  48:.\Generated_Source\PSoC5/UartXbee_INT.c ****     *  Interrupt Service Routine for RX portion of the UART
  49:.\Generated_Source\PSoC5/UartXbee_INT.c ****     *
  50:.\Generated_Source\PSoC5/UartXbee_INT.c ****     * Parameters:
  51:.\Generated_Source\PSoC5/UartXbee_INT.c ****     *  None.
  52:.\Generated_Source\PSoC5/UartXbee_INT.c ****     *
  53:.\Generated_Source\PSoC5/UartXbee_INT.c ****     * Return:
  54:.\Generated_Source\PSoC5/UartXbee_INT.c ****     *  None.
  55:.\Generated_Source\PSoC5/UartXbee_INT.c ****     *
  56:.\Generated_Source\PSoC5/UartXbee_INT.c ****     * Global Variables:
  57:.\Generated_Source\PSoC5/UartXbee_INT.c ****     *  UartXbee_rxBuffer - RAM buffer pointer for save received data.
  58:.\Generated_Source\PSoC5/UartXbee_INT.c ****     *  UartXbee_rxBufferWrite - cyclic index for write to rxBuffer, 
  59:.\Generated_Source\PSoC5/UartXbee_INT.c ****     *     increments after each byte saved to buffer.
  60:.\Generated_Source\PSoC5/UartXbee_INT.c ****     *  UartXbee_rxBufferRead - cyclic index for read from rxBuffer, 
  61:.\Generated_Source\PSoC5/UartXbee_INT.c ****     *     checked to detect overflow condition.
  62:.\Generated_Source\PSoC5/UartXbee_INT.c ****     *  UartXbee_rxBufferOverflow - software overflow flag. Set to one
  63:.\Generated_Source\PSoC5/UartXbee_INT.c ****     *     when UartXbee_rxBufferWrite index overtakes 
  64:.\Generated_Source\PSoC5/UartXbee_INT.c ****     *     UartXbee_rxBufferRead index.
  65:.\Generated_Source\PSoC5/UartXbee_INT.c ****     *  UartXbee_rxBufferLoopDetect - additional variable to detect overflow.
  66:.\Generated_Source\PSoC5/UartXbee_INT.c ****     *     Set to one when UartXbee_rxBufferWrite is equal to 
  67:.\Generated_Source\PSoC5/UartXbee_INT.c ****     *    UartXbee_rxBufferRead
  68:.\Generated_Source\PSoC5/UartXbee_INT.c ****     *  UartXbee_rxAddressMode - this variable contains the Address mode, 
  69:.\Generated_Source\PSoC5/UartXbee_INT.c ****     *     selected in customizer or set by UART_SetRxAddressMode() API.
  70:.\Generated_Source\PSoC5/UartXbee_INT.c ****     *  UartXbee_rxAddressDetected - set to 1 when correct address received,
  71:.\Generated_Source\PSoC5/UartXbee_INT.c ****     *     and analysed to store following addressed data bytes to the buffer.
  72:.\Generated_Source\PSoC5/UartXbee_INT.c ****     *     When not correct address received, set to 0 to skip following data bytes.
  73:.\Generated_Source\PSoC5/UartXbee_INT.c ****     *
  74:.\Generated_Source\PSoC5/UartXbee_INT.c ****     *******************************************************************************/
  75:.\Generated_Source\PSoC5/UartXbee_INT.c ****     CY_ISR(UartXbee_RXISR)
  76:.\Generated_Source\PSoC5/UartXbee_INT.c ****     {
  32              		.loc 1 76 0
  33              		.cfi_startproc
  34              		@ args = 0, pretend = 0, frame = 8
ARM GAS  C:\Users\Geo\AppData\Local\Temp\cc9KdAad.s 			page 3


  35              		@ frame_needed = 1, uses_anonymous_args = 0
  36              		@ link register save eliminated.
  37 0000 80B4     		push	{r7}
  38              	.LCFI0:
  39              		.cfi_def_cfa_offset 4
  40 0002 83B0     		sub	sp, sp, #12
  41              	.LCFI1:
  42              		.cfi_def_cfa_offset 16
  43 0004 00AF     		add	r7, sp, #0
  44              		.cfi_offset 7, -4
  45              	.LCFI2:
  46              		.cfi_def_cfa_register 7
  77:.\Generated_Source\PSoC5/UartXbee_INT.c ****         uint8 readData;
  78:.\Generated_Source\PSoC5/UartXbee_INT.c ****         uint8 increment_pointer = 0;
  47              		.loc 1 78 0
  48 0006 4FF00003 		mov	r3, #0
  49 000a FB71     		strb	r3, [r7, #7]
  79:.\Generated_Source\PSoC5/UartXbee_INT.c **** 
  80:.\Generated_Source\PSoC5/UartXbee_INT.c ****         /* User code required at start of ISR */
  81:.\Generated_Source\PSoC5/UartXbee_INT.c ****         /* `#START UartXbee_RXISR_START` */
  82:.\Generated_Source\PSoC5/UartXbee_INT.c **** 
  83:.\Generated_Source\PSoC5/UartXbee_INT.c ****         /* `#END` */
  84:.\Generated_Source\PSoC5/UartXbee_INT.c **** 
  85:.\Generated_Source\PSoC5/UartXbee_INT.c ****         readData = UartXbee_RXSTATUS_REG;
  50              		.loc 1 85 0
  51 000c 46F26753 		movw	r3, #:lower16:1073767783
  52 0010 C4F20003 		movt	r3, #:upper16:1073767783
  53 0014 1B78     		ldrb	r3, [r3, #0]
  54 0016 BB71     		strb	r3, [r7, #6]
  86:.\Generated_Source\PSoC5/UartXbee_INT.c **** 
  87:.\Generated_Source\PSoC5/UartXbee_INT.c ****         if((readData & (UartXbee_RX_STS_BREAK | UartXbee_RX_STS_PAR_ERROR |
  88:.\Generated_Source\PSoC5/UartXbee_INT.c ****                         UartXbee_RX_STS_STOP_ERROR | UartXbee_RX_STS_OVERRUN)) != 0)
  89:.\Generated_Source\PSoC5/UartXbee_INT.c ****         {
  90:.\Generated_Source\PSoC5/UartXbee_INT.c ****             /* ERROR handling. */
  91:.\Generated_Source\PSoC5/UartXbee_INT.c ****             /* `#START UartXbee_RXISR_ERROR` */
  92:.\Generated_Source\PSoC5/UartXbee_INT.c **** 
  93:.\Generated_Source\PSoC5/UartXbee_INT.c ****             /* `#END` */
  94:.\Generated_Source\PSoC5/UartXbee_INT.c ****         }
  95:.\Generated_Source\PSoC5/UartXbee_INT.c **** 
  96:.\Generated_Source\PSoC5/UartXbee_INT.c ****         while(readData & UartXbee_RX_STS_FIFO_NOTEMPTY)
  55              		.loc 1 96 0
  56 0018 5EE0     		b	.L2
  57              	.L6:
  97:.\Generated_Source\PSoC5/UartXbee_INT.c ****         {
  98:.\Generated_Source\PSoC5/UartXbee_INT.c ****             
  99:.\Generated_Source\PSoC5/UartXbee_INT.c ****             #if (UartXbee_RXHW_ADDRESS_ENABLED)
 100:.\Generated_Source\PSoC5/UartXbee_INT.c ****                 if(UartXbee_rxAddressMode == UartXbee__B_UART__AM_SW_DETECT_TO_BUFFER) 
 101:.\Generated_Source\PSoC5/UartXbee_INT.c ****                 {
 102:.\Generated_Source\PSoC5/UartXbee_INT.c ****                     if((readData & UartXbee_RX_STS_MRKSPC) != 0u )
 103:.\Generated_Source\PSoC5/UartXbee_INT.c ****                     {  
 104:.\Generated_Source\PSoC5/UartXbee_INT.c ****                         if ((readData & UartXbee_RX_STS_ADDR_MATCH) != 0)
 105:.\Generated_Source\PSoC5/UartXbee_INT.c ****                         {
 106:.\Generated_Source\PSoC5/UartXbee_INT.c ****                             UartXbee_rxAddressDetected = 1u;
 107:.\Generated_Source\PSoC5/UartXbee_INT.c ****                         }
 108:.\Generated_Source\PSoC5/UartXbee_INT.c ****                         else
 109:.\Generated_Source\PSoC5/UartXbee_INT.c ****                         {
 110:.\Generated_Source\PSoC5/UartXbee_INT.c ****                             UartXbee_rxAddressDetected = 0u;
ARM GAS  C:\Users\Geo\AppData\Local\Temp\cc9KdAad.s 			page 4


 111:.\Generated_Source\PSoC5/UartXbee_INT.c ****                         }
 112:.\Generated_Source\PSoC5/UartXbee_INT.c ****                     }
 113:.\Generated_Source\PSoC5/UartXbee_INT.c **** 
 114:.\Generated_Source\PSoC5/UartXbee_INT.c ****                     readData = UartXbee_RXDATA_REG;
 115:.\Generated_Source\PSoC5/UartXbee_INT.c ****                     if(UartXbee_rxAddressDetected != 0u)
 116:.\Generated_Source\PSoC5/UartXbee_INT.c ****                     {   /* store only addressed data */
 117:.\Generated_Source\PSoC5/UartXbee_INT.c ****                         UartXbee_rxBuffer[UartXbee_rxBufferWrite] = readData;
 118:.\Generated_Source\PSoC5/UartXbee_INT.c ****                         increment_pointer = 1u;
 119:.\Generated_Source\PSoC5/UartXbee_INT.c ****                     }
 120:.\Generated_Source\PSoC5/UartXbee_INT.c ****                 }
 121:.\Generated_Source\PSoC5/UartXbee_INT.c ****                 else /* without software addressing */
 122:.\Generated_Source\PSoC5/UartXbee_INT.c ****                 {
 123:.\Generated_Source\PSoC5/UartXbee_INT.c ****                     UartXbee_rxBuffer[UartXbee_rxBufferWrite] = UartXbee_RXDATA_REG;
 124:.\Generated_Source\PSoC5/UartXbee_INT.c ****                     increment_pointer = 1u;
 125:.\Generated_Source\PSoC5/UartXbee_INT.c ****                 }
 126:.\Generated_Source\PSoC5/UartXbee_INT.c ****             #else  /* without addressing */
 127:.\Generated_Source\PSoC5/UartXbee_INT.c ****                 UartXbee_rxBuffer[UartXbee_rxBufferWrite] = UartXbee_RXDATA_REG;
  58              		.loc 1 127 0
  59 001a 40F20003 		movw	r3, #:lower16:UartXbee_rxBufferWrite
  60 001e C0F20003 		movt	r3, #:upper16:UartXbee_rxBufferWrite
  61 0022 1B78     		ldrb	r3, [r3, #0]
  62 0024 DBB2     		uxtb	r3, r3
  63 0026 1A46     		mov	r2, r3
  64 0028 46F24853 		movw	r3, #:lower16:1073767752
  65 002c C4F20003 		movt	r3, #:upper16:1073767752
  66 0030 1B78     		ldrb	r3, [r3, #0]
  67 0032 D9B2     		uxtb	r1, r3
  68 0034 40F20003 		movw	r3, #:lower16:UartXbee_rxBuffer
  69 0038 C0F20003 		movt	r3, #:upper16:UartXbee_rxBuffer
  70 003c 9954     		strb	r1, [r3, r2]
 128:.\Generated_Source\PSoC5/UartXbee_INT.c ****                 increment_pointer = 1u;
  71              		.loc 1 128 0
  72 003e 4FF00103 		mov	r3, #1
  73 0042 FB71     		strb	r3, [r7, #7]
 129:.\Generated_Source\PSoC5/UartXbee_INT.c ****             #endif /* End SW_DETECT_TO_BUFFER */
 130:.\Generated_Source\PSoC5/UartXbee_INT.c ****             
 131:.\Generated_Source\PSoC5/UartXbee_INT.c ****             /* do not increment buffer pointer when skip not adderessed data */
 132:.\Generated_Source\PSoC5/UartXbee_INT.c ****             if( increment_pointer != 0u )
  74              		.loc 1 132 0
  75 0044 FB79     		ldrb	r3, [r7, #7]	@ zero_extendqisi2
  76 0046 002B     		cmp	r3, #0
  77 0048 40D0     		beq	.L3
 133:.\Generated_Source\PSoC5/UartXbee_INT.c ****             {
 134:.\Generated_Source\PSoC5/UartXbee_INT.c ****                 if(UartXbee_rxBufferLoopDetect)
  78              		.loc 1 134 0
  79 004a 40F20003 		movw	r3, #:lower16:UartXbee_rxBufferLoopDetect
  80 004e C0F20003 		movt	r3, #:upper16:UartXbee_rxBufferLoopDetect
  81 0052 1B78     		ldrb	r3, [r3, #0]
  82 0054 DBB2     		uxtb	r3, r3
  83 0056 002B     		cmp	r3, #0
  84 0058 06D0     		beq	.L4
 135:.\Generated_Source\PSoC5/UartXbee_INT.c ****                 {   /* Set Software Buffer status Overflow */
 136:.\Generated_Source\PSoC5/UartXbee_INT.c ****                     UartXbee_rxBufferOverflow = 1u;
  85              		.loc 1 136 0
  86 005a 40F20003 		movw	r3, #:lower16:UartXbee_rxBufferOverflow
  87 005e C0F20003 		movt	r3, #:upper16:UartXbee_rxBufferOverflow
  88 0062 4FF00102 		mov	r2, #1
ARM GAS  C:\Users\Geo\AppData\Local\Temp\cc9KdAad.s 			page 5


  89 0066 1A70     		strb	r2, [r3, #0]
  90              	.L4:
 137:.\Generated_Source\PSoC5/UartXbee_INT.c ****                 }
 138:.\Generated_Source\PSoC5/UartXbee_INT.c ****                 /* Set next pointer. */
 139:.\Generated_Source\PSoC5/UartXbee_INT.c ****                 UartXbee_rxBufferWrite++;
  91              		.loc 1 139 0
  92 0068 40F20003 		movw	r3, #:lower16:UartXbee_rxBufferWrite
  93 006c C0F20003 		movt	r3, #:upper16:UartXbee_rxBufferWrite
  94 0070 1B78     		ldrb	r3, [r3, #0]
  95 0072 DBB2     		uxtb	r3, r3
  96 0074 03F10103 		add	r3, r3, #1
  97 0078 DAB2     		uxtb	r2, r3
  98 007a 40F20003 		movw	r3, #:lower16:UartXbee_rxBufferWrite
  99 007e C0F20003 		movt	r3, #:upper16:UartXbee_rxBufferWrite
 100 0082 1A70     		strb	r2, [r3, #0]
 140:.\Generated_Source\PSoC5/UartXbee_INT.c **** 
 141:.\Generated_Source\PSoC5/UartXbee_INT.c ****                 /* Check pointer for a loop condition */
 142:.\Generated_Source\PSoC5/UartXbee_INT.c ****                 if(UartXbee_rxBufferWrite >= UartXbee_RXBUFFERSIZE)
 101              		.loc 1 142 0
 102 0084 40F20003 		movw	r3, #:lower16:UartXbee_rxBufferWrite
 103 0088 C0F20003 		movt	r3, #:upper16:UartXbee_rxBufferWrite
 104 008c 1B78     		ldrb	r3, [r3, #0]
 105 008e DBB2     		uxtb	r3, r3
 106 0090 312B     		cmp	r3, #49
 107 0092 06D9     		bls	.L5
 143:.\Generated_Source\PSoC5/UartXbee_INT.c ****                 {
 144:.\Generated_Source\PSoC5/UartXbee_INT.c ****                     UartXbee_rxBufferWrite = 0u;
 108              		.loc 1 144 0
 109 0094 40F20003 		movw	r3, #:lower16:UartXbee_rxBufferWrite
 110 0098 C0F20003 		movt	r3, #:upper16:UartXbee_rxBufferWrite
 111 009c 4FF00002 		mov	r2, #0
 112 00a0 1A70     		strb	r2, [r3, #0]
 113              	.L5:
 145:.\Generated_Source\PSoC5/UartXbee_INT.c ****                 }
 146:.\Generated_Source\PSoC5/UartXbee_INT.c ****                 /* Detect pre-overload condition and set flag */
 147:.\Generated_Source\PSoC5/UartXbee_INT.c ****                 if(UartXbee_rxBufferWrite == UartXbee_rxBufferRead)
 114              		.loc 1 147 0
 115 00a2 40F20003 		movw	r3, #:lower16:UartXbee_rxBufferWrite
 116 00a6 C0F20003 		movt	r3, #:upper16:UartXbee_rxBufferWrite
 117 00aa 1B78     		ldrb	r3, [r3, #0]
 118 00ac DAB2     		uxtb	r2, r3
 119 00ae 40F20003 		movw	r3, #:lower16:UartXbee_rxBufferRead
 120 00b2 C0F20003 		movt	r3, #:upper16:UartXbee_rxBufferRead
 121 00b6 1B78     		ldrb	r3, [r3, #0]
 122 00b8 DBB2     		uxtb	r3, r3
 123 00ba 9A42     		cmp	r2, r3
 124 00bc 06D1     		bne	.L3
 148:.\Generated_Source\PSoC5/UartXbee_INT.c ****                 {
 149:.\Generated_Source\PSoC5/UartXbee_INT.c ****                     UartXbee_rxBufferLoopDetect = 1u;
 125              		.loc 1 149 0
 126 00be 40F20003 		movw	r3, #:lower16:UartXbee_rxBufferLoopDetect
 127 00c2 C0F20003 		movt	r3, #:upper16:UartXbee_rxBufferLoopDetect
 128 00c6 4FF00102 		mov	r2, #1
 129 00ca 1A70     		strb	r2, [r3, #0]
 130              	.L3:
 150:.\Generated_Source\PSoC5/UartXbee_INT.c ****                     /* When Hardware Flow Control selected */
 151:.\Generated_Source\PSoC5/UartXbee_INT.c ****                     #if(UartXbee_FLOW_CONTROL != 0u)
ARM GAS  C:\Users\Geo\AppData\Local\Temp\cc9KdAad.s 			page 6


 152:.\Generated_Source\PSoC5/UartXbee_INT.c ****                     /* Disable RX interrupt mask, it will be enabled when user read data from the b
 153:.\Generated_Source\PSoC5/UartXbee_INT.c ****                         UartXbee_RXSTATUS_MASK_REG  &= ~UartXbee_RX_STS_FIFO_NOTEMPTY;
 154:.\Generated_Source\PSoC5/UartXbee_INT.c ****                         CyIntClearPending(UartXbee_RX_VECT_NUM); 
 155:.\Generated_Source\PSoC5/UartXbee_INT.c ****                         break; /* Break the reading of the FIFO loop, leave the data there for gene
 156:.\Generated_Source\PSoC5/UartXbee_INT.c ****                     #endif /* End UartXbee_FLOW_CONTROL != 0 */    
 157:.\Generated_Source\PSoC5/UartXbee_INT.c ****                 }
 158:.\Generated_Source\PSoC5/UartXbee_INT.c ****             }
 159:.\Generated_Source\PSoC5/UartXbee_INT.c **** 
 160:.\Generated_Source\PSoC5/UartXbee_INT.c ****             /* Check again if there is data. */
 161:.\Generated_Source\PSoC5/UartXbee_INT.c ****             readData = UartXbee_RXSTATUS_REG;
 131              		.loc 1 161 0
 132 00cc 46F26753 		movw	r3, #:lower16:1073767783
 133 00d0 C4F20003 		movt	r3, #:upper16:1073767783
 134 00d4 1B78     		ldrb	r3, [r3, #0]
 135 00d6 BB71     		strb	r3, [r7, #6]
 136              	.L2:
 137              		.loc 1 96 0
 138 00d8 BB79     		ldrb	r3, [r7, #6]	@ zero_extendqisi2
 139 00da 03F02003 		and	r3, r3, #32
 140 00de 002B     		cmp	r3, #0
 141 00e0 9BD1     		bne	.L6
 162:.\Generated_Source\PSoC5/UartXbee_INT.c ****         }
 163:.\Generated_Source\PSoC5/UartXbee_INT.c **** 
 164:.\Generated_Source\PSoC5/UartXbee_INT.c ****         /* User code required at end of ISR (Optional) */
 165:.\Generated_Source\PSoC5/UartXbee_INT.c ****         /* `#START UartXbee_RXISR_END` */
 166:.\Generated_Source\PSoC5/UartXbee_INT.c **** 
 167:.\Generated_Source\PSoC5/UartXbee_INT.c ****         /* `#END` */
 168:.\Generated_Source\PSoC5/UartXbee_INT.c **** 
 169:.\Generated_Source\PSoC5/UartXbee_INT.c ****         /* PSoC3 ES1, ES2 RTC ISR PATCH  */
 170:.\Generated_Source\PSoC5/UartXbee_INT.c ****         #if(CY_PSOC3_ES2 && (UartXbee_RXInternalInterrupt__ES2_PATCH))
 171:.\Generated_Source\PSoC5/UartXbee_INT.c ****             UartXbee_ISR_PATCH();
 172:.\Generated_Source\PSoC5/UartXbee_INT.c ****         #endif /* End CY_PSOC3_ES2*/
 173:.\Generated_Source\PSoC5/UartXbee_INT.c ****     }
 142              		.loc 1 173 0
 143 00e2 07F10C07 		add	r7, r7, #12
 144 00e6 BD46     		mov	sp, r7
 145 00e8 80BC     		pop	{r7}
 146 00ea 7047     		bx	lr
 147              		.cfi_endproc
 148              	.LFE0:
 149              		.size	UartXbee_RXISR, .-UartXbee_RXISR
 150              		.section	.text.UartXbee_TXISR,"ax",%progbits
 151              		.align	2
 152              		.global	UartXbee_TXISR
 153              		.thumb
 154              		.thumb_func
 155              		.type	UartXbee_TXISR, %function
 156              	UartXbee_TXISR:
 157              	.LFB1:
 174:.\Generated_Source\PSoC5/UartXbee_INT.c **** 
 175:.\Generated_Source\PSoC5/UartXbee_INT.c **** #endif /* End UartXbee_RX_ENABLED && (UartXbee_RXBUFFERSIZE > UartXbee_FIFO_LENGTH) */
 176:.\Generated_Source\PSoC5/UartXbee_INT.c **** 
 177:.\Generated_Source\PSoC5/UartXbee_INT.c **** 
 178:.\Generated_Source\PSoC5/UartXbee_INT.c **** #if(UartXbee_TX_ENABLED && (UartXbee_TXBUFFERSIZE > UartXbee_FIFO_LENGTH))
 179:.\Generated_Source\PSoC5/UartXbee_INT.c **** 
 180:.\Generated_Source\PSoC5/UartXbee_INT.c ****     extern volatile uint8 UartXbee_txBuffer[];
 181:.\Generated_Source\PSoC5/UartXbee_INT.c ****     extern volatile uint8 UartXbee_txBufferRead;
ARM GAS  C:\Users\Geo\AppData\Local\Temp\cc9KdAad.s 			page 7


 182:.\Generated_Source\PSoC5/UartXbee_INT.c ****     extern uint8 UartXbee_txBufferWrite;
 183:.\Generated_Source\PSoC5/UartXbee_INT.c **** 
 184:.\Generated_Source\PSoC5/UartXbee_INT.c **** 
 185:.\Generated_Source\PSoC5/UartXbee_INT.c ****     /*******************************************************************************
 186:.\Generated_Source\PSoC5/UartXbee_INT.c ****     * Function Name: UartXbee_TXISR
 187:.\Generated_Source\PSoC5/UartXbee_INT.c ****     ********************************************************************************
 188:.\Generated_Source\PSoC5/UartXbee_INT.c ****     *
 189:.\Generated_Source\PSoC5/UartXbee_INT.c ****     * Summary:
 190:.\Generated_Source\PSoC5/UartXbee_INT.c ****     * Interrupt Service Routine for the TX portion of the UART
 191:.\Generated_Source\PSoC5/UartXbee_INT.c ****     *
 192:.\Generated_Source\PSoC5/UartXbee_INT.c ****     * Parameters:
 193:.\Generated_Source\PSoC5/UartXbee_INT.c ****     *  None.
 194:.\Generated_Source\PSoC5/UartXbee_INT.c ****     *
 195:.\Generated_Source\PSoC5/UartXbee_INT.c ****     * Return:
 196:.\Generated_Source\PSoC5/UartXbee_INT.c ****     *  None.
 197:.\Generated_Source\PSoC5/UartXbee_INT.c ****     *
 198:.\Generated_Source\PSoC5/UartXbee_INT.c ****     * Global Variables:
 199:.\Generated_Source\PSoC5/UartXbee_INT.c ****     *  UartXbee_txBuffer - RAM buffer pointer for transmit data from.
 200:.\Generated_Source\PSoC5/UartXbee_INT.c ****     *  UartXbee_txBufferRead - cyclic index for read and transmit data 
 201:.\Generated_Source\PSoC5/UartXbee_INT.c ****     *     from txBuffer, increments after each transmited byte.
 202:.\Generated_Source\PSoC5/UartXbee_INT.c ****     *  UartXbee_rxBufferWrite - cyclic index for write to txBuffer, 
 203:.\Generated_Source\PSoC5/UartXbee_INT.c ****     *     checked to detect available for transmission bytes.
 204:.\Generated_Source\PSoC5/UartXbee_INT.c ****     *
 205:.\Generated_Source\PSoC5/UartXbee_INT.c ****     *******************************************************************************/
 206:.\Generated_Source\PSoC5/UartXbee_INT.c ****     CY_ISR(UartXbee_TXISR)
 207:.\Generated_Source\PSoC5/UartXbee_INT.c ****     {
 158              		.loc 1 207 0
 159              		.cfi_startproc
 160              		@ args = 0, pretend = 0, frame = 0
 161              		@ frame_needed = 1, uses_anonymous_args = 0
 162              		@ link register save eliminated.
 163 0000 80B4     		push	{r7}
 164              	.LCFI3:
 165              		.cfi_def_cfa_offset 4
 166 0002 00AF     		add	r7, sp, #0
 167              		.cfi_offset 7, -4
 168              	.LCFI4:
 169              		.cfi_def_cfa_register 7
 208:.\Generated_Source\PSoC5/UartXbee_INT.c **** 
 209:.\Generated_Source\PSoC5/UartXbee_INT.c ****         /* User code required at start of ISR */
 210:.\Generated_Source\PSoC5/UartXbee_INT.c ****         /* `#START UartXbee_TXISR_START` */
 211:.\Generated_Source\PSoC5/UartXbee_INT.c **** 
 212:.\Generated_Source\PSoC5/UartXbee_INT.c ****         /* `#END` */
 213:.\Generated_Source\PSoC5/UartXbee_INT.c **** 
 214:.\Generated_Source\PSoC5/UartXbee_INT.c ****         while((UartXbee_txBufferRead != UartXbee_txBufferWrite) && \
 170              		.loc 1 214 0
 171 0004 2EE0     		b	.L9
 172              	.L12:
 215:.\Generated_Source\PSoC5/UartXbee_INT.c ****              !(UartXbee_TXSTATUS_REG & UartXbee_TX_STS_FIFO_FULL))
 216:.\Generated_Source\PSoC5/UartXbee_INT.c ****         {
 217:.\Generated_Source\PSoC5/UartXbee_INT.c ****             /* Check pointer. */
 218:.\Generated_Source\PSoC5/UartXbee_INT.c ****             if(UartXbee_txBufferRead >= UartXbee_TXBUFFERSIZE)
 173              		.loc 1 218 0
 174 0006 40F20003 		movw	r3, #:lower16:UartXbee_txBufferRead
 175 000a C0F20003 		movt	r3, #:upper16:UartXbee_txBufferRead
 176 000e 1B78     		ldrb	r3, [r3, #0]
 177 0010 DBB2     		uxtb	r3, r3
ARM GAS  C:\Users\Geo\AppData\Local\Temp\cc9KdAad.s 			page 8


 178 0012 312B     		cmp	r3, #49
 179 0014 06D9     		bls	.L10
 219:.\Generated_Source\PSoC5/UartXbee_INT.c ****             {
 220:.\Generated_Source\PSoC5/UartXbee_INT.c ****                 UartXbee_txBufferRead = 0u;
 180              		.loc 1 220 0
 181 0016 40F20003 		movw	r3, #:lower16:UartXbee_txBufferRead
 182 001a C0F20003 		movt	r3, #:upper16:UartXbee_txBufferRead
 183 001e 4FF00002 		mov	r2, #0
 184 0022 1A70     		strb	r2, [r3, #0]
 185              	.L10:
 221:.\Generated_Source\PSoC5/UartXbee_INT.c ****             }
 222:.\Generated_Source\PSoC5/UartXbee_INT.c **** 
 223:.\Generated_Source\PSoC5/UartXbee_INT.c ****             UartXbee_TXDATA_REG = UartXbee_txBuffer[UartXbee_txBufferRead];
 186              		.loc 1 223 0
 187 0024 46F24753 		movw	r3, #:lower16:1073767751
 188 0028 C4F20003 		movt	r3, #:upper16:1073767751
 189 002c 40F20002 		movw	r2, #:lower16:UartXbee_txBufferRead
 190 0030 C0F20002 		movt	r2, #:upper16:UartXbee_txBufferRead
 191 0034 1278     		ldrb	r2, [r2, #0]
 192 0036 D2B2     		uxtb	r2, r2
 193 0038 1146     		mov	r1, r2
 194 003a 40F20002 		movw	r2, #:lower16:UartXbee_txBuffer
 195 003e C0F20002 		movt	r2, #:upper16:UartXbee_txBuffer
 196 0042 525C     		ldrb	r2, [r2, r1]
 197 0044 D2B2     		uxtb	r2, r2
 198 0046 1A70     		strb	r2, [r3, #0]
 224:.\Generated_Source\PSoC5/UartXbee_INT.c **** 
 225:.\Generated_Source\PSoC5/UartXbee_INT.c ****             /* Set next pointer. */
 226:.\Generated_Source\PSoC5/UartXbee_INT.c ****             UartXbee_txBufferRead++;
 199              		.loc 1 226 0
 200 0048 40F20003 		movw	r3, #:lower16:UartXbee_txBufferRead
 201 004c C0F20003 		movt	r3, #:upper16:UartXbee_txBufferRead
 202 0050 1B78     		ldrb	r3, [r3, #0]
 203 0052 DBB2     		uxtb	r3, r3
 204 0054 03F10103 		add	r3, r3, #1
 205 0058 DAB2     		uxtb	r2, r3
 206 005a 40F20003 		movw	r3, #:lower16:UartXbee_txBufferRead
 207 005e C0F20003 		movt	r3, #:upper16:UartXbee_txBufferRead
 208 0062 1A70     		strb	r2, [r3, #0]
 209              	.L9:
 210              		.loc 1 214 0
 211 0064 40F20003 		movw	r3, #:lower16:UartXbee_txBufferRead
 212 0068 C0F20003 		movt	r3, #:upper16:UartXbee_txBufferRead
 213 006c 1B78     		ldrb	r3, [r3, #0]
 214 006e DAB2     		uxtb	r2, r3
 215 0070 40F20003 		movw	r3, #:lower16:UartXbee_txBufferWrite
 216 0074 C0F20003 		movt	r3, #:upper16:UartXbee_txBufferWrite
 217 0078 1B78     		ldrb	r3, [r3, #0]	@ zero_extendqisi2
 218 007a 9A42     		cmp	r2, r3
 219 007c 09D0     		beq	.L13
 220              		.loc 1 215 0
 221 007e 46F26653 		movw	r3, #:lower16:1073767782
 222 0082 C4F20003 		movt	r3, #:upper16:1073767782
 223 0086 1B78     		ldrb	r3, [r3, #0]
 224 0088 DBB2     		uxtb	r3, r3
 225 008a 03F00403 		and	r3, r3, #4
 226              		.loc 1 214 0
ARM GAS  C:\Users\Geo\AppData\Local\Temp\cc9KdAad.s 			page 9


 227 008e 002B     		cmp	r3, #0
 228 0090 B9D0     		beq	.L12
 229              	.L13:
 227:.\Generated_Source\PSoC5/UartXbee_INT.c ****         }
 228:.\Generated_Source\PSoC5/UartXbee_INT.c **** 
 229:.\Generated_Source\PSoC5/UartXbee_INT.c ****         /* User code required at end of ISR (Optional) */
 230:.\Generated_Source\PSoC5/UartXbee_INT.c ****         /* `#START UartXbee_TXISR_END` */
 231:.\Generated_Source\PSoC5/UartXbee_INT.c **** 
 232:.\Generated_Source\PSoC5/UartXbee_INT.c ****         /* `#END` */
 233:.\Generated_Source\PSoC5/UartXbee_INT.c ****         
 234:.\Generated_Source\PSoC5/UartXbee_INT.c ****         /* PSoC3 ES1, ES2 RTC ISR PATCH  */
 235:.\Generated_Source\PSoC5/UartXbee_INT.c ****         #if(CY_PSOC3_ES2 && (UartXbee_TXInternalInterrupt__ES2_PATCH))
 236:.\Generated_Source\PSoC5/UartXbee_INT.c ****             UartXbee_ISR_PATCH();
 237:.\Generated_Source\PSoC5/UartXbee_INT.c ****         #endif /* End CY_PSOC3_ES2*/
 238:.\Generated_Source\PSoC5/UartXbee_INT.c ****     }
 230              		.loc 1 238 0
 231 0092 BD46     		mov	sp, r7
 232 0094 80BC     		pop	{r7}
 233 0096 7047     		bx	lr
 234              		.cfi_endproc
 235              	.LFE1:
 236              		.size	UartXbee_TXISR, .-UartXbee_TXISR
 237              		.text
 238              	.Letext0: